
..\imgs\boot.tmp:     file format pei-i386


Disassembly of section .text:

00000000 <.text>:
       0:	66 8c c8             	mov    eax,cs
       3:	8e d8                	mov    ds,ax
       5:	8e c0                	mov    es,ax
       7:	8e d0                	mov    ss,ax
       9:	8e e8                	mov    gs,ax
       b:	66 e8 e4 11 00 00    	call   11f5 <_inisys>
      11:	eb 00                	jmp    13 <__main>

00000013 <__main>:
_main():
D:\OneDrive\Study\Operating Systems\MyOs\project9\codes/./kernel/os.c:41
{
	int i;
	struct testMalloc * next;
};

int _main() {
      13:	66 55                	push   ebp
      15:	66 89 e5             	mov    ebp,esp
      18:	66 57                	push   edi
      1a:	66 56                	push   esi
      1c:	66 53                	push   ebx
      1e:	66 81 ec 14 01 00 00 	sub    esp,0x114
D:\OneDrive\Study\Operating Systems\MyOs\project9\codes/./kernel/os.c:42
	runSub = 0;
      25:	66 c7 06 bc a3 00 00 	mov    DWORD PTR ds:0xa3bc,0x0
      2c:	00 00 
D:\OneDrive\Study\Operating Systems\MyOs\project9\codes/./kernel/os.c:43
	curProcessId = 0;
      2e:	66 c7 06 70 e9 00 00 	mov    DWORD PTR ds:0xe970,0x0
      35:	00 00 
D:\OneDrive\Study\Operating Systems\MyOs\project9\codes/./kernel/os.c:44
	ProcessSize = 1;
      37:	66 c7 06 dc a7 01 00 	mov    DWORD PTR ds:0xa7dc,0x1
      3e:	00 00 
D:\OneDrive\Study\Operating Systems\MyOs\project9\codes/./kernel/os.c:45
	curPageId = 1;
      40:	66 c7 06 80 a2 01 00 	mov    DWORD PTR ds:0xa280,0x1
      47:	00 00 
D:\OneDrive\Study\Operating Systems\MyOs\project9\codes/./kernel/os.c:46
	processTable[curPageId].pageID = curPageId;
      49:	66 8b 16 80 a2       	mov    edx,DWORD PTR ds:0xa280
      4e:	66 8b 0e 80 a2       	mov    ecx,DWORD PTR ds:0xa280
      53:	66 89 d0             	mov    eax,edx
      56:	66 c1 e0 03          	shl    eax,0x3
      5a:	66 01 d0             	add    eax,edx
      5d:	66 01 c0             	add    eax,eax
      60:	66 01 d0             	add    eax,edx
      63:	66 c1 e0 02          	shl    eax,0x2
      67:	66 01 d0             	add    eax,edx
      6a:	66 c1 e0 02          	shl    eax,0x2
      6e:	66 05 8c d2 00 00    	add    eax,0xd28c
      74:	67 66 89 08          	mov    DWORD PTR [eax],ecx
D:\OneDrive\Study\Operating Systems\MyOs\project9\codes/./kernel/os.c:47
	SizeOfProcessStruct = sizeof(struct Process);
      78:	66 c7 06 e4 a7 34 01 	mov    DWORD PTR ds:0xa7e4,0x134
      7f:	00 00 
D:\OneDrive\Study\Operating Systems\MyOs\project9\codes/./kernel/os.c:48
	initial();
      81:	66 e8 6f 32 00 00    	call   32f6 <_initial>
D:\OneDrive\Study\Operating Systems\MyOs\project9\codes/./kernel/os.c:51
	char * in;
	char * str;
	int tmp = -1;
      87:	67 66 c7 85 6c ff ff 	mov    DWORD PTR [ebp-0x94],0xffffffff
      8e:	ff ff ff ff ff 
D:\OneDrive\Study\Operating Systems\MyOs\project9\codes/./kernel/os.c:52
	init(&ReadyQue);
      93:	67 66 c7 04 24 80 e9 	mov    DWORD PTR [esp],0xe980
      9a:	00 00 
      9c:	66 e8 c3 78 00 00    	call   7965 <_init>
D:\OneDrive\Study\Operating Systems\MyOs\project9\codes/./kernel/os.c:53
	init(&BlockedQue);
      a2:	67 66 c7 04 24 80 a7 	mov    DWORD PTR [esp],0xa780
      a9:	00 00 
      ab:	66 e8 b4 78 00 00    	call   7965 <_init>
D:\OneDrive\Study\Operating Systems\MyOs\project9\codes/./kernel/os.c:54
	init(&SuspendQue);
      b1:	67 66 c7 04 24 00 d1 	mov    DWORD PTR [esp],0xd100
      b8:	00 00 
      ba:	66 e8 a5 78 00 00    	call   7965 <_init>
D:\OneDrive\Study\Operating Systems\MyOs\project9\codes/./kernel/os.c:55
	init(&KeyboardQue);
      c0:	67 66 c7 04 24 60 a3 	mov    DWORD PTR [esp],0xa360
      c7:	00 00 
      c9:	66 e8 96 78 00 00    	call   7965 <_init>
D:\OneDrive\Study\Operating Systems\MyOs\project9\codes/./kernel/os.c:80
	// int p = getPage();
	// int2str(p, tmpstr);
	// printSentence(tmpstr, 20, 0, 1, white);

	do {
		in = getInput();
      cf:	66 e8 00 18 00 00    	call   18d5 <_getInput>
      d5:	67 66 89 45 e0       	mov    DWORD PTR [ebp-0x20],eax
D:\OneDrive\Study\Operating Systems\MyOs\project9\codes/./kernel/os.c:99
		// 	__asm__("int $0x8\n");
		// 	runSub = 0;
		// 	clear();
		// }
		// else if (in[0] == 'r' && in[1] == 'u' && in[2] == 'n')
		if (in[0] == 'r' && in[1] == 'u' && in[2] == 'n')
      da:	67 66 8b 45 e0       	mov    eax,DWORD PTR [ebp-0x20]
      df:	67 8a 00             	mov    al,BYTE PTR [eax]
      e2:	3c 72                	cmp    al,0x72
      e4:	0f 85 2b 05          	jne    613 <.debug_line+0x3d5>
      e8:	67 66 8b 45 e0       	mov    eax,DWORD PTR [ebp-0x20]
      ed:	66 40                	inc    eax
      ef:	67 8a 00             	mov    al,BYTE PTR [eax]
      f2:	3c 75                	cmp    al,0x75
      f4:	0f 85 1b 05          	jne    613 <.debug_line+0x3d5>
      f8:	67 66 8b 45 e0       	mov    eax,DWORD PTR [ebp-0x20]
      fd:	66 83 c0 02          	add    eax,0x2
     101:	67 8a 00             	mov    al,BYTE PTR [eax]
     104:	3c 6e                	cmp    al,0x6e
     106:	0f 85 09 05          	jne    613 <.debug_line+0x3d5>
D:\OneDrive\Study\Operating Systems\MyOs\project9\codes/./kernel/os.c:101
		{
			printSentence("\n", line++, 0, strlen("\n"), white);
     10a:	67 66 c7 04 24 00 80 	mov    DWORD PTR [esp],0x8000
     111:	00 00 
     113:	66 e8 dc 32 00 00    	call   33f5 <_strlen>
     119:	66 89 c2             	mov    edx,eax
     11c:	66 a1 60 a2          	mov    eax,ds:0xa260
     120:	67 66 8d 48 01       	lea    ecx,[eax+0x1]
     125:	66 89 0e 60 a2       	mov    DWORD PTR ds:0xa260,ecx
     12a:	67 66 c7 44 24 10 0f 	mov    DWORD PTR [esp+0x10],0xf
     131:	00 00 00 
     134:	67 66 89 54 24 0c    	mov    DWORD PTR [esp+0xc],edx
     13a:	67 66 c7 44 24 08 00 	mov    DWORD PTR [esp+0x8],0x0
     141:	00 00 00 
     144:	67 66 89 44 24 04    	mov    DWORD PTR [esp+0x4],eax
     14a:	67 66 c7 04 24 00 80 	mov    DWORD PTR [esp],0x8000
     151:	00 00 
     153:	66 e8 2d 17 00 00    	call   1886 <_printSentence>
D:\OneDrive\Study\Operating Systems\MyOs\project9\codes/./kernel/os.c:103
			do {
				str = getInput();
     159:	66 e8 76 17 00 00    	call   18d5 <_getInput>
     15f:	67 66 89 45 98       	mov    DWORD PTR [ebp-0x68],eax
D:\OneDrive\Study\Operating Systems\MyOs\project9\codes/./kernel/os.c:104
				printSentence("\n", line++, 0, strlen("\n"), white);
     164:	67 66 c7 04 24 00 80 	mov    DWORD PTR [esp],0x8000
     16b:	00 00 
     16d:	66 e8 82 32 00 00    	call   33f5 <_strlen>
     173:	66 89 c2             	mov    edx,eax
     176:	66 a1 60 a2          	mov    eax,ds:0xa260
     17a:	67 66 8d 48 01       	lea    ecx,[eax+0x1]
     17f:	66 89 0e 60 a2       	mov    DWORD PTR ds:0xa260,ecx
     184:	67 66 c7 44 24 10 0f 	mov    DWORD PTR [esp+0x10],0xf
     18b:	00 00 00 
     18e:	67 66 89 54 24 0c    	mov    DWORD PTR [esp+0xc],edx
     194:	67 66 c7 44 24 08 00 	mov    DWORD PTR [esp+0x8],0x0
     19b:	00 00 00 
     19e:	67 66 89 44 24 04    	mov    DWORD PTR [esp+0x4],eax
     1a4:	67 66 c7 04 24 00 80 	mov    DWORD PTR [esp],0x8000
     1ab:	00 00 
     1ad:	66 e8 d3 16 00 00    	call   1886 <_printSentence>
D:\OneDrive\Study\Operating Systems\MyOs\project9\codes/./kernel/os.c:105
				if (str[0]) {
     1b3:	67 66 8b 45 98       	mov    eax,DWORD PTR [ebp-0x68]
     1b8:	67 8a 00             	mov    al,BYTE PTR [eax]
     1bb:	84 c0                	test   al,al
     1bd:	0f 84 31 03          	je     4f2 <.debug_line+0x2b4>
D:\OneDrive\Study\Operating Systems\MyOs\project9\codes/./kernel/os.c:106
					tmp = find(str);
     1c1:	67 66 8b 45 98       	mov    eax,DWORD PTR [ebp-0x68]
     1c6:	67 66 89 04 24       	mov    DWORD PTR [esp],eax
     1cb:	66 e8 ac 37 00 00    	call   397d <_find>
     1d1:	67 66 89 85 6c ff ff 	mov    DWORD PTR [ebp-0x94],eax
     1d8:	ff 
D:\OneDrive\Study\Operating Systems\MyOs\project9\codes/./kernel/os.c:107
					if (tmp != -1 && information[tmp].deleted != 1) {
     1d9:	67 66 8b 85 6c ff ff 	mov    eax,DWORD PTR [ebp-0x94]
     1e0:	ff 
     1e1:	66 83 f8 ff          	cmp    eax,0xffffffff
     1e5:	0f 84 09 03          	je     4f2 <.debug_line+0x2b4>
     1e9:	67 66 8b 95 6c ff ff 	mov    edx,DWORD PTR [ebp-0x94]
     1f0:	ff 
     1f1:	66 89 d0             	mov    eax,edx
     1f4:	66 01 c0             	add    eax,eax
     1f7:	66 01 d0             	add    eax,edx
     1fa:	66 c1 e0 02          	shl    eax,0x2
     1fe:	66 01 d0             	add    eax,edx
     201:	66 c1 e0 02          	shl    eax,0x2
     205:	66 01 d0             	add    eax,edx
     208:	66 c1 e0 02          	shl    eax,0x2
     20c:	66 05 8c c0 00 00    	add    eax,0xc08c
     212:	67 66 8b 00          	mov    eax,DWORD PTR [eax]
     216:	66 83 f8 01          	cmp    eax,0x1
     21a:	0f 84 d4 02          	je     4f2 <.debug_line+0x2b4>
D:\OneDrive\Study\Operating Systems\MyOs\project9\codes/./kernel/os.c:108
						int blockNum = findEnoughBlock(information[tmp].size + 1024);
     21e:	67 66 8b 95 6c ff ff 	mov    edx,DWORD PTR [ebp-0x94]
     225:	ff 
     226:	66 89 d0             	mov    eax,edx
     229:	66 01 c0             	add    eax,eax
     22c:	66 01 d0             	add    eax,edx
     22f:	66 c1 e0 02          	shl    eax,0x2
     233:	66 01 d0             	add    eax,edx
     236:	66 c1 e0 02          	shl    eax,0x2
     23a:	66 01 d0             	add    eax,edx
     23d:	66 c1 e0 02          	shl    eax,0x2
     241:	66 05 88 c0 00 00    	add    eax,0xc088
     247:	67 66 8b 00          	mov    eax,DWORD PTR [eax]
     24b:	66 05 00 04 00 00    	add    eax,0x400
     251:	67 66 89 04 24       	mov    DWORD PTR [esp],eax
     256:	66 e8 1a 6f 00 00    	call   7176 <_findEnoughBlock>
     25c:	67 66 89 45 94       	mov    DWORD PTR [ebp-0x6c],eax
D:\OneDrive\Study\Operating Systems\MyOs\project9\codes/./kernel/os.c:109
						blockNum = require(information[tmp].size + 1024, blockNum);
     261:	67 66 8b 95 6c ff ff 	mov    edx,DWORD PTR [ebp-0x94]
     268:	ff 
     269:	66 89 d0             	mov    eax,edx
     26c:	66 01 c0             	add    eax,eax
     26f:	66 01 d0             	add    eax,edx
     272:	66 c1 e0 02          	shl    eax,0x2
     276:	66 01 d0             	add    eax,edx
     279:	66 c1 e0 02          	shl    eax,0x2
     27d:	66 01 d0             	add    eax,edx
     280:	66 c1 e0 02          	shl    eax,0x2
     284:	66 05 88 c0 00 00    	add    eax,0xc088
     28a:	67 66 8b 00          	mov    eax,DWORD PTR [eax]
     28e:	67 66 8d 90 00 04 00 	lea    edx,[eax+0x400]
     295:	00 
     296:	67 66 8b 45 94       	mov    eax,DWORD PTR [ebp-0x6c]
     29b:	67 66 89 44 24 04    	mov    DWORD PTR [esp+0x4],eax
     2a1:	67 66 89 14 24       	mov    DWORD PTR [esp],edx
     2a6:	66 e8 73 6f 00 00    	call   721f <_require>
     2ac:	67 66 89 45 94       	mov    DWORD PTR [ebp-0x6c],eax
D:\OneDrive\Study\Operating Systems\MyOs\project9\codes/./kernel/os.c:111
						int offsetOfPrg, segOfPrg;
						int offsetMask = 0x0000ffff;
     2b1:	67 66 c7 45 90 ff ff 	mov    DWORD PTR [ebp-0x70],0xffff
     2b8:	00 00 
D:\OneDrive\Study\Operating Systems\MyOs\project9\codes/./kernel/os.c:112
						int segMask = 0xf0000;
     2ba:	67 66 c7 45 8c 00 00 	mov    DWORD PTR [ebp-0x74],0xf0000
     2c1:	0f 00 
D:\OneDrive\Study\Operating Systems\MyOs\project9\codes/./kernel/os.c:113
						offsetOfPrg = memoryTable[blockNum].beginAddr & offsetMask;
     2c3:	67 66 8b 55 94       	mov    edx,DWORD PTR [ebp-0x6c]
     2c8:	66 89 d0             	mov    eax,edx
     2cb:	66 01 c0             	add    eax,eax
     2ce:	66 01 d0             	add    eax,edx
     2d1:	66 c1 e0 03          	shl    eax,0x3
     2d5:	66 05 c0 a3 00 00    	add    eax,0xa3c0
     2db:	67 66 8b 00          	mov    eax,DWORD PTR [eax]
     2df:	67 66 23 45 90       	and    eax,DWORD PTR [ebp-0x70]
     2e4:	67 66 89 45 88       	mov    DWORD PTR [ebp-0x78],eax
D:\OneDrive\Study\Operating Systems\MyOs\project9\codes/./kernel/os.c:114
						segOfPrg = (memoryTable[blockNum].beginAddr & segMask) >> 4;
     2e9:	67 66 8b 55 94       	mov    edx,DWORD PTR [ebp-0x6c]
     2ee:	66 89 d0             	mov    eax,edx
     2f1:	66 01 c0             	add    eax,eax
     2f4:	66 01 d0             	add    eax,edx
     2f7:	66 c1 e0 03          	shl    eax,0x3
     2fb:	66 05 c0 a3 00 00    	add    eax,0xa3c0
     301:	67 66 8b 00          	mov    eax,DWORD PTR [eax]
     305:	67 66 23 45 8c       	and    eax,DWORD PTR [ebp-0x74]
     30a:	66 c1 f8 04          	sar    eax,0x4
     30e:	67 66 89 45 84       	mov    DWORD PTR [ebp-0x7c],eax
D:\OneDrive\Study\Operating Systems\MyOs\project9\codes/./kernel/os.c:115
						int cs = segOfPrg + (offsetOfPrg >> 4), ip = 0, ss = segOfPrg + (offsetOfPrg >> 4), sp = information[tmp].size + 1024 - 1;
     313:	67 66 8b 45 88       	mov    eax,DWORD PTR [ebp-0x78]
     318:	66 c1 f8 04          	sar    eax,0x4
     31c:	66 89 c2             	mov    edx,eax
     31f:	67 66 8b 45 84       	mov    eax,DWORD PTR [ebp-0x7c]
     324:	66 01 d0             	add    eax,edx
     327:	67 66 89 45 80       	mov    DWORD PTR [ebp-0x80],eax
     32c:	67 66 c7 85 7c ff ff 	mov    DWORD PTR [ebp-0x84],0x0
     333:	ff 00 00 00 00 
     338:	67 66 8b 45 88       	mov    eax,DWORD PTR [ebp-0x78]
     33d:	66 c1 f8 04          	sar    eax,0x4
     341:	66 89 c2             	mov    edx,eax
     344:	67 66 8b 45 84       	mov    eax,DWORD PTR [ebp-0x7c]
     349:	66 01 d0             	add    eax,edx
     34c:	67 66 89 85 78 ff ff 	mov    DWORD PTR [ebp-0x88],eax
     353:	ff 
     354:	67 66 8b 95 6c ff ff 	mov    edx,DWORD PTR [ebp-0x94]
     35b:	ff 
     35c:	66 89 d0             	mov    eax,edx
     35f:	66 01 c0             	add    eax,eax
     362:	66 01 d0             	add    eax,edx
     365:	66 c1 e0 02          	shl    eax,0x2
     369:	66 01 d0             	add    eax,edx
     36c:	66 c1 e0 02          	shl    eax,0x2
     370:	66 01 d0             	add    eax,edx
     373:	66 c1 e0 02          	shl    eax,0x2
     377:	66 05 88 c0 00 00    	add    eax,0xc088
     37d:	67 66 8b 00          	mov    eax,DWORD PTR [eax]
     381:	66 05 ff 03 00 00    	add    eax,0x3ff
     387:	67 66 89 85 74 ff ff 	mov    DWORD PTR [ebp-0x8c],eax
     38e:	ff 
D:\OneDrive\Study\Operating Systems\MyOs\project9\codes/./kernel/os.c:116
						createProcess(findNextProcessItem(), information[tmp].name, information[tmp].size + 1024, cs, ip, ss, sp, blockNum);
     38f:	67 66 8b 95 6c ff ff 	mov    edx,DWORD PTR [ebp-0x94]
     396:	ff 
     397:	66 89 d0             	mov    eax,edx
     39a:	66 01 c0             	add    eax,eax
     39d:	66 01 d0             	add    eax,edx
     3a0:	66 c1 e0 02          	shl    eax,0x2
     3a4:	66 01 d0             	add    eax,edx
     3a7:	66 c1 e0 02          	shl    eax,0x2
     3ab:	66 01 d0             	add    eax,edx
     3ae:	66 c1 e0 02          	shl    eax,0x2
     3b2:	66 05 88 c0 00 00    	add    eax,0xc088
     3b8:	67 66 8b 00          	mov    eax,DWORD PTR [eax]
     3bc:	67 66 8d b0 00 04 00 	lea    esi,[eax+0x400]
     3c3:	00 
     3c4:	67 66 8b 95 6c ff ff 	mov    edx,DWORD PTR [ebp-0x94]
     3cb:	ff 
     3cc:	66 89 d0             	mov    eax,edx
     3cf:	66 01 c0             	add    eax,eax
     3d2:	66 01 d0             	add    eax,edx
     3d5:	66 c1 e0 02          	shl    eax,0x2
     3d9:	66 01 d0             	add    eax,edx
     3dc:	66 c1 e0 02          	shl    eax,0x2
     3e0:	66 01 d0             	add    eax,edx
     3e3:	66 c1 e0 02          	shl    eax,0x2
     3e7:	67 66 8d 98 60 c0 00 	lea    ebx,[eax+0xc060]
     3ee:	00 
     3ef:	66 e8 ac 46 00 00    	call   4aa1 <_findNextProcessItem>
     3f5:	67 66 8b 55 94       	mov    edx,DWORD PTR [ebp-0x6c]
     3fa:	67 66 89 54 24 1c    	mov    DWORD PTR [esp+0x1c],edx
     400:	67 66 8b 95 74 ff ff 	mov    edx,DWORD PTR [ebp-0x8c]
     407:	ff 
     408:	67 66 89 54 24 18    	mov    DWORD PTR [esp+0x18],edx
     40e:	67 66 8b 95 78 ff ff 	mov    edx,DWORD PTR [ebp-0x88]
     415:	ff 
     416:	67 66 89 54 24 14    	mov    DWORD PTR [esp+0x14],edx
     41c:	67 66 8b 95 7c ff ff 	mov    edx,DWORD PTR [ebp-0x84]
     423:	ff 
     424:	67 66 89 54 24 10    	mov    DWORD PTR [esp+0x10],edx
     42a:	67 66 8b 55 80       	mov    edx,DWORD PTR [ebp-0x80]
     42f:	67 66 89 54 24 0c    	mov    DWORD PTR [esp+0xc],edx
     435:	67 66 89 74 24 08    	mov    DWORD PTR [esp+0x8],esi
     43b:	67 66 89 5c 24 04    	mov    DWORD PTR [esp+0x4],ebx
     441:	67 66 89 04 24       	mov    DWORD PTR [esp],eax
     446:	66 e8 7b 48 00 00    	call   4cc7 <_createProcess>
D:\OneDrive\Study\Operating Systems\MyOs\project9\codes/./kernel/os.c:117
						ProcessSize += 1;
     44c:	66 a1 dc a7          	mov    eax,ds:0xa7dc
     450:	66 40                	inc    eax
     452:	66 a3 dc a7          	mov    ds:0xa7dc,eax
D:\OneDrive\Study\Operating Systems\MyOs\project9\codes/./kernel/os.c:118
						loadReal(information[tmp].lmaddress, information[tmp].size, offsetOfPrg, segOfPrg);
     456:	67 66 8b 95 6c ff ff 	mov    edx,DWORD PTR [ebp-0x94]
     45d:	ff 
     45e:	66 89 d0             	mov    eax,edx
     461:	66 01 c0             	add    eax,eax
     464:	66 01 d0             	add    eax,edx
     467:	66 c1 e0 02          	shl    eax,0x2
     46b:	66 01 d0             	add    eax,edx
     46e:	66 c1 e0 02          	shl    eax,0x2
     472:	66 01 d0             	add    eax,edx
     475:	66 c1 e0 02          	shl    eax,0x2
     479:	66 05 88 c0 00 00    	add    eax,0xc088
     47f:	67 66 8b 08          	mov    ecx,DWORD PTR [eax]
     483:	67 66 8b 95 6c ff ff 	mov    edx,DWORD PTR [ebp-0x94]
     48a:	ff 
     48b:	66 89 d0             	mov    eax,edx
     48e:	66 01 c0             	add    eax,eax
     491:	66 01 d0             	add    eax,edx
     494:	66 c1 e0 02          	shl    eax,0x2
     498:	66 01 d0             	add    eax,edx
     49b:	66 c1 e0 02          	shl    eax,0x2
     49f:	66 01 d0             	add    eax,edx
     4a2:	66 c1 e0 02          	shl    eax,0x2
     4a6:	66 05 84 c0 00 00    	add    eax,0xc084
     4ac:	67 66 8b 00          	mov    eax,DWORD PTR [eax]
     4b0:	67 66 8b 55 84       	mov    edx,DWORD PTR [ebp-0x7c]
     4b5:	67 66 89 54 24 0c    	mov    DWORD PTR [esp+0xc],edx
     4bb:	67 66 8b 55 88       	mov    edx,DWORD PTR [ebp-0x78]
     4c0:	67 66 89 54 24 08    	mov    DWORD PTR [esp+0x8],edx
     4c6:	67 66 89 4c 24 04    	mov    DWORD PTR [esp+0x4],ecx
     4cc:	67 66 89 04 24       	mov    DWORD PTR [esp],eax
     4d1:	66 e8 6a 15 00 00    	call   1a41 <_loadReal>
D:\OneDrive\Study\Operating Systems\MyOs\project9\codes/./kernel/os.c:119
						enqueue(&ReadyQue, ProcessSize - 1);
     4d7:	66 a1 dc a7          	mov    eax,ds:0xa7dc
     4db:	66 48                	dec    eax
     4dd:	67 66 89 44 24 04    	mov    DWORD PTR [esp+0x4],eax
     4e3:	67 66 c7 04 24 80 e9 	mov    DWORD PTR [esp],0xe980
     4ea:	00 00 
     4ec:	66 e8 a6 74 00 00    	call   7998 <_enqueue>
D:\OneDrive\Study\Operating Systems\MyOs\project9\codes/./kernel/os.c:122
					}
				}
			} while (str[0] != '\0');
     4f2:	67 66 8b 45 98       	mov    eax,DWORD PTR [ebp-0x68]
     4f7:	67 8a 00             	mov    al,BYTE PTR [eax]
     4fa:	84 c0                	test   al,al
     4fc:	0f 85 59 fc          	jne    159 <.debug_abbrev+0x6>
D:\OneDrive\Study\Operating Systems\MyOs\project9\codes/./kernel/os.c:123
			int queSize = size(&BlockedQue);
     500:	67 66 c7 04 24 80 a7 	mov    DWORD PTR [esp],0xa780
     507:	00 00 
     509:	66 e8 43 74 00 00    	call   7952 <_size>
     50f:	67 66 89 85 70 ff ff 	mov    DWORD PTR [ebp-0x90],eax
     516:	ff 
D:\OneDrive\Study\Operating Systems\MyOs\project9\codes/./kernel/os.c:124
			for (int i = 0; i < queSize; ++i)
     517:	67 66 c7 45 f0 00 00 	mov    DWORD PTR [ebp-0x10],0x0
     51e:	00 00 
     520:	e9 c2 00             	jmp    5e5 <.debug_line+0x3a7>
D:\OneDrive\Study\Operating Systems\MyOs\project9\codes/./kernel/os.c:126
			{
				dequeue(&BlockedQue, &tmp);
     523:	67 66 8d 85 6c ff ff 	lea    eax,[ebp-0x94]
     52a:	ff 
     52b:	67 66 89 44 24 04    	mov    DWORD PTR [esp+0x4],eax
     531:	67 66 c7 04 24 80 a7 	mov    DWORD PTR [esp],0xa780
     538:	00 00 
     53a:	66 e8 c5 74 00 00    	call   7a05 <_dequeue>
D:\OneDrive\Study\Operating Systems\MyOs\project9\codes/./kernel/os.c:127
				if (processTable[tmp].waitProcess == -1) {
     540:	67 66 8b 95 6c ff ff 	mov    edx,DWORD PTR [ebp-0x94]
     547:	ff 
     548:	66 89 d0             	mov    eax,edx
     54b:	66 c1 e0 03          	shl    eax,0x3
     54f:	66 01 d0             	add    eax,edx
     552:	66 01 c0             	add    eax,eax
     555:	66 01 d0             	add    eax,edx
     558:	66 c1 e0 02          	shl    eax,0x2
     55c:	66 01 d0             	add    eax,edx
     55f:	66 c1 e0 02          	shl    eax,0x2
     563:	66 05 bc d1 00 00    	add    eax,0xd1bc
     569:	67 66 8b 00          	mov    eax,DWORD PTR [eax]
     56d:	66 83 f8 ff          	cmp    eax,0xffffffff
     571:	75 50                	jne    5c3 <.debug_line+0x385>
D:\OneDrive\Study\Operating Systems\MyOs\project9\codes/./kernel/os.c:128
					processTable[tmp].status = ready;
     573:	67 66 8b 95 6c ff ff 	mov    edx,DWORD PTR [ebp-0x94]
     57a:	ff 
     57b:	66 89 d0             	mov    eax,edx
     57e:	66 c1 e0 03          	shl    eax,0x3
     582:	66 01 d0             	add    eax,edx
     585:	66 01 c0             	add    eax,eax
     588:	66 01 d0             	add    eax,edx
     58b:	66 c1 e0 02          	shl    eax,0x2
     58f:	66 01 d0             	add    eax,edx
     592:	66 c1 e0 02          	shl    eax,0x2
     596:	66 05 90 d2 00 00    	add    eax,0xd290
     59c:	67 66 c7 00 01 00 00 	mov    DWORD PTR [eax],0x1
     5a3:	00 
D:\OneDrive\Study\Operating Systems\MyOs\project9\codes/./kernel/os.c:129
					enqueue(&ReadyQue, tmp);
     5a4:	67 66 8b 85 6c ff ff 	mov    eax,DWORD PTR [ebp-0x94]
     5ab:	ff 
     5ac:	67 66 89 44 24 04    	mov    DWORD PTR [esp+0x4],eax
     5b2:	67 66 c7 04 24 80 e9 	mov    DWORD PTR [esp],0xe980
     5b9:	00 00 
     5bb:	66 e8 d7 73 00 00    	call   7998 <_enqueue>
     5c1:	eb 1d                	jmp    5e0 <.debug_line+0x3a2>
D:\OneDrive\Study\Operating Systems\MyOs\project9\codes/./kernel/os.c:131
				} else {
					enqueue(&BlockedQue, tmp);
     5c3:	67 66 8b 85 6c ff ff 	mov    eax,DWORD PTR [ebp-0x94]
     5ca:	ff 
     5cb:	67 66 89 44 24 04    	mov    DWORD PTR [esp+0x4],eax
     5d1:	67 66 c7 04 24 80 a7 	mov    DWORD PTR [esp],0xa780
     5d8:	00 00 
     5da:	66 e8 b8 73 00 00    	call   7998 <_enqueue>
D:\OneDrive\Study\Operating Systems\MyOs\project9\codes/./kernel/os.c:124
			for (int i = 0; i < queSize; ++i)
     5e0:	67 66 ff 45 f0       	inc    DWORD PTR [ebp-0x10]
     5e5:	67 66 8b 45 f0       	mov    eax,DWORD PTR [ebp-0x10]
     5ea:	67 66 3b 85 70 ff ff 	cmp    eax,DWORD PTR [ebp-0x90]
     5f1:	ff 
     5f2:	0f 8c 2d ff          	jl     523 <.debug_line+0x2e5>
D:\OneDrive\Study\Operating Systems\MyOs\project9\codes/./kernel/os.c:134
				}
			}
			runSub = 1;
     5f6:	66 c7 06 bc a3 01 00 	mov    DWORD PTR ds:0xa3bc,0x1
     5fd:	00 00 
D:\OneDrive\Study\Operating Systems\MyOs\project9\codes/./kernel/os.c:135
			__asm__("int $0x8\n");
     5ff:	cd 08                	int    0x8
D:\OneDrive\Study\Operating Systems\MyOs\project9\codes/./kernel/os.c:136
			runSub = 0;
     601:	66 c7 06 bc a3 00 00 	mov    DWORD PTR ds:0xa3bc,0x0
     608:	00 00 
D:\OneDrive\Study\Operating Systems\MyOs\project9\codes/./kernel/os.c:137
			clear();
     60a:	66 e8 46 22 00 00    	call   2856 <_clear>
D:\OneDrive\Study\Operating Systems\MyOs\project9\codes/./kernel/os.c:100
		{
     610:	e9 c6 0b             	jmp    11d9 <__section_alignment__+0x1d9>
D:\OneDrive\Study\Operating Systems\MyOs\project9\codes/./kernel/os.c:139
		}
		else if (in[0] == '.' && in[1] == '/')
     613:	67 66 8b 45 e0       	mov    eax,DWORD PTR [ebp-0x20]
     618:	67 8a 00             	mov    al,BYTE PTR [eax]
     61b:	3c 2e                	cmp    al,0x2e
     61d:	0f 85 50 03          	jne    971 <.debug_line+0x733>
     621:	67 66 8b 45 e0       	mov    eax,DWORD PTR [ebp-0x20]
     626:	66 40                	inc    eax
     628:	67 8a 00             	mov    al,BYTE PTR [eax]
     62b:	3c 2f                	cmp    al,0x2f
     62d:	0f 85 40 03          	jne    971 <.debug_line+0x733>
D:\OneDrive\Study\Operating Systems\MyOs\project9\codes/./kernel/os.c:141
		{
			tmp = find(in + 2);
     631:	67 66 8b 45 e0       	mov    eax,DWORD PTR [ebp-0x20]
     636:	66 83 c0 02          	add    eax,0x2
     63a:	67 66 89 04 24       	mov    DWORD PTR [esp],eax
     63f:	66 e8 38 33 00 00    	call   397d <_find>
     645:	67 66 89 85 6c ff ff 	mov    DWORD PTR [ebp-0x94],eax
     64c:	ff 
D:\OneDrive\Study\Operating Systems\MyOs\project9\codes/./kernel/os.c:142
			if (tmp != -1 && information[tmp].deleted != 1) {
     64d:	67 66 8b 85 6c ff ff 	mov    eax,DWORD PTR [ebp-0x94]
     654:	ff 
     655:	66 83 f8 ff          	cmp    eax,0xffffffff
     659:	0f 84 75 0b          	je     11d2 <__section_alignment__+0x1d2>
     65d:	67 66 8b 95 6c ff ff 	mov    edx,DWORD PTR [ebp-0x94]
     664:	ff 
     665:	66 89 d0             	mov    eax,edx
     668:	66 01 c0             	add    eax,eax
     66b:	66 01 d0             	add    eax,edx
     66e:	66 c1 e0 02          	shl    eax,0x2
     672:	66 01 d0             	add    eax,edx
     675:	66 c1 e0 02          	shl    eax,0x2
     679:	66 01 d0             	add    eax,edx
     67c:	66 c1 e0 02          	shl    eax,0x2
     680:	66 05 8c c0 00 00    	add    eax,0xc08c
     686:	67 66 8b 00          	mov    eax,DWORD PTR [eax]
     68a:	66 83 f8 01          	cmp    eax,0x1
     68e:	0f 84 40 0b          	je     11d2 <__section_alignment__+0x1d2>
D:\OneDrive\Study\Operating Systems\MyOs\project9\codes/./kernel/os.c:143
				int blockNum = findEnoughBlock(information[tmp].size + 1024);
     692:	67 66 8b 95 6c ff ff 	mov    edx,DWORD PTR [ebp-0x94]
     699:	ff 
     69a:	66 89 d0             	mov    eax,edx
     69d:	66 01 c0             	add    eax,eax
     6a0:	66 01 d0             	add    eax,edx
     6a3:	66 c1 e0 02          	shl    eax,0x2
     6a7:	66 01 d0             	add    eax,edx
     6aa:	66 c1 e0 02          	shl    eax,0x2
     6ae:	66 01 d0             	add    eax,edx
     6b1:	66 c1 e0 02          	shl    eax,0x2
     6b5:	66 05 88 c0 00 00    	add    eax,0xc088
     6bb:	67 66 8b 00          	mov    eax,DWORD PTR [eax]
     6bf:	66 05 00 04 00 00    	add    eax,0x400
     6c5:	67 66 89 04 24       	mov    DWORD PTR [esp],eax
     6ca:	66 e8 a6 6a 00 00    	call   7176 <_findEnoughBlock>
     6d0:	67 66 89 45 dc       	mov    DWORD PTR [ebp-0x24],eax
D:\OneDrive\Study\Operating Systems\MyOs\project9\codes/./kernel/os.c:144
				blockNum = require(information[tmp].size + 1024, blockNum);
     6d5:	67 66 8b 95 6c ff ff 	mov    edx,DWORD PTR [ebp-0x94]
     6dc:	ff 
     6dd:	66 89 d0             	mov    eax,edx
     6e0:	66 01 c0             	add    eax,eax
     6e3:	66 01 d0             	add    eax,edx
     6e6:	66 c1 e0 02          	shl    eax,0x2
     6ea:	66 01 d0             	add    eax,edx
     6ed:	66 c1 e0 02          	shl    eax,0x2
     6f1:	66 01 d0             	add    eax,edx
     6f4:	66 c1 e0 02          	shl    eax,0x2
     6f8:	66 05 88 c0 00 00    	add    eax,0xc088
     6fe:	67 66 8b 00          	mov    eax,DWORD PTR [eax]
     702:	67 66 8d 90 00 04 00 	lea    edx,[eax+0x400]
     709:	00 
     70a:	67 66 8b 45 dc       	mov    eax,DWORD PTR [ebp-0x24]
     70f:	67 66 89 44 24 04    	mov    DWORD PTR [esp+0x4],eax
     715:	67 66 89 14 24       	mov    DWORD PTR [esp],edx
     71a:	66 e8 ff 6a 00 00    	call   721f <_require>
     720:	67 66 89 45 dc       	mov    DWORD PTR [ebp-0x24],eax
D:\OneDrive\Study\Operating Systems\MyOs\project9\codes/./kernel/os.c:146
				int offsetOfPrg, segOfPrg;
				int offsetMask = 0x0000ffff;
     725:	67 66 c7 45 d8 ff ff 	mov    DWORD PTR [ebp-0x28],0xffff
     72c:	00 00 
D:\OneDrive\Study\Operating Systems\MyOs\project9\codes/./kernel/os.c:147
				int segMask = 0xf0000;
     72e:	67 66 c7 45 d4 00 00 	mov    DWORD PTR [ebp-0x2c],0xf0000
     735:	0f 00 
D:\OneDrive\Study\Operating Systems\MyOs\project9\codes/./kernel/os.c:148
				offsetOfPrg = memoryTable[blockNum].beginAddr & offsetMask;
     737:	67 66 8b 55 dc       	mov    edx,DWORD PTR [ebp-0x24]
     73c:	66 89 d0             	mov    eax,edx
     73f:	66 01 c0             	add    eax,eax
     742:	66 01 d0             	add    eax,edx
     745:	66 c1 e0 03          	shl    eax,0x3
     749:	66 05 c0 a3 00 00    	add    eax,0xa3c0
     74f:	67 66 8b 00          	mov    eax,DWORD PTR [eax]
     753:	67 66 23 45 d8       	and    eax,DWORD PTR [ebp-0x28]
     758:	67 66 89 45 d0       	mov    DWORD PTR [ebp-0x30],eax
D:\OneDrive\Study\Operating Systems\MyOs\project9\codes/./kernel/os.c:149
				segOfPrg = (memoryTable[blockNum].beginAddr & segMask) >> 4;
     75d:	67 66 8b 55 dc       	mov    edx,DWORD PTR [ebp-0x24]
     762:	66 89 d0             	mov    eax,edx
     765:	66 01 c0             	add    eax,eax
     768:	66 01 d0             	add    eax,edx
     76b:	66 c1 e0 03          	shl    eax,0x3
     76f:	66 05 c0 a3 00 00    	add    eax,0xa3c0
     775:	67 66 8b 00          	mov    eax,DWORD PTR [eax]
     779:	67 66 23 45 d4       	and    eax,DWORD PTR [ebp-0x2c]
     77e:	66 c1 f8 04          	sar    eax,0x4
     782:	67 66 89 45 cc       	mov    DWORD PTR [ebp-0x34],eax
D:\OneDrive\Study\Operating Systems\MyOs\project9\codes/./kernel/os.c:150
				int cs = segOfPrg + (offsetOfPrg >> 4), ip = 0, ss = segOfPrg + (offsetOfPrg >> 4), sp = information[tmp].size + 1024 - 1;
     787:	67 66 8b 45 d0       	mov    eax,DWORD PTR [ebp-0x30]
     78c:	66 c1 f8 04          	sar    eax,0x4
     790:	66 89 c2             	mov    edx,eax
     793:	67 66 8b 45 cc       	mov    eax,DWORD PTR [ebp-0x34]
     798:	66 01 d0             	add    eax,edx
     79b:	67 66 89 45 c8       	mov    DWORD PTR [ebp-0x38],eax
     7a0:	67 66 c7 45 c4 00 00 	mov    DWORD PTR [ebp-0x3c],0x0
     7a7:	00 00 
     7a9:	67 66 8b 45 d0       	mov    eax,DWORD PTR [ebp-0x30]
     7ae:	66 c1 f8 04          	sar    eax,0x4
     7b2:	66 89 c2             	mov    edx,eax
     7b5:	67 66 8b 45 cc       	mov    eax,DWORD PTR [ebp-0x34]
     7ba:	66 01 d0             	add    eax,edx
     7bd:	67 66 89 45 c0       	mov    DWORD PTR [ebp-0x40],eax
     7c2:	67 66 8b 95 6c ff ff 	mov    edx,DWORD PTR [ebp-0x94]
     7c9:	ff 
     7ca:	66 89 d0             	mov    eax,edx
     7cd:	66 01 c0             	add    eax,eax
     7d0:	66 01 d0             	add    eax,edx
     7d3:	66 c1 e0 02          	shl    eax,0x2
     7d7:	66 01 d0             	add    eax,edx
     7da:	66 c1 e0 02          	shl    eax,0x2
     7de:	66 01 d0             	add    eax,edx
     7e1:	66 c1 e0 02          	shl    eax,0x2
     7e5:	66 05 88 c0 00 00    	add    eax,0xc088
     7eb:	67 66 8b 00          	mov    eax,DWORD PTR [eax]
     7ef:	66 05 ff 03 00 00    	add    eax,0x3ff
     7f5:	67 66 89 45 bc       	mov    DWORD PTR [ebp-0x44],eax
D:\OneDrive\Study\Operating Systems\MyOs\project9\codes/./kernel/os.c:151
				createProcess(findNextProcessItem(), information[tmp].name, information[tmp].size + 1024, cs, ip, ss, sp, blockNum);
     7fa:	67 66 8b 95 6c ff ff 	mov    edx,DWORD PTR [ebp-0x94]
     801:	ff 
     802:	66 89 d0             	mov    eax,edx
     805:	66 01 c0             	add    eax,eax
     808:	66 01 d0             	add    eax,edx
     80b:	66 c1 e0 02          	shl    eax,0x2
     80f:	66 01 d0             	add    eax,edx
     812:	66 c1 e0 02          	shl    eax,0x2
     816:	66 01 d0             	add    eax,edx
     819:	66 c1 e0 02          	shl    eax,0x2
     81d:	66 05 88 c0 00 00    	add    eax,0xc088
     823:	67 66 8b 00          	mov    eax,DWORD PTR [eax]
     827:	67 66 8d b0 00 04 00 	lea    esi,[eax+0x400]
     82e:	00 
     82f:	67 66 8b 95 6c ff ff 	mov    edx,DWORD PTR [ebp-0x94]
     836:	ff 
     837:	66 89 d0             	mov    eax,edx
     83a:	66 01 c0             	add    eax,eax
     83d:	66 01 d0             	add    eax,edx
     840:	66 c1 e0 02          	shl    eax,0x2
     844:	66 01 d0             	add    eax,edx
     847:	66 c1 e0 02          	shl    eax,0x2
     84b:	66 01 d0             	add    eax,edx
     84e:	66 c1 e0 02          	shl    eax,0x2
     852:	67 66 8d 98 60 c0 00 	lea    ebx,[eax+0xc060]
     859:	00 
     85a:	66 e8 41 42 00 00    	call   4aa1 <_findNextProcessItem>
     860:	67 66 8b 55 dc       	mov    edx,DWORD PTR [ebp-0x24]
     865:	67 66 89 54 24 1c    	mov    DWORD PTR [esp+0x1c],edx
     86b:	67 66 8b 55 bc       	mov    edx,DWORD PTR [ebp-0x44]
     870:	67 66 89 54 24 18    	mov    DWORD PTR [esp+0x18],edx
     876:	67 66 8b 55 c0       	mov    edx,DWORD PTR [ebp-0x40]
     87b:	67 66 89 54 24 14    	mov    DWORD PTR [esp+0x14],edx
     881:	67 66 8b 55 c4       	mov    edx,DWORD PTR [ebp-0x3c]
     886:	67 66 89 54 24 10    	mov    DWORD PTR [esp+0x10],edx
     88c:	67 66 8b 55 c8       	mov    edx,DWORD PTR [ebp-0x38]
     891:	67 66 89 54 24 0c    	mov    DWORD PTR [esp+0xc],edx
     897:	67 66 89 74 24 08    	mov    DWORD PTR [esp+0x8],esi
     89d:	67 66 89 5c 24 04    	mov    DWORD PTR [esp+0x4],ebx
     8a3:	67 66 89 04 24       	mov    DWORD PTR [esp],eax
     8a8:	66 e8 19 44 00 00    	call   4cc7 <_createProcess>
D:\OneDrive\Study\Operating Systems\MyOs\project9\codes/./kernel/os.c:152
				ProcessSize += 1;
     8ae:	66 a1 dc a7          	mov    eax,ds:0xa7dc
     8b2:	66 40                	inc    eax
     8b4:	66 a3 dc a7          	mov    ds:0xa7dc,eax
D:\OneDrive\Study\Operating Systems\MyOs\project9\codes/./kernel/os.c:153
				loadReal(information[tmp].lmaddress, information[tmp].size, offsetOfPrg, segOfPrg);
     8b8:	67 66 8b 95 6c ff ff 	mov    edx,DWORD PTR [ebp-0x94]
     8bf:	ff 
     8c0:	66 89 d0             	mov    eax,edx
     8c3:	66 01 c0             	add    eax,eax
     8c6:	66 01 d0             	add    eax,edx
     8c9:	66 c1 e0 02          	shl    eax,0x2
     8cd:	66 01 d0             	add    eax,edx
     8d0:	66 c1 e0 02          	shl    eax,0x2
     8d4:	66 01 d0             	add    eax,edx
     8d7:	66 c1 e0 02          	shl    eax,0x2
     8db:	66 05 88 c0 00 00    	add    eax,0xc088
     8e1:	67 66 8b 08          	mov    ecx,DWORD PTR [eax]
     8e5:	67 66 8b 95 6c ff ff 	mov    edx,DWORD PTR [ebp-0x94]
     8ec:	ff 
     8ed:	66 89 d0             	mov    eax,edx
     8f0:	66 01 c0             	add    eax,eax
     8f3:	66 01 d0             	add    eax,edx
     8f6:	66 c1 e0 02          	shl    eax,0x2
     8fa:	66 01 d0             	add    eax,edx
     8fd:	66 c1 e0 02          	shl    eax,0x2
     901:	66 01 d0             	add    eax,edx
     904:	66 c1 e0 02          	shl    eax,0x2
     908:	66 05 84 c0 00 00    	add    eax,0xc084
     90e:	67 66 8b 00          	mov    eax,DWORD PTR [eax]
     912:	67 66 8b 55 cc       	mov    edx,DWORD PTR [ebp-0x34]
     917:	67 66 89 54 24 0c    	mov    DWORD PTR [esp+0xc],edx
     91d:	67 66 8b 55 d0       	mov    edx,DWORD PTR [ebp-0x30]
     922:	67 66 89 54 24 08    	mov    DWORD PTR [esp+0x8],edx
     928:	67 66 89 4c 24 04    	mov    DWORD PTR [esp+0x4],ecx
     92e:	67 66 89 04 24       	mov    DWORD PTR [esp],eax
     933:	66 e8 08 11 00 00    	call   1a41 <_loadReal>
D:\OneDrive\Study\Operating Systems\MyOs\project9\codes/./kernel/os.c:154
				enqueue(&ReadyQue, ProcessSize - 1);
     939:	66 a1 dc a7          	mov    eax,ds:0xa7dc
     93d:	66 48                	dec    eax
     93f:	67 66 89 44 24 04    	mov    DWORD PTR [esp+0x4],eax
     945:	67 66 c7 04 24 80 e9 	mov    DWORD PTR [esp],0xe980
     94c:	00 00 
     94e:	66 e8 44 70 00 00    	call   7998 <_enqueue>
D:\OneDrive\Study\Operating Systems\MyOs\project9\codes/./kernel/os.c:155
				runSub = 1;
     954:	66 c7 06 bc a3 01 00 	mov    DWORD PTR ds:0xa3bc,0x1
     95b:	00 00 
D:\OneDrive\Study\Operating Systems\MyOs\project9\codes/./kernel/os.c:156
				__asm__("int $0x8\n");
     95d:	cd 08                	int    0x8
D:\OneDrive\Study\Operating Systems\MyOs\project9\codes/./kernel/os.c:157
				runSub = 0;
     95f:	66 c7 06 bc a3 00 00 	mov    DWORD PTR ds:0xa3bc,0x0
     966:	00 00 
D:\OneDrive\Study\Operating Systems\MyOs\project9\codes/./kernel/os.c:158
				clear();
     968:	66 e8 e8 1e 00 00    	call   2856 <_clear>
D:\OneDrive\Study\Operating Systems\MyOs\project9\codes/./kernel/os.c:142
			if (tmp != -1 && information[tmp].deleted != 1) {
     96e:	e9 61 08             	jmp    11d2 <__section_alignment__+0x1d2>
D:\OneDrive\Study\Operating Systems\MyOs\project9\codes/./kernel/os.c:161
			}
		}
		else if (in[0] == 't' && in[1] == 'y' &&
     971:	67 66 8b 45 e0       	mov    eax,DWORD PTR [ebp-0x20]
     976:	67 8a 00             	mov    al,BYTE PTR [eax]
     979:	3c 74                	cmp    al,0x74
     97b:	0f 85 d8 01          	jne    b57 <.debug_line+0x919>
     97f:	67 66 8b 45 e0       	mov    eax,DWORD PTR [ebp-0x20]
     984:	66 40                	inc    eax
     986:	67 8a 00             	mov    al,BYTE PTR [eax]
     989:	3c 79                	cmp    al,0x79
     98b:	0f 85 c8 01          	jne    b57 <.debug_line+0x919>
D:\OneDrive\Study\Operating Systems\MyOs\project9\codes/./kernel/os.c:162
		         in[2] == 'p' && in[3] == 'e') {
     98f:	67 66 8b 45 e0       	mov    eax,DWORD PTR [ebp-0x20]
     994:	66 83 c0 02          	add    eax,0x2
     998:	67 8a 00             	mov    al,BYTE PTR [eax]
D:\OneDrive\Study\Operating Systems\MyOs\project9\codes/./kernel/os.c:161
		else if (in[0] == 't' && in[1] == 'y' &&
     99b:	3c 70                	cmp    al,0x70
     99d:	0f 85 b6 01          	jne    b57 <.debug_line+0x919>
D:\OneDrive\Study\Operating Systems\MyOs\project9\codes/./kernel/os.c:162
		         in[2] == 'p' && in[3] == 'e') {
     9a1:	67 66 8b 45 e0       	mov    eax,DWORD PTR [ebp-0x20]
     9a6:	66 83 c0 03          	add    eax,0x3
     9aa:	67 8a 00             	mov    al,BYTE PTR [eax]
     9ad:	3c 65                	cmp    al,0x65
     9af:	0f 85 a4 01          	jne    b57 <.debug_line+0x919>
D:\OneDrive\Study\Operating Systems\MyOs\project9\codes/./kernel/os.c:163
			tmp = find(in + 5);
     9b3:	67 66 8b 45 e0       	mov    eax,DWORD PTR [ebp-0x20]
     9b8:	66 83 c0 05          	add    eax,0x5
     9bc:	67 66 89 04 24       	mov    DWORD PTR [esp],eax
     9c1:	66 e8 b6 2f 00 00    	call   397d <_find>
     9c7:	67 66 89 85 6c ff ff 	mov    DWORD PTR [ebp-0x94],eax
     9ce:	ff 
D:\OneDrive\Study\Operating Systems\MyOs\project9\codes/./kernel/os.c:164
			if (tmp != -1 && information[tmp].deleted != 1) {
     9cf:	67 66 8b 85 6c ff ff 	mov    eax,DWORD PTR [ebp-0x94]
     9d6:	ff 
     9d7:	66 83 f8 ff          	cmp    eax,0xffffffff
     9db:	0f 84 f6 07          	je     11d5 <__section_alignment__+0x1d5>
     9df:	67 66 8b 95 6c ff ff 	mov    edx,DWORD PTR [ebp-0x94]
     9e6:	ff 
     9e7:	66 89 d0             	mov    eax,edx
     9ea:	66 01 c0             	add    eax,eax
     9ed:	66 01 d0             	add    eax,edx
     9f0:	66 c1 e0 02          	shl    eax,0x2
     9f4:	66 01 d0             	add    eax,edx
     9f7:	66 c1 e0 02          	shl    eax,0x2
     9fb:	66 01 d0             	add    eax,edx
     9fe:	66 c1 e0 02          	shl    eax,0x2
     a02:	66 05 8c c0 00 00    	add    eax,0xc08c
     a08:	67 66 8b 00          	mov    eax,DWORD PTR [eax]
     a0c:	66 83 f8 01          	cmp    eax,0x1
     a10:	0f 84 c1 07          	je     11d5 <__section_alignment__+0x1d5>
D:\OneDrive\Study\Operating Systems\MyOs\project9\codes/./kernel/os.c:165
				fopen(in + 5, readAndWriteFile);
     a14:	67 66 8b 45 e0       	mov    eax,DWORD PTR [ebp-0x20]
     a19:	66 83 c0 05          	add    eax,0x5
     a1d:	67 66 c7 44 24 04 03 	mov    DWORD PTR [esp+0x4],0x3
     a24:	00 00 00 
     a27:	67 66 89 04 24       	mov    DWORD PTR [esp],eax
     a2c:	66 e8 82 35 00 00    	call   3fb4 <_fopen>
D:\OneDrive\Study\Operating Systems\MyOs\project9\codes/./kernel/os.c:166
				char * contents = malloc(information[tmp].size);
     a32:	67 66 8b 95 6c ff ff 	mov    edx,DWORD PTR [ebp-0x94]
     a39:	ff 
     a3a:	66 89 d0             	mov    eax,edx
     a3d:	66 01 c0             	add    eax,eax
     a40:	66 01 d0             	add    eax,edx
     a43:	66 c1 e0 02          	shl    eax,0x2
     a47:	66 01 d0             	add    eax,edx
     a4a:	66 c1 e0 02          	shl    eax,0x2
     a4e:	66 01 d0             	add    eax,edx
     a51:	66 c1 e0 02          	shl    eax,0x2
     a55:	66 05 88 c0 00 00    	add    eax,0xc088
     a5b:	67 66 8b 00          	mov    eax,DWORD PTR [eax]
     a5f:	67 66 89 04 24       	mov    DWORD PTR [esp],eax
     a64:	66 e8 d1 56 00 00    	call   613b <_malloc>
     a6a:	67 66 89 45 b8       	mov    DWORD PTR [ebp-0x48],eax
D:\OneDrive\Study\Operating Systems\MyOs\project9\codes/./kernel/os.c:168
				// fread(in + 5, contents, information[tmp].size);
				fread(in + 5, contents, information[tmp].size);
     a6f:	67 66 8b 95 6c ff ff 	mov    edx,DWORD PTR [ebp-0x94]
     a76:	ff 
     a77:	66 89 d0             	mov    eax,edx
     a7a:	66 01 c0             	add    eax,eax
     a7d:	66 01 d0             	add    eax,edx
     a80:	66 c1 e0 02          	shl    eax,0x2
     a84:	66 01 d0             	add    eax,edx
     a87:	66 c1 e0 02          	shl    eax,0x2
     a8b:	66 01 d0             	add    eax,edx
     a8e:	66 c1 e0 02          	shl    eax,0x2
     a92:	66 05 88 c0 00 00    	add    eax,0xc088
     a98:	67 66 8b 00          	mov    eax,DWORD PTR [eax]
     a9c:	67 66 8b 55 e0       	mov    edx,DWORD PTR [ebp-0x20]
     aa1:	66 83 c2 05          	add    edx,0x5
     aa5:	67 66 89 44 24 08    	mov    DWORD PTR [esp+0x8],eax
     aab:	67 66 8b 45 b8       	mov    eax,DWORD PTR [ebp-0x48]
     ab0:	67 66 89 44 24 04    	mov    DWORD PTR [esp+0x4],eax
     ab6:	67 66 89 14 24       	mov    DWORD PTR [esp],edx
     abb:	66 e8 7a 3b 00 00    	call   463b <_fread>
D:\OneDrive\Study\Operating Systems\MyOs\project9\codes/./kernel/os.c:170
				// printSentence(contents, line, 0, information[tmp].size, white);
				printSentence(contents, line, 0, information[tmp].size, white);
     ac1:	67 66 8b 95 6c ff ff 	mov    edx,DWORD PTR [ebp-0x94]
     ac8:	ff 
     ac9:	66 89 d0             	mov    eax,edx
     acc:	66 01 c0             	add    eax,eax
     acf:	66 01 d0             	add    eax,edx
     ad2:	66 c1 e0 02          	shl    eax,0x2
     ad6:	66 01 d0             	add    eax,edx
     ad9:	66 c1 e0 02          	shl    eax,0x2
     add:	66 01 d0             	add    eax,edx
     ae0:	66 c1 e0 02          	shl    eax,0x2
     ae4:	66 05 88 c0 00 00    	add    eax,0xc088
     aea:	67 66 8b 10          	mov    edx,DWORD PTR [eax]
     aee:	66 a1 60 a2          	mov    eax,ds:0xa260
     af2:	67 66 c7 44 24 10 0f 	mov    DWORD PTR [esp+0x10],0xf
     af9:	00 00 00 
     afc:	67 66 89 54 24 0c    	mov    DWORD PTR [esp+0xc],edx
     b02:	67 66 c7 44 24 08 00 	mov    DWORD PTR [esp+0x8],0x0
     b09:	00 00 00 
     b0c:	67 66 89 44 24 04    	mov    DWORD PTR [esp+0x4],eax
     b12:	67 66 8b 45 b8       	mov    eax,DWORD PTR [ebp-0x48]
     b17:	67 66 89 04 24       	mov    DWORD PTR [esp],eax
     b1c:	66 e8 64 0d 00 00    	call   1886 <_printSentence>
D:\OneDrive\Study\Operating Systems\MyOs\project9\codes/./kernel/os.c:171
				fclose(in + 5);
     b22:	67 66 8b 45 e0       	mov    eax,DWORD PTR [ebp-0x20]
     b27:	66 83 c0 05          	add    eax,0x5
     b2b:	67 66 89 04 24       	mov    DWORD PTR [esp],eax
     b30:	66 e8 bf 38 00 00    	call   43f5 <_fclose>
D:\OneDrive\Study\Operating Systems\MyOs\project9\codes/./kernel/os.c:172
				line += countLines(contents);
     b36:	67 66 8b 45 b8       	mov    eax,DWORD PTR [ebp-0x48]
     b3b:	67 66 89 04 24       	mov    DWORD PTR [esp],eax
     b40:	66 e8 d1 1b 00 00    	call   2717 <_countLines>
     b46:	66 89 c2             	mov    edx,eax
     b49:	66 a1 60 a2          	mov    eax,ds:0xa260
     b4d:	66 01 d0             	add    eax,edx
     b50:	66 a3 60 a2          	mov    ds:0xa260,eax
D:\OneDrive\Study\Operating Systems\MyOs\project9\codes/./kernel/os.c:164
			if (tmp != -1 && information[tmp].deleted != 1) {
     b54:	e9 7e 06             	jmp    11d5 <__section_alignment__+0x1d5>
D:\OneDrive\Study\Operating Systems\MyOs\project9\codes/./kernel/os.c:175
			}
		}
		else if (in[0] == 'r' && in[1] == 'm') {
     b57:	67 66 8b 45 e0       	mov    eax,DWORD PTR [ebp-0x20]
     b5c:	67 8a 00             	mov    al,BYTE PTR [eax]
     b5f:	3c 72                	cmp    al,0x72
     b61:	0f 85 86 00          	jne    beb <.debug_info+0x17>
     b65:	67 66 8b 45 e0       	mov    eax,DWORD PTR [ebp-0x20]
     b6a:	66 40                	inc    eax
     b6c:	67 8a 00             	mov    al,BYTE PTR [eax]
     b6f:	3c 6d                	cmp    al,0x6d
     b71:	75 78                	jne    beb <.debug_info+0x17>
D:\OneDrive\Study\Operating Systems\MyOs\project9\codes/./kernel/os.c:176
			tmp = find(in + 3);
     b73:	67 66 8b 45 e0       	mov    eax,DWORD PTR [ebp-0x20]
     b78:	66 83 c0 03          	add    eax,0x3
     b7c:	67 66 89 04 24       	mov    DWORD PTR [esp],eax
     b81:	66 e8 f6 2d 00 00    	call   397d <_find>
     b87:	67 66 89 85 6c ff ff 	mov    DWORD PTR [ebp-0x94],eax
     b8e:	ff 
D:\OneDrive\Study\Operating Systems\MyOs\project9\codes/./kernel/os.c:177
			if (tmp != -1 && information[tmp].deleted != 1) {
     b8f:	67 66 8b 85 6c ff ff 	mov    eax,DWORD PTR [ebp-0x94]
     b96:	ff 
     b97:	66 83 f8 ff          	cmp    eax,0xffffffff
     b9b:	0f 84 39 06          	je     11d8 <__section_alignment__+0x1d8>
     b9f:	67 66 8b 95 6c ff ff 	mov    edx,DWORD PTR [ebp-0x94]
     ba6:	ff 
     ba7:	66 89 d0             	mov    eax,edx
     baa:	66 01 c0             	add    eax,eax
     bad:	66 01 d0             	add    eax,edx
     bb0:	66 c1 e0 02          	shl    eax,0x2
     bb4:	66 01 d0             	add    eax,edx
     bb7:	66 c1 e0 02          	shl    eax,0x2
     bbb:	66 01 d0             	add    eax,edx
     bbe:	66 c1 e0 02          	shl    eax,0x2
     bc2:	66 05 8c c0 00 00    	add    eax,0xc08c
     bc8:	67 66 8b 00          	mov    eax,DWORD PTR [eax]
     bcc:	66 83 f8 01          	cmp    eax,0x1
     bd0:	0f 84 04 06          	je     11d8 <__section_alignment__+0x1d8>
D:\OneDrive\Study\Operating Systems\MyOs\project9\codes/./kernel/os.c:178
				fdelete(in + 3);
     bd4:	67 66 8b 45 e0       	mov    eax,DWORD PTR [ebp-0x20]
     bd9:	66 83 c0 03          	add    eax,0x3
     bdd:	67 66 89 04 24       	mov    DWORD PTR [esp],eax
     be2:	66 e8 96 3d 00 00    	call   497e <_fdelete>
D:\OneDrive\Study\Operating Systems\MyOs\project9\codes/./kernel/os.c:177
			if (tmp != -1 && information[tmp].deleted != 1) {
     be8:	e9 ed 05             	jmp    11d8 <__section_alignment__+0x1d8>
D:\OneDrive\Study\Operating Systems\MyOs\project9\codes/./kernel/os.c:181
			}
		}
		else if (in[0] == 'k' && in[1] == 'i' &&
     beb:	67 66 8b 45 e0       	mov    eax,DWORD PTR [ebp-0x20]
     bf0:	67 8a 00             	mov    al,BYTE PTR [eax]
     bf3:	3c 6b                	cmp    al,0x6b
     bf5:	75 50                	jne    c47 <.debug_info+0x73>
     bf7:	67 66 8b 45 e0       	mov    eax,DWORD PTR [ebp-0x20]
     bfc:	66 40                	inc    eax
     bfe:	67 8a 00             	mov    al,BYTE PTR [eax]
     c01:	3c 69                	cmp    al,0x69
     c03:	75 42                	jne    c47 <.debug_info+0x73>
D:\OneDrive\Study\Operating Systems\MyOs\project9\codes/./kernel/os.c:182
		         in[2] == 'l' && in[3] == 'l') {
     c05:	67 66 8b 45 e0       	mov    eax,DWORD PTR [ebp-0x20]
     c0a:	66 83 c0 02          	add    eax,0x2
     c0e:	67 8a 00             	mov    al,BYTE PTR [eax]
D:\OneDrive\Study\Operating Systems\MyOs\project9\codes/./kernel/os.c:181
		else if (in[0] == 'k' && in[1] == 'i' &&
     c11:	3c 6c                	cmp    al,0x6c
     c13:	75 32                	jne    c47 <.debug_info+0x73>
D:\OneDrive\Study\Operating Systems\MyOs\project9\codes/./kernel/os.c:182
		         in[2] == 'l' && in[3] == 'l') {
     c15:	67 66 8b 45 e0       	mov    eax,DWORD PTR [ebp-0x20]
     c1a:	66 83 c0 03          	add    eax,0x3
     c1e:	67 8a 00             	mov    al,BYTE PTR [eax]
     c21:	3c 6c                	cmp    al,0x6c
     c23:	75 22                	jne    c47 <.debug_info+0x73>
D:\OneDrive\Study\Operating Systems\MyOs\project9\codes/./kernel/os.c:183
			kill(in[5] - '0');
     c25:	67 66 8b 45 e0       	mov    eax,DWORD PTR [ebp-0x20]
     c2a:	66 83 c0 05          	add    eax,0x5
     c2e:	67 8a 00             	mov    al,BYTE PTR [eax]
     c31:	66 0f be c0          	movsx  eax,al
     c35:	66 83 e8 30          	sub    eax,0x30
     c39:	67 66 89 04 24       	mov    DWORD PTR [esp],eax
     c3e:	66 e8 a1 25 00 00    	call   31e5 <_kill>
     c44:	e9 92 05             	jmp    11d9 <__section_alignment__+0x1d9>
D:\OneDrive\Study\Operating Systems\MyOs\project9\codes/./kernel/os.c:185
		}
		else if (in[0] == 's' && in[1] == 'u' &&
     c47:	67 66 8b 45 e0       	mov    eax,DWORD PTR [ebp-0x20]
     c4c:	67 8a 00             	mov    al,BYTE PTR [eax]
     c4f:	3c 73                	cmp    al,0x73
     c51:	75 50                	jne    ca3 <.debug_info+0xcf>
     c53:	67 66 8b 45 e0       	mov    eax,DWORD PTR [ebp-0x20]
     c58:	66 40                	inc    eax
     c5a:	67 8a 00             	mov    al,BYTE PTR [eax]
     c5d:	3c 75                	cmp    al,0x75
     c5f:	75 42                	jne    ca3 <.debug_info+0xcf>
D:\OneDrive\Study\Operating Systems\MyOs\project9\codes/./kernel/os.c:186
		         in[2] == 's' && in[3] == 'p') {
     c61:	67 66 8b 45 e0       	mov    eax,DWORD PTR [ebp-0x20]
     c66:	66 83 c0 02          	add    eax,0x2
     c6a:	67 8a 00             	mov    al,BYTE PTR [eax]
D:\OneDrive\Study\Operating Systems\MyOs\project9\codes/./kernel/os.c:185
		else if (in[0] == 's' && in[1] == 'u' &&
     c6d:	3c 73                	cmp    al,0x73
     c6f:	75 32                	jne    ca3 <.debug_info+0xcf>
D:\OneDrive\Study\Operating Systems\MyOs\project9\codes/./kernel/os.c:186
		         in[2] == 's' && in[3] == 'p') {
     c71:	67 66 8b 45 e0       	mov    eax,DWORD PTR [ebp-0x20]
     c76:	66 83 c0 03          	add    eax,0x3
     c7a:	67 8a 00             	mov    al,BYTE PTR [eax]
     c7d:	3c 70                	cmp    al,0x70
     c7f:	75 22                	jne    ca3 <.debug_info+0xcf>
D:\OneDrive\Study\Operating Systems\MyOs\project9\codes/./kernel/os.c:187
			Tosuspend(in[5] - '0');
     c81:	67 66 8b 45 e0       	mov    eax,DWORD PTR [ebp-0x20]
     c86:	66 83 c0 05          	add    eax,0x5
     c8a:	67 8a 00             	mov    al,BYTE PTR [eax]
     c8d:	66 0f be c0          	movsx  eax,al
     c91:	66 83 e8 30          	sub    eax,0x30
     c95:	67 66 89 04 24       	mov    DWORD PTR [esp],eax
     c9a:	66 e8 30 4d 00 00    	call   59d0 <_Tosuspend>
     ca0:	e9 36 05             	jmp    11d9 <__section_alignment__+0x1d9>
D:\OneDrive\Study\Operating Systems\MyOs\project9\codes/./kernel/os.c:189
		}
		else if (in[0] == 'a' && in[1] == 'c' &&
     ca3:	67 66 8b 45 e0       	mov    eax,DWORD PTR [ebp-0x20]
     ca8:	67 8a 00             	mov    al,BYTE PTR [eax]
     cab:	3c 61                	cmp    al,0x61
     cad:	0f 85 1b 02          	jne    ecc <.debug_info+0x2f8>
     cb1:	67 66 8b 45 e0       	mov    eax,DWORD PTR [ebp-0x20]
     cb6:	66 40                	inc    eax
     cb8:	67 8a 00             	mov    al,BYTE PTR [eax]
     cbb:	3c 63                	cmp    al,0x63
     cbd:	0f 85 0b 02          	jne    ecc <.debug_info+0x2f8>
D:\OneDrive\Study\Operating Systems\MyOs\project9\codes/./kernel/os.c:190
		         in[2] == 't' && in[3] == 'i') {
     cc1:	67 66 8b 45 e0       	mov    eax,DWORD PTR [ebp-0x20]
     cc6:	66 83 c0 02          	add    eax,0x2
     cca:	67 8a 00             	mov    al,BYTE PTR [eax]
D:\OneDrive\Study\Operating Systems\MyOs\project9\codes/./kernel/os.c:189
		else if (in[0] == 'a' && in[1] == 'c' &&
     ccd:	3c 74                	cmp    al,0x74
     ccf:	0f 85 f9 01          	jne    ecc <.debug_info+0x2f8>
D:\OneDrive\Study\Operating Systems\MyOs\project9\codes/./kernel/os.c:190
		         in[2] == 't' && in[3] == 'i') {
     cd3:	67 66 8b 45 e0       	mov    eax,DWORD PTR [ebp-0x20]
     cd8:	66 83 c0 03          	add    eax,0x3
     cdc:	67 8a 00             	mov    al,BYTE PTR [eax]
     cdf:	3c 69                	cmp    al,0x69
     ce1:	0f 85 e7 01          	jne    ecc <.debug_info+0x2f8>
D:\OneDrive\Study\Operating Systems\MyOs\project9\codes/./kernel/os.c:191
			tmp = in[5] - '0';
     ce5:	67 66 8b 45 e0       	mov    eax,DWORD PTR [ebp-0x20]
     cea:	66 83 c0 05          	add    eax,0x5
     cee:	67 8a 00             	mov    al,BYTE PTR [eax]
     cf1:	66 0f be c0          	movsx  eax,al
     cf5:	66 83 e8 30          	sub    eax,0x30
     cf9:	67 66 89 85 6c ff ff 	mov    DWORD PTR [ebp-0x94],eax
     d00:	ff 
D:\OneDrive\Study\Operating Systems\MyOs\project9\codes/./kernel/os.c:192
			int blockNum = findEnoughBlock(processTable[tmp].size);
     d01:	67 66 8b 95 6c ff ff 	mov    edx,DWORD PTR [ebp-0x94]
     d08:	ff 
     d09:	66 89 d0             	mov    eax,edx
     d0c:	66 c1 e0 03          	shl    eax,0x3
     d10:	66 01 d0             	add    eax,edx
     d13:	66 01 c0             	add    eax,eax
     d16:	66 01 d0             	add    eax,edx
     d19:	66 c1 e0 02          	shl    eax,0x2
     d1d:	66 01 d0             	add    eax,edx
     d20:	66 c1 e0 02          	shl    eax,0x2
     d24:	66 05 90 d1 00 00    	add    eax,0xd190
     d2a:	67 66 8b 00          	mov    eax,DWORD PTR [eax]
     d2e:	67 66 89 04 24       	mov    DWORD PTR [esp],eax
     d33:	66 e8 3d 64 00 00    	call   7176 <_findEnoughBlock>
     d39:	67 66 89 45 b4       	mov    DWORD PTR [ebp-0x4c],eax
D:\OneDrive\Study\Operating Systems\MyOs\project9\codes/./kernel/os.c:193
			blockNum = require(processTable[tmp].size, blockNum);
     d3e:	67 66 8b 95 6c ff ff 	mov    edx,DWORD PTR [ebp-0x94]
     d45:	ff 
     d46:	66 89 d0             	mov    eax,edx
     d49:	66 c1 e0 03          	shl    eax,0x3
     d4d:	66 01 d0             	add    eax,edx
     d50:	66 01 c0             	add    eax,eax
     d53:	66 01 d0             	add    eax,edx
     d56:	66 c1 e0 02          	shl    eax,0x2
     d5a:	66 01 d0             	add    eax,edx
     d5d:	66 c1 e0 02          	shl    eax,0x2
     d61:	66 05 90 d1 00 00    	add    eax,0xd190
     d67:	67 66 8b 00          	mov    eax,DWORD PTR [eax]
     d6b:	67 66 8b 55 b4       	mov    edx,DWORD PTR [ebp-0x4c]
     d70:	67 66 89 54 24 04    	mov    DWORD PTR [esp+0x4],edx
     d76:	67 66 89 04 24       	mov    DWORD PTR [esp],eax
     d7b:	66 e8 9e 64 00 00    	call   721f <_require>
     d81:	67 66 89 45 b4       	mov    DWORD PTR [ebp-0x4c],eax
D:\OneDrive\Study\Operating Systems\MyOs\project9\codes/./kernel/os.c:194
			processTable[tmp].blockNum = blockNum;
     d86:	67 66 8b 95 6c ff ff 	mov    edx,DWORD PTR [ebp-0x94]
     d8d:	ff 
     d8e:	66 89 d0             	mov    eax,edx
     d91:	66 c1 e0 03          	shl    eax,0x3
     d95:	66 01 d0             	add    eax,edx
     d98:	66 01 c0             	add    eax,eax
     d9b:	66 01 d0             	add    eax,edx
     d9e:	66 c1 e0 02          	shl    eax,0x2
     da2:	66 01 d0             	add    eax,edx
     da5:	66 c1 e0 02          	shl    eax,0x2
     da9:	67 66 8d 90 88 d1 00 	lea    edx,[eax+0xd188]
     db0:	00 
     db1:	67 66 8b 45 b4       	mov    eax,DWORD PTR [ebp-0x4c]
     db6:	67 66 89 02          	mov    DWORD PTR [edx],eax
D:\OneDrive\Study\Operating Systems\MyOs\project9\codes/./kernel/os.c:196
			int offsetOfPrg, segOfPrg;
			int offsetMask = 0x0000ffff;
     dba:	67 66 c7 45 b0 ff ff 	mov    DWORD PTR [ebp-0x50],0xffff
     dc1:	00 00 
D:\OneDrive\Study\Operating Systems\MyOs\project9\codes/./kernel/os.c:197
			int segMask = 0xf0000;
     dc3:	67 66 c7 45 ac 00 00 	mov    DWORD PTR [ebp-0x54],0xf0000
     dca:	0f 00 
D:\OneDrive\Study\Operating Systems\MyOs\project9\codes/./kernel/os.c:198
			offsetOfPrg = memoryTable[blockNum].beginAddr & offsetMask;
     dcc:	67 66 8b 55 b4       	mov    edx,DWORD PTR [ebp-0x4c]
     dd1:	66 89 d0             	mov    eax,edx
     dd4:	66 01 c0             	add    eax,eax
     dd7:	66 01 d0             	add    eax,edx
     dda:	66 c1 e0 03          	shl    eax,0x3
     dde:	66 05 c0 a3 00 00    	add    eax,0xa3c0
     de4:	67 66 8b 00          	mov    eax,DWORD PTR [eax]
     de8:	67 66 23 45 b0       	and    eax,DWORD PTR [ebp-0x50]
     ded:	67 66 89 45 a8       	mov    DWORD PTR [ebp-0x58],eax
D:\OneDrive\Study\Operating Systems\MyOs\project9\codes/./kernel/os.c:199
			segOfPrg = (memoryTable[blockNum].beginAddr & segMask) >> 4;
     df2:	67 66 8b 55 b4       	mov    edx,DWORD PTR [ebp-0x4c]
     df7:	66 89 d0             	mov    eax,edx
     dfa:	66 01 c0             	add    eax,eax
     dfd:	66 01 d0             	add    eax,edx
     e00:	66 c1 e0 03          	shl    eax,0x3
     e04:	66 05 c0 a3 00 00    	add    eax,0xa3c0
     e0a:	67 66 8b 00          	mov    eax,DWORD PTR [eax]
     e0e:	67 66 23 45 ac       	and    eax,DWORD PTR [ebp-0x54]
     e13:	66 c1 f8 04          	sar    eax,0x4
     e17:	67 66 89 45 a4       	mov    DWORD PTR [ebp-0x5c],eax
D:\OneDrive\Study\Operating Systems\MyOs\project9\codes/./kernel/os.c:200
			int cs = segOfPrg + (offsetOfPrg >> 4), ss = segOfPrg + (offsetOfPrg >> 4);
     e1c:	67 66 8b 45 a8       	mov    eax,DWORD PTR [ebp-0x58]
     e21:	66 c1 f8 04          	sar    eax,0x4
     e25:	66 89 c2             	mov    edx,eax
     e28:	67 66 8b 45 a4       	mov    eax,DWORD PTR [ebp-0x5c]
     e2d:	66 01 d0             	add    eax,edx
     e30:	67 66 89 45 a0       	mov    DWORD PTR [ebp-0x60],eax
     e35:	67 66 8b 45 a8       	mov    eax,DWORD PTR [ebp-0x58]
     e3a:	66 c1 f8 04          	sar    eax,0x4
     e3e:	66 89 c2             	mov    edx,eax
     e41:	67 66 8b 45 a4       	mov    eax,DWORD PTR [ebp-0x5c]
     e46:	66 01 d0             	add    eax,edx
     e49:	67 66 89 45 9c       	mov    DWORD PTR [ebp-0x64],eax
D:\OneDrive\Study\Operating Systems\MyOs\project9\codes/./kernel/os.c:201
			processTable[tmp].pcb.cs = cs;
     e4e:	67 66 8b 95 6c ff ff 	mov    edx,DWORD PTR [ebp-0x94]
     e55:	ff 
     e56:	67 66 8b 45 a0       	mov    eax,DWORD PTR [ebp-0x60]
     e5b:	66 89 c1             	mov    ecx,eax
     e5e:	66 89 d0             	mov    eax,edx
     e61:	66 c1 e0 03          	shl    eax,0x3
     e65:	66 01 d0             	add    eax,edx
     e68:	66 01 c0             	add    eax,eax
     e6b:	66 01 d0             	add    eax,edx
     e6e:	66 c1 e0 02          	shl    eax,0x2
     e72:	66 01 d0             	add    eax,edx
     e75:	66 c1 e0 02          	shl    eax,0x2
     e79:	66 05 7a d1 00 00    	add    eax,0xd17a
     e7f:	67 89 08             	mov    WORD PTR [eax],cx
D:\OneDrive\Study\Operating Systems\MyOs\project9\codes/./kernel/os.c:202
			processTable[tmp].pcb.ss_now = ss;
     e82:	67 66 8b 95 6c ff ff 	mov    edx,DWORD PTR [ebp-0x94]
     e89:	ff 
     e8a:	67 66 8b 45 9c       	mov    eax,DWORD PTR [ebp-0x64]
     e8f:	66 89 c1             	mov    ecx,eax
     e92:	66 89 d0             	mov    eax,edx
     e95:	66 c1 e0 03          	shl    eax,0x3
     e99:	66 01 d0             	add    eax,edx
     e9c:	66 01 c0             	add    eax,eax
     e9f:	66 01 d0             	add    eax,edx
     ea2:	66 c1 e0 02          	shl    eax,0x2
     ea6:	66 01 d0             	add    eax,edx
     ea9:	66 c1 e0 02          	shl    eax,0x2
     ead:	66 05 80 d1 00 00    	add    eax,0xd180
     eb3:	67 89 08             	mov    WORD PTR [eax],cx
D:\OneDrive\Study\Operating Systems\MyOs\project9\codes/./kernel/os.c:203
			activate(tmp);
     eb6:	67 66 8b 85 6c ff ff 	mov    eax,DWORD PTR [ebp-0x94]
     ebd:	ff 
     ebe:	67 66 89 04 24       	mov    DWORD PTR [esp],eax
     ec3:	66 e8 1f 4f 00 00    	call   5de8 <_activate>
D:\OneDrive\Study\Operating Systems\MyOs\project9\codes/./kernel/os.c:190
		         in[2] == 't' && in[3] == 'i') {
     ec9:	e9 0d 03             	jmp    11d9 <__section_alignment__+0x1d9>
D:\OneDrive\Study\Operating Systems\MyOs\project9\codes/./kernel/os.c:205
		}
		else if (in[0] == 't' && in[1] == 'o' && in[2] == 'u' && in[3] == 'c' && in[4] == 'h')
     ecc:	67 66 8b 45 e0       	mov    eax,DWORD PTR [ebp-0x20]
     ed1:	67 8a 00             	mov    al,BYTE PTR [eax]
     ed4:	3c 74                	cmp    al,0x74
     ed6:	75 55                	jne    f2d <.debug_info+0x359>
     ed8:	67 66 8b 45 e0       	mov    eax,DWORD PTR [ebp-0x20]
     edd:	66 40                	inc    eax
     edf:	67 8a 00             	mov    al,BYTE PTR [eax]
     ee2:	3c 6f                	cmp    al,0x6f
     ee4:	75 47                	jne    f2d <.debug_info+0x359>
     ee6:	67 66 8b 45 e0       	mov    eax,DWORD PTR [ebp-0x20]
     eeb:	66 83 c0 02          	add    eax,0x2
     eef:	67 8a 00             	mov    al,BYTE PTR [eax]
     ef2:	3c 75                	cmp    al,0x75
     ef4:	75 37                	jne    f2d <.debug_info+0x359>
     ef6:	67 66 8b 45 e0       	mov    eax,DWORD PTR [ebp-0x20]
     efb:	66 83 c0 03          	add    eax,0x3
     eff:	67 8a 00             	mov    al,BYTE PTR [eax]
     f02:	3c 63                	cmp    al,0x63
     f04:	75 27                	jne    f2d <.debug_info+0x359>
     f06:	67 66 8b 45 e0       	mov    eax,DWORD PTR [ebp-0x20]
     f0b:	66 83 c0 04          	add    eax,0x4
     f0f:	67 8a 00             	mov    al,BYTE PTR [eax]
     f12:	3c 68                	cmp    al,0x68
     f14:	75 17                	jne    f2d <.debug_info+0x359>
D:\OneDrive\Study\Operating Systems\MyOs\project9\codes/./kernel/os.c:207
		{
			fcreate(in + 6);
     f16:	67 66 8b 45 e0       	mov    eax,DWORD PTR [ebp-0x20]
     f1b:	66 83 c0 06          	add    eax,0x6
     f1f:	67 66 89 04 24       	mov    DWORD PTR [esp],eax
     f24:	66 e8 51 39 00 00    	call   487b <_fcreate>
     f2a:	e9 ac 02             	jmp    11d9 <__section_alignment__+0x1d9>
D:\OneDrive\Study\Operating Systems\MyOs\project9\codes/./kernel/os.c:209
		}
		else if (in[0] == 'c' && in[1] == 'p')
     f2d:	67 66 8b 45 e0       	mov    eax,DWORD PTR [ebp-0x20]
     f32:	67 8a 00             	mov    al,BYTE PTR [eax]
     f35:	3c 63                	cmp    al,0x63
     f37:	0f 85 d1 00          	jne    100c <__section_alignment__+0xc>
     f3b:	67 66 8b 45 e0       	mov    eax,DWORD PTR [ebp-0x20]
     f40:	66 40                	inc    eax
     f42:	67 8a 00             	mov    al,BYTE PTR [eax]
     f45:	3c 70                	cmp    al,0x70
     f47:	0f 85 c1 00          	jne    100c <__section_alignment__+0xc>
D:\OneDrive\Study\Operating Systems\MyOs\project9\codes/./kernel/os.c:213
		{
			int firstEnd;
			char sour[40], des[40];
			for (firstEnd = 3; in[firstEnd] != ' '; ++firstEnd) {}
     f4b:	67 66 c7 45 ec 03 00 	mov    DWORD PTR [ebp-0x14],0x3
     f52:	00 00 
     f54:	eb 05                	jmp    f5b <.debug_info+0x387>
     f56:	67 66 ff 45 ec       	inc    DWORD PTR [ebp-0x14]
     f5b:	67 66 8b 55 ec       	mov    edx,DWORD PTR [ebp-0x14]
     f60:	67 66 8b 45 e0       	mov    eax,DWORD PTR [ebp-0x20]
     f65:	66 01 d0             	add    eax,edx
     f68:	67 8a 00             	mov    al,BYTE PTR [eax]
     f6b:	3c 20                	cmp    al,0x20
     f6d:	75 e7                	jne    f56 <.debug_info+0x382>
D:\OneDrive\Study\Operating Systems\MyOs\project9\codes/./kernel/os.c:214
			strncpy(in + 3, sour, firstEnd - 3);
     f6f:	67 66 8b 45 ec       	mov    eax,DWORD PTR [ebp-0x14]
     f74:	66 83 e8 03          	sub    eax,0x3
     f78:	67 66 8b 55 e0       	mov    edx,DWORD PTR [ebp-0x20]
     f7d:	66 83 c2 03          	add    edx,0x3
     f81:	67 66 89 44 24 08    	mov    DWORD PTR [esp+0x8],eax
     f87:	67 66 8d 85 02 ff ff 	lea    eax,[ebp-0xfe]
     f8e:	ff 
     f8f:	67 66 89 44 24 04    	mov    DWORD PTR [esp+0x4],eax
     f95:	67 66 89 14 24       	mov    DWORD PTR [esp],edx
     f9a:	66 e8 3b 26 00 00    	call   35db <_strncpy>
D:\OneDrive\Study\Operating Systems\MyOs\project9\codes/./kernel/os.c:215
			strncpy(in + firstEnd + 1, des, strlen(in) - firstEnd - 1);
     fa0:	67 66 8b 45 e0       	mov    eax,DWORD PTR [ebp-0x20]
     fa5:	67 66 89 04 24       	mov    DWORD PTR [esp],eax
     faa:	66 e8 45 24 00 00    	call   33f5 <_strlen>
     fb0:	67 66 2b 45 ec       	sub    eax,DWORD PTR [ebp-0x14]
     fb5:	66 48                	dec    eax
     fb7:	67 66 8b 55 ec       	mov    edx,DWORD PTR [ebp-0x14]
     fbc:	67 66 8d 4a 01       	lea    ecx,[edx+0x1]
     fc1:	67 66 8b 55 e0       	mov    edx,DWORD PTR [ebp-0x20]
     fc6:	66 01 ca             	add    edx,ecx
     fc9:	67 66 89 44 24 08    	mov    DWORD PTR [esp+0x8],eax
     fcf:	67 66 8d 85 2a ff ff 	lea    eax,[ebp-0xd6]
     fd6:	ff 
     fd7:	67 66 89 44 24 04    	mov    DWORD PTR [esp+0x4],eax
     fdd:	67 66 89 14 24       	mov    DWORD PTR [esp],edx
     fe2:	66 e8 f3 25 00 00    	call   35db <_strncpy>
D:\OneDrive\Study\Operating Systems\MyOs\project9\codes/./kernel/os.c:216
			cp(sour, des);
     fe8:	67 66 8d 85 2a ff ff 	lea    eax,[ebp-0xd6]
     fef:	ff 
     ff0:	67 66 89 44 24 04    	mov    DWORD PTR [esp+0x4],eax
     ff6:	67 66 8d 85 02 ff ff 	lea    eax,[ebp-0xfe]
     ffd:	ff 
     ffe:	67 66 89 04 24       	mov    DWORD PTR [esp],eax
    1003:	66 e8 90 15 00 00    	call   2599 <_cp>
D:\OneDrive\Study\Operating Systems\MyOs\project9\codes/./kernel/os.c:210
		{
    1009:	e9 cd 01             	jmp    11d9 <__section_alignment__+0x1d9>
D:\OneDrive\Study\Operating Systems\MyOs\project9\codes/./kernel/os.c:218
		}
		else if (strcmp(in, "loop") == 0)
    100c:	67 66 c7 44 24 04 02 	mov    DWORD PTR [esp+0x4],0x8002
    1013:	80 00 00 
    1016:	67 66 8b 45 e0       	mov    eax,DWORD PTR [ebp-0x20]
    101b:	67 66 89 04 24       	mov    DWORD PTR [esp],eax
    1020:	66 e8 a0 24 00 00    	call   34c6 <_strcmp>
    1026:	66 85 c0             	test   eax,eax
    1029:	0f 85 a0 00          	jne    10cd <__section_alignment__+0xcd>
D:\OneDrive\Study\Operating Systems\MyOs\project9\codes/./kernel/os.c:220
		{
			char text[] = "testing multiple terminal";
    102d:	67 66 8d 85 52 ff ff 	lea    eax,[ebp-0xae]
    1034:	ff 
    1035:	66 bb 28 80 00 00    	mov    ebx,0x8028
    103b:	66 ba 1a 00 00 00    	mov    edx,0x1a
    1041:	66 89 c7             	mov    edi,eax
    1044:	66 89 de             	mov    esi,ebx
    1047:	66 89 d1             	mov    ecx,edx
    104a:	f3 a4                	rep movs BYTE PTR es:[di],BYTE PTR ds:[si]
D:\OneDrive\Study\Operating Systems\MyOs\project9\codes/./kernel/os.c:221
			for (int i = 0; i < 20; ++i)
    104c:	67 66 c7 45 e8 00 00 	mov    DWORD PTR [ebp-0x18],0x0
    1053:	00 00 
    1055:	eb 6b                	jmp    10c2 <__section_alignment__+0xc2>
D:\OneDrive\Study\Operating Systems\MyOs\project9\codes/./kernel/os.c:223
			{
				printSentence(text, i, 0, strlen(text), white);
    1057:	67 66 8d 85 52 ff ff 	lea    eax,[ebp-0xae]
    105e:	ff 
    105f:	67 66 89 04 24       	mov    DWORD PTR [esp],eax
    1064:	66 e8 8b 23 00 00    	call   33f5 <_strlen>
    106a:	67 66 c7 44 24 10 0f 	mov    DWORD PTR [esp+0x10],0xf
    1071:	00 00 00 
    1074:	67 66 89 44 24 0c    	mov    DWORD PTR [esp+0xc],eax
    107a:	67 66 c7 44 24 08 00 	mov    DWORD PTR [esp+0x8],0x0
    1081:	00 00 00 
    1084:	67 66 8b 45 e8       	mov    eax,DWORD PTR [ebp-0x18]
    1089:	67 66 89 44 24 04    	mov    DWORD PTR [esp+0x4],eax
    108f:	67 66 8d 85 52 ff ff 	lea    eax,[ebp-0xae]
    1096:	ff 
    1097:	67 66 89 04 24       	mov    DWORD PTR [esp],eax
    109c:	66 e8 e4 07 00 00    	call   1886 <_printSentence>
D:\OneDrive\Study\Operating Systems\MyOs\project9\codes/./kernel/os.c:224
				for (int j = 0; j < 5000000; ++j)
    10a2:	67 66 c7 45 e4 00 00 	mov    DWORD PTR [ebp-0x1c],0x0
    10a9:	00 00 
    10ab:	eb 05                	jmp    10b2 <__section_alignment__+0xb2>
    10ad:	67 66 ff 45 e4       	inc    DWORD PTR [ebp-0x1c]
    10b2:	67 66 81 7d e4 3f 4b 	cmp    DWORD PTR [ebp-0x1c],0x4c4b3f
    10b9:	4c 00 
    10bb:	7e f0                	jle    10ad <__section_alignment__+0xad>
D:\OneDrive\Study\Operating Systems\MyOs\project9\codes/./kernel/os.c:221
			for (int i = 0; i < 20; ++i)
    10bd:	67 66 ff 45 e8       	inc    DWORD PTR [ebp-0x18]
    10c2:	67 66 83 7d e8 13    	cmp    DWORD PTR [ebp-0x18],0x13
    10c8:	7e 8d                	jle    1057 <__section_alignment__+0x57>
    10ca:	e9 0c 01             	jmp    11d9 <__section_alignment__+0x1d9>
D:\OneDrive\Study\Operating Systems\MyOs\project9\codes/./kernel/os.c:229
				{}
			}
		}
		else {
			if (strcmp(in, "reboot") == 0)
    10cd:	67 66 c7 44 24 04 07 	mov    DWORD PTR [esp+0x4],0x8007
    10d4:	80 00 00 
    10d7:	67 66 8b 45 e0       	mov    eax,DWORD PTR [ebp-0x20]
    10dc:	67 66 89 04 24       	mov    DWORD PTR [esp],eax
    10e1:	66 e8 df 23 00 00    	call   34c6 <_strcmp>
    10e7:	66 85 c0             	test   eax,eax
    10ea:	75 06                	jne    10f2 <__section_alignment__+0xf2>
D:\OneDrive\Study\Operating Systems\MyOs\project9\codes/./kernel/os.c:230
				reboot();
    10ec:	66 e8 91 0a 00 00    	call   1b83 <_reboot>
D:\OneDrive\Study\Operating Systems\MyOs\project9\codes/./kernel/os.c:231
			if (strcmp(in, "clear") == 0)
    10f2:	67 66 c7 44 24 04 0e 	mov    DWORD PTR [esp+0x4],0x800e
    10f9:	80 00 00 
    10fc:	67 66 8b 45 e0       	mov    eax,DWORD PTR [ebp-0x20]
    1101:	67 66 89 04 24       	mov    DWORD PTR [esp],eax
    1106:	66 e8 ba 23 00 00    	call   34c6 <_strcmp>
    110c:	66 85 c0             	test   eax,eax
    110f:	75 06                	jne    1117 <__section_alignment__+0x117>
D:\OneDrive\Study\Operating Systems\MyOs\project9\codes/./kernel/os.c:232
				clear();
    1111:	66 e8 3f 17 00 00    	call   2856 <_clear>
D:\OneDrive\Study\Operating Systems\MyOs\project9\codes/./kernel/os.c:233
			if (strcmp(in, "date") == 0)
    1117:	67 66 c7 44 24 04 14 	mov    DWORD PTR [esp+0x4],0x8014
    111e:	80 00 00 
    1121:	67 66 8b 45 e0       	mov    eax,DWORD PTR [ebp-0x20]
    1126:	67 66 89 04 24       	mov    DWORD PTR [esp],eax
    112b:	66 e8 95 23 00 00    	call   34c6 <_strcmp>
    1131:	66 85 c0             	test   eax,eax
    1134:	75 06                	jne    113c <__section_alignment__+0x13c>
D:\OneDrive\Study\Operating Systems\MyOs\project9\codes/./kernel/os.c:234
				date();
    1136:	66 e8 72 17 00 00    	call   28ae <_date>
D:\OneDrive\Study\Operating Systems\MyOs\project9\codes/./kernel/os.c:235
			if (strcmp(in, "man") == 0)
    113c:	67 66 c7 44 24 04 19 	mov    DWORD PTR [esp+0x4],0x8019
    1143:	80 00 00 
    1146:	67 66 8b 45 e0       	mov    eax,DWORD PTR [ebp-0x20]
    114b:	67 66 89 04 24       	mov    DWORD PTR [esp],eax
    1150:	66 e8 70 23 00 00    	call   34c6 <_strcmp>
    1156:	66 85 c0             	test   eax,eax
    1159:	75 06                	jne    1161 <__section_alignment__+0x161>
D:\OneDrive\Study\Operating Systems\MyOs\project9\codes/./kernel/os.c:236
				man();
    115b:	66 e8 d1 17 00 00    	call   2932 <_man>
D:\OneDrive\Study\Operating Systems\MyOs\project9\codes/./kernel/os.c:237
			if (strcmp(in, "ls") == 0)
    1161:	67 66 c7 44 24 04 1d 	mov    DWORD PTR [esp+0x4],0x801d
    1168:	80 00 00 
    116b:	67 66 8b 45 e0       	mov    eax,DWORD PTR [ebp-0x20]
    1170:	67 66 89 04 24       	mov    DWORD PTR [esp],eax
    1175:	66 e8 4b 23 00 00    	call   34c6 <_strcmp>
    117b:	66 85 c0             	test   eax,eax
    117e:	75 06                	jne    1186 <__section_alignment__+0x186>
D:\OneDrive\Study\Operating Systems\MyOs\project9\codes/./kernel/os.c:238
				ls();
    1180:	66 e8 44 19 00 00    	call   2aca <_ls>
D:\OneDrive\Study\Operating Systems\MyOs\project9\codes/./kernel/os.c:239
			if (strcmp(in, "exit") == 0)
    1186:	67 66 c7 44 24 04 20 	mov    DWORD PTR [esp+0x4],0x8020
    118d:	80 00 00 
    1190:	67 66 8b 45 e0       	mov    eax,DWORD PTR [ebp-0x20]
    1195:	67 66 89 04 24       	mov    DWORD PTR [esp],eax
    119a:	66 e8 26 23 00 00    	call   34c6 <_strcmp>
    11a0:	66 85 c0             	test   eax,eax
    11a3:	75 06                	jne    11ab <__section_alignment__+0x1ab>
D:\OneDrive\Study\Operating Systems\MyOs\project9\codes/./kernel/os.c:240
				shutdown();
    11a5:	66 e8 77 08 00 00    	call   1a22 <_shutdown>
D:\OneDrive\Study\Operating Systems\MyOs\project9\codes/./kernel/os.c:241
			if (strcmp(in, "ps") == 0)
    11ab:	67 66 c7 44 24 04 25 	mov    DWORD PTR [esp+0x4],0x8025
    11b2:	80 00 00 
    11b5:	67 66 8b 45 e0       	mov    eax,DWORD PTR [ebp-0x20]
    11ba:	67 66 89 04 24       	mov    DWORD PTR [esp],eax
    11bf:	66 e8 01 23 00 00    	call   34c6 <_strcmp>
    11c5:	66 85 c0             	test   eax,eax
    11c8:	75 0f                	jne    11d9 <__section_alignment__+0x1d9>
D:\OneDrive\Study\Operating Systems\MyOs\project9\codes/./kernel/os.c:242
				ps();
    11ca:	66 e8 00 1d 00 00    	call   2ed0 <_ps>
    11d0:	eb 07                	jmp    11d9 <__section_alignment__+0x1d9>
D:\OneDrive\Study\Operating Systems\MyOs\project9\codes/./kernel/os.c:142
			if (tmp != -1 && information[tmp].deleted != 1) {
    11d2:	90                   	nop
    11d3:	eb 04                	jmp    11d9 <__section_alignment__+0x1d9>
D:\OneDrive\Study\Operating Systems\MyOs\project9\codes/./kernel/os.c:164
			if (tmp != -1 && information[tmp].deleted != 1) {
    11d5:	90                   	nop
    11d6:	eb 01                	jmp    11d9 <__section_alignment__+0x1d9>
D:\OneDrive\Study\Operating Systems\MyOs\project9\codes/./kernel/os.c:177
			if (tmp != -1 && information[tmp].deleted != 1) {
    11d8:	90                   	nop
D:\OneDrive\Study\Operating Systems\MyOs\project9\codes/./kernel/os.c:244
		}
		newline();
    11d9:	66 e8 26 18 00 00    	call   2a05 <_newline>
D:\OneDrive\Study\Operating Systems\MyOs\project9\codes/./kernel/os.c:80
		in = getInput();
    11df:	e9 ed ee             	jmp    cf <.debug_str+0x94>
    11e2:	00 00                	add    BYTE PTR [bx+si],al
    11e4:	66 90                	xchg   eax,eax
    11e6:	66 90                	xchg   eax,eax
    11e8:	66 90                	xchg   eax,eax
    11ea:	66 90                	xchg   eax,eax
    11ec:	66 90                	xchg   eax,eax
    11ee:	66 90                	xchg   eax,eax

000011f0 <_test>:
    11f0:	ea 00 00 50 00       	jmp    0x50:0x0

000011f5 <_inisys>:
    11f5:	60                   	pusha  
    11f6:	e8 6c 04             	call   1665 <installInt8h>
    11f9:	e8 dc 03             	call   15d8 <installInt9h>
    11fc:	e8 e9 02             	call   14e8 <installInt16h>
    11ff:	e8 93 02             	call   1495 <installInt2Bh>
    1202:	e8 05 00             	call   120a <installInt21h>
    1205:	e8 04 06             	call   180c <installInt34_37h>
    1208:	61                   	popa   
    1209:	c3                   	ret    

0000120a <installInt21h>:
    120a:	50                   	push   ax
    120b:	06                   	push   es
    120c:	b8 00 00             	mov    ax,0x0
    120f:	8e c0                	mov    es,ax
    1211:	26 c7 06 84 00 20 12 	mov    WORD PTR es:0x84,0x1220
    1218:	26 8c 0e 86 00       	mov    WORD PTR es:0x86,cs
    121d:	07                   	pop    es
    121e:	58                   	pop    ax
    121f:	c3                   	ret    

00001220 <int21h>:
    1220:	2e 89 1e de 12       	mov    WORD PTR cs:0x12de,bx
    1225:	53                   	push   bx
    1226:	1e                   	push   ds
    1227:	0e                   	push   cs
    1228:	1f                   	pop    ds
    1229:	bb 00 00             	mov    bx,0x0
    122c:	50                   	push   ax
    122d:	88 e0                	mov    al,ah
    122f:	b3 02                	mov    bl,0x2
    1231:	f6 e3                	mul    bl
    1233:	88 c3                	mov    bl,al
    1235:	58                   	pop    ax
    1236:	2e ff 97 3e 12       	call   WORD PTR cs:[bx+0x123e]

0000123b <int21hre>:
    123b:	1f                   	pop    ds
    123c:	5b                   	pop    bx
    123d:	cf                   	iret   

0000123e <int21hTable>:
    123e:	15 13 23             	adc    ax,0x2313
    1241:	13 68 13             	adc    bp,WORD PTR [bx+si+0x13]
    1244:	41                   	inc    cx
    1245:	13 4c 13             	adc    cx,WORD PTR [si+0x13]
    1248:	9c                   	pushf  
    1249:	13 b3 13 cc          	adc    si,WORD PTR [bp+di-0x33ed]
    124d:	13 db                	adc    bx,bx
    124f:	13 ff                	adc    di,di
    1251:	12 3f                	adc    bh,BYTE PTR [bx]
    1253:	14 4d                	adc    al,0x4d
    1255:	14 5f                	adc    al,0x5f
    1257:	14 71                	adc    al,0x71
    1259:	14 83                	adc    al,0x83
    125b:	14 e4                	adc    al,0xe4
    125d:	12 00                	adc    al,BYTE PTR [bx+si]
	...
    12d3:	00 00                	add    BYTE PTR [bx+si],al
    12d5:	00 5a 13             	add    BYTE PTR [bp+si+0x13],bl

000012d8 <int21h_store_ip>:
	...

000012da <int21h_store_cs>:
	...

000012dc <int21h_store_flags>:
	...

000012de <int21h_store_ebx>:
    12de:	00 00                	add    BYTE PTR [bx+si],al
	...

000012e2 <int21_store_retaddr>:
	...

000012e4 <int21hFree>:
    12e4:	66 50                	push   eax
    12e6:	66 b8 00 00 00 00    	mov    eax,0x0
    12ec:	8c e8                	mov    ax,gs
    12ee:	66 50                	push   eax
    12f0:	66 51                	push   ecx
    12f2:	b8 f4 62             	mov    ax,0x62f4
    12f5:	66 ff d0             	call   eax
    12f8:	66 59                	pop    ecx
    12fa:	66 58                	pop    eax
    12fc:	66 58                	pop    eax
    12fe:	c3                   	ret    

000012ff <int21hMalloc>:
    12ff:	66 53                	push   ebx
    1301:	1e                   	push   ds
    1302:	0e                   	push   cs
    1303:	1f                   	pop    ds
    1304:	66 53                	push   ebx
    1306:	66 b8 3b 61 00 00    	mov    eax,0x613b
    130c:	66 ff d0             	call   eax
    130f:	66 5b                	pop    ebx
    1311:	1f                   	pop    ds
    1312:	66 5b                	pop    ebx
    1314:	c3                   	ret    

00001315 <int21hps>:
    1315:	66 50                	push   eax
    1317:	66 31 c0             	xor    eax,eax
    131a:	b8 d0 2e             	mov    ax,0x2ed0
    131d:	66 ff d0             	call   eax
    1320:	66 58                	pop    eax
    1322:	c3                   	ret    

00001323 <int21hkill>:
    1323:	66 50                	push   eax
    1325:	66 53                	push   ebx
    1327:	66 bb 00 00 00 00    	mov    ebx,0x0
    132d:	88 c3                	mov    bl,al
    132f:	66 53                	push   ebx
    1331:	66 31 c0             	xor    eax,eax
    1334:	b8 e5 31             	mov    ax,0x31e5
    1337:	66 ff d0             	call   eax
    133a:	66 5b                	pop    ebx
    133c:	66 5b                	pop    ebx
    133e:	66 58                	pop    eax
    1340:	c3                   	ret    

00001341 <int21hshowDate>:
    1341:	fb                   	sti    
    1342:	66 31 c0             	xor    eax,eax
    1345:	b8 ae 28             	mov    ax,0x28ae
    1348:	66 ff d0             	call   eax
    134b:	c3                   	ret    

0000134c <int21hClear>:
    134c:	66 50                	push   eax
    134e:	66 31 c0             	xor    eax,eax
    1351:	b8 b4 18             	mov    ax,0x18b4
    1354:	66 ff d0             	call   eax
    1357:	66 58                	pop    eax
    1359:	c3                   	ret    

0000135a <int21hexit>:
    135a:	66 50                	push   eax
    135c:	66 31 c0             	xor    eax,eax
    135f:	b8 22 1a             	mov    ax,0x1a22
    1362:	66 ff d0             	call   eax
    1365:	66 58                	pop    eax
    1367:	c3                   	ret    

00001368 <int21hPrintString>:
    1368:	60                   	pusha  
    1369:	1e                   	push   ds
    136a:	66 50                	push   eax
    136c:	8c e8                	mov    ax,gs
    136e:	8e d8                	mov    ds,ax
    1370:	66 53                	push   ebx
    1372:	66 51                	push   ecx
    1374:	66 b8 00 00 00 00    	mov    eax,0x0
    137a:	88 d0                	mov    al,dl
    137c:	66 50                	push   eax
    137e:	88 f0                	mov    al,dh
    1380:	66 50                	push   eax
    1382:	66 57                	push   edi
    1384:	66 31 c0             	xor    eax,eax
    1387:	b8 86 18             	mov    ax,0x1886
    138a:	66 ff d0             	call   eax
    138d:	66 5f                	pop    edi
    138f:	66 58                	pop    eax
    1391:	66 58                	pop    eax
    1393:	66 59                	pop    ecx
    1395:	66 5b                	pop    ebx
    1397:	66 58                	pop    eax
    1399:	1f                   	pop    ds
    139a:	61                   	popa   
    139b:	c3                   	ret    

0000139c <int21hint2str>:
    139c:	60                   	pusha  
    139d:	1e                   	push   ds
    139e:	8c e8                	mov    ax,gs
    13a0:	8e d8                	mov    ds,ax
    13a2:	66 57                	push   edi
    13a4:	66 53                	push   ebx
    13a6:	b8 4a 36             	mov    ax,0x364a
    13a9:	66 ff d0             	call   eax
    13ac:	66 5b                	pop    ebx
    13ae:	66 5f                	pop    edi
    13b0:	1f                   	pop    ds
    13b1:	61                   	popa   
    13b2:	c3                   	ret    

000013b3 <int21hexitprg>:
    13b3:	60                   	pusha  
    13b4:	1e                   	push   ds
    13b5:	2e 66 ff 36 de 12    	push   DWORD PTR cs:0x12de
    13bb:	66 b8 00 00 00 00    	mov    eax,0x0
    13c1:	b8 e5 57             	mov    ax,0x57e5
    13c4:	66 ff d0             	call   eax
    13c7:	66 5b                	pop    ebx
    13c9:	1f                   	pop    ds
    13ca:	61                   	popa   
    13cb:	c3                   	ret    

000013cc <int21hwait>:
    13cc:	1e                   	push   ds
    13cd:	66 b8 00 00 00 00    	mov    eax,0x0
    13d3:	b8 d3 58             	mov    ax,0x58d3
    13d6:	66 ff d0             	call   eax
    13d9:	1f                   	pop    ds
    13da:	c3                   	ret    

000013db <int21hfork>:
    13db:	fa                   	cli    
    13dc:	0e                   	push   cs
    13dd:	53                   	push   bx
    13de:	50                   	push   ax
    13df:	1e                   	push   ds
    13e0:	8c c8                	mov    ax,cs
    13e2:	8e d8                	mov    ds,ax
    13e4:	2e 8b 1e 70 e9       	mov    bx,WORD PTR cs:0xe970
    13e9:	2e a1 e4 a7          	mov    ax,cs:0xa7e4
    13ed:	f6 e3                	mul    bl
    13ef:	89 c3                	mov    bx,ax
    13f1:	81 c3 60 d1          	add    bx,0xd160
    13f5:	2e 89 1e 6f 1b       	mov    WORD PTR cs:0x1b6f,bx
    13fa:	1f                   	pop    ds
    13fb:	58                   	pop    ax
    13fc:	5b                   	pop    bx
    13fd:	fb                   	sti    
    13fe:	e8 9a 06             	call   1a9b <save>
    1401:	fa                   	cli    
    1402:	60                   	pusha  
    1403:	1e                   	push   ds
    1404:	66 b8 00 00 00 00    	mov    eax,0x0
    140a:	8c c8                	mov    ax,cs
    140c:	8e d8                	mov    ds,ax
    140e:	b8 ec 52             	mov    ax,0x52ec
    1411:	66 ff d0             	call   eax
    1414:	1f                   	pop    ds
    1415:	61                   	popa   
    1416:	53                   	push   bx
    1417:	50                   	push   ax
    1418:	1e                   	push   ds
    1419:	8c c8                	mov    ax,cs
    141b:	8e d8                	mov    ds,ax
    141d:	2e 8b 1e 70 e9       	mov    bx,WORD PTR cs:0xe970
    1422:	2e a1 e4 a7          	mov    ax,cs:0xa7e4
    1426:	f6 e3                	mul    bl
    1428:	89 c3                	mov    bx,ax
    142a:	81 c3 60 d1          	add    bx,0xd160
    142e:	2e 89 1e 6d 1b       	mov    WORD PTR cs:0x1b6d,bx
    1433:	1f                   	pop    ds
    1434:	58                   	pop    ax
    1435:	5b                   	pop    bx
    1436:	e8 e1 06             	call   1b1a <restart>

00001439 <int21hfork_store_cs>:
	...

0000143b <int21hfork_store_ip>:
	...

0000143d <int21hfork_store_flags>:
	...

0000143f <int21hGetSem>:
    143f:	66 31 c0             	xor    eax,eax
    1442:	b8 c6 75             	mov    ax,0x75c6
    1445:	66 51                	push   ecx
    1447:	66 ff d0             	call   eax
    144a:	66 59                	pop    ecx
    144c:	c3                   	ret    

0000144d <int21hFreeSem>:
    144d:	66 50                	push   eax
    144f:	66 31 c0             	xor    eax,eax
    1452:	b8 85 76             	mov    ax,0x7685
    1455:	66 51                	push   ecx
    1457:	66 ff d0             	call   eax
    145a:	66 59                	pop    ecx
    145c:	66 58                	pop    eax
    145e:	c3                   	ret    

0000145f <int21hP>:
    145f:	66 50                	push   eax
    1461:	66 31 c0             	xor    eax,eax
    1464:	b8 f6 76             	mov    ax,0x76f6
    1467:	66 51                	push   ecx
    1469:	66 ff d0             	call   eax
    146c:	66 59                	pop    ecx
    146e:	66 58                	pop    eax
    1470:	c3                   	ret    

00001471 <int21hV>:
    1471:	66 50                	push   eax
    1473:	66 31 c0             	xor    eax,eax
    1476:	b8 19 78             	mov    ax,0x7819
    1479:	66 51                	push   ecx
    147b:	66 ff d0             	call   eax
    147e:	66 59                	pop    ecx
    1480:	66 58                	pop    eax
    1482:	c3                   	ret    

00001483 <int21hDelay>:
    1483:	66 50                	push   eax
    1485:	66 31 c0             	xor    eax,eax
    1488:	b8 b9 5f             	mov    ax,0x5fb9
    148b:	66 51                	push   ecx
    148d:	66 ff d0             	call   eax
    1490:	66 59                	pop    ecx
    1492:	66 58                	pop    eax
    1494:	c3                   	ret    

00001495 <installInt2Bh>:
    1495:	60                   	pusha  
    1496:	06                   	push   es
    1497:	b8 00 00             	mov    ax,0x0
    149a:	8e c0                	mov    es,ax
    149c:	26 c7 06 ac 00 ab 14 	mov    WORD PTR es:0xac,0x14ab
    14a3:	26 8c 0e ae 00       	mov    WORD PTR es:0xae,cs
    14a8:	07                   	pop    es
    14a9:	61                   	popa   
    14aa:	c3                   	ret    

000014ab <int2Bh>:
    14ab:	2e 8f 06 e4 14       	pop    WORD PTR cs:0x14e4
    14b0:	2e 8f 06 e6 14       	pop    WORD PTR cs:0x14e6
    14b5:	9d                   	popf   
    14b6:	2e 8f 06 e4 14       	pop    WORD PTR cs:0x14e4
    14bb:	60                   	pusha  
    14bc:	1e                   	push   ds
    14bd:	66 b8 00 00 00 00    	mov    eax,0x0
    14c3:	8c c8                	mov    ax,cs
    14c5:	8e d8                	mov    ds,ax
    14c7:	a1 70 e9             	mov    ax,ds:0xe970
    14ca:	66 50                	push   eax
    14cc:	b8 e6 4e             	mov    ax,0x4ee6
    14cf:	66 ff d0             	call   eax
    14d2:	66 58                	pop    eax
    14d4:	1f                   	pop    ds
    14d5:	61                   	popa   
    14d6:	9c                   	pushf  
    14d7:	2e ff 36 e6 14       	push   WORD PTR cs:0x14e6
    14dc:	2e ff 36 e4 14       	push   WORD PTR cs:0x14e4
    14e1:	e9 c0 01             	jmp    16a4 <int8h>

000014e4 <in2b_store_ip>:
	...

000014e6 <in2b_store_cs>:
	...

000014e8 <installInt16h>:
    14e8:	60                   	pusha  
    14e9:	06                   	push   es
    14ea:	1e                   	push   ds
    14eb:	31 c0                	xor    ax,ax
    14ed:	8e c0                	mov    es,ax
    14ef:	8c c8                	mov    ax,cs
    14f1:	8e d8                	mov    ds,ax
    14f3:	26 a1 42 00          	mov    ax,es:0x42
    14f7:	2e a3 17 15          	mov    cs:0x1517,ax
    14fb:	26 a1 40 00          	mov    ax,es:0x40
    14ff:	2e a3 15 15          	mov    cs:0x1515,ax
    1503:	fa                   	cli    
    1504:	26 8c 0e 42 00       	mov    WORD PTR es:0x42,cs
    1509:	26 c7 06 40 00 19 15 	mov    WORD PTR es:0x40,0x1519
    1510:	fb                   	sti    
    1511:	1f                   	pop    ds
    1512:	07                   	pop    es
    1513:	61                   	popa   
    1514:	c3                   	ret    

00001515 <tmp16>:
    1515:	00 00                	add    BYTE PTR [bx+si],al
	...

00001519 <int16h>:
    1519:	9c                   	pushf  
    151a:	50                   	push   ax
    151b:	80 fc 00             	cmp    ah,0x0
    151e:	74 10                	je     1530 <extend00hIn16h>
    1520:	80 fc 01             	cmp    ah,0x1
    1523:	74 53                	je     1578 <extend01hIn16h>
    1525:	58                   	pop    ax
    1526:	9d                   	popf   
    1527:	9c                   	pushf  
    1528:	2e ff 1e 15 15       	call   DWORD PTR cs:0x1515
    152d:	e9 a7 00             	jmp    15d7 <int16ret>

00001530 <extend00hIn16h>:
    1530:	9c                   	pushf  
    1531:	2e ff 1e 15 15       	call   DWORD PTR cs:0x1515
    1536:	66 53                	push   ebx
    1538:	50                   	push   ax
    1539:	66 31 db             	xor    ebx,ebx
    153c:	66 bb 2b 33 00 00    	mov    ebx,0x332b
    1542:	66 e8 e3 1d 00 00    	call   332b <_getKey>
    1548:	53                   	push   bx
    1549:	66 53                	push   ebx
    154b:	3d ff 00             	cmp    ax,0xff
    154e:	74 0c                	je     155c <nocurPage00h>
    1550:	2e 8f 06 d1 15       	pop    WORD PTR cs:0x15d1
    1555:	2e 8f 06 d1 15       	pop    WORD PTR cs:0x15d1
    155a:	eb 7b                	jmp    15d7 <int16ret>

0000155c <nocurPage00h>:
    155c:	58                   	pop    ax
    155d:	2e 8f 06 d1 15       	pop    WORD PTR cs:0x15d1
    1562:	2e 8f 06 d1 15       	pop    WORD PTR cs:0x15d1
    1567:	2e a3 d3 15          	mov    cs:0x15d3,ax
    156b:	2e a1 d1 15          	mov    ax,cs:0x15d1
    156f:	83 e8 02             	sub    ax,0x2
    1572:	50                   	push   ax
    1573:	2e a1 d3 15          	mov    ax,cs:0x15d3
    1577:	cf                   	iret   

00001578 <extend01hIn16h>:
    1578:	9c                   	pushf  
    1579:	2e ff 1e 15 15       	call   DWORD PTR cs:0x1515
    157e:	66 53                	push   ebx
    1580:	50                   	push   ax
    1581:	66 31 db             	xor    ebx,ebx
    1584:	66 bb b4 33 00 00    	mov    ebx,0x33b4
    158a:	66 ff d3             	call   ebx
    158d:	83 f8 01             	cmp    ax,0x1
    1590:	75 0f                	jne    15a1 <nocurPage01h>
    1592:	58                   	pop    ax
    1593:	66 5b                	pop    ebx
    1595:	2e 8f 06 d1 15       	pop    WORD PTR cs:0x15d1
    159a:	2e 8f 06 d1 15       	pop    WORD PTR cs:0x15d1
    159f:	eb 36                	jmp    15d7 <int16ret>

000015a1 <nocurPage01h>:
    15a1:	58                   	pop    ax
    15a2:	66 5b                	pop    ebx
    15a4:	2e 8f 06 d1 15       	pop    WORD PTR cs:0x15d1
    15a9:	2e 8f 06 d1 15       	pop    WORD PTR cs:0x15d1
    15ae:	2e 8f 06 d1 15       	pop    WORD PTR cs:0x15d1
    15b3:	2e 8f 06 d3 15       	pop    WORD PTR cs:0x15d3
    15b8:	2e a3 d5 15          	mov    cs:0x15d5,ax
    15bc:	58                   	pop    ax
    15bd:	83 c8 01             	or     ax,0x1
    15c0:	50                   	push   ax
    15c1:	2e a1 d5 15          	mov    ax,cs:0x15d5
    15c5:	2e ff 36 d3 15       	push   WORD PTR cs:0x15d3
    15ca:	2e ff 36 d1 15       	push   WORD PTR cs:0x15d1
    15cf:	eb 06                	jmp    15d7 <int16ret>

000015d1 <tmpinInt16h>:
	...

000015d3 <tmp2inInt16h>:
	...

000015d5 <tmp3inInt16h>:
	...

000015d7 <int16ret>:
    15d7:	cf                   	iret   

000015d8 <installInt9h>:
    15d8:	60                   	pusha  
    15d9:	06                   	push   es
    15da:	1e                   	push   ds
    15db:	31 c0                	xor    ax,ax
    15dd:	8e c0                	mov    es,ax
    15df:	8c c8                	mov    ax,cs
    15e1:	8e d8                	mov    ds,ax
    15e3:	26 a1 26 00          	mov    ax,es:0x26
    15e7:	2e a3 07 16          	mov    cs:0x1607,ax
    15eb:	26 a1 24 00          	mov    ax,es:0x24
    15ef:	2e a3 05 16          	mov    cs:0x1605,ax
    15f3:	fa                   	cli    
    15f4:	26 8c 0e 26 00       	mov    WORD PTR es:0x26,cs
    15f9:	26 c7 06 24 00 09 16 	mov    WORD PTR es:0x24,0x1609
    1600:	fb                   	sti    
    1601:	1f                   	pop    ds
    1602:	07                   	pop    es
    1603:	61                   	popa   
    1604:	c3                   	ret    

00001605 <tmp9>:
    1605:	00 00                	add    BYTE PTR [bx+si],al
	...

00001609 <int9h>:
    1609:	60                   	pusha  
    160a:	06                   	push   es
    160b:	1e                   	push   ds
    160c:	8c c8                	mov    ax,cs
    160e:	8e d8                	mov    ds,ax
    1610:	8e c0                	mov    es,ax
    1612:	9c                   	pushf  
    1613:	2e ff 1e 05 16       	call   DWORD PTR cs:0x1605
    1618:	50                   	push   ax
    1619:	66 51                	push   ecx
    161b:	53                   	push   bx
    161c:	31 db                	xor    bx,bx
    161e:	31 c0                	xor    ax,ax
    1620:	66 31 c9             	xor    ecx,ecx
    1623:	e4 60                	in     al,0x60
    1625:	06                   	push   es
    1626:	bb 40 00             	mov    bx,0x40
    1629:	8e c3                	mov    es,bx
    162b:	26 8a 1e 17 00       	mov    bl,BYTE PTR es:0x17
    1630:	07                   	pop    es
    1631:	b9 80 24             	mov    cx,0x2480
    1634:	53                   	push   bx
    1635:	50                   	push   ax
    1636:	66 ff d1             	call   ecx
    1639:	58                   	pop    ax
    163a:	5b                   	pop    bx
    163b:	5b                   	pop    bx
    163c:	66 59                	pop    ecx
    163e:	58                   	pop    ax

0000163f <showInsert>:
    163f:	b9 09 00             	mov    cx,0x9
    1642:	bd 5c 16             	mov    bp,0x165c
    1645:	ba 45 18             	mov    dx,0x1845
    1648:	b3 0f                	mov    bl,0xf
    164a:	b7 00                	mov    bh,0x0
    164c:	b4 13                	mov    ah,0x13
    164e:	b0 00                	mov    al,0x0
    1650:	cd 10                	int    0x10
    1652:	b0 20                	mov    al,0x20
    1654:	e6 20                	out    0x20,al
    1656:	e6 a0                	out    0xa0,al
    1658:	1f                   	pop    ds
    1659:	07                   	pop    es
    165a:	61                   	popa   
    165b:	cf                   	iret   

0000165c <inserting>:
    165c:	69 6e 73 65 72       	imul   bp,WORD PTR [bp+0x73],0x7265
    1661:	74 69                	je     16cc <int8h+0x28>
    1663:	6e                   	outs   dx,BYTE PTR ds:[si]
    1664:	67                   	addr32

00001665 <installInt8h>:
    1665:	06                   	push   es
    1666:	50                   	push   ax
    1667:	31 c0                	xor    ax,ax
    1669:	8e c0                	mov    es,ax
    166b:	26 a1 22 00          	mov    ax,es:0x22
    166f:	2e a3 a2 16          	mov    cs:0x16a2,ax
    1673:	26 a1 20 00          	mov    ax,es:0x20
    1677:	2e a3 a0 16          	mov    cs:0x16a0,ax
    167b:	fa                   	cli    
    167c:	26 8c 0e 22 00       	mov    WORD PTR es:0x22,cs
    1681:	26 c7 06 20 00 a4 16 	mov    WORD PTR es:0x20,0x16a4
    1688:	2e c7 06 f9 17 28 00 	mov    WORD PTR cs:0x17f9,0x28
    168f:	fb                   	sti    

00001690 <SetTimer>:
    1690:	b0 34                	mov    al,0x34
    1692:	e6 43                	out    0x43,al
    1694:	b8 0b e9             	mov    ax,0xe90b
    1697:	e6 40                	out    0x40,al
    1699:	88 e0                	mov    al,ah
    169b:	e6 40                	out    0x40,al
    169d:	58                   	pop    ax
    169e:	07                   	pop    es
    169f:	c3                   	ret    

000016a0 <tmp8>:
    16a0:	00 00                	add    BYTE PTR [bx+si],al
	...

000016a4 <int8h>:
    16a4:	60                   	pusha  
    16a5:	1e                   	push   ds
    16a6:	06                   	push   es
    16a7:	8c c8                	mov    ax,cs
    16a9:	8e d8                	mov    ds,ax
    16ab:	9c                   	pushf  
    16ac:	ff 1e a0 16          	call   DWORD PTR ds:0x16a0
    16b0:	ff 0e f9 17          	dec    WORD PTR ds:0x17f9
    16b4:	83 3e f9 17 00       	cmp    WORD PTR ds:0x17f9,0x0
    16b9:	75 67                	jne    1722 <int8hret>
    16bb:	c7 06 f9 17 28 00    	mov    WORD PTR ds:0x17f9,0x28
    16c1:	b8 00 b8             	mov    ax,0xb800
    16c4:	8e c0                	mov    es,ax
    16c6:	b4 04                	mov    ah,0x4
    16c8:	b7 00                	mov    bh,0x0
    16ca:	b4 03                	mov    ah,0x3
    16cc:	cd 10                	int    0x10
    16ce:	b8 00 00             	mov    ax,0x0
    16d1:	88 f0                	mov    al,dh
    16d3:	b3 50                	mov    bl,0x50
    16d5:	f6 e3                	mul    bl
    16d7:	b6 00                	mov    dh,0x0
    16d9:	01 d0                	add    ax,dx
    16db:	bb 02 00             	mov    bx,0x2
    16de:	f7 e3                	mul    bx
    16e0:	89 c5                	mov    bp,ax
    16e2:	bb fd 17             	mov    bx,0x17fd
    16e5:	03 1e fb 17          	add    bx,WORD PTR ds:0x17fb
    16e9:	8a 07                	mov    al,BYTE PTR [bx]
    16eb:	b4 0f                	mov    ah,0xf
    16ed:	26 89 46 00          	mov    WORD PTR es:[bp+0x0],ax
    16f1:	b8 20 0f             	mov    ax,0xf20
    16f4:	26 89 46 02          	mov    WORD PTR es:[bp+0x2],ax
    16f8:	ff 06 fb 17          	inc    WORD PTR ds:0x17fb
    16fc:	83 3e fb 17 04       	cmp    WORD PTR ds:0x17fb,0x4
    1701:	7c 06                	jl     1709 <insertShow>
    1703:	c7 06 fb 17 00 00    	mov    WORD PTR ds:0x17fb,0x0

00001709 <insertShow>:
    1709:	06                   	push   es
    170a:	8c c8                	mov    ax,cs
    170c:	8e c0                	mov    es,ax
    170e:	b9 09 00             	mov    cx,0x9
    1711:	bd 01 18             	mov    bp,0x1801
    1714:	ba 45 18             	mov    dx,0x1845
    1717:	b3 0f                	mov    bl,0xf
    1719:	b7 00                	mov    bh,0x0
    171b:	b4 13                	mov    ah,0x13
    171d:	b0 00                	mov    al,0x0
    171f:	cd 10                	int    0x10
    1721:	07                   	pop    es

00001722 <int8hret>:
    1722:	06                   	push   es
    1723:	0e                   	push   cs
    1724:	07                   	pop    es
    1725:	50                   	push   ax
    1726:	51                   	push   cx
    1727:	55                   	push   bp
    1728:	52                   	push   dx
    1729:	b9 0a 00             	mov    cx,0xa
    172c:	bd ef 17             	mov    bp,0x17ef
    172f:	ba 05 18             	mov    dx,0x1805
    1732:	b3 0f                	mov    bl,0xf
    1734:	2e 8a 3e 80 a2       	mov    bh,BYTE PTR cs:0xa280
    1739:	b4 13                	mov    ah,0x13
    173b:	b0 00                	mov    al,0x0
    173d:	cd 10                	int    0x10
    173f:	2e a1 80 a2          	mov    ax,cs:0xa280
    1743:	83 c0 30             	add    ax,0x30
    1746:	2e a3 ee 17          	mov    cs:0x17ee,ax
    174a:	bd ee 17             	mov    bp,0x17ee
    174d:	b9 01 00             	mov    cx,0x1
    1750:	ba 0f 18             	mov    dx,0x180f
    1753:	b3 0f                	mov    bl,0xf
    1755:	2e 8a 3e 80 a2       	mov    bh,BYTE PTR cs:0xa280
    175a:	b4 13                	mov    ah,0x13
    175c:	b0 00                	mov    al,0x0
    175e:	cd 10                	int    0x10
    1760:	66 31 c0             	xor    eax,eax
    1763:	b8 50 25             	mov    ax,0x2550
    1766:	66 ff d0             	call   eax
    1769:	5a                   	pop    dx
    176a:	5d                   	pop    bp
    176b:	59                   	pop    cx
    176c:	58                   	pop    ax
    176d:	07                   	pop    es
    176e:	fa                   	cli    
    176f:	b0 20                	mov    al,0x20
    1771:	e6 20                	out    0x20,al
    1773:	e6 a0                	out    0xa0,al
    1775:	07                   	pop    es
    1776:	1f                   	pop    ds
    1777:	61                   	popa   
    1778:	53                   	push   bx
    1779:	50                   	push   ax
    177a:	1e                   	push   ds
    177b:	8c c8                	mov    ax,cs
    177d:	8e d8                	mov    ds,ax
    177f:	2e 8b 1e 70 e9       	mov    bx,WORD PTR cs:0xe970
    1784:	2e a1 e4 a7          	mov    ax,cs:0xa7e4
    1788:	f6 e3                	mul    bl
    178a:	89 c3                	mov    bx,ax
    178c:	81 c3 60 d1          	add    bx,0xd160
    1790:	2e 89 1e 6f 1b       	mov    WORD PTR cs:0x1b6f,bx
    1795:	1f                   	pop    ds
    1796:	58                   	pop    ax
    1797:	5b                   	pop    bx
    1798:	50                   	push   ax
    1799:	1e                   	push   ds
    179a:	0e                   	push   cs
    179b:	1f                   	pop    ds
    179c:	60                   	pusha  
    179d:	66 31 c0             	xor    eax,eax
    17a0:	b8 62 60             	mov    ax,0x6062
    17a3:	66 ff d0             	call   eax
    17a6:	66 31 c0             	xor    eax,eax
    17a9:	b8 6c 50             	mov    ax,0x506c
    17ac:	66 ff d0             	call   eax
    17af:	61                   	popa   
    17b0:	1f                   	pop    ds
    17b1:	58                   	pop    ax
    17b2:	2e 8f 06 e4 14       	pop    WORD PTR cs:0x14e4
    17b7:	2e 8f 06 e6 14       	pop    WORD PTR cs:0x14e6
    17bc:	9d                   	popf   
    17bd:	2e ff 36 e4 14       	push   WORD PTR cs:0x14e4
    17c2:	2e ff 36 e6 14       	push   WORD PTR cs:0x14e6
    17c7:	53                   	push   bx
    17c8:	50                   	push   ax
    17c9:	1e                   	push   ds
    17ca:	8c c8                	mov    ax,cs
    17cc:	8e d8                	mov    ds,ax
    17ce:	2e 8b 1e 70 e9       	mov    bx,WORD PTR cs:0xe970
    17d3:	2e a1 e4 a7          	mov    ax,cs:0xa7e4
    17d7:	f6 e3                	mul    bl
    17d9:	89 c3                	mov    bx,ax
    17db:	81 c3 60 d1          	add    bx,0xd160
    17df:	2e 89 1e 6d 1b       	mov    WORD PTR cs:0x1b6d,bx
    17e4:	1f                   	pop    ds
    17e5:	58                   	pop    ax
    17e6:	5b                   	pop    bx
    17e7:	e8 b1 02             	call   1a9b <save>
    17ea:	e8 2d 03             	call   1b1a <restart>
    17ed:	cf                   	iret   

000017ee <pageId>:
	...

000017ef <pageNum>:
    17ef:	20 54 65             	and    BYTE PTR [si+0x65],dl
    17f2:	72 6d                	jb     1861 <int35h+0x5>
    17f4:	69 6e 61 6c 20       	imul   bp,WORD PTR [bp+0x61],0x206c

000017f9 <count>:
    17f9:	28 00                	sub    BYTE PTR [bx+si],al

000017fb <k>:
	...

000017fd <char>:
    17fd:	7c 5c                	jl     185b <int34h+0xd>
    17ff:	2d                   	.byte 0x2d
    1800:	2f                   	das    

00001801 <inserted>:
    1801:	69 6e 73 65 72       	imul   bp,WORD PTR [bp+0x73],0x7265
    1806:	74 65                	je     186d <int36h+0x3>
    1808:	64                   	fs
    1809:	20                   	.byte 0x20

0000180a <int8h_store_ss>:
	...

0000180c <installInt34_37h>:
    180c:	06                   	push   es
    180d:	50                   	push   ax
    180e:	b8 00 00             	mov    ax,0x0
    1811:	8e c0                	mov    es,ax
    1813:	fa                   	cli    
    1814:	26 8c 0e d2 00       	mov    WORD PTR es:0xd2,cs
    1819:	26 c7 06 d0 00 4e 18 	mov    WORD PTR es:0xd0,0x184e
    1820:	fb                   	sti    
    1821:	fa                   	cli    
    1822:	26 8c 0e d6 00       	mov    WORD PTR es:0xd6,cs
    1827:	26 c7 06 d4 00 5c 18 	mov    WORD PTR es:0xd4,0x185c
    182e:	fb                   	sti    
    182f:	fa                   	cli    
    1830:	26 8c 0e da 00       	mov    WORD PTR es:0xda,cs
    1835:	26 c7 06 d8 00 6a 18 	mov    WORD PTR es:0xd8,0x186a
    183c:	fb                   	sti    
    183d:	fa                   	cli    
    183e:	26 8c 0e de 00       	mov    WORD PTR es:0xde,cs
    1843:	26 c7 06 dc 00 78 18 	mov    WORD PTR es:0xdc,0x1878
    184a:	fb                   	sti    
    184b:	58                   	pop    ax
    184c:	07                   	pop    es
    184d:	c3                   	ret    

0000184e <int34h>:
    184e:	8c c8                	mov    ax,cs
    1850:	8e d8                	mov    ds,ax
    1852:	66 31 c0             	xor    eax,eax
    1855:	b8 40 7b             	mov    ax,0x7b40
    1858:	66 ff d0             	call   eax
    185b:	cf                   	iret   

0000185c <int35h>:
    185c:	8c c8                	mov    ax,cs
    185e:	8e d8                	mov    ds,ax
    1860:	66 31 c0             	xor    eax,eax
    1863:	b8 9b 7b             	mov    ax,0x7b9b
    1866:	66 ff d0             	call   eax
    1869:	cf                   	iret   

0000186a <int36h>:
    186a:	8c c8                	mov    ax,cs
    186c:	8e d8                	mov    ds,ax
    186e:	66 31 c0             	xor    eax,eax
    1871:	b8 f6 7b             	mov    ax,0x7bf6
    1874:	66 ff d0             	call   eax
    1877:	cf                   	iret   

00001878 <int37h>:
    1878:	8c c8                	mov    ax,cs
    187a:	8e d8                	mov    ds,ax
    187c:	66 31 c0             	xor    eax,eax
    187f:	b8 51 7c             	mov    ax,0x7c51
    1882:	66 ff d0             	call   eax
    1885:	cf                   	iret   

00001886 <_printSentence>:
    1886:	66 55                	push   ebp
    1888:	67 8a 5c 24 18       	mov    bl,BYTE PTR [esp+0x18]
    188d:	67 8b 4c 24 14       	mov    cx,WORD PTR [esp+0x14]
    1892:	67 8a 54 24 10       	mov    dl,BYTE PTR [esp+0x10]
    1897:	67 8a 74 24 0c       	mov    dh,BYTE PTR [esp+0xc]
    189c:	67 8b 6c 24 08       	mov    bp,WORD PTR [esp+0x8]
    18a1:	b0 01                	mov    al,0x1
    18a3:	2e 8a 3e 80 a2       	mov    bh,BYTE PTR cs:0xa280
    18a8:	1e                   	push   ds
    18a9:	07                   	pop    es
    18aa:	b4 13                	mov    ah,0x13
    18ac:	cd 10                	int    0x10
    18ae:	66 5d                	pop    ebp
    18b0:	66 59                	pop    ecx
    18b2:	ff e1                	jmp    cx

000018b4 <_ClearScreen>:
    18b4:	60                   	pusha  
    18b5:	b4 06                	mov    ah,0x6
    18b7:	b0 00                	mov    al,0x0
    18b9:	b7 0f                	mov    bh,0xf
    18bb:	b5 00                	mov    ch,0x0
    18bd:	b1 00                	mov    cl,0x0
    18bf:	b6 18                	mov    dh,0x18
    18c1:	b2 4f                	mov    dl,0x4f
    18c3:	cd 10                	int    0x10
    18c5:	61                   	popa   
    18c6:	2e 66 8f 06 d1 18    	pop    DWORD PTR cs:0x18d1
    18cc:	2e ff 26 d1 18       	jmp    WORD PTR cs:0x18d1

000018d1 <retaddr>:
    18d1:	00 00                	add    BYTE PTR [bx+si],al
	...

000018d5 <_getInput>:
    18d5:	c7 06 1a 1a 00 00    	mov    WORD PTR ds:0x1a1a,0x0

000018db <getStr>:
    18db:	b4 00                	mov    ah,0x0
    18dd:	cd 16                	int    0x16
    18df:	3c 20                	cmp    al,0x20
    18e1:	7c 07                	jl     18ea <nochar>
    18e3:	b4 00                	mov    ah,0x0
    18e5:	e8 26 00             	call   190e <Charmini>
    18e8:	eb f1                	jmp    18db <getStr>

000018ea <nochar>:
    18ea:	80 fc 0e             	cmp    ah,0xe
    18ed:	74 07                	je     18f6 <backspace>
    18ef:	80 fc 1c             	cmp    ah,0x1c
    18f2:	74 09                	je     18fd <enter>
    18f4:	eb e5                	jmp    18db <getStr>

000018f6 <backspace>:
    18f6:	b4 01                	mov    ah,0x1
    18f8:	e8 13 00             	call   190e <Charmini>
    18fb:	eb de                	jmp    18db <getStr>

000018fd <enter>:
    18fd:	b0 00                	mov    al,0x0
    18ff:	b4 00                	mov    ah,0x0
    1901:	e8 0a 00             	call   190e <Charmini>
    1904:	66 29 c0             	sub    eax,eax
    1907:	b8 b5 19             	mov    ax,0x19b5
    190a:	66 59                	pop    ecx
    190c:	ff e1                	jmp    cx

0000190e <Charmini>:
    190e:	53                   	push   bx
    190f:	52                   	push   dx
    1910:	57                   	push   di
    1911:	06                   	push   es
    1912:	80 fc 01             	cmp    ah,0x1
    1915:	0f 8f 97 00          	jg     19b0 <Charminiret>
    1919:	88 e3                	mov    bl,ah
    191b:	b7 00                	mov    bh,0x0
    191d:	01 db                	add    bx,bx
    191f:	ff a7 1c 1a          	jmp    WORD PTR [bx+0x1a1c]

00001923 <charpush>:
    1923:	80 3e 1a 1a 64       	cmp    BYTE PTR ds:0x1a1a,0x64
    1928:	0f 8d 84 00          	jge    19b0 <Charminiret>
    192c:	8b 1e 1a 1a          	mov    bx,WORD PTR ds:0x1a1a
    1930:	fe 06 1a 1a          	inc    BYTE PTR ds:0x1a1a
    1934:	88 87 b5 19          	mov    BYTE PTR [bx+0x19b5],al
    1938:	e8 1a 00             	call   1955 <charshow>
    193b:	eb 73                	jmp    19b0 <Charminiret>

0000193d <charpop>:
    193d:	80 3e 1a 1a 00       	cmp    BYTE PTR ds:0x1a1a,0x0
    1942:	7e 6c                	jle    19b0 <Charminiret>
    1944:	fe 0e 1a 1a          	dec    BYTE PTR ds:0x1a1a
    1948:	8b 1e 1a 1a          	mov    bx,WORD PTR ds:0x1a1a
    194c:	8a 87 b5 19          	mov    al,BYTE PTR [bx+0x19b5]
    1950:	e8 2a 00             	call   197d <coverLast>
    1953:	eb 5b                	jmp    19b0 <Charminiret>

00001955 <charshow>:
    1955:	66 55                	push   ebp
    1957:	2e 8a 3e 80 a2       	mov    bh,BYTE PTR cs:0xa280
    195c:	b4 03                	mov    ah,0x3
    195e:	cd 10                	int    0x10
    1960:	b0 01                	mov    al,0x1
    1962:	b4 13                	mov    ah,0x13
    1964:	2e 8a 3e 80 a2       	mov    bh,BYTE PTR cs:0xa280
    1969:	b3 0e                	mov    bl,0xe
    196b:	b9 01 00             	mov    cx,0x1
    196e:	0e                   	push   cs
    196f:	07                   	pop    es
    1970:	bd b5 19             	mov    bp,0x19b5
    1973:	03 2e 1a 1a          	add    bp,WORD PTR ds:0x1a1a
    1977:	4d                   	dec    bp
    1978:	cd 10                	int    0x10
    197a:	66 5d                	pop    ebp
    197c:	c3                   	ret    

0000197d <coverLast>:
    197d:	b8 00 b8             	mov    ax,0xb800
    1980:	8e c0                	mov    es,ax
    1982:	b4 03                	mov    ah,0x3
    1984:	cd 10                	int    0x10
    1986:	80 fa 00             	cmp    dl,0x0
    1989:	7f 04                	jg     198f <noEndofLine>
    198b:	b2 50                	mov    dl,0x50
    198d:	fe ce                	dec    dh

0000198f <noEndofLine>:
    198f:	fe ca                	dec    dl
    1991:	b4 02                	mov    ah,0x2
    1993:	2e 8a 3e 80 a2       	mov    bh,BYTE PTR cs:0xa280
    1998:	cd 10                	int    0x10
    199a:	b8 50 00             	mov    ax,0x50
    199d:	f6 e6                	mul    dh
    199f:	b6 00                	mov    dh,0x0
    19a1:	01 d0                	add    ax,dx
    19a3:	ba 02 00             	mov    dx,0x2
    19a6:	f7 e2                	mul    dx
    19a8:	89 c3                	mov    bx,ax
    19aa:	26 c7 07 20 0f       	mov    WORD PTR es:[bx],0xf20
    19af:	c3                   	ret    

000019b0 <Charminiret>:
    19b0:	07                   	pop    es
    19b1:	5f                   	pop    di
    19b2:	5a                   	pop    dx
    19b3:	5b                   	pop    bx
    19b4:	c3                   	ret    

000019b5 <input>:
	...

00001a1a <top>:
	...

00001a1c <getInputTable>:
    1a1c:	23 19                	and    bx,WORD PTR [bx+di]
    1a1e:	3d 19 55             	cmp    ax,0x5519
    1a21:	19                   	.byte 0x19

00001a22 <_shutdown>:
    1a22:	60                   	pusha  
    1a23:	b8 01 53             	mov    ax,0x5301
    1a26:	31 db                	xor    bx,bx
    1a28:	cd 15                	int    0x15
    1a2a:	b8 0e 53             	mov    ax,0x530e
    1a2d:	b9 02 01             	mov    cx,0x102
    1a30:	cd 15                	int    0x15
    1a32:	b8 07 53             	mov    ax,0x5307
    1a35:	b3 01                	mov    bl,0x1
    1a37:	b9 03 00             	mov    cx,0x3
    1a3a:	cd 15                	int    0x15
    1a3c:	61                   	popa   
    1a3d:	66 59                	pop    ecx
    1a3f:	ff e1                	jmp    cx

00001a41 <_loadReal>:
    1a41:	66 55                	push   ebp
    1a43:	06                   	push   es
    1a44:	1e                   	push   ds
    1a45:	50                   	push   ax
    1a46:	52                   	push   dx
    1a47:	51                   	push   cx
    1a48:	53                   	push   bx
    1a49:	8c c8                	mov    ax,cs
    1a4b:	8e d8                	mov    ds,ax
    1a4d:	67 8b 44 24 20       	mov    ax,WORD PTR [esp+0x20]
    1a52:	8e c0                	mov    es,ax
    1a54:	67 8b 44 24 14       	mov    ax,WORD PTR [esp+0x14]
    1a59:	ba 00 00             	mov    dx,0x0
    1a5c:	b9 00 02             	mov    cx,0x200
    1a5f:	f7 f1                	div    cx
    1a61:	b9 12 00             	mov    cx,0x12
    1a64:	f7 f1                	div    cx
    1a66:	88 d1                	mov    cl,dl
    1a68:	fe c1                	inc    cl
    1a6a:	89 c2                	mov    dx,ax
    1a6c:	d1 e8                	shr    ax,1
    1a6e:	88 c5                	mov    ch,al
    1a70:	88 d6                	mov    dh,dl
    1a72:	80 e6 01             	and    dh,0x1
    1a75:	b2 00                	mov    dl,0x0
    1a77:	51                   	push   cx
    1a78:	67 8b 44 24 1c       	mov    ax,WORD PTR [esp+0x1c]
    1a7d:	b9 00 02             	mov    cx,0x200
    1a80:	ba 00 00             	mov    dx,0x0
    1a83:	f7 f1                	div    cx
    1a85:	59                   	pop    cx
    1a86:	67 8b 5c 24 1c       	mov    bx,WORD PTR [esp+0x1c]
    1a8b:	b4 02                	mov    ah,0x2
    1a8d:	cd 13                	int    0x13
    1a8f:	5b                   	pop    bx
    1a90:	59                   	pop    cx
    1a91:	5a                   	pop    dx
    1a92:	58                   	pop    ax
    1a93:	1f                   	pop    ds
    1a94:	07                   	pop    es
    1a95:	66 5d                	pop    ebp
    1a97:	66 59                	pop    ecx
    1a99:	ff e1                	jmp    cx

00001a9b <save>:
    1a9b:	83 c4 06             	add    sp,0x6
    1a9e:	2e 89 26 67 1b       	mov    WORD PTR cs:0x1b67,sp
    1aa3:	2e 8c 16 69 1b       	mov    WORD PTR cs:0x1b69,ss
    1aa8:	83 ec 06             	sub    sp,0x6
    1aab:	2e 8f 06 81 1b       	pop    WORD PTR cs:0x1b81
    1ab0:	1e                   	push   ds
    1ab1:	0e                   	push   cs
    1ab2:	1f                   	pop    ds
    1ab3:	56                   	push   si
    1ab4:	57                   	push   di
    1ab5:	2e 8b 3e 6f 1b       	mov    di,WORD PTR cs:0x1b6f
    1aba:	2e 8f 06 73 1b       	pop    WORD PTR cs:0x1b73
    1abf:	2e 8f 06 75 1b       	pop    WORD PTR cs:0x1b75
    1ac4:	2e 8f 06 77 1b       	pop    WORD PTR cs:0x1b77
    1ac9:	2e 8f 06 7b 1b       	pop    WORD PTR cs:0x1b7b
    1ace:	2e 8f 06 79 1b       	pop    WORD PTR cs:0x1b79
    1ad3:	8c 55 20             	mov    WORD PTR [di+0x20],ss
    1ad6:	89 65 1e             	mov    WORD PTR [di+0x1e],sp
    1ad9:	0e                   	push   cs
    1ada:	17                   	pop    ss
    1adb:	83 c7 1e             	add    di,0x1e
    1ade:	89 fc                	mov    sp,di
    1ae0:	9c                   	pushf  
    1ae1:	2e ff 36 7b 1b       	push   WORD PTR cs:0x1b7b
    1ae6:	2e ff 36 79 1b       	push   WORD PTR cs:0x1b79
    1aeb:	60                   	pusha  
    1aec:	5f                   	pop    di
    1aed:	5f                   	pop    di
    1aee:	2e ff 36 75 1b       	push   WORD PTR cs:0x1b75
    1af3:	2e ff 36 73 1b       	push   WORD PTR cs:0x1b73
    1af8:	2e ff 36 77 1b       	push   WORD PTR cs:0x1b77
    1afd:	06                   	push   es
    1afe:	0f a0                	push   fs
    1b00:	0f a8                	push   gs
    1b02:	2e 8e 16 69 1b       	mov    ss,WORD PTR cs:0x1b69
    1b07:	2e a3 6b 1b          	mov    cs:0x1b6b,ax
    1b0b:	2e a1 67 1b          	mov    ax,cs:0x1b67
    1b0f:	89 c4                	mov    sp,ax
    1b11:	2e a1 6b 1b          	mov    ax,cs:0x1b6b
    1b15:	2e ff 26 81 1b       	jmp    WORD PTR cs:0x1b81

00001b1a <restart>:
    1b1a:	0e                   	push   cs
    1b1b:	17                   	pop    ss
    1b1c:	2e 8f 06 81 1b       	pop    WORD PTR cs:0x1b81
    1b21:	2e 8b 26 6d 1b       	mov    sp,WORD PTR cs:0x1b6d
    1b26:	89 e0                	mov    ax,sp
    1b28:	83 c0 18             	add    ax,0x18
    1b2b:	2e a3 7f 1b          	mov    cs:0x1b7f,ax
    1b2f:	0f a9                	pop    gs
    1b31:	0f a1                	pop    fs
    1b33:	07                   	pop    es
    1b34:	1f                   	pop    ds
    1b35:	61                   	popa   
    1b36:	2e 8b 26 7f 1b       	mov    sp,WORD PTR cs:0x1b7f
    1b3b:	2e 8f 06 79 1b       	pop    WORD PTR cs:0x1b79
    1b40:	2e 8f 06 7b 1b       	pop    WORD PTR cs:0x1b7b
    1b45:	9d                   	popf   
    1b46:	2e 8f 06 7f 1b       	pop    WORD PTR cs:0x1b7f
    1b4b:	17                   	pop    ss
    1b4c:	2e a3 71 1b          	mov    cs:0x1b71,ax
    1b50:	2e a1 7f 1b          	mov    ax,cs:0x1b7f
    1b54:	89 c4                	mov    sp,ax
    1b56:	2e a1 71 1b          	mov    ax,cs:0x1b71
    1b5a:	fb                   	sti    
    1b5b:	9c                   	pushf  
    1b5c:	2e ff 36 7b 1b       	push   WORD PTR cs:0x1b7b
    1b61:	2e ff 36 79 1b       	push   WORD PTR cs:0x1b79
    1b66:	cf                   	iret   

00001b67 <store_sp_dispatch>:
	...

00001b69 <store_ss_dispatch>:
	...

00001b6b <store_ax_dispatch>:
	...

00001b6d <new_process>:
	...

00001b6f <old_process>:
	...

00001b71 <store_ax>:
	...

00001b73 <store_di>:
	...

00001b75 <store_si>:
	...

00001b77 <store_ds>:
	...

00001b79 <store_ip>:
	...

00001b7b <store_cs>:
	...

00001b7d <store_ss>:
	...

00001b7f <store_sp>:
	...

00001b81 <store_retaddr>:
	...

00001b83 <_reboot>:
    1b83:	cd 19                	int    0x19

00001b85 <_getDate>:
    1b85:	60                   	pusha  
    1b86:	b4 04                	mov    ah,0x4
    1b88:	cd 1a                	int    0x1a
    1b8a:	88 cb                	mov    bl,cl
    1b8c:	88 d8                	mov    al,bl
    1b8e:	24 f0                	and    al,0xf0
    1b90:	b1 04                	mov    cl,0x4
    1b92:	d2 e8                	shr    al,cl
    1b94:	80 e3 0f             	and    bl,0xf
    1b97:	88 dc                	mov    ah,bl
    1b99:	05 30 30             	add    ax,0x3030
    1b9c:	c7 06 ea 1b 32 30    	mov    WORD PTR ds:0x1bea,0x3032
    1ba2:	a3 ec 1b             	mov    ds:0x1bec,ax
    1ba5:	88 f3                	mov    bl,dh
    1ba7:	88 d8                	mov    al,bl
    1ba9:	24 f0                	and    al,0xf0
    1bab:	b1 04                	mov    cl,0x4
    1bad:	d2 e8                	shr    al,cl
    1baf:	80 e3 0f             	and    bl,0xf
    1bb2:	88 dc                	mov    ah,bl
    1bb4:	05 30 30             	add    ax,0x3030
    1bb7:	a3 e7 1b             	mov    ds:0x1be7,ax
    1bba:	c6 06 e9 1b 2f       	mov    BYTE PTR ds:0x1be9,0x2f
    1bbf:	88 d3                	mov    bl,dl
    1bc1:	88 d8                	mov    al,bl
    1bc3:	24 f0                	and    al,0xf0
    1bc5:	b1 04                	mov    cl,0x4
    1bc7:	d2 e8                	shr    al,cl
    1bc9:	80 e3 0f             	and    bl,0xf
    1bcc:	88 dc                	mov    ah,bl
    1bce:	05 30 30             	add    ax,0x3030
    1bd1:	a3 e4 1b             	mov    ds:0x1be4,ax
    1bd4:	c6 06 e6 1b 2f       	mov    BYTE PTR ds:0x1be6,0x2f
    1bd9:	61                   	popa   
    1bda:	66 31 c0             	xor    eax,eax
    1bdd:	b8 e4 1b             	mov    ax,0x1be4
    1be0:	66 59                	pop    ecx
    1be2:	ff e1                	jmp    cx

00001be4 <date>:
	...

00001bef <_roll>:
    1bef:	66 55                	push   ebp
    1bf1:	b4 06                	mov    ah,0x6
    1bf3:	b0 01                	mov    al,0x1
    1bf5:	b7 0f                	mov    bh,0xf
    1bf7:	b9 00 00             	mov    cx,0x0
    1bfa:	ba 4f 17             	mov    dx,0x174f
    1bfd:	cd 10                	int    0x10
    1bff:	66 5d                	pop    ebp
    1c01:	66 59                	pop    ecx
    1c03:	ff e1                	jmp    cx

00001c05 <lastline>:
	...

00002385 <_getRecords>:
    2385:	66 55                	push   ebp
    2387:	8c c8                	mov    ax,cs
    2389:	67 8b 44 24 08       	mov    ax,WORD PTR [esp+0x8]
    238e:	8e c0                	mov    es,ax
    2390:	66 31 db             	xor    ebx,ebx
    2393:	66 67 8b 5c 24 0c    	mov    ebx,DWORD PTR [esp+0xc]
    2399:	66 31 c0             	xor    eax,eax
    239c:	89 d8                	mov    ax,bx
    239e:	66 5d                	pop    ebp
    23a0:	66 59                	pop    ecx
    23a2:	ff e1                	jmp    cx

000023a4 <_fork>:
    23a4:	60                   	pusha  
    23a5:	b4 08                	mov    ah,0x8
    23a7:	cd 21                	int    0x21
    23a9:	61                   	popa   
    23aa:	c3                   	ret    

000023ab <_exitprg>:
    23ab:	66 55                	push   ebp
    23ad:	66 89 e5             	mov    ebp,esp
    23b0:	60                   	pusha  
    23b1:	36 67 8b 5d 08       	mov    bx,WORD PTR ss:[ebp+0x8]
    23b6:	b4 06                	mov    ah,0x6
    23b8:	cd 21                	int    0x21
    23ba:	61                   	popa   
    23bb:	66 89 ec             	mov    esp,ebp
    23be:	66 5d                	pop    ebp
    23c0:	c3                   	ret    

000023c1 <_wait>:
    23c1:	66 55                	push   ebp
    23c3:	66 89 e5             	mov    ebp,esp
    23c6:	60                   	pusha  
    23c7:	36 67 8b 5d 08       	mov    bx,WORD PTR ss:[ebp+0x8]
    23cc:	b4 07                	mov    ah,0x7
    23ce:	cd 21                	int    0x21
    23d0:	61                   	popa   
    23d1:	66 89 ec             	mov    esp,ebp
    23d4:	66 5d                	pop    ebp
    23d6:	c3                   	ret    

000023d7 <_memcpy>:
    23d7:	66 55                	push   ebp
    23d9:	66 89 e5             	mov    ebp,esp
    23dc:	60                   	pusha  
    23dd:	1e                   	push   ds
    23de:	06                   	push   es
    23df:	36 67 8b 45 08       	mov    ax,WORD PTR ss:[ebp+0x8]
    23e4:	8e d8                	mov    ds,ax
    23e6:	36 67 8b 75 0c       	mov    si,WORD PTR ss:[ebp+0xc]
    23eb:	36 67 8b 45 10       	mov    ax,WORD PTR ss:[ebp+0x10]
    23f0:	8e c0                	mov    es,ax
    23f2:	36 67 8b 7d 14       	mov    di,WORD PTR ss:[ebp+0x14]
    23f7:	36 67 8b 4d 18       	mov    cx,WORD PTR ss:[ebp+0x18]
    23fc:	f3 a4                	rep movs BYTE PTR es:[di],BYTE PTR ds:[si]
    23fe:	07                   	pop    es
    23ff:	1f                   	pop    ds
    2400:	61                   	popa   
    2401:	66 89 ec             	mov    esp,ebp
    2404:	66 5d                	pop    ebp
    2406:	66 59                	pop    ecx
    2408:	ff e1                	jmp    cx

0000240a <_write>:
    240a:	66 55                	push   ebp
    240c:	06                   	push   es
    240d:	1e                   	push   ds
    240e:	50                   	push   ax
    240f:	52                   	push   dx
    2410:	51                   	push   cx
    2411:	53                   	push   bx
    2412:	8c c8                	mov    ax,cs
    2414:	8e d8                	mov    ds,ax
    2416:	67 8b 44 24 20       	mov    ax,WORD PTR [esp+0x20]
    241b:	8e c0                	mov    es,ax
    241d:	67 8b 44 24 14       	mov    ax,WORD PTR [esp+0x14]
    2422:	ba 00 00             	mov    dx,0x0
    2425:	b9 00 02             	mov    cx,0x200
    2428:	f7 f1                	div    cx
    242a:	b9 12 00             	mov    cx,0x12
    242d:	f7 f1                	div    cx
    242f:	88 d1                	mov    cl,dl
    2431:	fe c1                	inc    cl
    2433:	89 c2                	mov    dx,ax
    2435:	d1 e8                	shr    ax,1
    2437:	88 c5                	mov    ch,al
    2439:	88 d6                	mov    dh,dl
    243b:	80 e6 01             	and    dh,0x1
    243e:	b2 00                	mov    dl,0x0
    2440:	52                   	push   dx
    2441:	51                   	push   cx
    2442:	67 8b 44 24 1c       	mov    ax,WORD PTR [esp+0x1c]
    2447:	b9 00 02             	mov    cx,0x200
    244a:	ba 00 00             	mov    dx,0x0
    244d:	f7 f1                	div    cx
    244f:	59                   	pop    cx
    2450:	5a                   	pop    dx
    2451:	67 8b 5c 24 1c       	mov    bx,WORD PTR [esp+0x1c]
    2456:	b4 03                	mov    ah,0x3
    2458:	cd 13                	int    0x13
    245a:	5b                   	pop    bx
    245b:	59                   	pop    cx
    245c:	5a                   	pop    dx
    245d:	58                   	pop    ax
    245e:	1f                   	pop    ds
    245f:	07                   	pop    es
    2460:	66 5d                	pop    ebp
    2462:	66 59                	pop    ecx
    2464:	ff e1                	jmp    cx
    2466:	66 90                	xchg   eax,eax
    2468:	66 90                	xchg   eax,eax
    246a:	66 90                	xchg   eax,eax
    246c:	66 90                	xchg   eax,eax
    246e:	66 90                	xchg   eax,eax
    2470:	66 90                	xchg   eax,eax
    2472:	66 90                	xchg   eax,eax
    2474:	66 90                	xchg   eax,eax
    2476:	66 90                	xchg   eax,eax
    2478:	66 90                	xchg   eax,eax
    247a:	66 90                	xchg   eax,eax
    247c:	66 90                	xchg   eax,eax
    247e:	66 90                	xchg   eax,eax

00002480 <_changePage>:
changePage():
D:\OneDrive\Study\Operating Systems\MyOs\project9\codes/./lib/utilsC.c:47
void initialProcessTable();
/////////// inside declarations end ////////////

//////////// IO ////////////////////
void changePage(short scanCode, short status)
{
    2480:	66 55                	push   ebp
    2482:	66 89 e5             	mov    ebp,esp
    2485:	66 83 ec 08          	sub    esp,0x8
    2489:	67 66 8b 55 08       	mov    edx,DWORD PTR [ebp+0x8]
    248e:	67 66 8b 45 0c       	mov    eax,DWORD PTR [ebp+0xc]
    2493:	67 89 55 fc          	mov    WORD PTR [ebp-0x4],dx
    2497:	67 89 45 f8          	mov    WORD PTR [ebp-0x8],ax
D:\OneDrive\Study\Operating Systems\MyOs\project9\codes/./lib/utilsC.c:48
	if (status & (1 << 2))
    249b:	67 66 0f bf 45 f8    	movsx  eax,WORD PTR [ebp-0x8]
    24a1:	66 83 e0 04          	and    eax,0x4
    24a5:	66 85 c0             	test   eax,eax
    24a8:	74 72                	je     251c <_changePage+0x9c>
D:\OneDrive\Study\Operating Systems\MyOs\project9\codes/./lib/utilsC.c:50
	{
		if (scanCode == 0x48)
    24aa:	67 83 7d fc 48       	cmp    WORD PTR [ebp-0x4],0x48
    24af:	75 34                	jne    24e5 <_changePage+0x65>
D:\OneDrive\Study\Operating Systems\MyOs\project9\codes/./lib/utilsC.c:52
		{
			curPageId = (curPageId - 1) % (MaxPage + 1);
    24b1:	66 a1 80 a2          	mov    eax,ds:0xa280
    24b5:	66 48                	dec    eax
    24b7:	66 25 03 00 00 80    	and    eax,0x80000003
    24bd:	66 85 c0             	test   eax,eax
    24c0:	79 08                	jns    24ca <_changePage+0x4a>
    24c2:	66 48                	dec    eax
    24c4:	66 83 c8 fc          	or     eax,0xfffffffc
    24c8:	66 40                	inc    eax
    24ca:	66 a3 80 a2          	mov    ds:0xa280,eax
D:\OneDrive\Study\Operating Systems\MyOs\project9\codes/./lib/utilsC.c:53
			if (curPageId == 0) {
    24ce:	66 a1 80 a2          	mov    eax,ds:0xa280
    24d2:	66 85 c0             	test   eax,eax
    24d5:	75 45                	jne    251c <_changePage+0x9c>
D:\OneDrive\Study\Operating Systems\MyOs\project9\codes/./lib/utilsC.c:54
				curPageId += MaxPage;
    24d7:	66 a1 80 a2          	mov    eax,ds:0xa280
    24db:	66 83 c0 03          	add    eax,0x3
    24df:	66 a3 80 a2          	mov    ds:0xa280,eax
    24e3:	eb 37                	jmp    251c <_changePage+0x9c>
D:\OneDrive\Study\Operating Systems\MyOs\project9\codes/./lib/utilsC.c:57
			}
		}
		else if (scanCode == 0x50)
    24e5:	67 83 7d fc 50       	cmp    WORD PTR [ebp-0x4],0x50
    24ea:	75 30                	jne    251c <_changePage+0x9c>
D:\OneDrive\Study\Operating Systems\MyOs\project9\codes/./lib/utilsC.c:59
		{
			curPageId = (curPageId + 1) % (MaxPage + 1);
    24ec:	66 a1 80 a2          	mov    eax,ds:0xa280
    24f0:	66 40                	inc    eax
    24f2:	66 25 03 00 00 80    	and    eax,0x80000003
    24f8:	66 85 c0             	test   eax,eax
    24fb:	79 08                	jns    2505 <_changePage+0x85>
    24fd:	66 48                	dec    eax
    24ff:	66 83 c8 fc          	or     eax,0xfffffffc
    2503:	66 40                	inc    eax
    2505:	66 a3 80 a2          	mov    ds:0xa280,eax
D:\OneDrive\Study\Operating Systems\MyOs\project9\codes/./lib/utilsC.c:60
			if (curPageId == 0)
    2509:	66 a1 80 a2          	mov    eax,ds:0xa280
    250d:	66 85 c0             	test   eax,eax
    2510:	75 0a                	jne    251c <_changePage+0x9c>
D:\OneDrive\Study\Operating Systems\MyOs\project9\codes/./lib/utilsC.c:61
				curPageId += 1;
    2512:	66 a1 80 a2          	mov    eax,ds:0xa280
    2516:	66 40                	inc    eax
    2518:	66 a3 80 a2          	mov    ds:0xa280,eax
D:\OneDrive\Study\Operating Systems\MyOs\project9\codes/./lib/utilsC.c:64
		}
	}
	processTable[curProcessId].pageID = curPageId;
    251c:	66 8b 16 70 e9       	mov    edx,DWORD PTR ds:0xe970
    2521:	66 8b 0e 80 a2       	mov    ecx,DWORD PTR ds:0xa280
    2526:	66 89 d0             	mov    eax,edx
    2529:	66 c1 e0 03          	shl    eax,0x3
    252d:	66 01 d0             	add    eax,edx
    2530:	66 01 c0             	add    eax,eax
    2533:	66 01 d0             	add    eax,edx
    2536:	66 c1 e0 02          	shl    eax,0x2
    253a:	66 01 d0             	add    eax,edx
    253d:	66 c1 e0 02          	shl    eax,0x2
    2541:	66 05 8c d2 00 00    	add    eax,0xd28c
    2547:	67 66 89 08          	mov    DWORD PTR [eax],ecx
D:\OneDrive\Study\Operating Systems\MyOs\project9\codes/./lib/utilsC.c:65
}
    254b:	90                   	nop
    254c:	66 c9                	leave  
    254e:	66 c3                	ret    

00002550 <_copyPage>:
copyPage():
D:\OneDrive\Study\Operating Systems\MyOs\project9\codes/./lib/utilsC.c:70



void copyPage()
{
    2550:	66 55                	push   ebp
    2552:	66 89 e5             	mov    ebp,esp
    2555:	66 83 ec 14          	sub    esp,0x14
D:\OneDrive\Study\Operating Systems\MyOs\project9\codes/./lib/utilsC.c:71
	memcpy(0xb800, curPageId * 1024 * 4, 0xb800, 0, 4 * 1024);
    2559:	66 a1 80 a2          	mov    eax,ds:0xa280
    255d:	66 c1 e0 0c          	shl    eax,0xc
    2561:	67 66 c7 44 24 10 00 	mov    DWORD PTR [esp+0x10],0x1000
    2568:	10 00 00 
    256b:	67 66 c7 44 24 0c 00 	mov    DWORD PTR [esp+0xc],0x0
    2572:	00 00 00 
    2575:	67 66 c7 44 24 08 00 	mov    DWORD PTR [esp+0x8],0xb800
    257c:	b8 00 00 
    257f:	67 66 89 44 24 04    	mov    DWORD PTR [esp+0x4],eax
    2585:	67 66 c7 04 24 00 b8 	mov    DWORD PTR [esp],0xb800
    258c:	00 00 
    258e:	66 e8 43 fe ff ff    	call   23d7 <_memcpy>
D:\OneDrive\Study\Operating Systems\MyOs\project9\codes/./lib/utilsC.c:72
}
    2594:	90                   	nop
    2595:	66 c9                	leave  
    2597:	66 c3                	ret    

00002599 <_cp>:
cp():
D:\OneDrive\Study\Operating Systems\MyOs\project9\codes/./lib/utilsC.c:75

void cp(char * sour, char * des)
{
    2599:	66 55                	push   ebp
    259b:	66 89 e5             	mov    ebp,esp
    259e:	66 83 ec 20          	sub    esp,0x20
D:\OneDrive\Study\Operating Systems\MyOs\project9\codes/./lib/utilsC.c:76
	fcreate(des);
    25a2:	67 66 8b 45 0c       	mov    eax,DWORD PTR [ebp+0xc]
    25a7:	67 66 89 04 24       	mov    DWORD PTR [esp],eax
    25ac:	66 e8 c9 22 00 00    	call   487b <_fcreate>
D:\OneDrive\Study\Operating Systems\MyOs\project9\codes/./lib/utilsC.c:77
	int sourInd = find(sour), desInd = find(des);
    25b2:	67 66 8b 45 08       	mov    eax,DWORD PTR [ebp+0x8]
    25b7:	67 66 89 04 24       	mov    DWORD PTR [esp],eax
    25bc:	66 e8 bb 13 00 00    	call   397d <_find>
    25c2:	67 66 89 45 fc       	mov    DWORD PTR [ebp-0x4],eax
    25c7:	67 66 8b 45 0c       	mov    eax,DWORD PTR [ebp+0xc]
    25cc:	67 66 89 04 24       	mov    DWORD PTR [esp],eax
    25d1:	66 e8 a6 13 00 00    	call   397d <_find>
    25d7:	67 66 89 45 f8       	mov    DWORD PTR [ebp-0x8],eax
D:\OneDrive\Study\Operating Systems\MyOs\project9\codes/./lib/utilsC.c:78
	int segMask = 0xf0000, offsetMask = 0x0000ffff;
    25dc:	67 66 c7 45 f4 00 00 	mov    DWORD PTR [ebp-0xc],0xf0000
    25e3:	0f 00 
    25e5:	67 66 c7 45 f0 ff ff 	mov    DWORD PTR [ebp-0x10],0xffff
    25ec:	00 00 
D:\OneDrive\Study\Operating Systems\MyOs\project9\codes/./lib/utilsC.c:79
	fopen(sour, readFile);
    25ee:	67 66 c7 44 24 04 00 	mov    DWORD PTR [esp+0x4],0x0
    25f5:	00 00 00 
    25f8:	67 66 8b 45 08       	mov    eax,DWORD PTR [ebp+0x8]
    25fd:	67 66 89 04 24       	mov    DWORD PTR [esp],eax
    2602:	66 e8 ac 19 00 00    	call   3fb4 <_fopen>
D:\OneDrive\Study\Operating Systems\MyOs\project9\codes/./lib/utilsC.c:80
	char * buffer = malloc(information[sourInd].size);
    2608:	67 66 8b 55 fc       	mov    edx,DWORD PTR [ebp-0x4]
    260d:	66 89 d0             	mov    eax,edx
    2610:	66 01 c0             	add    eax,eax
    2613:	66 01 d0             	add    eax,edx
    2616:	66 c1 e0 02          	shl    eax,0x2
    261a:	66 01 d0             	add    eax,edx
    261d:	66 c1 e0 02          	shl    eax,0x2
    2621:	66 01 d0             	add    eax,edx
    2624:	66 c1 e0 02          	shl    eax,0x2
    2628:	66 05 88 c0 00 00    	add    eax,0xc088
    262e:	67 66 8b 00          	mov    eax,DWORD PTR [eax]
    2632:	67 66 89 04 24       	mov    DWORD PTR [esp],eax
    2637:	66 e8 fe 3a 00 00    	call   613b <_malloc>
    263d:	67 66 89 45 ec       	mov    DWORD PTR [ebp-0x14],eax
D:\OneDrive\Study\Operating Systems\MyOs\project9\codes/./lib/utilsC.c:81
	fread(sour, buffer, information[sourInd].size);
    2642:	67 66 8b 55 fc       	mov    edx,DWORD PTR [ebp-0x4]
    2647:	66 89 d0             	mov    eax,edx
    264a:	66 01 c0             	add    eax,eax
    264d:	66 01 d0             	add    eax,edx
    2650:	66 c1 e0 02          	shl    eax,0x2
    2654:	66 01 d0             	add    eax,edx
    2657:	66 c1 e0 02          	shl    eax,0x2
    265b:	66 01 d0             	add    eax,edx
    265e:	66 c1 e0 02          	shl    eax,0x2
    2662:	66 05 88 c0 00 00    	add    eax,0xc088
    2668:	67 66 8b 00          	mov    eax,DWORD PTR [eax]
    266c:	67 66 89 44 24 08    	mov    DWORD PTR [esp+0x8],eax
    2672:	67 66 8b 45 ec       	mov    eax,DWORD PTR [ebp-0x14]
    2677:	67 66 89 44 24 04    	mov    DWORD PTR [esp+0x4],eax
    267d:	67 66 8b 45 08       	mov    eax,DWORD PTR [ebp+0x8]
    2682:	67 66 89 04 24       	mov    DWORD PTR [esp],eax
    2687:	66 e8 ae 1f 00 00    	call   463b <_fread>
D:\OneDrive\Study\Operating Systems\MyOs\project9\codes/./lib/utilsC.c:82
	fclose(sour);
    268d:	67 66 8b 45 08       	mov    eax,DWORD PTR [ebp+0x8]
    2692:	67 66 89 04 24       	mov    DWORD PTR [esp],eax
    2697:	66 e8 58 1d 00 00    	call   43f5 <_fclose>
D:\OneDrive\Study\Operating Systems\MyOs\project9\codes/./lib/utilsC.c:83
	fopen(des, readFile);
    269d:	67 66 c7 44 24 04 00 	mov    DWORD PTR [esp+0x4],0x0
    26a4:	00 00 00 
    26a7:	67 66 8b 45 0c       	mov    eax,DWORD PTR [ebp+0xc]
    26ac:	67 66 89 04 24       	mov    DWORD PTR [esp],eax
    26b1:	66 e8 fd 18 00 00    	call   3fb4 <_fopen>
D:\OneDrive\Study\Operating Systems\MyOs\project9\codes/./lib/utilsC.c:84
	fwrite(des, buffer, information[sourInd].size);
    26b7:	67 66 8b 55 fc       	mov    edx,DWORD PTR [ebp-0x4]
    26bc:	66 89 d0             	mov    eax,edx
    26bf:	66 01 c0             	add    eax,eax
    26c2:	66 01 d0             	add    eax,edx
    26c5:	66 c1 e0 02          	shl    eax,0x2
    26c9:	66 01 d0             	add    eax,edx
    26cc:	66 c1 e0 02          	shl    eax,0x2
    26d0:	66 01 d0             	add    eax,edx
    26d3:	66 c1 e0 02          	shl    eax,0x2
    26d7:	66 05 88 c0 00 00    	add    eax,0xc088
    26dd:	67 66 8b 00          	mov    eax,DWORD PTR [eax]
    26e1:	67 66 89 44 24 08    	mov    DWORD PTR [esp+0x8],eax
    26e7:	67 66 8b 45 ec       	mov    eax,DWORD PTR [ebp-0x14]
    26ec:	67 66 89 44 24 04    	mov    DWORD PTR [esp+0x4],eax
    26f2:	67 66 8b 45 0c       	mov    eax,DWORD PTR [ebp+0xc]
    26f7:	67 66 89 04 24       	mov    DWORD PTR [esp],eax
    26fc:	66 e8 59 20 00 00    	call   475b <_fwrite>
D:\OneDrive\Study\Operating Systems\MyOs\project9\codes/./lib/utilsC.c:85
	fclose(des);
    2702:	67 66 8b 45 0c       	mov    eax,DWORD PTR [ebp+0xc]
    2707:	67 66 89 04 24       	mov    DWORD PTR [esp],eax
    270c:	66 e8 e3 1c 00 00    	call   43f5 <_fclose>
D:\OneDrive\Study\Operating Systems\MyOs\project9\codes/./lib/utilsC.c:86
}
    2712:	90                   	nop
    2713:	66 c9                	leave  
    2715:	66 c3                	ret    

00002717 <_countLines>:
countLines():
D:\OneDrive\Study\Operating Systems\MyOs\project9\codes/./lib/utilsC.c:90


int countLines(char * sen)
{
    2717:	66 55                	push   ebp
    2719:	66 89 e5             	mov    ebp,esp
    271c:	66 83 ec 08          	sub    esp,0x8
D:\OneDrive\Study\Operating Systems\MyOs\project9\codes/./lib/utilsC.c:91
	int lines = 0;
    2720:	67 66 c7 45 fc 00 00 	mov    DWORD PTR [ebp-0x4],0x0
    2727:	00 00 
D:\OneDrive\Study\Operating Systems\MyOs\project9\codes/./lib/utilsC.c:92
	for (int i = 0; sen[i]; ++i) {
    2729:	67 66 c7 45 f8 00 00 	mov    DWORD PTR [ebp-0x8],0x0
    2730:	00 00 
    2732:	eb 1e                	jmp    2752 <_countLines+0x3b>
D:\OneDrive\Study\Operating Systems\MyOs\project9\codes/./lib/utilsC.c:93
		if (sen[i] == '\n') {
    2734:	67 66 8b 55 f8       	mov    edx,DWORD PTR [ebp-0x8]
    2739:	67 66 8b 45 08       	mov    eax,DWORD PTR [ebp+0x8]
    273e:	66 01 d0             	add    eax,edx
    2741:	67 8a 00             	mov    al,BYTE PTR [eax]
    2744:	3c 0a                	cmp    al,0xa
    2746:	75 05                	jne    274d <_countLines+0x36>
D:\OneDrive\Study\Operating Systems\MyOs\project9\codes/./lib/utilsC.c:94
			++lines;
    2748:	67 66 ff 45 fc       	inc    DWORD PTR [ebp-0x4]
D:\OneDrive\Study\Operating Systems\MyOs\project9\codes/./lib/utilsC.c:92
	for (int i = 0; sen[i]; ++i) {
    274d:	67 66 ff 45 f8       	inc    DWORD PTR [ebp-0x8]
    2752:	67 66 8b 55 f8       	mov    edx,DWORD PTR [ebp-0x8]
    2757:	67 66 8b 45 08       	mov    eax,DWORD PTR [ebp+0x8]
    275c:	66 01 d0             	add    eax,edx
    275f:	67 8a 00             	mov    al,BYTE PTR [eax]
    2762:	84 c0                	test   al,al
    2764:	75 ce                	jne    2734 <_countLines+0x1d>
D:\OneDrive\Study\Operating Systems\MyOs\project9\codes/./lib/utilsC.c:97
		}
	}
	lines += 1;
    2766:	67 66 ff 45 fc       	inc    DWORD PTR [ebp-0x4]
D:\OneDrive\Study\Operating Systems\MyOs\project9\codes/./lib/utilsC.c:98
	return lines;
    276b:	67 66 8b 45 fc       	mov    eax,DWORD PTR [ebp-0x4]
D:\OneDrive\Study\Operating Systems\MyOs\project9\codes/./lib/utilsC.c:99
}
    2770:	66 c9                	leave  
    2772:	66 c3                	ret    

00002774 <_initialScreen>:
initialScreen():
D:\OneDrive\Study\Operating Systems\MyOs\project9\codes/./lib/utilsC.c:102

void initialScreen(int welcome)
{
    2774:	66 55                	push   ebp
    2776:	66 89 e5             	mov    ebp,esp
    2779:	66 83 ec 14          	sub    esp,0x14
D:\OneDrive\Study\Operating Systems\MyOs\project9\codes/./lib/utilsC.c:103
	clear();
    277d:	66 e8 d3 00 00 00    	call   2856 <_clear>
D:\OneDrive\Study\Operating Systems\MyOs\project9\codes/./lib/utilsC.c:104
	if (welcome) {
    2783:	67 66 83 7d 08 00    	cmp    DWORD PTR [ebp+0x8],0x0
    2789:	74 63                	je     27ee <_initialScreen+0x7a>
D:\OneDrive\Study\Operating Systems\MyOs\project9\codes/./lib/utilsC.c:105
		printSentence(WelcomeSentence, line, 0, strlen(WelcomeSentence), white);
    278b:	66 a1 ac 7c          	mov    eax,ds:0x7cac
    278f:	67 66 89 04 24       	mov    DWORD PTR [esp],eax
    2794:	66 e8 5b 0c 00 00    	call   33f5 <_strlen>
    279a:	66 89 c1             	mov    ecx,eax
    279d:	66 8b 16 60 a2       	mov    edx,DWORD PTR ds:0xa260
    27a2:	66 a1 ac 7c          	mov    eax,ds:0x7cac
    27a6:	67 66 c7 44 24 10 0f 	mov    DWORD PTR [esp+0x10],0xf
    27ad:	00 00 00 
    27b0:	67 66 89 4c 24 0c    	mov    DWORD PTR [esp+0xc],ecx
    27b6:	67 66 c7 44 24 08 00 	mov    DWORD PTR [esp+0x8],0x0
    27bd:	00 00 00 
    27c0:	67 66 89 54 24 04    	mov    DWORD PTR [esp+0x4],edx
    27c6:	67 66 89 04 24       	mov    DWORD PTR [esp],eax
    27cb:	66 e8 b5 f0 ff ff    	call   1886 <_printSentence>
D:\OneDrive\Study\Operating Systems\MyOs\project9\codes/./lib/utilsC.c:106
		line += countLines(WelcomeSentence);
    27d1:	66 a1 ac 7c          	mov    eax,ds:0x7cac
    27d5:	67 66 89 04 24       	mov    DWORD PTR [esp],eax
    27da:	66 e8 37 ff ff ff    	call   2717 <_countLines>
    27e0:	66 89 c2             	mov    edx,eax
    27e3:	66 a1 60 a2          	mov    eax,ds:0xa260
    27e7:	66 01 d0             	add    eax,edx
    27ea:	66 a3 60 a2          	mov    ds:0xa260,eax
D:\OneDrive\Study\Operating Systems\MyOs\project9\codes/./lib/utilsC.c:108
	}
	printSentence(prompt, line, 0, strlen(prompt), white);
    27ee:	66 a1 b0 7c          	mov    eax,ds:0x7cb0
    27f2:	67 66 89 04 24       	mov    DWORD PTR [esp],eax
    27f7:	66 e8 f8 0b 00 00    	call   33f5 <_strlen>
    27fd:	66 89 c1             	mov    ecx,eax
    2800:	66 8b 16 60 a2       	mov    edx,DWORD PTR ds:0xa260
    2805:	66 a1 b0 7c          	mov    eax,ds:0x7cb0
    2809:	67 66 c7 44 24 10 0f 	mov    DWORD PTR [esp+0x10],0xf
    2810:	00 00 00 
    2813:	67 66 89 4c 24 0c    	mov    DWORD PTR [esp+0xc],ecx
    2819:	67 66 c7 44 24 08 00 	mov    DWORD PTR [esp+0x8],0x0
    2820:	00 00 00 
    2823:	67 66 89 54 24 04    	mov    DWORD PTR [esp+0x4],edx
    2829:	67 66 89 04 24       	mov    DWORD PTR [esp],eax
    282e:	66 e8 52 f0 ff ff    	call   1886 <_printSentence>
D:\OneDrive\Study\Operating Systems\MyOs\project9\codes/./lib/utilsC.c:109
	line += countLines(prompt);
    2834:	66 a1 b0 7c          	mov    eax,ds:0x7cb0
    2838:	67 66 89 04 24       	mov    DWORD PTR [esp],eax
    283d:	66 e8 d4 fe ff ff    	call   2717 <_countLines>
    2843:	66 89 c2             	mov    edx,eax
    2846:	66 a1 60 a2          	mov    eax,ds:0xa260
    284a:	66 01 d0             	add    eax,edx
    284d:	66 a3 60 a2          	mov    ds:0xa260,eax
D:\OneDrive\Study\Operating Systems\MyOs\project9\codes/./lib/utilsC.c:110
}
    2851:	90                   	nop
    2852:	66 c9                	leave  
    2854:	66 c3                	ret    

00002856 <_clear>:
clear():
D:\OneDrive\Study\Operating Systems\MyOs\project9\codes/./lib/utilsC.c:113

void clear()
{
    2856:	66 55                	push   ebp
    2858:	66 89 e5             	mov    ebp,esp
    285b:	66 83 ec 14          	sub    esp,0x14
D:\OneDrive\Study\Operating Systems\MyOs\project9\codes/./lib/utilsC.c:114
	line = 0;
    285f:	66 c7 06 60 a2 00 00 	mov    DWORD PTR ds:0xa260,0x0
    2866:	00 00 
D:\OneDrive\Study\Operating Systems\MyOs\project9\codes/./lib/utilsC.c:115
	ClearScreen();
    2868:	66 e8 46 f0 ff ff    	call   18b4 <_ClearScreen>
D:\OneDrive\Study\Operating Systems\MyOs\project9\codes/./lib/utilsC.c:116
	memcpy(0xb800, 0, 0xb800, curPageId * 4 * 1024, 4 * 1024);
    286e:	66 a1 80 a2          	mov    eax,ds:0xa280
    2872:	66 c1 e0 0c          	shl    eax,0xc
    2876:	67 66 c7 44 24 10 00 	mov    DWORD PTR [esp+0x10],0x1000
    287d:	10 00 00 
    2880:	67 66 89 44 24 0c    	mov    DWORD PTR [esp+0xc],eax
    2886:	67 66 c7 44 24 08 00 	mov    DWORD PTR [esp+0x8],0xb800
    288d:	b8 00 00 
    2890:	67 66 c7 44 24 04 00 	mov    DWORD PTR [esp+0x4],0x0
    2897:	00 00 00 
    289a:	67 66 c7 04 24 00 b8 	mov    DWORD PTR [esp],0xb800
    28a1:	00 00 
    28a3:	66 e8 2e fb ff ff    	call   23d7 <_memcpy>
D:\OneDrive\Study\Operating Systems\MyOs\project9\codes/./lib/utilsC.c:117
}
    28a9:	90                   	nop
    28aa:	66 c9                	leave  
    28ac:	66 c3                	ret    

000028ae <_date>:
date():
D:\OneDrive\Study\Operating Systems\MyOs\project9\codes/./lib/utilsC.c:121


void date()
{
    28ae:	66 55                	push   ebp
    28b0:	66 89 e5             	mov    ebp,esp
    28b3:	66 83 ec 18          	sub    esp,0x18
D:\OneDrive\Study\Operating Systems\MyOs\project9\codes/./lib/utilsC.c:122
	char * dateSen = getDate();
    28b7:	66 e8 c8 f2 ff ff    	call   1b85 <_getDate>
    28bd:	67 66 89 45 fc       	mov    DWORD PTR [ebp-0x4],eax
D:\OneDrive\Study\Operating Systems\MyOs\project9\codes/./lib/utilsC.c:123
	printSentence(dateSen, line, 30, strlen(dateSen), purple);
    28c2:	67 66 8b 45 fc       	mov    eax,DWORD PTR [ebp-0x4]
    28c7:	67 66 89 04 24       	mov    DWORD PTR [esp],eax
    28cc:	66 e8 23 0b 00 00    	call   33f5 <_strlen>
    28d2:	66 89 c2             	mov    edx,eax
    28d5:	66 a1 60 a2          	mov    eax,ds:0xa260
    28d9:	67 66 c7 44 24 10 0d 	mov    DWORD PTR [esp+0x10],0xd
    28e0:	00 00 00 
    28e3:	67 66 89 54 24 0c    	mov    DWORD PTR [esp+0xc],edx
    28e9:	67 66 c7 44 24 08 1e 	mov    DWORD PTR [esp+0x8],0x1e
    28f0:	00 00 00 
    28f3:	67 66 89 44 24 04    	mov    DWORD PTR [esp+0x4],eax
    28f9:	67 66 8b 45 fc       	mov    eax,DWORD PTR [ebp-0x4]
    28fe:	67 66 89 04 24       	mov    DWORD PTR [esp],eax
    2903:	66 e8 7d ef ff ff    	call   1886 <_printSentence>
D:\OneDrive\Study\Operating Systems\MyOs\project9\codes/./lib/utilsC.c:124
	newline();
    2909:	66 e8 f6 00 00 00    	call   2a05 <_newline>
D:\OneDrive\Study\Operating Systems\MyOs\project9\codes/./lib/utilsC.c:125
	line += countLines(dateSen);
    290f:	67 66 8b 45 fc       	mov    eax,DWORD PTR [ebp-0x4]
    2914:	67 66 89 04 24       	mov    DWORD PTR [esp],eax
    2919:	66 e8 f8 fd ff ff    	call   2717 <_countLines>
    291f:	66 89 c2             	mov    edx,eax
    2922:	66 a1 60 a2          	mov    eax,ds:0xa260
    2926:	66 01 d0             	add    eax,edx
    2929:	66 a3 60 a2          	mov    ds:0xa260,eax
D:\OneDrive\Study\Operating Systems\MyOs\project9\codes/./lib/utilsC.c:126
}
    292d:	90                   	nop
    292e:	66 c9                	leave  
    2930:	66 c3                	ret    

00002932 <_man>:
man():
D:\OneDrive\Study\Operating Systems\MyOs\project9\codes/./lib/utilsC.c:130


void man()
{
    2932:	66 55                	push   ebp
    2934:	66 89 e5             	mov    ebp,esp
    2937:	66 83 ec 18          	sub    esp,0x18
D:\OneDrive\Study\Operating Systems\MyOs\project9\codes/./lib/utilsC.c:131
	char * manual = getRecords(segOfOs, offsetOfManual);
    293b:	67 66 c7 44 24 04 00 	mov    DWORD PTR [esp+0x4],0xd500
    2942:	d5 00 00 
    2945:	67 66 c7 04 24 00 20 	mov    DWORD PTR [esp],0x2000
    294c:	00 00 
    294e:	66 e8 31 fa ff ff    	call   2385 <_getRecords>
    2954:	67 66 89 45 fc       	mov    DWORD PTR [ebp-0x4],eax
D:\OneDrive\Study\Operating Systems\MyOs\project9\codes/./lib/utilsC.c:132
	line = 0;
    2959:	66 c7 06 60 a2 00 00 	mov    DWORD PTR ds:0xa260,0x0
    2960:	00 00 
D:\OneDrive\Study\Operating Systems\MyOs\project9\codes/./lib/utilsC.c:133
	ClearScreen();
    2962:	66 e8 4c ef ff ff    	call   18b4 <_ClearScreen>
D:\OneDrive\Study\Operating Systems\MyOs\project9\codes/./lib/utilsC.c:134
	printSentence(manual, line, 0, strlen(manual), purple);
    2968:	67 66 8b 45 fc       	mov    eax,DWORD PTR [ebp-0x4]
    296d:	67 66 89 04 24       	mov    DWORD PTR [esp],eax
    2972:	66 e8 7d 0a 00 00    	call   33f5 <_strlen>
    2978:	66 89 c2             	mov    edx,eax
    297b:	66 a1 60 a2          	mov    eax,ds:0xa260
    297f:	67 66 c7 44 24 10 0d 	mov    DWORD PTR [esp+0x10],0xd
    2986:	00 00 00 
    2989:	67 66 89 54 24 0c    	mov    DWORD PTR [esp+0xc],edx
    298f:	67 66 c7 44 24 08 00 	mov    DWORD PTR [esp+0x8],0x0
    2996:	00 00 00 
    2999:	67 66 89 44 24 04    	mov    DWORD PTR [esp+0x4],eax
    299f:	67 66 8b 45 fc       	mov    eax,DWORD PTR [ebp-0x4]
    29a4:	67 66 89 04 24       	mov    DWORD PTR [esp],eax
    29a9:	66 e8 d7 ee ff ff    	call   1886 <_printSentence>
D:\OneDrive\Study\Operating Systems\MyOs\project9\codes/./lib/utilsC.c:135
	line += countLines(manual);
    29af:	67 66 8b 45 fc       	mov    eax,DWORD PTR [ebp-0x4]
    29b4:	67 66 89 04 24       	mov    DWORD PTR [esp],eax
    29b9:	66 e8 58 fd ff ff    	call   2717 <_countLines>
    29bf:	66 89 c2             	mov    edx,eax
    29c2:	66 a1 60 a2          	mov    eax,ds:0xa260
    29c6:	66 01 d0             	add    eax,edx
    29c9:	66 a3 60 a2          	mov    ds:0xa260,eax
D:\OneDrive\Study\Operating Systems\MyOs\project9\codes/./lib/utilsC.c:136
}
    29cd:	90                   	nop
    29ce:	66 c9                	leave  
    29d0:	66 c3                	ret    

000029d2 <_getPage>:
getPage():
D:\OneDrive\Study\Operating Systems\MyOs\project9\codes/./lib/utilsC.c:139

int getPage()
{
    29d2:	66 55                	push   ebp
    29d4:	66 89 e5             	mov    ebp,esp
D:\OneDrive\Study\Operating Systems\MyOs\project9\codes/./lib/utilsC.c:140
	return processTable[curProcessId].pageID;
    29d7:	66 8b 16 70 e9       	mov    edx,DWORD PTR ds:0xe970
    29dc:	66 89 d0             	mov    eax,edx
    29df:	66 c1 e0 03          	shl    eax,0x3
    29e3:	66 01 d0             	add    eax,edx
    29e6:	66 01 c0             	add    eax,eax
    29e9:	66 01 d0             	add    eax,edx
    29ec:	66 c1 e0 02          	shl    eax,0x2
    29f0:	66 01 d0             	add    eax,edx
    29f3:	66 c1 e0 02          	shl    eax,0x2
    29f7:	66 05 8c d2 00 00    	add    eax,0xd28c
    29fd:	67 66 8b 00          	mov    eax,DWORD PTR [eax]
D:\OneDrive\Study\Operating Systems\MyOs\project9\codes/./lib/utilsC.c:141
}
    2a01:	66 5d                	pop    ebp
    2a03:	66 c3                	ret    

00002a05 <_newline>:
newline():
D:\OneDrive\Study\Operating Systems\MyOs\project9\codes/./lib/utilsC.c:144

void newline()
{
    2a05:	66 55                	push   ebp
    2a07:	66 89 e5             	mov    ebp,esp
    2a0a:	66 83 ec 14          	sub    esp,0x14
D:\OneDrive\Study\Operating Systems\MyOs\project9\codes/./lib/utilsC.c:145
	if (line >= 24) {
    2a0e:	66 a1 60 a2          	mov    eax,ds:0xa260
    2a12:	66 83 f8 17          	cmp    eax,0x17
    2a16:	7e 4a                	jle    2a62 <_newline+0x5d>
D:\OneDrive\Study\Operating Systems\MyOs\project9\codes/./lib/utilsC.c:146
		roll();
    2a18:	66 e8 d1 f1 ff ff    	call   1bef <_roll>
D:\OneDrive\Study\Operating Systems\MyOs\project9\codes/./lib/utilsC.c:147
		memcpy(0xb800, 0, 0xb800, curPageId * 4 * 1024, 4 * 1024);
    2a1e:	66 a1 80 a2          	mov    eax,ds:0xa280
    2a22:	66 c1 e0 0c          	shl    eax,0xc
    2a26:	67 66 c7 44 24 10 00 	mov    DWORD PTR [esp+0x10],0x1000
    2a2d:	10 00 00 
    2a30:	67 66 89 44 24 0c    	mov    DWORD PTR [esp+0xc],eax
    2a36:	67 66 c7 44 24 08 00 	mov    DWORD PTR [esp+0x8],0xb800
    2a3d:	b8 00 00 
    2a40:	67 66 c7 44 24 04 00 	mov    DWORD PTR [esp+0x4],0x0
    2a47:	00 00 00 
    2a4a:	67 66 c7 04 24 00 b8 	mov    DWORD PTR [esp],0xb800
    2a51:	00 00 
    2a53:	66 e8 7e f9 ff ff    	call   23d7 <_memcpy>
D:\OneDrive\Study\Operating Systems\MyOs\project9\codes/./lib/utilsC.c:148
		line = 23;
    2a59:	66 c7 06 60 a2 17 00 	mov    DWORD PTR ds:0xa260,0x17
    2a60:	00 00 
D:\OneDrive\Study\Operating Systems\MyOs\project9\codes/./lib/utilsC.c:150
	}
	printSentence(prompt, line, 0, strlen(prompt), white);
    2a62:	66 a1 b0 7c          	mov    eax,ds:0x7cb0
    2a66:	67 66 89 04 24       	mov    DWORD PTR [esp],eax
    2a6b:	66 e8 84 09 00 00    	call   33f5 <_strlen>
    2a71:	66 89 c1             	mov    ecx,eax
    2a74:	66 8b 16 60 a2       	mov    edx,DWORD PTR ds:0xa260
    2a79:	66 a1 b0 7c          	mov    eax,ds:0x7cb0
    2a7d:	67 66 c7 44 24 10 0f 	mov    DWORD PTR [esp+0x10],0xf
    2a84:	00 00 00 
    2a87:	67 66 89 4c 24 0c    	mov    DWORD PTR [esp+0xc],ecx
    2a8d:	67 66 c7 44 24 08 00 	mov    DWORD PTR [esp+0x8],0x0
    2a94:	00 00 00 
    2a97:	67 66 89 54 24 04    	mov    DWORD PTR [esp+0x4],edx
    2a9d:	67 66 89 04 24       	mov    DWORD PTR [esp],eax
    2aa2:	66 e8 de ed ff ff    	call   1886 <_printSentence>
D:\OneDrive\Study\Operating Systems\MyOs\project9\codes/./lib/utilsC.c:151
	line += countLines(prompt);
    2aa8:	66 a1 b0 7c          	mov    eax,ds:0x7cb0
    2aac:	67 66 89 04 24       	mov    DWORD PTR [esp],eax
    2ab1:	66 e8 60 fc ff ff    	call   2717 <_countLines>
    2ab7:	66 89 c2             	mov    edx,eax
    2aba:	66 a1 60 a2          	mov    eax,ds:0xa260
    2abe:	66 01 d0             	add    eax,edx
    2ac1:	66 a3 60 a2          	mov    ds:0xa260,eax
D:\OneDrive\Study\Operating Systems\MyOs\project9\codes/./lib/utilsC.c:152
}
    2ac5:	90                   	nop
    2ac6:	66 c9                	leave  
    2ac8:	66 c3                	ret    

00002aca <_ls>:
ls():
D:\OneDrive\Study\Operating Systems\MyOs\project9\codes/./lib/utilsC.c:155

void ls()
{
    2aca:	66 55                	push   ebp
    2acc:	66 89 e5             	mov    ebp,esp
    2acf:	66 57                	push   edi
    2ad1:	66 53                	push   ebx
    2ad3:	66 83 ec 38          	sub    esp,0x38
D:\OneDrive\Study\Operating Systems\MyOs\project9\codes/./lib/utilsC.c:156
	char * head = "Name           Size           Lma            Type";
    2ad7:	67 66 c7 45 f0 88 80 	mov    DWORD PTR [ebp-0x10],0x8088
    2ade:	00 00 
D:\OneDrive\Study\Operating Systems\MyOs\project9\codes/./lib/utilsC.c:157
	printSentence(head, line, 10, strlen(head), green);
    2ae0:	67 66 8b 45 f0       	mov    eax,DWORD PTR [ebp-0x10]
    2ae5:	67 66 89 04 24       	mov    DWORD PTR [esp],eax
    2aea:	66 e8 05 09 00 00    	call   33f5 <_strlen>
    2af0:	66 89 c2             	mov    edx,eax
    2af3:	66 a1 60 a2          	mov    eax,ds:0xa260
    2af7:	67 66 c7 44 24 10 0a 	mov    DWORD PTR [esp+0x10],0xa
    2afe:	00 00 00 
    2b01:	67 66 89 54 24 0c    	mov    DWORD PTR [esp+0xc],edx
    2b07:	67 66 c7 44 24 08 0a 	mov    DWORD PTR [esp+0x8],0xa
    2b0e:	00 00 00 
    2b11:	67 66 89 44 24 04    	mov    DWORD PTR [esp+0x4],eax
    2b17:	67 66 8b 45 f0       	mov    eax,DWORD PTR [ebp-0x10]
    2b1c:	67 66 89 04 24       	mov    DWORD PTR [esp],eax
    2b21:	66 e8 5f ed ff ff    	call   1886 <_printSentence>
D:\OneDrive\Study\Operating Systems\MyOs\project9\codes/./lib/utilsC.c:158
	char typeTable[10][1] = {"N", "D", "E", "F"};
    2b27:	67 66 8d 55 e6       	lea    edx,[ebp-0x1a]
    2b2c:	66 b9 0a 00 00 00    	mov    ecx,0xa
    2b32:	b0 00                	mov    al,0x0
    2b34:	66 89 d7             	mov    edi,edx
    2b37:	f3 aa                	rep stos BYTE PTR es:[di],al
    2b39:	67 c6 45 e6 4e       	mov    BYTE PTR [ebp-0x1a],0x4e
    2b3e:	67 c6 45 e7 44       	mov    BYTE PTR [ebp-0x19],0x44
    2b43:	67 c6 45 e8 45       	mov    BYTE PTR [ebp-0x18],0x45
    2b48:	67 c6 45 e9 46       	mov    BYTE PTR [ebp-0x17],0x46
D:\OneDrive\Study\Operating Systems\MyOs\project9\codes/./lib/utilsC.c:159
	line += countLines(head);
    2b4d:	67 66 8b 45 f0       	mov    eax,DWORD PTR [ebp-0x10]
    2b52:	67 66 89 04 24       	mov    DWORD PTR [esp],eax
    2b57:	66 e8 ba fb ff ff    	call   2717 <_countLines>
    2b5d:	66 89 c2             	mov    edx,eax
    2b60:	66 a1 60 a2          	mov    eax,ds:0xa260
    2b64:	66 01 d0             	add    eax,edx
    2b67:	66 a3 60 a2          	mov    ds:0xa260,eax
D:\OneDrive\Study\Operating Systems\MyOs\project9\codes/./lib/utilsC.c:161
	char tmp[15];
	for (int i = 0; i < Len; ++i)
    2b6b:	67 66 c7 45 f4 00 00 	mov    DWORD PTR [ebp-0xc],0x0
    2b72:	00 00 
    2b74:	e9 42 03             	jmp    2eb9 <_ls+0x3ef>
D:\OneDrive\Study\Operating Systems\MyOs\project9\codes/./lib/utilsC.c:163
	{
		if (information[i].type != null && information[i].deleted != 1) {
    2b77:	67 66 8b 55 f4       	mov    edx,DWORD PTR [ebp-0xc]
    2b7c:	66 89 d0             	mov    eax,edx
    2b7f:	66 01 c0             	add    eax,eax
    2b82:	66 01 d0             	add    eax,edx
    2b85:	66 c1 e0 02          	shl    eax,0x2
    2b89:	66 01 d0             	add    eax,edx
    2b8c:	66 c1 e0 02          	shl    eax,0x2
    2b90:	66 01 d0             	add    eax,edx
    2b93:	66 c1 e0 02          	shl    eax,0x2
    2b97:	66 05 80 c0 00 00    	add    eax,0xc080
    2b9d:	67 66 8b 00          	mov    eax,DWORD PTR [eax]
    2ba1:	66 85 c0             	test   eax,eax
    2ba4:	0f 84 0c 03          	je     2eb4 <_ls+0x3ea>
    2ba8:	67 66 8b 55 f4       	mov    edx,DWORD PTR [ebp-0xc]
    2bad:	66 89 d0             	mov    eax,edx
    2bb0:	66 01 c0             	add    eax,eax
    2bb3:	66 01 d0             	add    eax,edx
    2bb6:	66 c1 e0 02          	shl    eax,0x2
    2bba:	66 01 d0             	add    eax,edx
    2bbd:	66 c1 e0 02          	shl    eax,0x2
    2bc1:	66 01 d0             	add    eax,edx
    2bc4:	66 c1 e0 02          	shl    eax,0x2
    2bc8:	66 05 8c c0 00 00    	add    eax,0xc08c
    2bce:	67 66 8b 00          	mov    eax,DWORD PTR [eax]
    2bd2:	66 83 f8 01          	cmp    eax,0x1
    2bd6:	0f 84 da 02          	je     2eb4 <_ls+0x3ea>
D:\OneDrive\Study\Operating Systems\MyOs\project9\codes/./lib/utilsC.c:164
			printSentence(information[i].name, line, 10, strlen(information[i].name), purple);
    2bda:	67 66 8b 55 f4       	mov    edx,DWORD PTR [ebp-0xc]
    2bdf:	66 89 d0             	mov    eax,edx
    2be2:	66 01 c0             	add    eax,eax
    2be5:	66 01 d0             	add    eax,edx
    2be8:	66 c1 e0 02          	shl    eax,0x2
    2bec:	66 01 d0             	add    eax,edx
    2bef:	66 c1 e0 02          	shl    eax,0x2
    2bf3:	66 01 d0             	add    eax,edx
    2bf6:	66 c1 e0 02          	shl    eax,0x2
    2bfa:	66 05 60 c0 00 00    	add    eax,0xc060
    2c00:	67 66 89 04 24       	mov    DWORD PTR [esp],eax
    2c05:	66 e8 ea 07 00 00    	call   33f5 <_strlen>
    2c0b:	66 89 c3             	mov    ebx,eax
    2c0e:	66 8b 0e 60 a2       	mov    ecx,DWORD PTR ds:0xa260
    2c13:	67 66 8b 55 f4       	mov    edx,DWORD PTR [ebp-0xc]
    2c18:	66 89 d0             	mov    eax,edx
    2c1b:	66 01 c0             	add    eax,eax
    2c1e:	66 01 d0             	add    eax,edx
    2c21:	66 c1 e0 02          	shl    eax,0x2
    2c25:	66 01 d0             	add    eax,edx
    2c28:	66 c1 e0 02          	shl    eax,0x2
    2c2c:	66 01 d0             	add    eax,edx
    2c2f:	66 c1 e0 02          	shl    eax,0x2
    2c33:	66 05 60 c0 00 00    	add    eax,0xc060
    2c39:	67 66 c7 44 24 10 0d 	mov    DWORD PTR [esp+0x10],0xd
    2c40:	00 00 00 
    2c43:	67 66 89 5c 24 0c    	mov    DWORD PTR [esp+0xc],ebx
    2c49:	67 66 c7 44 24 08 0a 	mov    DWORD PTR [esp+0x8],0xa
    2c50:	00 00 00 
    2c53:	67 66 89 4c 24 04    	mov    DWORD PTR [esp+0x4],ecx
    2c59:	67 66 89 04 24       	mov    DWORD PTR [esp],eax
    2c5e:	66 e8 22 ec ff ff    	call   1886 <_printSentence>
D:\OneDrive\Study\Operating Systems\MyOs\project9\codes/./lib/utilsC.c:165
			if (information[i].size == 0) {
    2c64:	67 66 8b 55 f4       	mov    edx,DWORD PTR [ebp-0xc]
    2c69:	66 89 d0             	mov    eax,edx
    2c6c:	66 01 c0             	add    eax,eax
    2c6f:	66 01 d0             	add    eax,edx
    2c72:	66 c1 e0 02          	shl    eax,0x2
    2c76:	66 01 d0             	add    eax,edx
    2c79:	66 c1 e0 02          	shl    eax,0x2
    2c7d:	66 01 d0             	add    eax,edx
    2c80:	66 c1 e0 02          	shl    eax,0x2
    2c84:	66 05 88 c0 00 00    	add    eax,0xc088
    2c8a:	67 66 8b 00          	mov    eax,DWORD PTR [eax]
    2c8e:	66 85 c0             	test   eax,eax
    2c91:	75 3a                	jne    2ccd <_ls+0x203>
D:\OneDrive\Study\Operating Systems\MyOs\project9\codes/./lib/utilsC.c:166
				printSentence("--", line, 25, 2, purple);
    2c93:	66 a1 60 a2          	mov    eax,ds:0xa260
    2c97:	67 66 c7 44 24 10 0d 	mov    DWORD PTR [esp+0x10],0xd
    2c9e:	00 00 00 
    2ca1:	67 66 c7 44 24 0c 02 	mov    DWORD PTR [esp+0xc],0x2
    2ca8:	00 00 00 
    2cab:	67 66 c7 44 24 08 19 	mov    DWORD PTR [esp+0x8],0x19
    2cb2:	00 00 00 
    2cb5:	67 66 89 44 24 04    	mov    DWORD PTR [esp+0x4],eax
    2cbb:	67 66 c7 04 24 ba 80 	mov    DWORD PTR [esp],0x80ba
    2cc2:	00 00 
    2cc4:	66 e8 bc eb ff ff    	call   1886 <_printSentence>
    2cca:	e9 87 00             	jmp    2d54 <_ls+0x28a>
D:\OneDrive\Study\Operating Systems\MyOs\project9\codes/./lib/utilsC.c:168
			} else {
				int2str(information[i].size, tmp);
    2ccd:	67 66 8b 55 f4       	mov    edx,DWORD PTR [ebp-0xc]
    2cd2:	66 89 d0             	mov    eax,edx
    2cd5:	66 01 c0             	add    eax,eax
    2cd8:	66 01 d0             	add    eax,edx
    2cdb:	66 c1 e0 02          	shl    eax,0x2
    2cdf:	66 01 d0             	add    eax,edx
    2ce2:	66 c1 e0 02          	shl    eax,0x2
    2ce6:	66 01 d0             	add    eax,edx
    2ce9:	66 c1 e0 02          	shl    eax,0x2
    2ced:	66 05 88 c0 00 00    	add    eax,0xc088
    2cf3:	67 66 8b 00          	mov    eax,DWORD PTR [eax]
    2cf7:	67 66 8d 55 d7       	lea    edx,[ebp-0x29]
    2cfc:	67 66 89 54 24 04    	mov    DWORD PTR [esp+0x4],edx
    2d02:	67 66 89 04 24       	mov    DWORD PTR [esp],eax
    2d07:	66 e8 3d 09 00 00    	call   364a <_int2str>
D:\OneDrive\Study\Operating Systems\MyOs\project9\codes/./lib/utilsC.c:169
				printSentence(tmp, line, 25, strlen(tmp), purple);
    2d0d:	67 66 8d 45 d7       	lea    eax,[ebp-0x29]
    2d12:	67 66 89 04 24       	mov    DWORD PTR [esp],eax
    2d17:	66 e8 d8 06 00 00    	call   33f5 <_strlen>
    2d1d:	66 89 c2             	mov    edx,eax
    2d20:	66 a1 60 a2          	mov    eax,ds:0xa260
    2d24:	67 66 c7 44 24 10 0d 	mov    DWORD PTR [esp+0x10],0xd
    2d2b:	00 00 00 
    2d2e:	67 66 89 54 24 0c    	mov    DWORD PTR [esp+0xc],edx
    2d34:	67 66 c7 44 24 08 19 	mov    DWORD PTR [esp+0x8],0x19
    2d3b:	00 00 00 
    2d3e:	67 66 89 44 24 04    	mov    DWORD PTR [esp+0x4],eax
    2d44:	67 66 8d 45 d7       	lea    eax,[ebp-0x29]
    2d49:	67 66 89 04 24       	mov    DWORD PTR [esp],eax
    2d4e:	66 e8 32 eb ff ff    	call   1886 <_printSentence>
D:\OneDrive\Study\Operating Systems\MyOs\project9\codes/./lib/utilsC.c:171
			}
			if (information[i].lmaddress == 0) {
    2d54:	67 66 8b 55 f4       	mov    edx,DWORD PTR [ebp-0xc]
    2d59:	66 89 d0             	mov    eax,edx
    2d5c:	66 01 c0             	add    eax,eax
    2d5f:	66 01 d0             	add    eax,edx
    2d62:	66 c1 e0 02          	shl    eax,0x2
    2d66:	66 01 d0             	add    eax,edx
    2d69:	66 c1 e0 02          	shl    eax,0x2
    2d6d:	66 01 d0             	add    eax,edx
    2d70:	66 c1 e0 02          	shl    eax,0x2
    2d74:	66 05 84 c0 00 00    	add    eax,0xc084
    2d7a:	67 66 8b 00          	mov    eax,DWORD PTR [eax]
    2d7e:	66 85 c0             	test   eax,eax
    2d81:	75 3a                	jne    2dbd <_ls+0x2f3>
D:\OneDrive\Study\Operating Systems\MyOs\project9\codes/./lib/utilsC.c:172
				printSentence("--", line, 40, 2, purple);
    2d83:	66 a1 60 a2          	mov    eax,ds:0xa260
    2d87:	67 66 c7 44 24 10 0d 	mov    DWORD PTR [esp+0x10],0xd
    2d8e:	00 00 00 
    2d91:	67 66 c7 44 24 0c 02 	mov    DWORD PTR [esp+0xc],0x2
    2d98:	00 00 00 
    2d9b:	67 66 c7 44 24 08 28 	mov    DWORD PTR [esp+0x8],0x28
    2da2:	00 00 00 
    2da5:	67 66 89 44 24 04    	mov    DWORD PTR [esp+0x4],eax
    2dab:	67 66 c7 04 24 ba 80 	mov    DWORD PTR [esp],0x80ba
    2db2:	00 00 
    2db4:	66 e8 cc ea ff ff    	call   1886 <_printSentence>
    2dba:	e9 87 00             	jmp    2e44 <_ls+0x37a>
D:\OneDrive\Study\Operating Systems\MyOs\project9\codes/./lib/utilsC.c:174
			} else {
				int2str(information[i].lmaddress, tmp);
    2dbd:	67 66 8b 55 f4       	mov    edx,DWORD PTR [ebp-0xc]
    2dc2:	66 89 d0             	mov    eax,edx
    2dc5:	66 01 c0             	add    eax,eax
    2dc8:	66 01 d0             	add    eax,edx
    2dcb:	66 c1 e0 02          	shl    eax,0x2
    2dcf:	66 01 d0             	add    eax,edx
    2dd2:	66 c1 e0 02          	shl    eax,0x2
    2dd6:	66 01 d0             	add    eax,edx
    2dd9:	66 c1 e0 02          	shl    eax,0x2
    2ddd:	66 05 84 c0 00 00    	add    eax,0xc084
    2de3:	67 66 8b 00          	mov    eax,DWORD PTR [eax]
    2de7:	67 66 8d 55 d7       	lea    edx,[ebp-0x29]
    2dec:	67 66 89 54 24 04    	mov    DWORD PTR [esp+0x4],edx
    2df2:	67 66 89 04 24       	mov    DWORD PTR [esp],eax
    2df7:	66 e8 4d 08 00 00    	call   364a <_int2str>
D:\OneDrive\Study\Operating Systems\MyOs\project9\codes/./lib/utilsC.c:175
				printSentence(tmp, line, 40, strlen(tmp), purple);
    2dfd:	67 66 8d 45 d7       	lea    eax,[ebp-0x29]
    2e02:	67 66 89 04 24       	mov    DWORD PTR [esp],eax
    2e07:	66 e8 e8 05 00 00    	call   33f5 <_strlen>
    2e0d:	66 89 c2             	mov    edx,eax
    2e10:	66 a1 60 a2          	mov    eax,ds:0xa260
    2e14:	67 66 c7 44 24 10 0d 	mov    DWORD PTR [esp+0x10],0xd
    2e1b:	00 00 00 
    2e1e:	67 66 89 54 24 0c    	mov    DWORD PTR [esp+0xc],edx
    2e24:	67 66 c7 44 24 08 28 	mov    DWORD PTR [esp+0x8],0x28
    2e2b:	00 00 00 
    2e2e:	67 66 89 44 24 04    	mov    DWORD PTR [esp+0x4],eax
    2e34:	67 66 8d 45 d7       	lea    eax,[ebp-0x29]
    2e39:	67 66 89 04 24       	mov    DWORD PTR [esp],eax
    2e3e:	66 e8 42 ea ff ff    	call   1886 <_printSentence>
D:\OneDrive\Study\Operating Systems\MyOs\project9\codes/./lib/utilsC.c:177
			}
			printSentence(typeTable[information[i].type], line, 55, 1, purple);
    2e44:	66 8b 0e 60 a2       	mov    ecx,DWORD PTR ds:0xa260
    2e49:	67 66 8b 55 f4       	mov    edx,DWORD PTR [ebp-0xc]
    2e4e:	66 89 d0             	mov    eax,edx
    2e51:	66 01 c0             	add    eax,eax
    2e54:	66 01 d0             	add    eax,edx
    2e57:	66 c1 e0 02          	shl    eax,0x2
    2e5b:	66 01 d0             	add    eax,edx
    2e5e:	66 c1 e0 02          	shl    eax,0x2
    2e62:	66 01 d0             	add    eax,edx
    2e65:	66 c1 e0 02          	shl    eax,0x2
    2e69:	66 05 80 c0 00 00    	add    eax,0xc080
    2e6f:	67 66 8b 00          	mov    eax,DWORD PTR [eax]
    2e73:	67 66 8d 55 e6       	lea    edx,[ebp-0x1a]
    2e78:	66 01 d0             	add    eax,edx
    2e7b:	67 66 c7 44 24 10 0d 	mov    DWORD PTR [esp+0x10],0xd
    2e82:	00 00 00 
    2e85:	67 66 c7 44 24 0c 01 	mov    DWORD PTR [esp+0xc],0x1
    2e8c:	00 00 00 
    2e8f:	67 66 c7 44 24 08 37 	mov    DWORD PTR [esp+0x8],0x37
    2e96:	00 00 00 
    2e99:	67 66 89 4c 24 04    	mov    DWORD PTR [esp+0x4],ecx
    2e9f:	67 66 89 04 24       	mov    DWORD PTR [esp],eax
    2ea4:	66 e8 dc e9 ff ff    	call   1886 <_printSentence>
D:\OneDrive\Study\Operating Systems\MyOs\project9\codes/./lib/utilsC.c:178
			line += 1;
    2eaa:	66 a1 60 a2          	mov    eax,ds:0xa260
    2eae:	66 40                	inc    eax
    2eb0:	66 a3 60 a2          	mov    ds:0xa260,eax
D:\OneDrive\Study\Operating Systems\MyOs\project9\codes/./lib/utilsC.c:161
	for (int i = 0; i < Len; ++i)
    2eb4:	67 66 ff 45 f4       	inc    DWORD PTR [ebp-0xc]
    2eb9:	67 66 83 7d f4 13    	cmp    DWORD PTR [ebp-0xc],0x13
    2ebf:	0f 8e b4 fc          	jle    2b77 <_ls+0xad>
D:\OneDrive\Study\Operating Systems\MyOs\project9\codes/./lib/utilsC.c:181
		}
	}
}
    2ec3:	90                   	nop
    2ec4:	66 83 c4 38          	add    esp,0x38
    2ec8:	66 5b                	pop    ebx
    2eca:	66 5f                	pop    edi
    2ecc:	66 5d                	pop    ebp
    2ece:	66 c3                	ret    

00002ed0 <_ps>:
ps():
D:\OneDrive\Study\Operating Systems\MyOs\project9\codes/./lib/utilsC.c:184

void ps()
{
    2ed0:	66 55                	push   ebp
    2ed2:	66 89 e5             	mov    ebp,esp
    2ed5:	66 57                	push   edi
    2ed7:	66 56                	push   esi
    2ed9:	66 53                	push   ebx
    2edb:	66 83 ec 7c          	sub    esp,0x7c
D:\OneDrive\Study\Operating Systems\MyOs\project9\codes/./lib/utilsC.c:185
	char * head = "Id  ProcessName       Status\n";
    2edf:	67 66 c7 45 ec bd 80 	mov    DWORD PTR [ebp-0x14],0x80bd
    2ee6:	00 00 
D:\OneDrive\Study\Operating Systems\MyOs\project9\codes/./lib/utilsC.c:186
	char status[6][10] = {"Origin", "ready", "running", "blocked", "suspend", "exit"};
    2ee8:	67 66 8d 45 ac       	lea    eax,[ebp-0x54]
    2eed:	66 bb c0 7c 00 00    	mov    ebx,0x7cc0
    2ef3:	66 ba 0f 00 00 00    	mov    edx,0xf
    2ef9:	66 89 c7             	mov    edi,eax
    2efc:	66 89 de             	mov    esi,ebx
    2eff:	66 89 d1             	mov    ecx,edx
    2f02:	66 f3 a5             	rep movs DWORD PTR es:[di],DWORD PTR ds:[si]
D:\OneDrive\Study\Operating Systems\MyOs\project9\codes/./lib/utilsC.c:187
	int begin = 20;
    2f05:	67 66 c7 45 e8 14 00 	mov    DWORD PTR [ebp-0x18],0x14
    2f0c:	00 00 
D:\OneDrive\Study\Operating Systems\MyOs\project9\codes/./lib/utilsC.c:188
	printSentence(head, line++, begin, strlen(head), purple);
    2f0e:	67 66 8b 45 ec       	mov    eax,DWORD PTR [ebp-0x14]
    2f13:	67 66 89 04 24       	mov    DWORD PTR [esp],eax
    2f18:	66 e8 d7 04 00 00    	call   33f5 <_strlen>
    2f1e:	66 89 c2             	mov    edx,eax
    2f21:	66 a1 60 a2          	mov    eax,ds:0xa260
    2f25:	67 66 8d 48 01       	lea    ecx,[eax+0x1]
    2f2a:	66 89 0e 60 a2       	mov    DWORD PTR ds:0xa260,ecx
    2f2f:	67 66 c7 44 24 10 0d 	mov    DWORD PTR [esp+0x10],0xd
    2f36:	00 00 00 
    2f39:	67 66 89 54 24 0c    	mov    DWORD PTR [esp+0xc],edx
    2f3f:	67 66 8b 55 e8       	mov    edx,DWORD PTR [ebp-0x18]
    2f44:	67 66 89 54 24 08    	mov    DWORD PTR [esp+0x8],edx
    2f4a:	67 66 89 44 24 04    	mov    DWORD PTR [esp+0x4],eax
    2f50:	67 66 8b 45 ec       	mov    eax,DWORD PTR [ebp-0x14]
    2f55:	67 66 89 04 24       	mov    DWORD PTR [esp],eax
    2f5a:	66 e8 26 e9 ff ff    	call   1886 <_printSentence>
D:\OneDrive\Study\Operating Systems\MyOs\project9\codes/./lib/utilsC.c:190
	char str[30];
	for (int i = 0; i < Len; ++i)
    2f60:	67 66 c7 45 f0 00 00 	mov    DWORD PTR [ebp-0x10],0x0
    2f67:	00 00 
    2f69:	e9 60 02             	jmp    31cc <_ps+0x2fc>
D:\OneDrive\Study\Operating Systems\MyOs\project9\codes/./lib/utilsC.c:192
	{
		if (processTable[i].id != -1 && processTable[i].status != Origin)
    2f6c:	67 66 8b 55 f0       	mov    edx,DWORD PTR [ebp-0x10]
    2f71:	66 89 d0             	mov    eax,edx
    2f74:	66 c1 e0 03          	shl    eax,0x3
    2f78:	66 01 d0             	add    eax,edx
    2f7b:	66 01 c0             	add    eax,eax
    2f7e:	66 01 d0             	add    eax,edx
    2f81:	66 c1 e0 02          	shl    eax,0x2
    2f85:	66 01 d0             	add    eax,edx
    2f88:	66 c1 e0 02          	shl    eax,0x2
    2f8c:	66 05 84 d1 00 00    	add    eax,0xd184
    2f92:	67 66 8b 00          	mov    eax,DWORD PTR [eax]
    2f96:	66 83 f8 ff          	cmp    eax,0xffffffff
    2f9a:	0f 84 29 02          	je     31c7 <_ps+0x2f7>
    2f9e:	67 66 8b 55 f0       	mov    edx,DWORD PTR [ebp-0x10]
    2fa3:	66 89 d0             	mov    eax,edx
    2fa6:	66 c1 e0 03          	shl    eax,0x3
    2faa:	66 01 d0             	add    eax,edx
    2fad:	66 01 c0             	add    eax,eax
    2fb0:	66 01 d0             	add    eax,edx
    2fb3:	66 c1 e0 02          	shl    eax,0x2
    2fb7:	66 01 d0             	add    eax,edx
    2fba:	66 c1 e0 02          	shl    eax,0x2
    2fbe:	66 05 90 d2 00 00    	add    eax,0xd290
    2fc4:	67 66 8b 00          	mov    eax,DWORD PTR [eax]
    2fc8:	66 85 c0             	test   eax,eax
    2fcb:	0f 84 f8 01          	je     31c7 <_ps+0x2f7>
D:\OneDrive\Study\Operating Systems\MyOs\project9\codes/./lib/utilsC.c:194
		{
			int2str(processTable[i].id, str);
    2fcf:	67 66 8b 55 f0       	mov    edx,DWORD PTR [ebp-0x10]
    2fd4:	66 89 d0             	mov    eax,edx
    2fd7:	66 c1 e0 03          	shl    eax,0x3
    2fdb:	66 01 d0             	add    eax,edx
    2fde:	66 01 c0             	add    eax,eax
    2fe1:	66 01 d0             	add    eax,edx
    2fe4:	66 c1 e0 02          	shl    eax,0x2
    2fe8:	66 01 d0             	add    eax,edx
    2feb:	66 c1 e0 02          	shl    eax,0x2
    2fef:	66 05 84 d1 00 00    	add    eax,0xd184
    2ff5:	67 66 8b 00          	mov    eax,DWORD PTR [eax]
    2ff9:	67 66 8d 55 8e       	lea    edx,[ebp-0x72]
    2ffe:	67 66 89 54 24 04    	mov    DWORD PTR [esp+0x4],edx
    3004:	67 66 89 04 24       	mov    DWORD PTR [esp],eax
    3009:	66 e8 3b 06 00 00    	call   364a <_int2str>
D:\OneDrive\Study\Operating Systems\MyOs\project9\codes/./lib/utilsC.c:195
			printSentence(str, line, begin + 1, strlen(str), purple);
    300f:	67 66 8d 45 8e       	lea    eax,[ebp-0x72]
    3014:	67 66 89 04 24       	mov    DWORD PTR [esp],eax
    3019:	66 e8 d6 03 00 00    	call   33f5 <_strlen>
    301f:	66 89 c2             	mov    edx,eax
    3022:	67 66 8b 45 e8       	mov    eax,DWORD PTR [ebp-0x18]
    3027:	67 66 8d 48 01       	lea    ecx,[eax+0x1]
    302c:	66 a1 60 a2          	mov    eax,ds:0xa260
    3030:	67 66 c7 44 24 10 0d 	mov    DWORD PTR [esp+0x10],0xd
    3037:	00 00 00 
    303a:	67 66 89 54 24 0c    	mov    DWORD PTR [esp+0xc],edx
    3040:	67 66 89 4c 24 08    	mov    DWORD PTR [esp+0x8],ecx
    3046:	67 66 89 44 24 04    	mov    DWORD PTR [esp+0x4],eax
    304c:	67 66 8d 45 8e       	lea    eax,[ebp-0x72]
    3051:	67 66 89 04 24       	mov    DWORD PTR [esp],eax
    3056:	66 e8 2a e8 ff ff    	call   1886 <_printSentence>
D:\OneDrive\Study\Operating Systems\MyOs\project9\codes/./lib/utilsC.c:196
			printSentence(processTable[i].name, line, begin + 5, strlen(processTable[i].name), purple);
    305c:	67 66 8b 55 f0       	mov    edx,DWORD PTR [ebp-0x10]
    3061:	66 89 d0             	mov    eax,edx
    3064:	66 c1 e0 03          	shl    eax,0x3
    3068:	66 01 d0             	add    eax,edx
    306b:	66 01 c0             	add    eax,eax
    306e:	66 01 d0             	add    eax,edx
    3071:	66 c1 e0 02          	shl    eax,0x2
    3075:	66 01 d0             	add    eax,edx
    3078:	66 c1 e0 02          	shl    eax,0x2
    307c:	66 83 c0 30          	add    eax,0x30
    3080:	66 05 60 d1 00 00    	add    eax,0xd160
    3086:	66 83 c0 04          	add    eax,0x4
    308a:	67 66 89 04 24       	mov    DWORD PTR [esp],eax
    308f:	66 e8 60 03 00 00    	call   33f5 <_strlen>
    3095:	66 89 c3             	mov    ebx,eax
    3098:	67 66 8b 45 e8       	mov    eax,DWORD PTR [ebp-0x18]
    309d:	67 66 8d 70 05       	lea    esi,[eax+0x5]
    30a2:	66 8b 0e 60 a2       	mov    ecx,DWORD PTR ds:0xa260
    30a7:	67 66 8b 55 f0       	mov    edx,DWORD PTR [ebp-0x10]
    30ac:	66 89 d0             	mov    eax,edx
    30af:	66 c1 e0 03          	shl    eax,0x3
    30b3:	66 01 d0             	add    eax,edx
    30b6:	66 01 c0             	add    eax,eax
    30b9:	66 01 d0             	add    eax,edx
    30bc:	66 c1 e0 02          	shl    eax,0x2
    30c0:	66 01 d0             	add    eax,edx
    30c3:	66 c1 e0 02          	shl    eax,0x2
    30c7:	66 83 c0 30          	add    eax,0x30
    30cb:	66 05 60 d1 00 00    	add    eax,0xd160
    30d1:	66 83 c0 04          	add    eax,0x4
    30d5:	67 66 c7 44 24 10 0d 	mov    DWORD PTR [esp+0x10],0xd
    30dc:	00 00 00 
    30df:	67 66 89 5c 24 0c    	mov    DWORD PTR [esp+0xc],ebx
    30e5:	67 66 89 74 24 08    	mov    DWORD PTR [esp+0x8],esi
    30eb:	67 66 89 4c 24 04    	mov    DWORD PTR [esp+0x4],ecx
    30f1:	67 66 89 04 24       	mov    DWORD PTR [esp],eax
    30f6:	66 e8 8a e7 ff ff    	call   1886 <_printSentence>
D:\OneDrive\Study\Operating Systems\MyOs\project9\codes/./lib/utilsC.c:197
			printSentence(status[processTable[i].status], line++, begin + 23, strlen(status[processTable[i].status]), purple);
    30fc:	67 66 8b 55 f0       	mov    edx,DWORD PTR [ebp-0x10]
    3101:	66 89 d0             	mov    eax,edx
    3104:	66 c1 e0 03          	shl    eax,0x3
    3108:	66 01 d0             	add    eax,edx
    310b:	66 01 c0             	add    eax,eax
    310e:	66 01 d0             	add    eax,edx
    3111:	66 c1 e0 02          	shl    eax,0x2
    3115:	66 01 d0             	add    eax,edx
    3118:	66 c1 e0 02          	shl    eax,0x2
    311c:	66 05 90 d2 00 00    	add    eax,0xd290
    3122:	67 66 8b 10          	mov    edx,DWORD PTR [eax]
    3126:	67 66 8d 4d ac       	lea    ecx,[ebp-0x54]
    312b:	66 89 d0             	mov    eax,edx
    312e:	66 c1 e0 02          	shl    eax,0x2
    3132:	66 01 d0             	add    eax,edx
    3135:	66 01 c0             	add    eax,eax
    3138:	66 01 c8             	add    eax,ecx
    313b:	67 66 89 04 24       	mov    DWORD PTR [esp],eax
    3140:	66 e8 af 02 00 00    	call   33f5 <_strlen>
    3146:	66 89 c3             	mov    ebx,eax
    3149:	67 66 8b 45 e8       	mov    eax,DWORD PTR [ebp-0x18]
    314e:	67 66 8d 70 17       	lea    esi,[eax+0x17]
    3153:	66 8b 0e 60 a2       	mov    ecx,DWORD PTR ds:0xa260
    3158:	67 66 8d 41 01       	lea    eax,[ecx+0x1]
    315d:	66 a3 60 a2          	mov    ds:0xa260,eax
    3161:	67 66 8b 55 f0       	mov    edx,DWORD PTR [ebp-0x10]
    3166:	66 89 d0             	mov    eax,edx
    3169:	66 c1 e0 03          	shl    eax,0x3
    316d:	66 01 d0             	add    eax,edx
    3170:	66 01 c0             	add    eax,eax
    3173:	66 01 d0             	add    eax,edx
    3176:	66 c1 e0 02          	shl    eax,0x2
    317a:	66 01 d0             	add    eax,edx
    317d:	66 c1 e0 02          	shl    eax,0x2
    3181:	66 05 90 d2 00 00    	add    eax,0xd290
    3187:	67 66 8b 10          	mov    edx,DWORD PTR [eax]
    318b:	67 66 8d 7d ac       	lea    edi,[ebp-0x54]
    3190:	66 89 d0             	mov    eax,edx
    3193:	66 c1 e0 02          	shl    eax,0x2
    3197:	66 01 d0             	add    eax,edx
    319a:	66 01 c0             	add    eax,eax
    319d:	66 01 f8             	add    eax,edi
    31a0:	67 66 c7 44 24 10 0d 	mov    DWORD PTR [esp+0x10],0xd
    31a7:	00 00 00 
    31aa:	67 66 89 5c 24 0c    	mov    DWORD PTR [esp+0xc],ebx
    31b0:	67 66 89 74 24 08    	mov    DWORD PTR [esp+0x8],esi
    31b6:	67 66 89 4c 24 04    	mov    DWORD PTR [esp+0x4],ecx
    31bc:	67 66 89 04 24       	mov    DWORD PTR [esp],eax
    31c1:	66 e8 bf e6 ff ff    	call   1886 <_printSentence>
D:\OneDrive\Study\Operating Systems\MyOs\project9\codes/./lib/utilsC.c:190
	for (int i = 0; i < Len; ++i)
    31c7:	67 66 ff 45 f0       	inc    DWORD PTR [ebp-0x10]
    31cc:	67 66 83 7d f0 13    	cmp    DWORD PTR [ebp-0x10],0x13
    31d2:	0f 8e 96 fd          	jle    2f6c <_ps+0x9c>
D:\OneDrive\Study\Operating Systems\MyOs\project9\codes/./lib/utilsC.c:200
		}
	}
}
    31d6:	90                   	nop
    31d7:	66 83 c4 7c          	add    esp,0x7c
    31db:	66 5b                	pop    ebx
    31dd:	66 5e                	pop    esi
    31df:	66 5f                	pop    edi
    31e1:	66 5d                	pop    ebp
    31e3:	66 c3                	ret    

000031e5 <_kill>:
kill():
D:\OneDrive\Study\Operating Systems\MyOs\project9\codes/./lib/utilsC.c:203

void kill(int id)
{
    31e5:	66 55                	push   ebp
    31e7:	66 89 e5             	mov    ebp,esp
    31ea:	66 83 ec 08          	sub    esp,0x8
D:\OneDrive\Study\Operating Systems\MyOs\project9\codes/./lib/utilsC.c:204
	if (id != 0) {
    31ee:	67 66 83 7d 08 00    	cmp    DWORD PTR [ebp+0x8],0x0
    31f4:	0f 84 f9 00          	je     32f1 <_kill+0x10c>
D:\OneDrive\Study\Operating Systems\MyOs\project9\codes/./lib/utilsC.c:205
		--ProcessSize;
    31f8:	66 a1 dc a7          	mov    eax,ds:0xa7dc
    31fc:	66 48                	dec    eax
    31fe:	66 a3 dc a7          	mov    ds:0xa7dc,eax
D:\OneDrive\Study\Operating Systems\MyOs\project9\codes/./lib/utilsC.c:206
		processTable[id].status = exit;
    3202:	67 66 8b 55 08       	mov    edx,DWORD PTR [ebp+0x8]
    3207:	66 89 d0             	mov    eax,edx
    320a:	66 c1 e0 03          	shl    eax,0x3
    320e:	66 01 d0             	add    eax,edx
    3211:	66 01 c0             	add    eax,eax
    3214:	66 01 d0             	add    eax,edx
    3217:	66 c1 e0 02          	shl    eax,0x2
    321b:	66 01 d0             	add    eax,edx
    321e:	66 c1 e0 02          	shl    eax,0x2
    3222:	66 05 90 d2 00 00    	add    eax,0xd290
    3228:	67 66 c7 00 05 00 00 	mov    DWORD PTR [eax],0x5
    322f:	00 
D:\OneDrive\Study\Operating Systems\MyOs\project9\codes/./lib/utilsC.c:207
		processTable[id].id = -1;
    3230:	67 66 8b 55 08       	mov    edx,DWORD PTR [ebp+0x8]
    3235:	66 89 d0             	mov    eax,edx
    3238:	66 c1 e0 03          	shl    eax,0x3
    323c:	66 01 d0             	add    eax,edx
    323f:	66 01 c0             	add    eax,eax
    3242:	66 01 d0             	add    eax,edx
    3245:	66 c1 e0 02          	shl    eax,0x2
    3249:	66 01 d0             	add    eax,edx
    324c:	66 c1 e0 02          	shl    eax,0x2
    3250:	66 05 84 d1 00 00    	add    eax,0xd184
    3256:	67 66 c7 00 ff ff ff 	mov    DWORD PTR [eax],0xffffffff
    325d:	ff 
D:\OneDrive\Study\Operating Systems\MyOs\project9\codes/./lib/utilsC.c:208
		release(memoryTable[processTable[id].blockNum].beginAddr, memoryTable[processTable[id].blockNum].endAddr);
    325e:	67 66 8b 55 08       	mov    edx,DWORD PTR [ebp+0x8]
    3263:	66 89 d0             	mov    eax,edx
    3266:	66 c1 e0 03          	shl    eax,0x3
    326a:	66 01 d0             	add    eax,edx
    326d:	66 01 c0             	add    eax,eax
    3270:	66 01 d0             	add    eax,edx
    3273:	66 c1 e0 02          	shl    eax,0x2
    3277:	66 01 d0             	add    eax,edx
    327a:	66 c1 e0 02          	shl    eax,0x2
    327e:	66 05 88 d1 00 00    	add    eax,0xd188
    3284:	67 66 8b 10          	mov    edx,DWORD PTR [eax]
    3288:	66 89 d0             	mov    eax,edx
    328b:	66 01 c0             	add    eax,eax
    328e:	66 01 d0             	add    eax,edx
    3291:	66 c1 e0 03          	shl    eax,0x3
    3295:	66 05 c4 a3 00 00    	add    eax,0xa3c4
    329b:	67 66 8b 08          	mov    ecx,DWORD PTR [eax]
    329f:	67 66 8b 55 08       	mov    edx,DWORD PTR [ebp+0x8]
    32a4:	66 89 d0             	mov    eax,edx
    32a7:	66 c1 e0 03          	shl    eax,0x3
    32ab:	66 01 d0             	add    eax,edx
    32ae:	66 01 c0             	add    eax,eax
    32b1:	66 01 d0             	add    eax,edx
    32b4:	66 c1 e0 02          	shl    eax,0x2
    32b8:	66 01 d0             	add    eax,edx
    32bb:	66 c1 e0 02          	shl    eax,0x2
    32bf:	66 05 88 d1 00 00    	add    eax,0xd188
    32c5:	67 66 8b 10          	mov    edx,DWORD PTR [eax]
    32c9:	66 89 d0             	mov    eax,edx
    32cc:	66 01 c0             	add    eax,eax
    32cf:	66 01 d0             	add    eax,edx
    32d2:	66 c1 e0 03          	shl    eax,0x3
    32d6:	66 05 c0 a3 00 00    	add    eax,0xa3c0
    32dc:	67 66 8b 00          	mov    eax,DWORD PTR [eax]
    32e0:	67 66 89 4c 24 04    	mov    DWORD PTR [esp+0x4],ecx
    32e6:	67 66 89 04 24       	mov    DWORD PTR [esp],eax
    32eb:	66 e8 32 3e 00 00    	call   7123 <_release>
D:\OneDrive\Study\Operating Systems\MyOs\project9\codes/./lib/utilsC.c:210
	}
}
    32f1:	90                   	nop
    32f2:	66 c9                	leave  
    32f4:	66 c3                	ret    

000032f6 <_initial>:
initial():
D:\OneDrive\Study\Operating Systems\MyOs\project9\codes/./lib/utilsC.c:213

void initial()
{
    32f6:	66 55                	push   ebp
    32f8:	66 89 e5             	mov    ebp,esp
    32fb:	66 83 ec 04          	sub    esp,0x4
D:\OneDrive\Study\Operating Systems\MyOs\project9\codes/./lib/utilsC.c:214
	initialFile();
    32ff:	66 e8 61 07 00 00    	call   3a66 <_initialFile>
D:\OneDrive\Study\Operating Systems\MyOs\project9\codes/./lib/utilsC.c:215
	initialScreen(1);
    3305:	67 66 c7 04 24 01 00 	mov    DWORD PTR [esp],0x1
    330c:	00 00 
    330e:	66 e8 60 f4 ff ff    	call   2774 <_initialScreen>
D:\OneDrive\Study\Operating Systems\MyOs\project9\codes/./lib/utilsC.c:216
	initialProcessTable();
    3314:	66 e8 fc 17 00 00    	call   4b16 <_initialProcessTable>
D:\OneDrive\Study\Operating Systems\MyOs\project9\codes/./lib/utilsC.c:217
	initialMemoryTable();
    331a:	66 e8 aa 30 00 00    	call   63ca <_initialMemoryTable>
D:\OneDrive\Study\Operating Systems\MyOs\project9\codes/./lib/utilsC.c:218
	initSemaphore();
    3320:	66 e8 19 42 00 00    	call   753f <_initSemaphore>
D:\OneDrive\Study\Operating Systems\MyOs\project9\codes/./lib/utilsC.c:219
}
    3326:	90                   	nop
    3327:	66 c9                	leave  
    3329:	66 c3                	ret    

0000332b <_getKey>:
getKey():
D:\OneDrive\Study\Operating Systems\MyOs\project9\codes/./lib/utilsC.c:223

int tmpInGetKey;
int getKey(short in)
{
    332b:	66 55                	push   ebp
    332d:	66 89 e5             	mov    ebp,esp
    3330:	66 83 ec 0c          	sub    esp,0xc
    3334:	67 66 8b 45 08       	mov    eax,DWORD PTR [ebp+0x8]
    3339:	67 89 45 fc          	mov    WORD PTR [ebp-0x4],ax
D:\OneDrive\Study\Operating Systems\MyOs\project9\codes/./lib/utilsC.c:224
	enqueue(&KeyboardQue, in);
    333d:	67 66 0f bf 45 fc    	movsx  eax,WORD PTR [ebp-0x4]
    3343:	67 66 89 44 24 04    	mov    DWORD PTR [esp+0x4],eax
    3349:	67 66 c7 04 24 60 a3 	mov    DWORD PTR [esp],0xa360
    3350:	00 00 
    3352:	66 e8 40 46 00 00    	call   7998 <_enqueue>
D:\OneDrive\Study\Operating Systems\MyOs\project9\codes/./lib/utilsC.c:225
	if (curPageId == processTable[curProcessId].pageID)
    3358:	66 8b 16 70 e9       	mov    edx,DWORD PTR ds:0xe970
    335d:	66 89 d0             	mov    eax,edx
    3360:	66 c1 e0 03          	shl    eax,0x3
    3364:	66 01 d0             	add    eax,edx
    3367:	66 01 c0             	add    eax,eax
    336a:	66 01 d0             	add    eax,edx
    336d:	66 c1 e0 02          	shl    eax,0x2
    3371:	66 01 d0             	add    eax,edx
    3374:	66 c1 e0 02          	shl    eax,0x2
    3378:	66 05 8c d2 00 00    	add    eax,0xd28c
    337e:	67 66 8b 10          	mov    edx,DWORD PTR [eax]
    3382:	66 a1 80 a2          	mov    eax,ds:0xa280
    3386:	66 39 c2             	cmp    edx,eax
    3389:	75 1f                	jne    33aa <_getKey+0x7f>
D:\OneDrive\Study\Operating Systems\MyOs\project9\codes/./lib/utilsC.c:227
	{
		dequeue(&KeyboardQue, &tmpInGetKey);
    338b:	67 66 c7 44 24 04 2c 	mov    DWORD PTR [esp+0x4],0xea2c
    3392:	ea 00 00 
    3395:	67 66 c7 04 24 60 a3 	mov    DWORD PTR [esp],0xa360
    339c:	00 00 
    339e:	66 e8 61 46 00 00    	call   7a05 <_dequeue>
D:\OneDrive\Study\Operating Systems\MyOs\project9\codes/./lib/utilsC.c:228
		return tmpInGetKey;
    33a4:	66 a1 2c ea          	mov    eax,ds:0xea2c
    33a8:	eb 06                	jmp    33b0 <_getKey+0x85>
D:\OneDrive\Study\Operating Systems\MyOs\project9\codes/./lib/utilsC.c:230
	} else {
		return 0xff;
    33aa:	66 b8 ff 00 00 00    	mov    eax,0xff
D:\OneDrive\Study\Operating Systems\MyOs\project9\codes/./lib/utilsC.c:232
	}
}
    33b0:	66 c9                	leave  
    33b2:	66 c3                	ret    

000033b4 <_judgePage>:
judgePage():
D:\OneDrive\Study\Operating Systems\MyOs\project9\codes/./lib/utilsC.c:235

int judgePage()
{
    33b4:	66 55                	push   ebp
    33b6:	66 89 e5             	mov    ebp,esp
D:\OneDrive\Study\Operating Systems\MyOs\project9\codes/./lib/utilsC.c:236
	return (processTable[curProcessId].pageID == curPageId ? 1 : 0);
    33b9:	66 8b 16 70 e9       	mov    edx,DWORD PTR ds:0xe970
    33be:	66 89 d0             	mov    eax,edx
    33c1:	66 c1 e0 03          	shl    eax,0x3
    33c5:	66 01 d0             	add    eax,edx
    33c8:	66 01 c0             	add    eax,eax
    33cb:	66 01 d0             	add    eax,edx
    33ce:	66 c1 e0 02          	shl    eax,0x2
    33d2:	66 01 d0             	add    eax,edx
    33d5:	66 c1 e0 02          	shl    eax,0x2
    33d9:	66 05 8c d2 00 00    	add    eax,0xd28c
    33df:	67 66 8b 10          	mov    edx,DWORD PTR [eax]
    33e3:	66 a1 80 a2          	mov    eax,ds:0xa280
    33e7:	66 39 c2             	cmp    edx,eax
    33ea:	0f 94 c0             	sete   al
    33ed:	66 0f b6 c0          	movzx  eax,al
D:\OneDrive\Study\Operating Systems\MyOs\project9\codes/./lib/utilsC.c:237
}
    33f1:	66 5d                	pop    ebp
    33f3:	66 c3                	ret    

000033f5 <_strlen>:
strlen():
D:\OneDrive\Study\Operating Systems\MyOs\project9\codes/./lib/utilsC.c:244


//////////// string /////////////////
// '0'
int strlen(char * sen)
{
    33f5:	66 55                	push   ebp
    33f7:	66 89 e5             	mov    ebp,esp
    33fa:	66 83 ec 04          	sub    esp,0x4
D:\OneDrive\Study\Operating Systems\MyOs\project9\codes/./lib/utilsC.c:245
	int i = 0;
    33fe:	67 66 c7 45 fc 00 00 	mov    DWORD PTR [ebp-0x4],0x0
    3405:	00 00 
D:\OneDrive\Study\Operating Systems\MyOs\project9\codes/./lib/utilsC.c:246
	while (sen[i]) { ++i; }
    3407:	eb 05                	jmp    340e <_strlen+0x19>
    3409:	67 66 ff 45 fc       	inc    DWORD PTR [ebp-0x4]
    340e:	67 66 8b 55 fc       	mov    edx,DWORD PTR [ebp-0x4]
    3413:	67 66 8b 45 08       	mov    eax,DWORD PTR [ebp+0x8]
    3418:	66 01 d0             	add    eax,edx
    341b:	67 8a 00             	mov    al,BYTE PTR [eax]
    341e:	84 c0                	test   al,al
    3420:	75 e7                	jne    3409 <_strlen+0x14>
D:\OneDrive\Study\Operating Systems\MyOs\project9\codes/./lib/utilsC.c:247
	return i;
    3422:	67 66 8b 45 fc       	mov    eax,DWORD PTR [ebp-0x4]
D:\OneDrive\Study\Operating Systems\MyOs\project9\codes/./lib/utilsC.c:248
}
    3427:	66 c9                	leave  
    3429:	66 c3                	ret    

0000342b <_concate>:
concate():
D:\OneDrive\Study\Operating Systems\MyOs\project9\codes/./lib/utilsC.c:252


void concate(char * sour, char * append)
{
    342b:	66 55                	push   ebp
    342d:	66 89 e5             	mov    ebp,esp
    3430:	66 83 ec 10          	sub    esp,0x10
D:\OneDrive\Study\Operating Systems\MyOs\project9\codes/./lib/utilsC.c:253
	int lenOfAppend = strlen(append);
    3434:	67 66 8b 45 0c       	mov    eax,DWORD PTR [ebp+0xc]
    3439:	67 66 89 04 24       	mov    DWORD PTR [esp],eax
    343e:	66 e8 b1 ff ff ff    	call   33f5 <_strlen>
    3444:	67 66 89 45 f8       	mov    DWORD PTR [ebp-0x8],eax
D:\OneDrive\Study\Operating Systems\MyOs\project9\codes/./lib/utilsC.c:254
	int lenOfSour = strlen(sour);
    3449:	67 66 8b 45 08       	mov    eax,DWORD PTR [ebp+0x8]
    344e:	67 66 89 04 24       	mov    DWORD PTR [esp],eax
    3453:	66 e8 9c ff ff ff    	call   33f5 <_strlen>
    3459:	67 66 89 45 f4       	mov    DWORD PTR [ebp-0xc],eax
D:\OneDrive\Study\Operating Systems\MyOs\project9\codes/./lib/utilsC.c:255
	for (int i = 0; i < lenOfAppend; ++i)
    345e:	67 66 c7 45 fc 00 00 	mov    DWORD PTR [ebp-0x4],0x0
    3465:	00 00 
    3467:	eb 30                	jmp    3499 <_concate+0x6e>
D:\OneDrive\Study\Operating Systems\MyOs\project9\codes/./lib/utilsC.c:257
	{
		sour[i + lenOfSour] = append[i];
    3469:	67 66 8b 55 fc       	mov    edx,DWORD PTR [ebp-0x4]
    346e:	67 66 8b 45 f4       	mov    eax,DWORD PTR [ebp-0xc]
    3473:	66 01 d0             	add    eax,edx
    3476:	66 89 c2             	mov    edx,eax
    3479:	67 66 8b 45 08       	mov    eax,DWORD PTR [ebp+0x8]
    347e:	66 01 c2             	add    edx,eax
    3481:	67 66 8b 4d fc       	mov    ecx,DWORD PTR [ebp-0x4]
    3486:	67 66 8b 45 0c       	mov    eax,DWORD PTR [ebp+0xc]
    348b:	66 01 c8             	add    eax,ecx
    348e:	67 8a 00             	mov    al,BYTE PTR [eax]
    3491:	67 88 02             	mov    BYTE PTR [edx],al
D:\OneDrive\Study\Operating Systems\MyOs\project9\codes/./lib/utilsC.c:255
	for (int i = 0; i < lenOfAppend; ++i)
    3494:	67 66 ff 45 fc       	inc    DWORD PTR [ebp-0x4]
    3499:	67 66 8b 45 fc       	mov    eax,DWORD PTR [ebp-0x4]
    349e:	67 66 3b 45 f8       	cmp    eax,DWORD PTR [ebp-0x8]
    34a3:	7c c4                	jl     3469 <_concate+0x3e>
D:\OneDrive\Study\Operating Systems\MyOs\project9\codes/./lib/utilsC.c:259
	}
	sour[lenOfAppend + lenOfSour] = '\0';
    34a5:	67 66 8b 55 f8       	mov    edx,DWORD PTR [ebp-0x8]
    34aa:	67 66 8b 45 f4       	mov    eax,DWORD PTR [ebp-0xc]
    34af:	66 01 d0             	add    eax,edx
    34b2:	66 89 c2             	mov    edx,eax
    34b5:	67 66 8b 45 08       	mov    eax,DWORD PTR [ebp+0x8]
    34ba:	66 01 d0             	add    eax,edx
    34bd:	67 c6 00 00          	mov    BYTE PTR [eax],0x0
D:\OneDrive\Study\Operating Systems\MyOs\project9\codes/./lib/utilsC.c:260
}
    34c1:	90                   	nop
    34c2:	66 c9                	leave  
    34c4:	66 c3                	ret    

000034c6 <_strcmp>:
strcmp():
D:\OneDrive\Study\Operating Systems\MyOs\project9\codes/./lib/utilsC.c:263

int strcmp(char * l, char * r)
{
    34c6:	66 55                	push   ebp
    34c8:	66 89 e5             	mov    ebp,esp
    34cb:	66 83 ec 08          	sub    esp,0x8
D:\OneDrive\Study\Operating Systems\MyOs\project9\codes/./lib/utilsC.c:264
	int i = 0, j = 0;
    34cf:	67 66 c7 45 fc 00 00 	mov    DWORD PTR [ebp-0x4],0x0
    34d6:	00 00 
    34d8:	67 66 c7 45 f8 00 00 	mov    DWORD PTR [ebp-0x8],0x0
    34df:	00 00 
D:\OneDrive\Study\Operating Systems\MyOs\project9\codes/./lib/utilsC.c:265
	for (; l[i] && r[i]; ++i, ++j)
    34e1:	eb 64                	jmp    3547 <_strcmp+0x81>
D:\OneDrive\Study\Operating Systems\MyOs\project9\codes/./lib/utilsC.c:267
	{
		if (l[i] < r[j]) {
    34e3:	67 66 8b 55 fc       	mov    edx,DWORD PTR [ebp-0x4]
    34e8:	67 66 8b 45 08       	mov    eax,DWORD PTR [ebp+0x8]
    34ed:	66 01 d0             	add    eax,edx
    34f0:	67 8a 10             	mov    dl,BYTE PTR [eax]
    34f3:	67 66 8b 4d f8       	mov    ecx,DWORD PTR [ebp-0x8]
    34f8:	67 66 8b 45 0c       	mov    eax,DWORD PTR [ebp+0xc]
    34fd:	66 01 c8             	add    eax,ecx
    3500:	67 8a 00             	mov    al,BYTE PTR [eax]
    3503:	38 c2                	cmp    dl,al
    3505:	7d 09                	jge    3510 <_strcmp+0x4a>
D:\OneDrive\Study\Operating Systems\MyOs\project9\codes/./lib/utilsC.c:268
			return -1;
    3507:	66 b8 ff ff ff ff    	mov    eax,0xffffffff
    350d:	e9 c7 00             	jmp    35d7 <_strcmp+0x111>
D:\OneDrive\Study\Operating Systems\MyOs\project9\codes/./lib/utilsC.c:269
		} else if (l[i] > r[j]) {
    3510:	67 66 8b 55 fc       	mov    edx,DWORD PTR [ebp-0x4]
    3515:	67 66 8b 45 08       	mov    eax,DWORD PTR [ebp+0x8]
    351a:	66 01 d0             	add    eax,edx
    351d:	67 8a 10             	mov    dl,BYTE PTR [eax]
    3520:	67 66 8b 4d f8       	mov    ecx,DWORD PTR [ebp-0x8]
    3525:	67 66 8b 45 0c       	mov    eax,DWORD PTR [ebp+0xc]
    352a:	66 01 c8             	add    eax,ecx
    352d:	67 8a 00             	mov    al,BYTE PTR [eax]
    3530:	38 c2                	cmp    dl,al
    3532:	7e 09                	jle    353d <_strcmp+0x77>
D:\OneDrive\Study\Operating Systems\MyOs\project9\codes/./lib/utilsC.c:270
			return 1;
    3534:	66 b8 01 00 00 00    	mov    eax,0x1
    353a:	e9 9a 00             	jmp    35d7 <_strcmp+0x111>
D:\OneDrive\Study\Operating Systems\MyOs\project9\codes/./lib/utilsC.c:265
	for (; l[i] && r[i]; ++i, ++j)
    353d:	67 66 ff 45 fc       	inc    DWORD PTR [ebp-0x4]
    3542:	67 66 ff 45 f8       	inc    DWORD PTR [ebp-0x8]
    3547:	67 66 8b 55 fc       	mov    edx,DWORD PTR [ebp-0x4]
    354c:	67 66 8b 45 08       	mov    eax,DWORD PTR [ebp+0x8]
    3551:	66 01 d0             	add    eax,edx
    3554:	67 8a 00             	mov    al,BYTE PTR [eax]
    3557:	84 c0                	test   al,al
    3559:	74 16                	je     3571 <_strcmp+0xab>
    355b:	67 66 8b 55 fc       	mov    edx,DWORD PTR [ebp-0x4]
    3560:	67 66 8b 45 0c       	mov    eax,DWORD PTR [ebp+0xc]
    3565:	66 01 d0             	add    eax,edx
    3568:	67 8a 00             	mov    al,BYTE PTR [eax]
    356b:	84 c0                	test   al,al
    356d:	0f 85 72 ff          	jne    34e3 <_strcmp+0x1d>
D:\OneDrive\Study\Operating Systems\MyOs\project9\codes/./lib/utilsC.c:273
		}
	}
	if (!l[i] && r[j]) {
    3571:	67 66 8b 55 fc       	mov    edx,DWORD PTR [ebp-0x4]
    3576:	67 66 8b 45 08       	mov    eax,DWORD PTR [ebp+0x8]
    357b:	66 01 d0             	add    eax,edx
    357e:	67 8a 00             	mov    al,BYTE PTR [eax]
    3581:	84 c0                	test   al,al
    3583:	75 1c                	jne    35a1 <_strcmp+0xdb>
    3585:	67 66 8b 55 f8       	mov    edx,DWORD PTR [ebp-0x8]
    358a:	67 66 8b 45 0c       	mov    eax,DWORD PTR [ebp+0xc]
    358f:	66 01 d0             	add    eax,edx
    3592:	67 8a 00             	mov    al,BYTE PTR [eax]
    3595:	84 c0                	test   al,al
    3597:	74 08                	je     35a1 <_strcmp+0xdb>
D:\OneDrive\Study\Operating Systems\MyOs\project9\codes/./lib/utilsC.c:274
		return -1;
    3599:	66 b8 ff ff ff ff    	mov    eax,0xffffffff
    359f:	eb 36                	jmp    35d7 <_strcmp+0x111>
D:\OneDrive\Study\Operating Systems\MyOs\project9\codes/./lib/utilsC.c:275
	} else if (l[i] && !r[j]) {
    35a1:	67 66 8b 55 fc       	mov    edx,DWORD PTR [ebp-0x4]
    35a6:	67 66 8b 45 08       	mov    eax,DWORD PTR [ebp+0x8]
    35ab:	66 01 d0             	add    eax,edx
    35ae:	67 8a 00             	mov    al,BYTE PTR [eax]
    35b1:	84 c0                	test   al,al
    35b3:	74 1c                	je     35d1 <_strcmp+0x10b>
    35b5:	67 66 8b 55 f8       	mov    edx,DWORD PTR [ebp-0x8]
    35ba:	67 66 8b 45 0c       	mov    eax,DWORD PTR [ebp+0xc]
    35bf:	66 01 d0             	add    eax,edx
    35c2:	67 8a 00             	mov    al,BYTE PTR [eax]
    35c5:	84 c0                	test   al,al
    35c7:	75 08                	jne    35d1 <_strcmp+0x10b>
D:\OneDrive\Study\Operating Systems\MyOs\project9\codes/./lib/utilsC.c:276
		return 1;
    35c9:	66 b8 01 00 00 00    	mov    eax,0x1
    35cf:	eb 06                	jmp    35d7 <_strcmp+0x111>
D:\OneDrive\Study\Operating Systems\MyOs\project9\codes/./lib/utilsC.c:278
	} else {
		return 0;
    35d1:	66 b8 00 00 00 00    	mov    eax,0x0
D:\OneDrive\Study\Operating Systems\MyOs\project9\codes/./lib/utilsC.c:280
	}
}
    35d7:	66 c9                	leave  
    35d9:	66 c3                	ret    

000035db <_strncpy>:
strncpy():
D:\OneDrive\Study\Operating Systems\MyOs\project9\codes/./lib/utilsC.c:283

void strncpy(char * sour, char * des, int len)
{
    35db:	66 55                	push   ebp
    35dd:	66 89 e5             	mov    ebp,esp
    35e0:	66 83 ec 04          	sub    esp,0x4
D:\OneDrive\Study\Operating Systems\MyOs\project9\codes/./lib/utilsC.c:284
	int i = 0;
    35e4:	67 66 c7 45 fc 00 00 	mov    DWORD PTR [ebp-0x4],0x0
    35eb:	00 00 
D:\OneDrive\Study\Operating Systems\MyOs\project9\codes/./lib/utilsC.c:285
	while (sour[i] && i < len) {
    35ed:	eb 25                	jmp    3614 <_strncpy+0x39>
D:\OneDrive\Study\Operating Systems\MyOs\project9\codes/./lib/utilsC.c:286
		des[i] = sour[i];
    35ef:	67 66 8b 55 fc       	mov    edx,DWORD PTR [ebp-0x4]
    35f4:	67 66 8b 45 0c       	mov    eax,DWORD PTR [ebp+0xc]
    35f9:	66 01 c2             	add    edx,eax
    35fc:	67 66 8b 4d fc       	mov    ecx,DWORD PTR [ebp-0x4]
    3601:	67 66 8b 45 08       	mov    eax,DWORD PTR [ebp+0x8]
    3606:	66 01 c8             	add    eax,ecx
    3609:	67 8a 00             	mov    al,BYTE PTR [eax]
    360c:	67 88 02             	mov    BYTE PTR [edx],al
D:\OneDrive\Study\Operating Systems\MyOs\project9\codes/./lib/utilsC.c:287
		++i;
    360f:	67 66 ff 45 fc       	inc    DWORD PTR [ebp-0x4]
D:\OneDrive\Study\Operating Systems\MyOs\project9\codes/./lib/utilsC.c:285
	while (sour[i] && i < len) {
    3614:	67 66 8b 55 fc       	mov    edx,DWORD PTR [ebp-0x4]
    3619:	67 66 8b 45 08       	mov    eax,DWORD PTR [ebp+0x8]
    361e:	66 01 d0             	add    eax,edx
    3621:	67 8a 00             	mov    al,BYTE PTR [eax]
    3624:	84 c0                	test   al,al
    3626:	74 0c                	je     3634 <_strncpy+0x59>
    3628:	67 66 8b 45 fc       	mov    eax,DWORD PTR [ebp-0x4]
    362d:	67 66 3b 45 10       	cmp    eax,DWORD PTR [ebp+0x10]
    3632:	7c bb                	jl     35ef <_strncpy+0x14>
D:\OneDrive\Study\Operating Systems\MyOs\project9\codes/./lib/utilsC.c:289
	}
	des[i] = '\0';
    3634:	67 66 8b 55 fc       	mov    edx,DWORD PTR [ebp-0x4]
    3639:	67 66 8b 45 0c       	mov    eax,DWORD PTR [ebp+0xc]
    363e:	66 01 d0             	add    eax,edx
    3641:	67 c6 00 00          	mov    BYTE PTR [eax],0x0
D:\OneDrive\Study\Operating Systems\MyOs\project9\codes/./lib/utilsC.c:290
}
    3645:	90                   	nop
    3646:	66 c9                	leave  
    3648:	66 c3                	ret    

0000364a <_int2str>:
int2str():
D:\OneDrive\Study\Operating Systems\MyOs\project9\codes/./lib/utilsC.c:293

void int2str(int org, char * str)
{
    364a:	66 55                	push   ebp
    364c:	66 89 e5             	mov    ebp,esp
    364f:	66 53                	push   ebx
    3651:	66 83 ec 0c          	sub    esp,0xc
D:\OneDrive\Study\Operating Systems\MyOs\project9\codes/./lib/utilsC.c:294
	int num = 0;
    3655:	67 66 c7 45 f8 00 00 	mov    DWORD PTR [ebp-0x8],0x0
    365c:	00 00 
D:\OneDrive\Study\Operating Systems\MyOs\project9\codes/./lib/utilsC.c:295
	int cp = org;
    365e:	67 66 8b 45 08       	mov    eax,DWORD PTR [ebp+0x8]
    3663:	67 66 89 45 f4       	mov    DWORD PTR [ebp-0xc],eax
D:\OneDrive\Study\Operating Systems\MyOs\project9\codes/./lib/utilsC.c:296
	while (cp != 0)
    3668:	eb 29                	jmp    3693 <_int2str+0x49>
D:\OneDrive\Study\Operating Systems\MyOs\project9\codes/./lib/utilsC.c:298
	{
		cp /= 10;
    366a:	67 66 8b 4d f4       	mov    ecx,DWORD PTR [ebp-0xc]
    366f:	66 b8 67 66 66 66    	mov    eax,0x66666667
    3675:	66 f7 e9             	imul   ecx
    3678:	66 c1 fa 02          	sar    edx,0x2
    367c:	66 89 c8             	mov    eax,ecx
    367f:	66 c1 f8 1f          	sar    eax,0x1f
    3683:	66 29 c2             	sub    edx,eax
    3686:	66 89 d0             	mov    eax,edx
    3689:	67 66 89 45 f4       	mov    DWORD PTR [ebp-0xc],eax
D:\OneDrive\Study\Operating Systems\MyOs\project9\codes/./lib/utilsC.c:299
		++num;
    368e:	67 66 ff 45 f8       	inc    DWORD PTR [ebp-0x8]
D:\OneDrive\Study\Operating Systems\MyOs\project9\codes/./lib/utilsC.c:296
	while (cp != 0)
    3693:	67 66 83 7d f4 00    	cmp    DWORD PTR [ebp-0xc],0x0
    3699:	75 cf                	jne    366a <_int2str+0x20>
D:\OneDrive\Study\Operating Systems\MyOs\project9\codes/./lib/utilsC.c:301
	}
	if (org == 0)
    369b:	67 66 83 7d 08 00    	cmp    DWORD PTR [ebp+0x8],0x0
    36a1:	75 09                	jne    36ac <_int2str+0x62>
D:\OneDrive\Study\Operating Systems\MyOs\project9\codes/./lib/utilsC.c:302
		num = 1;
    36a3:	67 66 c7 45 f8 01 00 	mov    DWORD PTR [ebp-0x8],0x1
    36aa:	00 00 
D:\OneDrive\Study\Operating Systems\MyOs\project9\codes/./lib/utilsC.c:303
	str[num--] = '\0';
    36ac:	67 66 8b 45 f8       	mov    eax,DWORD PTR [ebp-0x8]
    36b1:	67 66 8d 50 ff       	lea    edx,[eax-0x1]
    36b6:	67 66 89 55 f8       	mov    DWORD PTR [ebp-0x8],edx
    36bb:	66 89 c2             	mov    edx,eax
    36be:	67 66 8b 45 0c       	mov    eax,DWORD PTR [ebp+0xc]
    36c3:	66 01 d0             	add    eax,edx
    36c6:	67 c6 00 00          	mov    BYTE PTR [eax],0x0
D:\OneDrive\Study\Operating Systems\MyOs\project9\codes/./lib/utilsC.c:304
	for (int i = num; i >= 0; --i)
    36ca:	67 66 8b 45 f8       	mov    eax,DWORD PTR [ebp-0x8]
    36cf:	67 66 89 45 f0       	mov    DWORD PTR [ebp-0x10],eax
    36d4:	eb 70                	jmp    3746 <_int2str+0xfc>
D:\OneDrive\Study\Operating Systems\MyOs\project9\codes/./lib/utilsC.c:306
	{
		str[i] = org % 10 + 48;
    36d6:	67 66 8b 55 f0       	mov    edx,DWORD PTR [ebp-0x10]
    36db:	67 66 8b 45 0c       	mov    eax,DWORD PTR [ebp+0xc]
    36e0:	67 66 8d 1c 02       	lea    ebx,[edx+eax*1]
    36e5:	67 66 8b 4d 08       	mov    ecx,DWORD PTR [ebp+0x8]
    36ea:	66 b8 67 66 66 66    	mov    eax,0x66666667
    36f0:	66 f7 e9             	imul   ecx
    36f3:	66 c1 fa 02          	sar    edx,0x2
    36f7:	66 89 c8             	mov    eax,ecx
    36fa:	66 c1 f8 1f          	sar    eax,0x1f
    36fe:	66 29 c2             	sub    edx,eax
    3701:	66 89 d0             	mov    eax,edx
    3704:	66 c1 e0 02          	shl    eax,0x2
    3708:	66 01 d0             	add    eax,edx
    370b:	66 01 c0             	add    eax,eax
    370e:	66 29 c1             	sub    ecx,eax
    3711:	66 89 ca             	mov    edx,ecx
    3714:	88 d0                	mov    al,dl
    3716:	66 83 c0 30          	add    eax,0x30
    371a:	67 88 03             	mov    BYTE PTR [ebx],al
D:\OneDrive\Study\Operating Systems\MyOs\project9\codes/./lib/utilsC.c:307
		org /= 10;
    371d:	67 66 8b 4d 08       	mov    ecx,DWORD PTR [ebp+0x8]
    3722:	66 b8 67 66 66 66    	mov    eax,0x66666667
    3728:	66 f7 e9             	imul   ecx
    372b:	66 c1 fa 02          	sar    edx,0x2
    372f:	66 89 c8             	mov    eax,ecx
    3732:	66 c1 f8 1f          	sar    eax,0x1f
    3736:	66 29 c2             	sub    edx,eax
    3739:	66 89 d0             	mov    eax,edx
    373c:	67 66 89 45 08       	mov    DWORD PTR [ebp+0x8],eax
D:\OneDrive\Study\Operating Systems\MyOs\project9\codes/./lib/utilsC.c:304
	for (int i = num; i >= 0; --i)
    3741:	67 66 ff 4d f0       	dec    DWORD PTR [ebp-0x10]
    3746:	67 66 83 7d f0 00    	cmp    DWORD PTR [ebp-0x10],0x0
    374c:	79 88                	jns    36d6 <_int2str+0x8c>
D:\OneDrive\Study\Operating Systems\MyOs\project9\codes/./lib/utilsC.c:309
	}
}
    374e:	90                   	nop
    374f:	66 83 c4 0c          	add    esp,0xc
    3753:	66 5b                	pop    ebx
    3755:	66 5d                	pop    ebp
    3757:	66 c3                	ret    

00003759 <_hashfun>:
hashfun():
D:\OneDrive\Study\Operating Systems\MyOs\project9\codes/./lib/utilsC.c:318

////////////// File ////////////////



int hashfun(char * key) {
    3759:	66 55                	push   ebp
    375b:	66 89 e5             	mov    ebp,esp
    375e:	66 83 ec 0c          	sub    esp,0xc
D:\OneDrive\Study\Operating Systems\MyOs\project9\codes/./lib/utilsC.c:319
	int weight = 29;
    3762:	67 66 c7 45 f4 1d 00 	mov    DWORD PTR [ebp-0xc],0x1d
    3769:	00 00 
D:\OneDrive\Study\Operating Systems\MyOs\project9\codes/./lib/utilsC.c:320
	int i = 0;
    376b:	67 66 c7 45 fc 00 00 	mov    DWORD PTR [ebp-0x4],0x0
    3772:	00 00 
D:\OneDrive\Study\Operating Systems\MyOs\project9\codes/./lib/utilsC.c:321
	int ret = 0;
    3774:	67 66 c7 45 f8 00 00 	mov    DWORD PTR [ebp-0x8],0x0
    377b:	00 00 
D:\OneDrive\Study\Operating Systems\MyOs\project9\codes/./lib/utilsC.c:322
	while (key[i]) {
    377d:	eb 3a                	jmp    37b9 <_hashfun+0x60>
D:\OneDrive\Study\Operating Systems\MyOs\project9\codes/./lib/utilsC.c:323
		ret = (ret + key[i] * weight) % Len;
    377f:	67 66 8b 55 fc       	mov    edx,DWORD PTR [ebp-0x4]
    3784:	67 66 8b 45 08       	mov    eax,DWORD PTR [ebp+0x8]
    3789:	66 01 d0             	add    eax,edx
    378c:	67 8a 00             	mov    al,BYTE PTR [eax]
    378f:	66 0f be c0          	movsx  eax,al
    3793:	67 66 0f af 45 f4    	imul   eax,DWORD PTR [ebp-0xc]
    3799:	66 89 c2             	mov    edx,eax
    379c:	67 66 8b 45 f8       	mov    eax,DWORD PTR [ebp-0x8]
    37a1:	66 01 d0             	add    eax,edx
    37a4:	66 b9 14 00 00 00    	mov    ecx,0x14
    37aa:	66 99                	cdq    
    37ac:	66 f7 f9             	idiv   ecx
    37af:	67 66 89 55 f8       	mov    DWORD PTR [ebp-0x8],edx
D:\OneDrive\Study\Operating Systems\MyOs\project9\codes/./lib/utilsC.c:324
		++i;
    37b4:	67 66 ff 45 fc       	inc    DWORD PTR [ebp-0x4]
D:\OneDrive\Study\Operating Systems\MyOs\project9\codes/./lib/utilsC.c:322
	while (key[i]) {
    37b9:	67 66 8b 55 fc       	mov    edx,DWORD PTR [ebp-0x4]
    37be:	67 66 8b 45 08       	mov    eax,DWORD PTR [ebp+0x8]
    37c3:	66 01 d0             	add    eax,edx
    37c6:	67 8a 00             	mov    al,BYTE PTR [eax]
    37c9:	84 c0                	test   al,al
    37cb:	75 b2                	jne    377f <_hashfun+0x26>
D:\OneDrive\Study\Operating Systems\MyOs\project9\codes/./lib/utilsC.c:326
	}
	return ret;
    37cd:	67 66 8b 45 f8       	mov    eax,DWORD PTR [ebp-0x8]
D:\OneDrive\Study\Operating Systems\MyOs\project9\codes/./lib/utilsC.c:327
}
    37d2:	66 c9                	leave  
    37d4:	66 c3                	ret    

000037d6 <_hash>:
hash():
D:\OneDrive\Study\Operating Systems\MyOs\project9\codes/./lib/utilsC.c:330

int hash(char * key, struct info record)
{
    37d6:	66 55                	push   ebp
    37d8:	66 89 e5             	mov    ebp,esp
    37db:	66 83 ec 18          	sub    esp,0x18
D:\OneDrive\Study\Operating Systems\MyOs\project9\codes/./lib/utilsC.c:331
	int inicode = hashfun(key);
    37df:	67 66 8b 45 08       	mov    eax,DWORD PTR [ebp+0x8]
    37e4:	67 66 89 04 24       	mov    DWORD PTR [esp],eax
    37e9:	66 e8 6a ff ff ff    	call   3759 <_hashfun>
    37ef:	67 66 89 45 f4       	mov    DWORD PTR [ebp-0xc],eax
D:\OneDrive\Study\Operating Systems\MyOs\project9\codes/./lib/utilsC.c:332
	int code = inicode, i = 1;
    37f4:	67 66 8b 45 f4       	mov    eax,DWORD PTR [ebp-0xc]
    37f9:	67 66 89 45 fc       	mov    DWORD PTR [ebp-0x4],eax
    37fe:	67 66 c7 45 f8 01 00 	mov    DWORD PTR [ebp-0x8],0x1
    3805:	00 00 
D:\OneDrive\Study\Operating Systems\MyOs\project9\codes/./lib/utilsC.c:333
	while (information[code].type != null) {
    3807:	eb 2b                	jmp    3834 <_hash+0x5e>
D:\OneDrive\Study\Operating Systems\MyOs\project9\codes/./lib/utilsC.c:334
		code = (inicode + i * i) % Len;
    3809:	67 66 8b 45 f8       	mov    eax,DWORD PTR [ebp-0x8]
    380e:	67 66 0f af 45 f8    	imul   eax,DWORD PTR [ebp-0x8]
    3814:	66 89 c2             	mov    edx,eax
    3817:	67 66 8b 45 f4       	mov    eax,DWORD PTR [ebp-0xc]
    381c:	66 01 d0             	add    eax,edx
    381f:	66 b9 14 00 00 00    	mov    ecx,0x14
    3825:	66 99                	cdq    
    3827:	66 f7 f9             	idiv   ecx
    382a:	67 66 89 55 fc       	mov    DWORD PTR [ebp-0x4],edx
D:\OneDrive\Study\Operating Systems\MyOs\project9\codes/./lib/utilsC.c:335
		++i;
    382f:	67 66 ff 45 f8       	inc    DWORD PTR [ebp-0x8]
D:\OneDrive\Study\Operating Systems\MyOs\project9\codes/./lib/utilsC.c:333
	while (information[code].type != null) {
    3834:	67 66 8b 55 fc       	mov    edx,DWORD PTR [ebp-0x4]
    3839:	66 89 d0             	mov    eax,edx
    383c:	66 01 c0             	add    eax,eax
    383f:	66 01 d0             	add    eax,edx
    3842:	66 c1 e0 02          	shl    eax,0x2
    3846:	66 01 d0             	add    eax,edx
    3849:	66 c1 e0 02          	shl    eax,0x2
    384d:	66 01 d0             	add    eax,edx
    3850:	66 c1 e0 02          	shl    eax,0x2
    3854:	66 05 80 c0 00 00    	add    eax,0xc080
    385a:	67 66 8b 00          	mov    eax,DWORD PTR [eax]
    385e:	66 85 c0             	test   eax,eax
    3861:	75 a6                	jne    3809 <_hash+0x33>
D:\OneDrive\Study\Operating Systems\MyOs\project9\codes/./lib/utilsC.c:339
	}


	information[code].type = record.type;
    3863:	67 66 8b 4d 2c       	mov    ecx,DWORD PTR [ebp+0x2c]
    3868:	67 66 8b 55 fc       	mov    edx,DWORD PTR [ebp-0x4]
    386d:	66 89 d0             	mov    eax,edx
    3870:	66 01 c0             	add    eax,eax
    3873:	66 01 d0             	add    eax,edx
    3876:	66 c1 e0 02          	shl    eax,0x2
    387a:	66 01 d0             	add    eax,edx
    387d:	66 c1 e0 02          	shl    eax,0x2
    3881:	66 01 d0             	add    eax,edx
    3884:	66 c1 e0 02          	shl    eax,0x2
    3888:	66 05 80 c0 00 00    	add    eax,0xc080
    388e:	67 66 89 08          	mov    DWORD PTR [eax],ecx
D:\OneDrive\Study\Operating Systems\MyOs\project9\codes/./lib/utilsC.c:340
	strncpy(record.name, information[code].name, strlen(record.name));
    3892:	67 66 8d 45 0c       	lea    eax,[ebp+0xc]
    3897:	67 66 89 04 24       	mov    DWORD PTR [esp],eax
    389c:	66 e8 53 fb ff ff    	call   33f5 <_strlen>
    38a2:	66 89 c1             	mov    ecx,eax
    38a5:	67 66 8b 55 fc       	mov    edx,DWORD PTR [ebp-0x4]
    38aa:	66 89 d0             	mov    eax,edx
    38ad:	66 01 c0             	add    eax,eax
    38b0:	66 01 d0             	add    eax,edx
    38b3:	66 c1 e0 02          	shl    eax,0x2
    38b7:	66 01 d0             	add    eax,edx
    38ba:	66 c1 e0 02          	shl    eax,0x2
    38be:	66 01 d0             	add    eax,edx
    38c1:	66 c1 e0 02          	shl    eax,0x2
    38c5:	66 05 60 c0 00 00    	add    eax,0xc060
    38cb:	67 66 89 4c 24 08    	mov    DWORD PTR [esp+0x8],ecx
    38d1:	67 66 89 44 24 04    	mov    DWORD PTR [esp+0x4],eax
    38d7:	67 66 8d 45 0c       	lea    eax,[ebp+0xc]
    38dc:	67 66 89 04 24       	mov    DWORD PTR [esp],eax
    38e1:	66 e8 f4 fc ff ff    	call   35db <_strncpy>
D:\OneDrive\Study\Operating Systems\MyOs\project9\codes/./lib/utilsC.c:341
	information[code].size = record.size;
    38e7:	67 66 8b 4d 34       	mov    ecx,DWORD PTR [ebp+0x34]
    38ec:	67 66 8b 55 fc       	mov    edx,DWORD PTR [ebp-0x4]
    38f1:	66 89 d0             	mov    eax,edx
    38f4:	66 01 c0             	add    eax,eax
    38f7:	66 01 d0             	add    eax,edx
    38fa:	66 c1 e0 02          	shl    eax,0x2
    38fe:	66 01 d0             	add    eax,edx
    3901:	66 c1 e0 02          	shl    eax,0x2
    3905:	66 01 d0             	add    eax,edx
    3908:	66 c1 e0 02          	shl    eax,0x2
    390c:	66 05 88 c0 00 00    	add    eax,0xc088
    3912:	67 66 89 08          	mov    DWORD PTR [eax],ecx
D:\OneDrive\Study\Operating Systems\MyOs\project9\codes/./lib/utilsC.c:342
	information[code].lmaddress = record.lmaddress;
    3916:	67 66 8b 4d 30       	mov    ecx,DWORD PTR [ebp+0x30]
    391b:	67 66 8b 55 fc       	mov    edx,DWORD PTR [ebp-0x4]
    3920:	66 89 d0             	mov    eax,edx
    3923:	66 01 c0             	add    eax,eax
    3926:	66 01 d0             	add    eax,edx
    3929:	66 c1 e0 02          	shl    eax,0x2
    392d:	66 01 d0             	add    eax,edx
    3930:	66 c1 e0 02          	shl    eax,0x2
    3934:	66 01 d0             	add    eax,edx
    3937:	66 c1 e0 02          	shl    eax,0x2
    393b:	66 05 84 c0 00 00    	add    eax,0xc084
    3941:	67 66 89 08          	mov    DWORD PTR [eax],ecx
D:\OneDrive\Study\Operating Systems\MyOs\project9\codes/./lib/utilsC.c:343
	information[code].deleted = record.deleted;
    3945:	67 66 8b 4d 38       	mov    ecx,DWORD PTR [ebp+0x38]
    394a:	67 66 8b 55 fc       	mov    edx,DWORD PTR [ebp-0x4]
    394f:	66 89 d0             	mov    eax,edx
    3952:	66 01 c0             	add    eax,eax
    3955:	66 01 d0             	add    eax,edx
    3958:	66 c1 e0 02          	shl    eax,0x2
    395c:	66 01 d0             	add    eax,edx
    395f:	66 c1 e0 02          	shl    eax,0x2
    3963:	66 01 d0             	add    eax,edx
    3966:	66 c1 e0 02          	shl    eax,0x2
    396a:	66 05 8c c0 00 00    	add    eax,0xc08c
    3970:	67 66 89 08          	mov    DWORD PTR [eax],ecx
D:\OneDrive\Study\Operating Systems\MyOs\project9\codes/./lib/utilsC.c:344
	return code;
    3974:	67 66 8b 45 fc       	mov    eax,DWORD PTR [ebp-0x4]
D:\OneDrive\Study\Operating Systems\MyOs\project9\codes/./lib/utilsC.c:345
}
    3979:	66 c9                	leave  
    397b:	66 c3                	ret    

0000397d <_find>:
find():
D:\OneDrive\Study\Operating Systems\MyOs\project9\codes/./lib/utilsC.c:348

int find(char * key)
{
    397d:	66 55                	push   ebp
    397f:	66 89 e5             	mov    ebp,esp
    3982:	66 83 ec 14          	sub    esp,0x14
D:\OneDrive\Study\Operating Systems\MyOs\project9\codes/./lib/utilsC.c:349
	int inicode = hashfun(key);
    3986:	67 66 8b 45 08       	mov    eax,DWORD PTR [ebp+0x8]
    398b:	67 66 89 04 24       	mov    DWORD PTR [esp],eax
    3990:	66 e8 c3 fd ff ff    	call   3759 <_hashfun>
    3996:	67 66 89 45 f4       	mov    DWORD PTR [ebp-0xc],eax
D:\OneDrive\Study\Operating Systems\MyOs\project9\codes/./lib/utilsC.c:350
	int code = inicode, i = 1;
    399b:	67 66 8b 45 f4       	mov    eax,DWORD PTR [ebp-0xc]
    39a0:	67 66 89 45 fc       	mov    DWORD PTR [ebp-0x4],eax
    39a5:	67 66 c7 45 f8 01 00 	mov    DWORD PTR [ebp-0x8],0x1
    39ac:	00 00 
D:\OneDrive\Study\Operating Systems\MyOs\project9\codes/./lib/utilsC.c:351
	while (information[code].type == null || strcmp(key, information[code].name) != 0) {
    39ae:	eb 3b                	jmp    39eb <_find+0x6e>
D:\OneDrive\Study\Operating Systems\MyOs\project9\codes/./lib/utilsC.c:352
		code = (inicode + i * i) % Len;
    39b0:	67 66 8b 45 f8       	mov    eax,DWORD PTR [ebp-0x8]
    39b5:	67 66 0f af 45 f8    	imul   eax,DWORD PTR [ebp-0x8]
    39bb:	66 89 c2             	mov    edx,eax
    39be:	67 66 8b 45 f4       	mov    eax,DWORD PTR [ebp-0xc]
    39c3:	66 01 d0             	add    eax,edx
    39c6:	66 b9 14 00 00 00    	mov    ecx,0x14
    39cc:	66 99                	cdq    
    39ce:	66 f7 f9             	idiv   ecx
    39d1:	67 66 89 55 fc       	mov    DWORD PTR [ebp-0x4],edx
D:\OneDrive\Study\Operating Systems\MyOs\project9\codes/./lib/utilsC.c:353
		++i;
    39d6:	67 66 ff 45 f8       	inc    DWORD PTR [ebp-0x8]
D:\OneDrive\Study\Operating Systems\MyOs\project9\codes/./lib/utilsC.c:354
		if (i > Len)
    39db:	67 66 83 7d f8 14    	cmp    DWORD PTR [ebp-0x8],0x14
    39e1:	7e 08                	jle    39eb <_find+0x6e>
D:\OneDrive\Study\Operating Systems\MyOs\project9\codes/./lib/utilsC.c:355
			return -1;
    39e3:	66 b8 ff ff ff ff    	mov    eax,0xffffffff
    39e9:	eb 77                	jmp    3a62 <_find+0xe5>
D:\OneDrive\Study\Operating Systems\MyOs\project9\codes/./lib/utilsC.c:351
	while (information[code].type == null || strcmp(key, information[code].name) != 0) {
    39eb:	67 66 8b 55 fc       	mov    edx,DWORD PTR [ebp-0x4]
    39f0:	66 89 d0             	mov    eax,edx
    39f3:	66 01 c0             	add    eax,eax
    39f6:	66 01 d0             	add    eax,edx
    39f9:	66 c1 e0 02          	shl    eax,0x2
    39fd:	66 01 d0             	add    eax,edx
    3a00:	66 c1 e0 02          	shl    eax,0x2
    3a04:	66 01 d0             	add    eax,edx
    3a07:	66 c1 e0 02          	shl    eax,0x2
    3a0b:	66 05 80 c0 00 00    	add    eax,0xc080
    3a11:	67 66 8b 00          	mov    eax,DWORD PTR [eax]
    3a15:	66 85 c0             	test   eax,eax
    3a18:	74 96                	je     39b0 <_find+0x33>
    3a1a:	67 66 8b 55 fc       	mov    edx,DWORD PTR [ebp-0x4]
    3a1f:	66 89 d0             	mov    eax,edx
    3a22:	66 01 c0             	add    eax,eax
    3a25:	66 01 d0             	add    eax,edx
    3a28:	66 c1 e0 02          	shl    eax,0x2
    3a2c:	66 01 d0             	add    eax,edx
    3a2f:	66 c1 e0 02          	shl    eax,0x2
    3a33:	66 01 d0             	add    eax,edx
    3a36:	66 c1 e0 02          	shl    eax,0x2
    3a3a:	66 05 60 c0 00 00    	add    eax,0xc060
    3a40:	67 66 89 44 24 04    	mov    DWORD PTR [esp+0x4],eax
    3a46:	67 66 8b 45 08       	mov    eax,DWORD PTR [ebp+0x8]
    3a4b:	67 66 89 04 24       	mov    DWORD PTR [esp],eax
    3a50:	66 e8 70 fa ff ff    	call   34c6 <_strcmp>
    3a56:	66 85 c0             	test   eax,eax
    3a59:	0f 85 53 ff          	jne    39b0 <_find+0x33>
D:\OneDrive\Study\Operating Systems\MyOs\project9\codes/./lib/utilsC.c:357
	}
	return code;
    3a5d:	67 66 8b 45 fc       	mov    eax,DWORD PTR [ebp-0x4]
D:\OneDrive\Study\Operating Systems\MyOs\project9\codes/./lib/utilsC.c:358
}
    3a62:	66 c9                	leave  
    3a64:	66 c3                	ret    

00003a66 <_initialFile>:
initialFile():
D:\OneDrive\Study\Operating Systems\MyOs\project9\codes/./lib/utilsC.c:361

void initialFile()
{
    3a66:	66 55                	push   ebp
    3a68:	66 89 e5             	mov    ebp,esp
    3a6b:	66 83 ec 10          	sub    esp,0x10
D:\OneDrive\Study\Operating Systems\MyOs\project9\codes/./lib/utilsC.c:362
	FAT = (short*)getRecords(segOfOs, offsetOfFat);
    3a6f:	67 66 c7 44 24 04 00 	mov    DWORD PTR [esp+0x4],0xe000
    3a76:	e0 00 00 
    3a79:	67 66 c7 04 24 00 20 	mov    DWORD PTR [esp],0x2000
    3a80:	00 00 
    3a82:	66 e8 fd e8 ff ff    	call   2385 <_getRecords>
    3a88:	66 a3 e0 a7          	mov    ds:0xa7e0,eax
D:\OneDrive\Study\Operating Systems\MyOs\project9\codes/./lib/utilsC.c:363
	for (int i = 0; i < Len; ++i) {
    3a8c:	67 66 c7 45 fc 00 00 	mov    DWORD PTR [ebp-0x4],0x0
    3a93:	00 00 
    3a95:	eb 33                	jmp    3aca <_initialFile+0x64>
D:\OneDrive\Study\Operating Systems\MyOs\project9\codes/./lib/utilsC.c:364
		information[i].type = null;
    3a97:	67 66 8b 55 fc       	mov    edx,DWORD PTR [ebp-0x4]
    3a9c:	66 89 d0             	mov    eax,edx
    3a9f:	66 01 c0             	add    eax,eax
    3aa2:	66 01 d0             	add    eax,edx
    3aa5:	66 c1 e0 02          	shl    eax,0x2
    3aa9:	66 01 d0             	add    eax,edx
    3aac:	66 c1 e0 02          	shl    eax,0x2
    3ab0:	66 01 d0             	add    eax,edx
    3ab3:	66 c1 e0 02          	shl    eax,0x2
    3ab7:	66 05 80 c0 00 00    	add    eax,0xc080
    3abd:	67 66 c7 00 00 00 00 	mov    DWORD PTR [eax],0x0
    3ac4:	00 
D:\OneDrive\Study\Operating Systems\MyOs\project9\codes/./lib/utilsC.c:363
	for (int i = 0; i < Len; ++i) {
    3ac5:	67 66 ff 45 fc       	inc    DWORD PTR [ebp-0x4]
    3aca:	67 66 83 7d fc 13    	cmp    DWORD PTR [ebp-0x4],0x13
    3ad0:	7e c5                	jle    3a97 <_initialFile+0x31>
D:\OneDrive\Study\Operating Systems\MyOs\project9\codes/./lib/utilsC.c:366
	}
	no.lmaddress = 0;
    3ad2:	66 c7 06 24 a8 00 00 	mov    DWORD PTR ds:0xa824,0x0
    3ad9:	00 00 
D:\OneDrive\Study\Operating Systems\MyOs\project9\codes/./lib/utilsC.c:367
	no.size = 0;
    3adb:	66 c7 06 28 a8 00 00 	mov    DWORD PTR ds:0xa828,0x0
    3ae2:	00 00 
D:\OneDrive\Study\Operating Systems\MyOs\project9\codes/./lib/utilsC.c:368
	no.type = null;
    3ae4:	66 c7 06 20 a8 00 00 	mov    DWORD PTR ds:0xa820,0x0
    3aeb:	00 00 
D:\OneDrive\Study\Operating Systems\MyOs\project9\codes/./lib/utilsC.c:369
	strncpy("", no.name, 0);
    3aed:	67 66 c7 44 24 08 00 	mov    DWORD PTR [esp+0x8],0x0
    3af4:	00 00 00 
    3af7:	67 66 c7 44 24 04 00 	mov    DWORD PTR [esp+0x4],0xa800
    3afe:	a8 00 00 
    3b01:	67 66 c7 04 24 db 80 	mov    DWORD PTR [esp],0x80db
    3b08:	00 00 
    3b0a:	66 e8 cb fa ff ff    	call   35db <_strncpy>
D:\OneDrive\Study\Operating Systems\MyOs\project9\codes/./lib/utilsC.c:370
	loadFiles();
    3b10:	66 e8 05 00 00 00    	call   3b1b <_loadFiles>
D:\OneDrive\Study\Operating Systems\MyOs\project9\codes/./lib/utilsC.c:371
}
    3b16:	90                   	nop
    3b17:	66 c9                	leave  
    3b19:	66 c3                	ret    

00003b1b <_loadFiles>:
loadFiles():
D:\OneDrive\Study\Operating Systems\MyOs\project9\codes/./lib/utilsC.c:375


void loadFiles()
{
    3b1b:	66 55                	push   ebp
    3b1d:	66 89 e5             	mov    ebp,esp
    3b20:	66 57                	push   edi
    3b22:	66 56                	push   esi
    3b24:	66 81 ec e4 01 00 00 	sub    esp,0x1e4
D:\OneDrive\Study\Operating Systems\MyOs\project9\codes/./lib/utilsC.c:376
	char * rawRecords = getRecords(segOfOs, offsetOfRecord);
    3b2b:	67 66 c7 44 24 04 00 	mov    DWORD PTR [esp+0x4],0xd000
    3b32:	d0 00 00 
    3b35:	67 66 c7 04 24 00 20 	mov    DWORD PTR [esp],0x2000
    3b3c:	00 00 
    3b3e:	66 e8 41 e8 ff ff    	call   2385 <_getRecords>
    3b44:	67 66 89 45 e4       	mov    DWORD PTR [ebp-0x1c],eax
D:\OneDrive\Study\Operating Systems\MyOs\project9\codes/./lib/utilsC.c:377
	int i = 0;
    3b49:	67 66 c7 45 f4 00 00 	mov    DWORD PTR [ebp-0xc],0x0
    3b50:	00 00 
D:\OneDrive\Study\Operating Systems\MyOs\project9\codes/./lib/utilsC.c:378
	int l = 0;
    3b52:	67 66 c7 45 f0 00 00 	mov    DWORD PTR [ebp-0x10],0x0
    3b59:	00 00 
D:\OneDrive\Study\Operating Systems\MyOs\project9\codes/./lib/utilsC.c:379
	int size = 0;
    3b5b:	67 66 c7 45 ec 00 00 	mov    DWORD PTR [ebp-0x14],0x0
    3b62:	00 00 
D:\OneDrive\Study\Operating Systems\MyOs\project9\codes/./lib/utilsC.c:380
	int place = 0;
    3b64:	67 66 c7 45 e8 00 00 	mov    DWORD PTR [ebp-0x18],0x0
    3b6b:	00 00 
D:\OneDrive\Study\Operating Systems\MyOs\project9\codes/./lib/utilsC.c:382
	char name[30];
	enum fileType t = null;
    3b6d:	67 66 c7 45 e0 00 00 	mov    DWORD PTR [ebp-0x20],0x0
    3b74:	00 00 
D:\OneDrive\Study\Operating Systems\MyOs\project9\codes/./lib/utilsC.c:384
	struct info tmp;
	while (rawRecords[i] != '\n')
    3b76:	e9 2c 02             	jmp    3da5 <_loadFiles+0x28a>
D:\OneDrive\Study\Operating Systems\MyOs\project9\codes/./lib/utilsC.c:386
	{
		size = 0;
    3b79:	67 66 c7 45 ec 00 00 	mov    DWORD PTR [ebp-0x14],0x0
    3b80:	00 00 
D:\OneDrive\Study\Operating Systems\MyOs\project9\codes/./lib/utilsC.c:387
		place = 0;
    3b82:	67 66 c7 45 e8 00 00 	mov    DWORD PTR [ebp-0x18],0x0
    3b89:	00 00 
D:\OneDrive\Study\Operating Systems\MyOs\project9\codes/./lib/utilsC.c:389
		// name
		++i;
    3b8b:	67 66 ff 45 f4       	inc    DWORD PTR [ebp-0xc]
D:\OneDrive\Study\Operating Systems\MyOs\project9\codes/./lib/utilsC.c:390
		l = 0;
    3b90:	67 66 c7 45 f0 00 00 	mov    DWORD PTR [ebp-0x10],0x0
    3b97:	00 00 
D:\OneDrive\Study\Operating Systems\MyOs\project9\codes/./lib/utilsC.c:391
		while (rawRecords[i] != '|') {
    3b99:	eb 0a                	jmp    3ba5 <_loadFiles+0x8a>
D:\OneDrive\Study\Operating Systems\MyOs\project9\codes/./lib/utilsC.c:392
			++i;
    3b9b:	67 66 ff 45 f4       	inc    DWORD PTR [ebp-0xc]
D:\OneDrive\Study\Operating Systems\MyOs\project9\codes/./lib/utilsC.c:393
			++l;
    3ba0:	67 66 ff 45 f0       	inc    DWORD PTR [ebp-0x10]
D:\OneDrive\Study\Operating Systems\MyOs\project9\codes/./lib/utilsC.c:391
		while (rawRecords[i] != '|') {
    3ba5:	67 66 8b 55 f4       	mov    edx,DWORD PTR [ebp-0xc]
    3baa:	67 66 8b 45 e4       	mov    eax,DWORD PTR [ebp-0x1c]
    3baf:	66 01 d0             	add    eax,edx
    3bb2:	67 8a 00             	mov    al,BYTE PTR [eax]
    3bb5:	3c 7c                	cmp    al,0x7c
    3bb7:	75 e2                	jne    3b9b <_loadFiles+0x80>
D:\OneDrive\Study\Operating Systems\MyOs\project9\codes/./lib/utilsC.c:395
		}
		++i;
    3bb9:	67 66 ff 45 f4       	inc    DWORD PTR [ebp-0xc]
D:\OneDrive\Study\Operating Systems\MyOs\project9\codes/./lib/utilsC.c:396
		strncpy(rawRecords + i - l - 1, name, l);
    3bbe:	67 66 8b 55 f4       	mov    edx,DWORD PTR [ebp-0xc]
    3bc3:	67 66 8b 45 f0       	mov    eax,DWORD PTR [ebp-0x10]
    3bc8:	66 29 c2             	sub    edx,eax
    3bcb:	66 89 d0             	mov    eax,edx
    3bce:	67 66 8d 50 ff       	lea    edx,[eax-0x1]
    3bd3:	67 66 8b 45 e4       	mov    eax,DWORD PTR [ebp-0x1c]
    3bd8:	66 01 c2             	add    edx,eax
    3bdb:	67 66 8b 45 f0       	mov    eax,DWORD PTR [ebp-0x10]
    3be0:	67 66 89 44 24 08    	mov    DWORD PTR [esp+0x8],eax
    3be6:	67 66 8d 45 c2       	lea    eax,[ebp-0x3e]
    3beb:	67 66 89 44 24 04    	mov    DWORD PTR [esp+0x4],eax
    3bf1:	67 66 89 14 24       	mov    DWORD PTR [esp],edx
    3bf6:	66 e8 df f9 ff ff    	call   35db <_strncpy>
D:\OneDrive\Study\Operating Systems\MyOs\project9\codes/./lib/utilsC.c:397
		name[l] = '\0';
    3bfc:	67 66 8d 55 c2       	lea    edx,[ebp-0x3e]
    3c01:	67 66 8b 45 f0       	mov    eax,DWORD PTR [ebp-0x10]
    3c06:	66 01 d0             	add    eax,edx
    3c09:	67 c6 00 00          	mov    BYTE PTR [eax],0x0
D:\OneDrive\Study\Operating Systems\MyOs\project9\codes/./lib/utilsC.c:399
		// size
		while (rawRecords[i] != '|') {
    3c0d:	eb 3a                	jmp    3c49 <_loadFiles+0x12e>
D:\OneDrive\Study\Operating Systems\MyOs\project9\codes/./lib/utilsC.c:400
			size = size * 10 + rawRecords[i] - '0';
    3c0f:	67 66 8b 55 ec       	mov    edx,DWORD PTR [ebp-0x14]
    3c14:	66 89 d0             	mov    eax,edx
    3c17:	66 c1 e0 02          	shl    eax,0x2
    3c1b:	66 01 d0             	add    eax,edx
    3c1e:	66 01 c0             	add    eax,eax
    3c21:	66 89 c1             	mov    ecx,eax
    3c24:	67 66 8b 55 f4       	mov    edx,DWORD PTR [ebp-0xc]
    3c29:	67 66 8b 45 e4       	mov    eax,DWORD PTR [ebp-0x1c]
    3c2e:	66 01 d0             	add    eax,edx
    3c31:	67 8a 00             	mov    al,BYTE PTR [eax]
    3c34:	66 0f be c0          	movsx  eax,al
    3c38:	66 01 c8             	add    eax,ecx
    3c3b:	66 83 e8 30          	sub    eax,0x30
    3c3f:	67 66 89 45 ec       	mov    DWORD PTR [ebp-0x14],eax
D:\OneDrive\Study\Operating Systems\MyOs\project9\codes/./lib/utilsC.c:401
			++i;
    3c44:	67 66 ff 45 f4       	inc    DWORD PTR [ebp-0xc]
D:\OneDrive\Study\Operating Systems\MyOs\project9\codes/./lib/utilsC.c:399
		while (rawRecords[i] != '|') {
    3c49:	67 66 8b 55 f4       	mov    edx,DWORD PTR [ebp-0xc]
    3c4e:	67 66 8b 45 e4       	mov    eax,DWORD PTR [ebp-0x1c]
    3c53:	66 01 d0             	add    eax,edx
    3c56:	67 8a 00             	mov    al,BYTE PTR [eax]
    3c59:	3c 7c                	cmp    al,0x7c
    3c5b:	75 b2                	jne    3c0f <_loadFiles+0xf4>
D:\OneDrive\Study\Operating Systems\MyOs\project9\codes/./lib/utilsC.c:403
		}
		++i;
    3c5d:	67 66 ff 45 f4       	inc    DWORD PTR [ebp-0xc]
D:\OneDrive\Study\Operating Systems\MyOs\project9\codes/./lib/utilsC.c:405
		// place
		while (rawRecords[i] != '|') {
    3c62:	eb 3a                	jmp    3c9e <_loadFiles+0x183>
D:\OneDrive\Study\Operating Systems\MyOs\project9\codes/./lib/utilsC.c:406
			place = place * 10 + rawRecords[i] - '0';
    3c64:	67 66 8b 55 e8       	mov    edx,DWORD PTR [ebp-0x18]
    3c69:	66 89 d0             	mov    eax,edx
    3c6c:	66 c1 e0 02          	shl    eax,0x2
    3c70:	66 01 d0             	add    eax,edx
    3c73:	66 01 c0             	add    eax,eax
    3c76:	66 89 c1             	mov    ecx,eax
    3c79:	67 66 8b 55 f4       	mov    edx,DWORD PTR [ebp-0xc]
    3c7e:	67 66 8b 45 e4       	mov    eax,DWORD PTR [ebp-0x1c]
    3c83:	66 01 d0             	add    eax,edx
    3c86:	67 8a 00             	mov    al,BYTE PTR [eax]
    3c89:	66 0f be c0          	movsx  eax,al
    3c8d:	66 01 c8             	add    eax,ecx
    3c90:	66 83 e8 30          	sub    eax,0x30
    3c94:	67 66 89 45 e8       	mov    DWORD PTR [ebp-0x18],eax
D:\OneDrive\Study\Operating Systems\MyOs\project9\codes/./lib/utilsC.c:407
			++i;
    3c99:	67 66 ff 45 f4       	inc    DWORD PTR [ebp-0xc]
D:\OneDrive\Study\Operating Systems\MyOs\project9\codes/./lib/utilsC.c:405
		while (rawRecords[i] != '|') {
    3c9e:	67 66 8b 55 f4       	mov    edx,DWORD PTR [ebp-0xc]
    3ca3:	67 66 8b 45 e4       	mov    eax,DWORD PTR [ebp-0x1c]
    3ca8:	66 01 d0             	add    eax,edx
    3cab:	67 8a 00             	mov    al,BYTE PTR [eax]
    3cae:	3c 7c                	cmp    al,0x7c
    3cb0:	75 b2                	jne    3c64 <_loadFiles+0x149>
D:\OneDrive\Study\Operating Systems\MyOs\project9\codes/./lib/utilsC.c:409
		}
		++i;
    3cb2:	67 66 ff 45 f4       	inc    DWORD PTR [ebp-0xc]
D:\OneDrive\Study\Operating Systems\MyOs\project9\codes/./lib/utilsC.c:411
		//type
		t = rawRecords[i] - '0';
    3cb7:	67 66 8b 55 f4       	mov    edx,DWORD PTR [ebp-0xc]
    3cbc:	67 66 8b 45 e4       	mov    eax,DWORD PTR [ebp-0x1c]
    3cc1:	66 01 d0             	add    eax,edx
    3cc4:	67 8a 00             	mov    al,BYTE PTR [eax]
    3cc7:	66 0f be c0          	movsx  eax,al
    3ccb:	66 83 e8 30          	sub    eax,0x30
    3ccf:	67 66 89 45 e0       	mov    DWORD PTR [ebp-0x20],eax
D:\OneDrive\Study\Operating Systems\MyOs\project9\codes/./lib/utilsC.c:412
		i += 3;
    3cd4:	67 66 83 45 f4 03    	add    DWORD PTR [ebp-0xc],0x3
D:\OneDrive\Study\Operating Systems\MyOs\project9\codes/./lib/utilsC.c:413
		tmp.size = size;
    3cda:	67 66 8b 45 ec       	mov    eax,DWORD PTR [ebp-0x14]
    3cdf:	67 66 89 85 14 ff ff 	mov    DWORD PTR [ebp-0xec],eax
    3ce6:	ff 
D:\OneDrive\Study\Operating Systems\MyOs\project9\codes/./lib/utilsC.c:414
		tmp.type = t;
    3ce7:	67 66 8b 45 e0       	mov    eax,DWORD PTR [ebp-0x20]
    3cec:	67 66 89 85 0c ff ff 	mov    DWORD PTR [ebp-0xf4],eax
    3cf3:	ff 
D:\OneDrive\Study\Operating Systems\MyOs\project9\codes/./lib/utilsC.c:415
		tmp.lmaddress = place;
    3cf4:	67 66 8b 45 e8       	mov    eax,DWORD PTR [ebp-0x18]
    3cf9:	67 66 89 85 10 ff ff 	mov    DWORD PTR [ebp-0xf0],eax
    3d00:	ff 
D:\OneDrive\Study\Operating Systems\MyOs\project9\codes/./lib/utilsC.c:416
		tmp.deleted = 0;
    3d01:	67 66 c7 85 18 ff ff 	mov    DWORD PTR [ebp-0xe8],0x0
    3d08:	ff 00 00 00 00 
D:\OneDrive\Study\Operating Systems\MyOs\project9\codes/./lib/utilsC.c:417
		tmp.start = place / Cluster;
    3d0d:	67 66 8b 45 e8       	mov    eax,DWORD PTR [ebp-0x18]
    3d12:	66 85 c0             	test   eax,eax
    3d15:	79 06                	jns    3d1d <_loadFiles+0x202>
    3d17:	66 05 ff 01 00 00    	add    eax,0x1ff
    3d1d:	66 c1 f8 09          	sar    eax,0x9
    3d21:	67 66 89 85 1c ff ff 	mov    DWORD PTR [ebp-0xe4],eax
    3d28:	ff 
D:\OneDrive\Study\Operating Systems\MyOs\project9\codes/./lib/utilsC.c:418
		setFAT(place, size);
    3d29:	67 66 8b 45 ec       	mov    eax,DWORD PTR [ebp-0x14]
    3d2e:	67 66 89 44 24 04    	mov    DWORD PTR [esp+0x4],eax
    3d34:	67 66 8b 45 e8       	mov    eax,DWORD PTR [ebp-0x18]
    3d39:	67 66 89 04 24       	mov    DWORD PTR [esp],eax
    3d3e:	66 e8 87 00 00 00    	call   3dcb <_setFAT>
D:\OneDrive\Study\Operating Systems\MyOs\project9\codes/./lib/utilsC.c:419
		strncpy(name, tmp.name, strlen(name));
    3d44:	67 66 8d 45 c2       	lea    eax,[ebp-0x3e]
    3d49:	67 66 89 04 24       	mov    DWORD PTR [esp],eax
    3d4e:	66 e8 a1 f6 ff ff    	call   33f5 <_strlen>
    3d54:	67 66 89 44 24 08    	mov    DWORD PTR [esp+0x8],eax
    3d5a:	67 66 8d 85 ec fe ff 	lea    eax,[ebp-0x114]
    3d61:	ff 
    3d62:	67 66 89 44 24 04    	mov    DWORD PTR [esp+0x4],eax
    3d68:	67 66 8d 45 c2       	lea    eax,[ebp-0x3e]
    3d6d:	67 66 89 04 24       	mov    DWORD PTR [esp],eax
    3d72:	66 e8 63 f8 ff ff    	call   35db <_strncpy>
D:\OneDrive\Study\Operating Systems\MyOs\project9\codes/./lib/utilsC.c:420
		hash(name, tmp);
    3d78:	67 66 8d 44 24 04    	lea    eax,[esp+0x4]
    3d7e:	67 66 8d 95 ec fe ff 	lea    edx,[ebp-0x114]
    3d85:	ff 
    3d86:	66 b9 35 00 00 00    	mov    ecx,0x35
    3d8c:	66 89 c7             	mov    edi,eax
    3d8f:	66 89 d6             	mov    esi,edx
    3d92:	66 f3 a5             	rep movs DWORD PTR es:[di],DWORD PTR ds:[si]
    3d95:	67 66 8d 45 c2       	lea    eax,[ebp-0x3e]
    3d9a:	67 66 89 04 24       	mov    DWORD PTR [esp],eax
    3d9f:	66 e8 31 fa ff ff    	call   37d6 <_hash>
D:\OneDrive\Study\Operating Systems\MyOs\project9\codes/./lib/utilsC.c:384
	while (rawRecords[i] != '\n')
    3da5:	67 66 8b 55 f4       	mov    edx,DWORD PTR [ebp-0xc]
    3daa:	67 66 8b 45 e4       	mov    eax,DWORD PTR [ebp-0x1c]
    3daf:	66 01 d0             	add    eax,edx
    3db2:	67 8a 00             	mov    al,BYTE PTR [eax]
    3db5:	3c 0a                	cmp    al,0xa
    3db7:	0f 85 be fd          	jne    3b79 <_loadFiles+0x5e>
D:\OneDrive\Study\Operating Systems\MyOs\project9\codes/./lib/utilsC.c:422
	}
}
    3dbb:	90                   	nop
    3dbc:	66 81 c4 e4 01 00 00 	add    esp,0x1e4
    3dc3:	66 5e                	pop    esi
    3dc5:	66 5f                	pop    edi
    3dc7:	66 5d                	pop    ebp
    3dc9:	66 c3                	ret    

00003dcb <_setFAT>:
setFAT():
D:\OneDrive\Study\Operating Systems\MyOs\project9\codes/./lib/utilsC.c:425
// FAT0
void setFAT(int lmaddress, int size)
{
    3dcb:	66 55                	push   ebp
    3dcd:	66 89 e5             	mov    ebp,esp
    3dd0:	66 83 ec 0c          	sub    esp,0xc
D:\OneDrive\Study\Operating Systems\MyOs\project9\codes/./lib/utilsC.c:426
	int begin = lmaddress / Cluster;
    3dd4:	67 66 8b 45 08       	mov    eax,DWORD PTR [ebp+0x8]
    3dd9:	66 85 c0             	test   eax,eax
    3ddc:	79 06                	jns    3de4 <_setFAT+0x19>
    3dde:	66 05 ff 01 00 00    	add    eax,0x1ff
    3de4:	66 c1 f8 09          	sar    eax,0x9
    3de8:	67 66 89 45 f8       	mov    DWORD PTR [ebp-0x8],eax
D:\OneDrive\Study\Operating Systems\MyOs\project9\codes/./lib/utilsC.c:427
	int num = size / Cluster;
    3ded:	67 66 8b 45 0c       	mov    eax,DWORD PTR [ebp+0xc]
    3df2:	66 85 c0             	test   eax,eax
    3df5:	79 06                	jns    3dfd <_setFAT+0x32>
    3df7:	66 05 ff 01 00 00    	add    eax,0x1ff
    3dfd:	66 c1 f8 09          	sar    eax,0x9
    3e01:	67 66 89 45 f4       	mov    DWORD PTR [ebp-0xc],eax
D:\OneDrive\Study\Operating Systems\MyOs\project9\codes/./lib/utilsC.c:428
	for (int i = 0; i < num - 1; ++i)
    3e06:	67 66 c7 45 fc 00 00 	mov    DWORD PTR [ebp-0x4],0x0
    3e0d:	00 00 
    3e0f:	eb 33                	jmp    3e44 <_setFAT+0x79>
D:\OneDrive\Study\Operating Systems\MyOs\project9\codes/./lib/utilsC.c:430
	{
		FAT[i + begin] = i + begin + 1;
    3e11:	66 a1 e0 a7          	mov    eax,ds:0xa7e0
    3e15:	67 66 8b 4d fc       	mov    ecx,DWORD PTR [ebp-0x4]
    3e1a:	67 66 8b 55 f8       	mov    edx,DWORD PTR [ebp-0x8]
    3e1f:	66 01 ca             	add    edx,ecx
    3e22:	66 01 d2             	add    edx,edx
    3e25:	67 66 8d 0c 10       	lea    ecx,[eax+edx*1]
    3e2a:	67 66 8b 45 fc       	mov    eax,DWORD PTR [ebp-0x4]
    3e2f:	66 89 c2             	mov    edx,eax
    3e32:	67 66 8b 45 f8       	mov    eax,DWORD PTR [ebp-0x8]
    3e37:	66 01 d0             	add    eax,edx
    3e3a:	66 40                	inc    eax
    3e3c:	67 89 01             	mov    WORD PTR [ecx],ax
D:\OneDrive\Study\Operating Systems\MyOs\project9\codes/./lib/utilsC.c:428
	for (int i = 0; i < num - 1; ++i)
    3e3f:	67 66 ff 45 fc       	inc    DWORD PTR [ebp-0x4]
    3e44:	67 66 8b 45 f4       	mov    eax,DWORD PTR [ebp-0xc]
    3e49:	66 48                	dec    eax
    3e4b:	67 66 3b 45 fc       	cmp    eax,DWORD PTR [ebp-0x4]
    3e50:	7f bf                	jg     3e11 <_setFAT+0x46>
D:\OneDrive\Study\Operating Systems\MyOs\project9\codes/./lib/utilsC.c:432
	}
	FAT[num + begin - 1] = 0xffff;
    3e52:	66 a1 e0 a7          	mov    eax,ds:0xa7e0
    3e56:	67 66 8b 4d f4       	mov    ecx,DWORD PTR [ebp-0xc]
    3e5b:	67 66 8b 55 f8       	mov    edx,DWORD PTR [ebp-0x8]
    3e60:	66 01 ca             	add    edx,ecx
    3e63:	66 81 c2 ff ff ff 7f 	add    edx,0x7fffffff
    3e6a:	66 01 d2             	add    edx,edx
    3e6d:	66 01 d0             	add    eax,edx
    3e70:	67 c7 00 ff ff       	mov    WORD PTR [eax],0xffff
D:\OneDrive\Study\Operating Systems\MyOs\project9\codes/./lib/utilsC.c:433
}
    3e75:	90                   	nop
    3e76:	66 c9                	leave  
    3e78:	66 c3                	ret    

00003e7a <_resetFAT>:
resetFAT():
D:\OneDrive\Study\Operating Systems\MyOs\project9\codes/./lib/utilsC.c:436

void resetFAT(int lmaddress, int size)
{
    3e7a:	66 55                	push   ebp
    3e7c:	66 89 e5             	mov    ebp,esp
    3e7f:	66 83 ec 0c          	sub    esp,0xc
D:\OneDrive\Study\Operating Systems\MyOs\project9\codes/./lib/utilsC.c:437
	int begin = lmaddress / Cluster;
    3e83:	67 66 8b 45 08       	mov    eax,DWORD PTR [ebp+0x8]
    3e88:	66 85 c0             	test   eax,eax
    3e8b:	79 06                	jns    3e93 <_resetFAT+0x19>
    3e8d:	66 05 ff 01 00 00    	add    eax,0x1ff
    3e93:	66 c1 f8 09          	sar    eax,0x9
    3e97:	67 66 89 45 f8       	mov    DWORD PTR [ebp-0x8],eax
D:\OneDrive\Study\Operating Systems\MyOs\project9\codes/./lib/utilsC.c:438
	int num = size / Cluster;
    3e9c:	67 66 8b 45 0c       	mov    eax,DWORD PTR [ebp+0xc]
    3ea1:	66 85 c0             	test   eax,eax
    3ea4:	79 06                	jns    3eac <_resetFAT+0x32>
    3ea6:	66 05 ff 01 00 00    	add    eax,0x1ff
    3eac:	66 c1 f8 09          	sar    eax,0x9
    3eb0:	67 66 89 45 f4       	mov    DWORD PTR [ebp-0xc],eax
D:\OneDrive\Study\Operating Systems\MyOs\project9\codes/./lib/utilsC.c:439
	for (int i = 0; i < num; ++i)
    3eb5:	67 66 c7 45 fc 00 00 	mov    DWORD PTR [ebp-0x4],0x0
    3ebc:	00 00 
    3ebe:	eb 21                	jmp    3ee1 <_resetFAT+0x67>
D:\OneDrive\Study\Operating Systems\MyOs\project9\codes/./lib/utilsC.c:441
	{
		FAT[i + begin] = 0;
    3ec0:	66 a1 e0 a7          	mov    eax,ds:0xa7e0
    3ec4:	67 66 8b 4d fc       	mov    ecx,DWORD PTR [ebp-0x4]
    3ec9:	67 66 8b 55 f8       	mov    edx,DWORD PTR [ebp-0x8]
    3ece:	66 01 ca             	add    edx,ecx
    3ed1:	66 01 d2             	add    edx,edx
    3ed4:	66 01 d0             	add    eax,edx
    3ed7:	67 c7 00 00 00       	mov    WORD PTR [eax],0x0
D:\OneDrive\Study\Operating Systems\MyOs\project9\codes/./lib/utilsC.c:439
	for (int i = 0; i < num; ++i)
    3edc:	67 66 ff 45 fc       	inc    DWORD PTR [ebp-0x4]
    3ee1:	67 66 8b 45 fc       	mov    eax,DWORD PTR [ebp-0x4]
    3ee6:	67 66 3b 45 f4       	cmp    eax,DWORD PTR [ebp-0xc]
    3eeb:	7c d3                	jl     3ec0 <_resetFAT+0x46>
D:\OneDrive\Study\Operating Systems\MyOs\project9\codes/./lib/utilsC.c:443
	}
}
    3eed:	90                   	nop
    3eee:	66 c9                	leave  
    3ef0:	66 c3                	ret    

00003ef2 <_Outread>:
Outread():
D:\OneDrive\Study\Operating Systems\MyOs\project9\codes/./lib/utilsC.c:447


int Outread(struct File* f, char*buf, int count, int offset)
{
    3ef2:	66 55                	push   ebp
    3ef4:	66 89 e5             	mov    ebp,esp
    3ef7:	66 83 ec 14          	sub    esp,0x14
D:\OneDrive\Study\Operating Systems\MyOs\project9\codes/./lib/utilsC.c:448
	readReal(f->file.seg, f->file.memoryOffset, count, offset, buf);
    3efb:	67 66 8b 45 08       	mov    eax,DWORD PTR [ebp+0x8]
    3f00:	67 66 8b 90 90 00 00 	mov    edx,DWORD PTR [eax+0x90]
    3f07:	00 
    3f08:	67 66 8b 45 08       	mov    eax,DWORD PTR [ebp+0x8]
    3f0d:	67 66 8b 80 8c 00 00 	mov    eax,DWORD PTR [eax+0x8c]
    3f14:	00 
    3f15:	67 66 8b 4d 0c       	mov    ecx,DWORD PTR [ebp+0xc]
    3f1a:	67 66 89 4c 24 10    	mov    DWORD PTR [esp+0x10],ecx
    3f20:	67 66 8b 4d 14       	mov    ecx,DWORD PTR [ebp+0x14]
    3f25:	67 66 89 4c 24 0c    	mov    DWORD PTR [esp+0xc],ecx
    3f2b:	67 66 8b 4d 10       	mov    ecx,DWORD PTR [ebp+0x10]
    3f30:	67 66 89 4c 24 08    	mov    DWORD PTR [esp+0x8],ecx
    3f36:	67 66 89 54 24 04    	mov    DWORD PTR [esp+0x4],edx
    3f3c:	67 66 89 04 24       	mov    DWORD PTR [esp],eax
    3f41:	66 e8 88 0a 00 00    	call   49cf <_readReal>
D:\OneDrive\Study\Operating Systems\MyOs\project9\codes/./lib/utilsC.c:449
	return strlen(buf);
    3f47:	67 66 8b 45 0c       	mov    eax,DWORD PTR [ebp+0xc]
    3f4c:	67 66 89 04 24       	mov    DWORD PTR [esp],eax
    3f51:	66 e8 9e f4 ff ff    	call   33f5 <_strlen>
D:\OneDrive\Study\Operating Systems\MyOs\project9\codes/./lib/utilsC.c:450
}
    3f57:	66 c9                	leave  
    3f59:	66 c3                	ret    

00003f5b <_Outwrite>:
Outwrite():
D:\OneDrive\Study\Operating Systems\MyOs\project9\codes/./lib/utilsC.c:452
