
..\imgs\boot.tmp:     file format pei-i386


Disassembly of section .text:

00000000 <.text>:
       0:	66 8c c8             	mov    eax,cs
       3:	8e d8                	mov    ds,ax
       5:	8e c0                	mov    es,ax
       7:	8e d0                	mov    ss,ax
       9:	8e e8                	mov    gs,ax
       b:	66 e8 94 0c 00 00    	call   ca5 <_inisys>
      11:	eb 00                	jmp    13 <__main>

00000013 <__main>:
_main():
D:\OneDrive\Study\Operating Systems\实验\project6\codes/./kernel/os.c:35
{
	int i;
	struct testMalloc * next;
};

int _main() {
      13:	66 55                	push   ebp
      15:	66 89 e5             	mov    ebp,esp
      18:	66 53                	push   ebx
      1a:	66 81 ec 94 00 00 00 	sub    esp,0x94
D:\OneDrive\Study\Operating Systems\实验\project6\codes/./kernel/os.c:36
	runSub = 0;
      21:	66 c7 06 a0 71 00 00 	mov    DWORD PTR ds:0x71a0,0x0
      28:	00 00 
D:\OneDrive\Study\Operating Systems\实验\project6\codes/./kernel/os.c:37
	curProcessId = 0;
      2a:	66 c7 06 a0 94 00 00 	mov    DWORD PTR ds:0x94a0,0x0
      31:	00 00 
D:\OneDrive\Study\Operating Systems\实验\project6\codes/./kernel/os.c:38
	ProcessSize = 1;
      33:	66 c7 06 54 77 01 00 	mov    DWORD PTR ds:0x7754,0x1
      3a:	00 00 
D:\OneDrive\Study\Operating Systems\实验\project6\codes/./kernel/os.c:39
	SizeOfProcessStruct = sizeof(struct Process);
      3c:	66 c7 06 5c 77 60 00 	mov    DWORD PTR ds:0x775c,0x60
      43:	00 00 
D:\OneDrive\Study\Operating Systems\实验\project6\codes/./kernel/os.c:40
	initial();
      45:	66 e8 20 26 00 00    	call   266b <_initial>
D:\OneDrive\Study\Operating Systems\实验\project6\codes/./kernel/os.c:43
	char * in;
	char * str;
	int tmp = -1;
      4b:	67 66 c7 45 f8 ff ff 	mov    DWORD PTR [ebp-0x8],0xffffffff
      52:	ff ff 
D:\OneDrive\Study\Operating Systems\实验\project6\codes/./kernel/os.c:44
	init(&ReadyQue);
      54:	67 66 c7 04 24 c0 94 	mov    DWORD PTR [esp],0x94c0
      5b:	00 00 
      5d:	66 e8 1f 3b 00 00    	call   3b82 <_init>
D:\OneDrive\Study\Operating Systems\实验\project6\codes/./kernel/os.c:45
	init(&BlockedQue);
      63:	67 66 c7 04 24 80 76 	mov    DWORD PTR [esp],0x7680
      6a:	00 00 
      6c:	66 e8 10 3b 00 00    	call   3b82 <_init>
D:\OneDrive\Study\Operating Systems\实验\project6\codes/./kernel/os.c:69
	// 	one = one->next;
	// }


	do {
		in = getInput();
      72:	66 e8 24 11 00 00    	call   119c <_getInput>
      78:	67 66 89 45 f4       	mov    DWORD PTR [ebp-0xc],eax
D:\OneDrive\Study\Operating Systems\实验\project6\codes/./kernel/os.c:70
		if(strcmp(in, "testFork") == 0){
      7d:	67 66 c7 44 24 04 00 	mov    DWORD PTR [esp+0x4],0x5000
      84:	50 00 00 
      87:	67 66 8b 45 f4       	mov    eax,DWORD PTR [ebp-0xc]
      8c:	67 66 89 04 24       	mov    DWORD PTR [esp],eax
      91:	66 e8 d4 26 00 00    	call   276b <_strcmp>
      97:	66 85 c0             	test   eax,eax
      9a:	0f 85 99 01          	jne    237 <__file_alignment__+0x37>
D:\OneDrive\Study\Operating Systems\实验\project6\codes/./kernel/os.c:71
			tmp = find(in);
      9e:	67 66 8b 45 f4       	mov    eax,DWORD PTR [ebp-0xc]
      a3:	67 66 89 04 24       	mov    DWORD PTR [esp],eax
      a8:	66 e8 4a 2b 00 00    	call   2bf8 <_find>
      ae:	67 66 89 45 f8       	mov    DWORD PTR [ebp-0x8],eax
D:\OneDrive\Study\Operating Systems\实验\project6\codes/./kernel/os.c:73
			int offsetOfPrg, segOfPrg;
			int offsetMask = 0x0000ffff;
      b3:	67 66 c7 45 f0 ff ff 	mov    DWORD PTR [ebp-0x10],0xffff
      ba:	00 00 
D:\OneDrive\Study\Operating Systems\实验\project6\codes/./kernel/os.c:74
			int segMask = 0xf0000;
      bc:	67 66 c7 45 ec 00 00 	mov    DWORD PTR [ebp-0x14],0xf0000
      c3:	0f 00 
D:\OneDrive\Study\Operating Systems\实验\project6\codes/./kernel/os.c:75
			offsetOfPrg = 0x80000 & offsetMask;
      c5:	67 66 8b 45 f0       	mov    eax,DWORD PTR [ebp-0x10]
      ca:	66 25 00 00 08 00    	and    eax,0x80000
      d0:	67 66 89 45 e8       	mov    DWORD PTR [ebp-0x18],eax
D:\OneDrive\Study\Operating Systems\实验\project6\codes/./kernel/os.c:76
			segOfPrg = (0x80000 & segMask) >> 4;
      d5:	67 66 8b 45 ec       	mov    eax,DWORD PTR [ebp-0x14]
      da:	66 c1 f8 04          	sar    eax,0x4
      de:	66 25 00 80 00 00    	and    eax,0x8000
      e4:	67 66 89 45 e4       	mov    DWORD PTR [ebp-0x1c],eax
D:\OneDrive\Study\Operating Systems\实验\project6\codes/./kernel/os.c:77
			int cs = segOfPrg + (offsetOfPrg >> 4), ip = 0, ss = segOfPrg + (offsetOfPrg >> 4), sp = information[tmp].size+1024-1;
      e9:	67 66 8b 45 e8       	mov    eax,DWORD PTR [ebp-0x18]
      ee:	66 c1 f8 04          	sar    eax,0x4
      f2:	66 89 c2             	mov    edx,eax
      f5:	67 66 8b 45 e4       	mov    eax,DWORD PTR [ebp-0x1c]
      fa:	66 01 d0             	add    eax,edx
      fd:	67 66 89 45 e0       	mov    DWORD PTR [ebp-0x20],eax
     102:	67 66 c7 45 dc 00 00 	mov    DWORD PTR [ebp-0x24],0x0
     109:	00 00 
     10b:	67 66 8b 45 e8       	mov    eax,DWORD PTR [ebp-0x18]
     110:	66 c1 f8 04          	sar    eax,0x4
     114:	66 89 c2             	mov    edx,eax
     117:	67 66 8b 45 e4       	mov    eax,DWORD PTR [ebp-0x1c]
     11c:	66 01 d0             	add    eax,edx
     11f:	67 66 89 45 d8       	mov    DWORD PTR [ebp-0x28],eax
     124:	67 66 8b 55 f8       	mov    edx,DWORD PTR [ebp-0x8]
     129:	66 89 d0             	mov    eax,edx
     12c:	66 01 c0             	add    eax,eax
     12f:	66 01 d0             	add    eax,edx
     132:	66 c1 e0 02          	shl    eax,0x2
     136:	66 01 d0             	add    eax,edx
     139:	66 c1 e0 02          	shl    eax,0x2
     13d:	66 05 c8 77 00 00    	add    eax,0x77c8
     143:	67 66 8b 00          	mov    eax,DWORD PTR [eax]
     147:	66 05 ff 03 00 00    	add    eax,0x3ff
     14d:	67 66 89 45 d4       	mov    DWORD PTR [ebp-0x2c],eax
D:\OneDrive\Study\Operating Systems\实验\project6\codes/./kernel/os.c:78
			createProcess(ProcessSize++, information[tmp].name, information[tmp].size+1024, cs, ip, ss, sp, 8);
     152:	67 66 8b 55 f8       	mov    edx,DWORD PTR [ebp-0x8]
     157:	66 89 d0             	mov    eax,edx
     15a:	66 01 c0             	add    eax,eax
     15d:	66 01 d0             	add    eax,edx
     160:	66 c1 e0 02          	shl    eax,0x2
     164:	66 01 d0             	add    eax,edx
     167:	66 c1 e0 02          	shl    eax,0x2
     16b:	66 05 c8 77 00 00    	add    eax,0x77c8
     171:	67 66 8b 00          	mov    eax,DWORD PTR [eax]
     175:	67 66 8d 98 00 04 00 	lea    ebx,[eax+0x400]
     17c:	00 
     17d:	67 66 8b 55 f8       	mov    edx,DWORD PTR [ebp-0x8]
     182:	66 89 d0             	mov    eax,edx
     185:	66 01 c0             	add    eax,eax
     188:	66 01 d0             	add    eax,edx
     18b:	66 c1 e0 02          	shl    eax,0x2
     18f:	66 01 d0             	add    eax,edx
     192:	66 c1 e0 02          	shl    eax,0x2
     196:	67 66 8d 88 a0 77 00 	lea    ecx,[eax+0x77a0]
     19d:	00 
     19e:	66 a1 54 77          	mov    eax,ds:0x7754
     1a2:	67 66 8d 50 01       	lea    edx,[eax+0x1]
     1a7:	66 89 16 54 77       	mov    DWORD PTR ds:0x7754,edx
     1ac:	67 66 c7 44 24 1c 08 	mov    DWORD PTR [esp+0x1c],0x8
     1b3:	00 00 00 
     1b6:	67 66 8b 55 d4       	mov    edx,DWORD PTR [ebp-0x2c]
     1bb:	67 66 89 54 24 18    	mov    DWORD PTR [esp+0x18],edx
     1c1:	67 66 8b 55 d8       	mov    edx,DWORD PTR [ebp-0x28]
     1c6:	67 66 89 54 24 14    	mov    DWORD PTR [esp+0x14],edx
     1cc:	67 66 8b 55 dc       	mov    edx,DWORD PTR [ebp-0x24]
     1d1:	67 66 89 54 24 10    	mov    DWORD PTR [esp+0x10],edx
     1d7:	67 66 8b 55 e0       	mov    edx,DWORD PTR [ebp-0x20]
     1dc:	67 66 89 54 24 0c    	mov    DWORD PTR [esp+0xc],edx
     1e2:	67 66 89 5c 24 08    	mov    DWORD PTR [esp+0x8],ebx
     1e8:	67 66 89 4c 24 04    	mov    DWORD PTR [esp+0x4],ecx
     1ee:	67 66 89 04 24       	mov    DWORD PTR [esp],eax
     1f3:	66 e8 e5 2e 00 00    	call   30de <_createProcess>
D:\OneDrive\Study\Operating Systems\实验\project6\codes/./kernel/os.c:79
			enqueue(&ReadyQue, ProcessSize-1);
     1f9:	66 a1 54 77          	mov    eax,ds:0x7754
     1fd:	66 48                	dec    eax
     1ff:	67 66 89 44 24 04    	mov    DWORD PTR [esp+0x4],eax
     205:	67 66 c7 04 24 c0 94 	mov    DWORD PTR [esp],0x94c0
     20c:	00 00 
     20e:	66 e8 a1 39 00 00    	call   3bb5 <_enqueue>
D:\OneDrive\Study\Operating Systems\实验\project6\codes/./kernel/os.c:80
			clear();
     214:	66 e8 05 1c 00 00    	call   1e1f <_clear>
D:\OneDrive\Study\Operating Systems\实验\project6\codes/./kernel/os.c:81
			runSub = 1;
     21a:	66 c7 06 a0 71 01 00 	mov    DWORD PTR ds:0x71a0,0x1
     221:	00 00 
D:\OneDrive\Study\Operating Systems\实验\project6\codes/./kernel/os.c:82
			__asm__("int $0x8\n");
     223:	cd 08                	int    0x8
D:\OneDrive\Study\Operating Systems\实验\project6\codes/./kernel/os.c:83
			runSub = 0;
     225:	66 c7 06 a0 71 00 00 	mov    DWORD PTR ds:0x71a0,0x0
     22c:	00 00 
D:\OneDrive\Study\Operating Systems\实验\project6\codes/./kernel/os.c:84
			clear();
     22e:	66 e8 eb 1b 00 00    	call   1e1f <_clear>
     234:	e9 56 0a             	jmp    c8d <.debug_info+0x50d>
D:\OneDrive\Study\Operating Systems\实验\project6\codes/./kernel/os.c:86
		}
		else if(in[0] == 'r' && in[1] == 'u' && in[2] == 'n')
     237:	67 66 8b 45 f4       	mov    eax,DWORD PTR [ebp-0xc]
     23c:	67 8a 00             	mov    al,BYTE PTR [eax]
     23f:	3c 72                	cmp    al,0x72
     241:	0f 85 c8 03          	jne    60d <__file_alignment__+0x40d>
     245:	67 66 8b 45 f4       	mov    eax,DWORD PTR [ebp-0xc]
     24a:	66 40                	inc    eax
     24c:	67 8a 00             	mov    al,BYTE PTR [eax]
     24f:	3c 75                	cmp    al,0x75
     251:	0f 85 b8 03          	jne    60d <__file_alignment__+0x40d>
     255:	67 66 8b 45 f4       	mov    eax,DWORD PTR [ebp-0xc]
     25a:	66 83 c0 02          	add    eax,0x2
     25e:	67 8a 00             	mov    al,BYTE PTR [eax]
     261:	3c 6e                	cmp    al,0x6e
     263:	0f 85 a6 03          	jne    60d <__file_alignment__+0x40d>
D:\OneDrive\Study\Operating Systems\实验\project6\codes/./kernel/os.c:88
		{
			printSentence("\n", line++, 0, strlen("\n"), white);
     267:	67 66 c7 04 24 09 50 	mov    DWORD PTR [esp],0x5009
     26e:	00 00 
     270:	66 e8 24 24 00 00    	call   269a <_strlen>
     276:	66 89 c2             	mov    edx,eax
     279:	66 a1 80 71          	mov    eax,ds:0x7180
     27d:	67 66 8d 48 01       	lea    ecx,[eax+0x1]
     282:	66 89 0e 80 71       	mov    DWORD PTR ds:0x7180,ecx
     287:	67 66 c7 44 24 10 0f 	mov    DWORD PTR [esp+0x10],0xf
     28e:	00 00 00 
     291:	67 66 89 54 24 0c    	mov    DWORD PTR [esp+0xc],edx
     297:	67 66 c7 44 24 08 00 	mov    DWORD PTR [esp+0x8],0x0
     29e:	00 00 00 
     2a1:	67 66 89 44 24 04    	mov    DWORD PTR [esp+0x4],eax
     2a7:	67 66 c7 04 24 09 50 	mov    DWORD PTR [esp],0x5009
     2ae:	00 00 
     2b0:	66 e8 a5 0e 00 00    	call   115b <_printSentence>
D:\OneDrive\Study\Operating Systems\实验\project6\codes/./kernel/os.c:90
			do{
				str = getInput();
     2b6:	66 e8 e0 0e 00 00    	call   119c <_getInput>
     2bc:	67 66 89 45 d0       	mov    DWORD PTR [ebp-0x30],eax
D:\OneDrive\Study\Operating Systems\实验\project6\codes/./kernel/os.c:91
				printSentence("\n", line++, 0, strlen("\n"), white);
     2c1:	67 66 c7 04 24 09 50 	mov    DWORD PTR [esp],0x5009
     2c8:	00 00 
     2ca:	66 e8 ca 23 00 00    	call   269a <_strlen>
     2d0:	66 89 c2             	mov    edx,eax
     2d3:	66 a1 80 71          	mov    eax,ds:0x7180
     2d7:	67 66 8d 48 01       	lea    ecx,[eax+0x1]
     2dc:	66 89 0e 80 71       	mov    DWORD PTR ds:0x7180,ecx
     2e1:	67 66 c7 44 24 10 0f 	mov    DWORD PTR [esp+0x10],0xf
     2e8:	00 00 00 
     2eb:	67 66 89 54 24 0c    	mov    DWORD PTR [esp+0xc],edx
     2f1:	67 66 c7 44 24 08 00 	mov    DWORD PTR [esp+0x8],0x0
     2f8:	00 00 00 
     2fb:	67 66 89 44 24 04    	mov    DWORD PTR [esp+0x4],eax
     301:	67 66 c7 04 24 09 50 	mov    DWORD PTR [esp],0x5009
     308:	00 00 
     30a:	66 e8 4b 0e 00 00    	call   115b <_printSentence>
D:\OneDrive\Study\Operating Systems\实验\project6\codes/./kernel/os.c:92
				if(str[0]){	
     310:	67 66 8b 45 d0       	mov    eax,DWORD PTR [ebp-0x30]
     315:	67 8a 00             	mov    al,BYTE PTR [eax]
     318:	84 c0                	test   al,al
     31a:	0f 84 c4 02          	je     5e2 <__file_alignment__+0x3e2>
D:\OneDrive\Study\Operating Systems\实验\project6\codes/./kernel/os.c:93
					tmp = find(str);
     31e:	67 66 8b 45 d0       	mov    eax,DWORD PTR [ebp-0x30]
     323:	67 66 89 04 24       	mov    DWORD PTR [esp],eax
     328:	66 e8 ca 28 00 00    	call   2bf8 <_find>
     32e:	67 66 89 45 f8       	mov    DWORD PTR [ebp-0x8],eax
D:\OneDrive\Study\Operating Systems\实验\project6\codes/./kernel/os.c:94
					if(tmp != -1 && information[tmp].deleted != 1){
     333:	67 66 83 7d f8 ff    	cmp    DWORD PTR [ebp-0x8],0xffffffff
     339:	0f 84 a5 02          	je     5e2 <__file_alignment__+0x3e2>
     33d:	67 66 8b 55 f8       	mov    edx,DWORD PTR [ebp-0x8]
     342:	66 89 d0             	mov    eax,edx
     345:	66 01 c0             	add    eax,eax
     348:	66 01 d0             	add    eax,edx
     34b:	66 c1 e0 02          	shl    eax,0x2
     34f:	66 01 d0             	add    eax,edx
     352:	66 c1 e0 02          	shl    eax,0x2
     356:	66 05 cc 77 00 00    	add    eax,0x77cc
     35c:	67 66 8b 00          	mov    eax,DWORD PTR [eax]
     360:	66 83 f8 01          	cmp    eax,0x1
     364:	0f 84 7a 02          	je     5e2 <__file_alignment__+0x3e2>
D:\OneDrive\Study\Operating Systems\实验\project6\codes/./kernel/os.c:95
						int blockNum = findEnoughBlock(information[tmp].size+1024);
     368:	67 66 8b 55 f8       	mov    edx,DWORD PTR [ebp-0x8]
     36d:	66 89 d0             	mov    eax,edx
     370:	66 01 c0             	add    eax,eax
     373:	66 01 d0             	add    eax,edx
     376:	66 c1 e0 02          	shl    eax,0x2
     37a:	66 01 d0             	add    eax,edx
     37d:	66 c1 e0 02          	shl    eax,0x2
     381:	66 05 c8 77 00 00    	add    eax,0x77c8
     387:	67 66 8b 00          	mov    eax,DWORD PTR [eax]
     38b:	66 05 00 04 00 00    	add    eax,0x400
     391:	67 66 89 04 24       	mov    DWORD PTR [esp],eax
     396:	66 e8 e4 46 00 00    	call   4a80 <_findEnoughBlock>
     39c:	67 66 89 45 cc       	mov    DWORD PTR [ebp-0x34],eax
D:\OneDrive\Study\Operating Systems\实验\project6\codes/./kernel/os.c:96
						blockNum = require(information[tmp].size+1024, blockNum);
     3a1:	67 66 8b 55 f8       	mov    edx,DWORD PTR [ebp-0x8]
     3a6:	66 89 d0             	mov    eax,edx
     3a9:	66 01 c0             	add    eax,eax
     3ac:	66 01 d0             	add    eax,edx
     3af:	66 c1 e0 02          	shl    eax,0x2
     3b3:	66 01 d0             	add    eax,edx
     3b6:	66 c1 e0 02          	shl    eax,0x2
     3ba:	66 05 c8 77 00 00    	add    eax,0x77c8
     3c0:	67 66 8b 00          	mov    eax,DWORD PTR [eax]
     3c4:	67 66 8d 90 00 04 00 	lea    edx,[eax+0x400]
     3cb:	00 
     3cc:	67 66 8b 45 cc       	mov    eax,DWORD PTR [ebp-0x34]
     3d1:	67 66 89 44 24 04    	mov    DWORD PTR [esp+0x4],eax
     3d7:	67 66 89 14 24       	mov    DWORD PTR [esp],edx
     3dc:	66 e8 47 47 00 00    	call   4b29 <_require>
     3e2:	67 66 89 45 cc       	mov    DWORD PTR [ebp-0x34],eax
D:\OneDrive\Study\Operating Systems\实验\project6\codes/./kernel/os.c:98
						int offsetOfPrg, segOfPrg;
						int offsetMask = 0x0000ffff;
     3e7:	67 66 c7 45 c8 ff ff 	mov    DWORD PTR [ebp-0x38],0xffff
     3ee:	00 00 
D:\OneDrive\Study\Operating Systems\实验\project6\codes/./kernel/os.c:99
						int segMask = 0xf0000;
     3f0:	67 66 c7 45 c4 00 00 	mov    DWORD PTR [ebp-0x3c],0xf0000
     3f7:	0f 00 
D:\OneDrive\Study\Operating Systems\实验\project6\codes/./kernel/os.c:100
						offsetOfPrg = memoryTable[blockNum].beginAddr & offsetMask;
     3f9:	67 66 8b 55 cc       	mov    edx,DWORD PTR [ebp-0x34]
     3fe:	66 89 d0             	mov    eax,edx
     401:	66 01 c0             	add    eax,eax
     404:	66 01 d0             	add    eax,edx
     407:	66 c1 e0 03          	shl    eax,0x3
     40b:	66 05 c0 71 00 00    	add    eax,0x71c0
     411:	67 66 8b 00          	mov    eax,DWORD PTR [eax]
     415:	67 66 23 45 c8       	and    eax,DWORD PTR [ebp-0x38]
     41a:	67 66 89 45 c0       	mov    DWORD PTR [ebp-0x40],eax
D:\OneDrive\Study\Operating Systems\实验\project6\codes/./kernel/os.c:101
						segOfPrg = (memoryTable[blockNum].beginAddr & segMask) >> 4;
     41f:	67 66 8b 55 cc       	mov    edx,DWORD PTR [ebp-0x34]
     424:	66 89 d0             	mov    eax,edx
     427:	66 01 c0             	add    eax,eax
     42a:	66 01 d0             	add    eax,edx
     42d:	66 c1 e0 03          	shl    eax,0x3
     431:	66 05 c0 71 00 00    	add    eax,0x71c0
     437:	67 66 8b 00          	mov    eax,DWORD PTR [eax]
     43b:	67 66 23 45 c4       	and    eax,DWORD PTR [ebp-0x3c]
     440:	66 c1 f8 04          	sar    eax,0x4
     444:	67 66 89 45 bc       	mov    DWORD PTR [ebp-0x44],eax
D:\OneDrive\Study\Operating Systems\实验\project6\codes/./kernel/os.c:102
						int cs = segOfPrg + (offsetOfPrg >> 4), ip = 0, ss = segOfPrg + (offsetOfPrg >> 4), sp = information[tmp].size+1024-1;
     449:	67 66 8b 45 c0       	mov    eax,DWORD PTR [ebp-0x40]
     44e:	66 c1 f8 04          	sar    eax,0x4
     452:	66 89 c2             	mov    edx,eax
     455:	67 66 8b 45 bc       	mov    eax,DWORD PTR [ebp-0x44]
     45a:	66 01 d0             	add    eax,edx
     45d:	67 66 89 45 b8       	mov    DWORD PTR [ebp-0x48],eax
     462:	67 66 c7 45 b4 00 00 	mov    DWORD PTR [ebp-0x4c],0x0
     469:	00 00 
     46b:	67 66 8b 45 c0       	mov    eax,DWORD PTR [ebp-0x40]
     470:	66 c1 f8 04          	sar    eax,0x4
     474:	66 89 c2             	mov    edx,eax
     477:	67 66 8b 45 bc       	mov    eax,DWORD PTR [ebp-0x44]
     47c:	66 01 d0             	add    eax,edx
     47f:	67 66 89 45 b0       	mov    DWORD PTR [ebp-0x50],eax
     484:	67 66 8b 55 f8       	mov    edx,DWORD PTR [ebp-0x8]
     489:	66 89 d0             	mov    eax,edx
     48c:	66 01 c0             	add    eax,eax
     48f:	66 01 d0             	add    eax,edx
     492:	66 c1 e0 02          	shl    eax,0x2
     496:	66 01 d0             	add    eax,edx
     499:	66 c1 e0 02          	shl    eax,0x2
     49d:	66 05 c8 77 00 00    	add    eax,0x77c8
     4a3:	67 66 8b 00          	mov    eax,DWORD PTR [eax]
     4a7:	66 05 ff 03 00 00    	add    eax,0x3ff
     4ad:	67 66 89 45 ac       	mov    DWORD PTR [ebp-0x54],eax
D:\OneDrive\Study\Operating Systems\实验\project6\codes/./kernel/os.c:103
						createProcess(ProcessSize++, information[tmp].name, information[tmp].size+1024, cs, ip, ss, sp, blockNum);
     4b2:	67 66 8b 55 f8       	mov    edx,DWORD PTR [ebp-0x8]
     4b7:	66 89 d0             	mov    eax,edx
     4ba:	66 01 c0             	add    eax,eax
     4bd:	66 01 d0             	add    eax,edx
     4c0:	66 c1 e0 02          	shl    eax,0x2
     4c4:	66 01 d0             	add    eax,edx
     4c7:	66 c1 e0 02          	shl    eax,0x2
     4cb:	66 05 c8 77 00 00    	add    eax,0x77c8
     4d1:	67 66 8b 00          	mov    eax,DWORD PTR [eax]
     4d5:	67 66 8d 98 00 04 00 	lea    ebx,[eax+0x400]
     4dc:	00 
     4dd:	67 66 8b 55 f8       	mov    edx,DWORD PTR [ebp-0x8]
     4e2:	66 89 d0             	mov    eax,edx
     4e5:	66 01 c0             	add    eax,eax
     4e8:	66 01 d0             	add    eax,edx
     4eb:	66 c1 e0 02          	shl    eax,0x2
     4ef:	66 01 d0             	add    eax,edx
     4f2:	66 c1 e0 02          	shl    eax,0x2
     4f6:	67 66 8d 88 a0 77 00 	lea    ecx,[eax+0x77a0]
     4fd:	00 
     4fe:	66 a1 54 77          	mov    eax,ds:0x7754
     502:	67 66 8d 50 01       	lea    edx,[eax+0x1]
     507:	66 89 16 54 77       	mov    DWORD PTR ds:0x7754,edx
     50c:	67 66 8b 55 cc       	mov    edx,DWORD PTR [ebp-0x34]
     511:	67 66 89 54 24 1c    	mov    DWORD PTR [esp+0x1c],edx
     517:	67 66 8b 55 ac       	mov    edx,DWORD PTR [ebp-0x54]
     51c:	67 66 89 54 24 18    	mov    DWORD PTR [esp+0x18],edx
     522:	67 66 8b 55 b0       	mov    edx,DWORD PTR [ebp-0x50]
     527:	67 66 89 54 24 14    	mov    DWORD PTR [esp+0x14],edx
     52d:	67 66 8b 55 b4       	mov    edx,DWORD PTR [ebp-0x4c]
     532:	67 66 89 54 24 10    	mov    DWORD PTR [esp+0x10],edx
     538:	67 66 8b 55 b8       	mov    edx,DWORD PTR [ebp-0x48]
     53d:	67 66 89 54 24 0c    	mov    DWORD PTR [esp+0xc],edx
     543:	67 66 89 5c 24 08    	mov    DWORD PTR [esp+0x8],ebx
     549:	67 66 89 4c 24 04    	mov    DWORD PTR [esp+0x4],ecx
     54f:	67 66 89 04 24       	mov    DWORD PTR [esp],eax
     554:	66 e8 84 2b 00 00    	call   30de <_createProcess>
D:\OneDrive\Study\Operating Systems\实验\project6\codes/./kernel/os.c:104
						loadReal(information[tmp].lmaddress, information[tmp].size, offsetOfPrg, segOfPrg);
     55a:	67 66 8b 55 f8       	mov    edx,DWORD PTR [ebp-0x8]
     55f:	66 89 d0             	mov    eax,edx
     562:	66 01 c0             	add    eax,eax
     565:	66 01 d0             	add    eax,edx
     568:	66 c1 e0 02          	shl    eax,0x2
     56c:	66 01 d0             	add    eax,edx
     56f:	66 c1 e0 02          	shl    eax,0x2
     573:	66 05 c8 77 00 00    	add    eax,0x77c8
     579:	67 66 8b 08          	mov    ecx,DWORD PTR [eax]
     57d:	67 66 8b 55 f8       	mov    edx,DWORD PTR [ebp-0x8]
     582:	66 89 d0             	mov    eax,edx
     585:	66 01 c0             	add    eax,eax
     588:	66 01 d0             	add    eax,edx
     58b:	66 c1 e0 02          	shl    eax,0x2
     58f:	66 01 d0             	add    eax,edx
     592:	66 c1 e0 02          	shl    eax,0x2
     596:	66 05 c4 77 00 00    	add    eax,0x77c4
     59c:	67 66 8b 00          	mov    eax,DWORD PTR [eax]
     5a0:	67 66 8b 55 bc       	mov    edx,DWORD PTR [ebp-0x44]
     5a5:	67 66 89 54 24 0c    	mov    DWORD PTR [esp+0xc],edx
     5ab:	67 66 8b 55 c0       	mov    edx,DWORD PTR [ebp-0x40]
     5b0:	67 66 89 54 24 08    	mov    DWORD PTR [esp+0x8],edx
     5b6:	67 66 89 4c 24 04    	mov    DWORD PTR [esp+0x4],ecx
     5bc:	67 66 89 04 24       	mov    DWORD PTR [esp],eax
     5c1:	66 e8 36 0d 00 00    	call   12fd <_loadReal>
D:\OneDrive\Study\Operating Systems\实验\project6\codes/./kernel/os.c:105
						enqueue(&ReadyQue, ProcessSize-1);
     5c7:	66 a1 54 77          	mov    eax,ds:0x7754
     5cb:	66 48                	dec    eax
     5cd:	67 66 89 44 24 04    	mov    DWORD PTR [esp+0x4],eax
     5d3:	67 66 c7 04 24 c0 94 	mov    DWORD PTR [esp],0x94c0
     5da:	00 00 
     5dc:	66 e8 d3 35 00 00    	call   3bb5 <_enqueue>
D:\OneDrive\Study\Operating Systems\实验\project6\codes/./kernel/os.c:108
					}
				}
			}while(str[0] != '\0');
     5e2:	67 66 8b 45 d0       	mov    eax,DWORD PTR [ebp-0x30]
     5e7:	67 8a 00             	mov    al,BYTE PTR [eax]
     5ea:	84 c0                	test   al,al
     5ec:	0f 85 c6 fc          	jne    2b6 <__file_alignment__+0xb6>
D:\OneDrive\Study\Operating Systems\实验\project6\codes/./kernel/os.c:109
			runSub = 1;
     5f0:	66 c7 06 a0 71 01 00 	mov    DWORD PTR ds:0x71a0,0x1
     5f7:	00 00 
D:\OneDrive\Study\Operating Systems\实验\project6\codes/./kernel/os.c:111
			// wakeup();
			__asm__("int $0x8\n");
     5f9:	cd 08                	int    0x8
D:\OneDrive\Study\Operating Systems\实验\project6\codes/./kernel/os.c:112
			runSub = 0;
     5fb:	66 c7 06 a0 71 00 00 	mov    DWORD PTR ds:0x71a0,0x0
     602:	00 00 
D:\OneDrive\Study\Operating Systems\实验\project6\codes/./kernel/os.c:113
			clear();
     604:	66 e8 15 18 00 00    	call   1e1f <_clear>
     60a:	e9 80 06             	jmp    c8d <.debug_info+0x50d>
D:\OneDrive\Study\Operating Systems\实验\project6\codes/./kernel/os.c:115
		}
		else if(in[0] == '.' && in[1] == '/')
     60d:	67 66 8b 45 f4       	mov    eax,DWORD PTR [ebp-0xc]
     612:	67 8a 00             	mov    al,BYTE PTR [eax]
     615:	3c 2e                	cmp    al,0x2e
     617:	0f 85 f5 02          	jne    910 <.debug_info+0x190>
     61b:	67 66 8b 45 f4       	mov    eax,DWORD PTR [ebp-0xc]
     620:	66 40                	inc    eax
     622:	67 8a 00             	mov    al,BYTE PTR [eax]
     625:	3c 2f                	cmp    al,0x2f
     627:	0f 85 e5 02          	jne    910 <.debug_info+0x190>
D:\OneDrive\Study\Operating Systems\实验\project6\codes/./kernel/os.c:117
		{
			tmp = find(in+2);
     62b:	67 66 8b 45 f4       	mov    eax,DWORD PTR [ebp-0xc]
     630:	66 83 c0 02          	add    eax,0x2
     634:	67 66 89 04 24       	mov    DWORD PTR [esp],eax
     639:	66 e8 b9 25 00 00    	call   2bf8 <_find>
     63f:	67 66 89 45 f8       	mov    DWORD PTR [ebp-0x8],eax
D:\OneDrive\Study\Operating Systems\实验\project6\codes/./kernel/os.c:118
			if(tmp != -1 && information[tmp].deleted != 1){
     644:	67 66 83 7d f8 ff    	cmp    DWORD PTR [ebp-0x8],0xffffffff
     64a:	0f 84 38 06          	je     c86 <.debug_info+0x506>
     64e:	67 66 8b 55 f8       	mov    edx,DWORD PTR [ebp-0x8]
     653:	66 89 d0             	mov    eax,edx
     656:	66 01 c0             	add    eax,eax
     659:	66 01 d0             	add    eax,edx
     65c:	66 c1 e0 02          	shl    eax,0x2
     660:	66 01 d0             	add    eax,edx
     663:	66 c1 e0 02          	shl    eax,0x2
     667:	66 05 cc 77 00 00    	add    eax,0x77cc
     66d:	67 66 8b 00          	mov    eax,DWORD PTR [eax]
     671:	66 83 f8 01          	cmp    eax,0x1
     675:	0f 84 0d 06          	je     c86 <.debug_info+0x506>
D:\OneDrive\Study\Operating Systems\实验\project6\codes/./kernel/os.c:119
				int blockNum = findEnoughBlock(information[tmp].size+1024);
     679:	67 66 8b 55 f8       	mov    edx,DWORD PTR [ebp-0x8]
     67e:	66 89 d0             	mov    eax,edx
     681:	66 01 c0             	add    eax,eax
     684:	66 01 d0             	add    eax,edx
     687:	66 c1 e0 02          	shl    eax,0x2
     68b:	66 01 d0             	add    eax,edx
     68e:	66 c1 e0 02          	shl    eax,0x2
     692:	66 05 c8 77 00 00    	add    eax,0x77c8
     698:	67 66 8b 00          	mov    eax,DWORD PTR [eax]
     69c:	66 05 00 04 00 00    	add    eax,0x400
     6a2:	67 66 89 04 24       	mov    DWORD PTR [esp],eax
     6a7:	66 e8 d3 43 00 00    	call   4a80 <_findEnoughBlock>
     6ad:	67 66 89 45 a8       	mov    DWORD PTR [ebp-0x58],eax
D:\OneDrive\Study\Operating Systems\实验\project6\codes/./kernel/os.c:120
				blockNum = require(information[tmp].size+1024, blockNum);
     6b2:	67 66 8b 55 f8       	mov    edx,DWORD PTR [ebp-0x8]
     6b7:	66 89 d0             	mov    eax,edx
     6ba:	66 01 c0             	add    eax,eax
     6bd:	66 01 d0             	add    eax,edx
     6c0:	66 c1 e0 02          	shl    eax,0x2
     6c4:	66 01 d0             	add    eax,edx
     6c7:	66 c1 e0 02          	shl    eax,0x2
     6cb:	66 05 c8 77 00 00    	add    eax,0x77c8
     6d1:	67 66 8b 00          	mov    eax,DWORD PTR [eax]
     6d5:	67 66 8d 90 00 04 00 	lea    edx,[eax+0x400]
     6dc:	00 
     6dd:	67 66 8b 45 a8       	mov    eax,DWORD PTR [ebp-0x58]
     6e2:	67 66 89 44 24 04    	mov    DWORD PTR [esp+0x4],eax
     6e8:	67 66 89 14 24       	mov    DWORD PTR [esp],edx
     6ed:	66 e8 36 44 00 00    	call   4b29 <_require>
     6f3:	67 66 89 45 a8       	mov    DWORD PTR [ebp-0x58],eax
D:\OneDrive\Study\Operating Systems\实验\project6\codes/./kernel/os.c:122
				int offsetOfPrg, segOfPrg;
				int offsetMask = 0x0000ffff;
     6f8:	67 66 c7 45 a4 ff ff 	mov    DWORD PTR [ebp-0x5c],0xffff
     6ff:	00 00 
D:\OneDrive\Study\Operating Systems\实验\project6\codes/./kernel/os.c:123
				int segMask = 0xf0000;
     701:	67 66 c7 45 a0 00 00 	mov    DWORD PTR [ebp-0x60],0xf0000
     708:	0f 00 
D:\OneDrive\Study\Operating Systems\实验\project6\codes/./kernel/os.c:124
				offsetOfPrg = memoryTable[blockNum].beginAddr & offsetMask;
     70a:	67 66 8b 55 a8       	mov    edx,DWORD PTR [ebp-0x58]
     70f:	66 89 d0             	mov    eax,edx
     712:	66 01 c0             	add    eax,eax
     715:	66 01 d0             	add    eax,edx
     718:	66 c1 e0 03          	shl    eax,0x3
     71c:	66 05 c0 71 00 00    	add    eax,0x71c0
     722:	67 66 8b 00          	mov    eax,DWORD PTR [eax]
     726:	67 66 23 45 a4       	and    eax,DWORD PTR [ebp-0x5c]
     72b:	67 66 89 45 9c       	mov    DWORD PTR [ebp-0x64],eax
D:\OneDrive\Study\Operating Systems\实验\project6\codes/./kernel/os.c:125
				segOfPrg = (memoryTable[blockNum].beginAddr & segMask) >> 4;
     730:	67 66 8b 55 a8       	mov    edx,DWORD PTR [ebp-0x58]
     735:	66 89 d0             	mov    eax,edx
     738:	66 01 c0             	add    eax,eax
     73b:	66 01 d0             	add    eax,edx
     73e:	66 c1 e0 03          	shl    eax,0x3
     742:	66 05 c0 71 00 00    	add    eax,0x71c0
     748:	67 66 8b 00          	mov    eax,DWORD PTR [eax]
     74c:	67 66 23 45 a0       	and    eax,DWORD PTR [ebp-0x60]
     751:	66 c1 f8 04          	sar    eax,0x4
     755:	67 66 89 45 98       	mov    DWORD PTR [ebp-0x68],eax
D:\OneDrive\Study\Operating Systems\实验\project6\codes/./kernel/os.c:126
				int cs = segOfPrg + (offsetOfPrg >> 4), ip = 0, ss = segOfPrg + (offsetOfPrg >> 4), sp = information[tmp].size+1024-1;
     75a:	67 66 8b 45 9c       	mov    eax,DWORD PTR [ebp-0x64]
     75f:	66 c1 f8 04          	sar    eax,0x4
     763:	66 89 c2             	mov    edx,eax
     766:	67 66 8b 45 98       	mov    eax,DWORD PTR [ebp-0x68]
     76b:	66 01 d0             	add    eax,edx
     76e:	67 66 89 45 94       	mov    DWORD PTR [ebp-0x6c],eax
     773:	67 66 c7 45 90 00 00 	mov    DWORD PTR [ebp-0x70],0x0
     77a:	00 00 
     77c:	67 66 8b 45 9c       	mov    eax,DWORD PTR [ebp-0x64]
     781:	66 c1 f8 04          	sar    eax,0x4
     785:	66 89 c2             	mov    edx,eax
     788:	67 66 8b 45 98       	mov    eax,DWORD PTR [ebp-0x68]
     78d:	66 01 d0             	add    eax,edx
     790:	67 66 89 45 8c       	mov    DWORD PTR [ebp-0x74],eax
     795:	67 66 8b 55 f8       	mov    edx,DWORD PTR [ebp-0x8]
     79a:	66 89 d0             	mov    eax,edx
     79d:	66 01 c0             	add    eax,eax
     7a0:	66 01 d0             	add    eax,edx
     7a3:	66 c1 e0 02          	shl    eax,0x2
     7a7:	66 01 d0             	add    eax,edx
     7aa:	66 c1 e0 02          	shl    eax,0x2
     7ae:	66 05 c8 77 00 00    	add    eax,0x77c8
     7b4:	67 66 8b 00          	mov    eax,DWORD PTR [eax]
     7b8:	66 05 ff 03 00 00    	add    eax,0x3ff
     7be:	67 66 89 45 88       	mov    DWORD PTR [ebp-0x78],eax
D:\OneDrive\Study\Operating Systems\实验\project6\codes/./kernel/os.c:127
				createProcess(ProcessSize++, information[tmp].name, information[tmp].size+1024, cs, ip, ss, sp, blockNum);
     7c3:	67 66 8b 55 f8       	mov    edx,DWORD PTR [ebp-0x8]
     7c8:	66 89 d0             	mov    eax,edx
     7cb:	66 01 c0             	add    eax,eax
     7ce:	66 01 d0             	add    eax,edx
     7d1:	66 c1 e0 02          	shl    eax,0x2
     7d5:	66 01 d0             	add    eax,edx
     7d8:	66 c1 e0 02          	shl    eax,0x2
     7dc:	66 05 c8 77 00 00    	add    eax,0x77c8
     7e2:	67 66 8b 00          	mov    eax,DWORD PTR [eax]
     7e6:	67 66 8d 98 00 04 00 	lea    ebx,[eax+0x400]
     7ed:	00 
     7ee:	67 66 8b 55 f8       	mov    edx,DWORD PTR [ebp-0x8]
     7f3:	66 89 d0             	mov    eax,edx
     7f6:	66 01 c0             	add    eax,eax
     7f9:	66 01 d0             	add    eax,edx
     7fc:	66 c1 e0 02          	shl    eax,0x2
     800:	66 01 d0             	add    eax,edx
     803:	66 c1 e0 02          	shl    eax,0x2
     807:	67 66 8d 88 a0 77 00 	lea    ecx,[eax+0x77a0]
     80e:	00 
     80f:	66 a1 54 77          	mov    eax,ds:0x7754
     813:	67 66 8d 50 01       	lea    edx,[eax+0x1]
     818:	66 89 16 54 77       	mov    DWORD PTR ds:0x7754,edx
     81d:	67 66 8b 55 a8       	mov    edx,DWORD PTR [ebp-0x58]
     822:	67 66 89 54 24 1c    	mov    DWORD PTR [esp+0x1c],edx
     828:	67 66 8b 55 88       	mov    edx,DWORD PTR [ebp-0x78]
     82d:	67 66 89 54 24 18    	mov    DWORD PTR [esp+0x18],edx
     833:	67 66 8b 55 8c       	mov    edx,DWORD PTR [ebp-0x74]
     838:	67 66 89 54 24 14    	mov    DWORD PTR [esp+0x14],edx
     83e:	67 66 8b 55 90       	mov    edx,DWORD PTR [ebp-0x70]
     843:	67 66 89 54 24 10    	mov    DWORD PTR [esp+0x10],edx
     849:	67 66 8b 55 94       	mov    edx,DWORD PTR [ebp-0x6c]
     84e:	67 66 89 54 24 0c    	mov    DWORD PTR [esp+0xc],edx
     854:	67 66 89 5c 24 08    	mov    DWORD PTR [esp+0x8],ebx
     85a:	67 66 89 4c 24 04    	mov    DWORD PTR [esp+0x4],ecx
     860:	67 66 89 04 24       	mov    DWORD PTR [esp],eax
     865:	66 e8 73 28 00 00    	call   30de <_createProcess>
D:\OneDrive\Study\Operating Systems\实验\project6\codes/./kernel/os.c:128
				loadReal(information[tmp].lmaddress, information[tmp].size, offsetOfPrg, segOfPrg);
     86b:	67 66 8b 55 f8       	mov    edx,DWORD PTR [ebp-0x8]
     870:	66 89 d0             	mov    eax,edx
     873:	66 01 c0             	add    eax,eax
     876:	66 01 d0             	add    eax,edx
     879:	66 c1 e0 02          	shl    eax,0x2
     87d:	66 01 d0             	add    eax,edx
     880:	66 c1 e0 02          	shl    eax,0x2
     884:	66 05 c8 77 00 00    	add    eax,0x77c8
     88a:	67 66 8b 08          	mov    ecx,DWORD PTR [eax]
     88e:	67 66 8b 55 f8       	mov    edx,DWORD PTR [ebp-0x8]
     893:	66 89 d0             	mov    eax,edx
     896:	66 01 c0             	add    eax,eax
     899:	66 01 d0             	add    eax,edx
     89c:	66 c1 e0 02          	shl    eax,0x2
     8a0:	66 01 d0             	add    eax,edx
     8a3:	66 c1 e0 02          	shl    eax,0x2
     8a7:	66 05 c4 77 00 00    	add    eax,0x77c4
     8ad:	67 66 8b 00          	mov    eax,DWORD PTR [eax]
     8b1:	67 66 8b 55 98       	mov    edx,DWORD PTR [ebp-0x68]
     8b6:	67 66 89 54 24 0c    	mov    DWORD PTR [esp+0xc],edx
     8bc:	67 66 8b 55 9c       	mov    edx,DWORD PTR [ebp-0x64]
     8c1:	67 66 89 54 24 08    	mov    DWORD PTR [esp+0x8],edx
     8c7:	67 66 89 4c 24 04    	mov    DWORD PTR [esp+0x4],ecx
     8cd:	67 66 89 04 24       	mov    DWORD PTR [esp],eax
     8d2:	66 e8 25 0a 00 00    	call   12fd <_loadReal>
D:\OneDrive\Study\Operating Systems\实验\project6\codes/./kernel/os.c:129
				enqueue(&ReadyQue, ProcessSize-1);
     8d8:	66 a1 54 77          	mov    eax,ds:0x7754
     8dc:	66 48                	dec    eax
     8de:	67 66 89 44 24 04    	mov    DWORD PTR [esp+0x4],eax
     8e4:	67 66 c7 04 24 c0 94 	mov    DWORD PTR [esp],0x94c0
     8eb:	00 00 
     8ed:	66 e8 c2 32 00 00    	call   3bb5 <_enqueue>
D:\OneDrive\Study\Operating Systems\实验\project6\codes/./kernel/os.c:130
				runSub = 1;
     8f3:	66 c7 06 a0 71 01 00 	mov    DWORD PTR ds:0x71a0,0x1
     8fa:	00 00 
D:\OneDrive\Study\Operating Systems\实验\project6\codes/./kernel/os.c:131
				__asm__("int $0x8\n");
     8fc:	cd 08                	int    0x8
D:\OneDrive\Study\Operating Systems\实验\project6\codes/./kernel/os.c:132
				runSub = 0;
     8fe:	66 c7 06 a0 71 00 00 	mov    DWORD PTR ds:0x71a0,0x0
     905:	00 00 
D:\OneDrive\Study\Operating Systems\实验\project6\codes/./kernel/os.c:133
				clear();
     907:	66 e8 12 15 00 00    	call   1e1f <_clear>
D:\OneDrive\Study\Operating Systems\实验\project6\codes/./kernel/os.c:118
			if(tmp != -1 && information[tmp].deleted != 1){
     90d:	e9 76 03             	jmp    c86 <.debug_info+0x506>
D:\OneDrive\Study\Operating Systems\实验\project6\codes/./kernel/os.c:136
			}
		}
		else if(in[0] == 't' && in[1] == 'y' &&
     910:	67 66 8b 45 f4       	mov    eax,DWORD PTR [ebp-0xc]
     915:	67 8a 00             	mov    al,BYTE PTR [eax]
     918:	3c 74                	cmp    al,0x74
     91a:	0f 85 73 01          	jne    a91 <.debug_info+0x311>
     91e:	67 66 8b 45 f4       	mov    eax,DWORD PTR [ebp-0xc]
     923:	66 40                	inc    eax
     925:	67 8a 00             	mov    al,BYTE PTR [eax]
     928:	3c 79                	cmp    al,0x79
     92a:	0f 85 63 01          	jne    a91 <.debug_info+0x311>
D:\OneDrive\Study\Operating Systems\实验\project6\codes/./kernel/os.c:137
			in[2] == 'p' &&in[3] == 'e'){
     92e:	67 66 8b 45 f4       	mov    eax,DWORD PTR [ebp-0xc]
     933:	66 83 c0 02          	add    eax,0x2
     937:	67 8a 00             	mov    al,BYTE PTR [eax]
D:\OneDrive\Study\Operating Systems\实验\project6\codes/./kernel/os.c:136
		else if(in[0] == 't' && in[1] == 'y' &&
     93a:	3c 70                	cmp    al,0x70
     93c:	0f 85 51 01          	jne    a91 <.debug_info+0x311>
D:\OneDrive\Study\Operating Systems\实验\project6\codes/./kernel/os.c:137
			in[2] == 'p' &&in[3] == 'e'){
     940:	67 66 8b 45 f4       	mov    eax,DWORD PTR [ebp-0xc]
     945:	66 83 c0 03          	add    eax,0x3
     949:	67 8a 00             	mov    al,BYTE PTR [eax]
     94c:	3c 65                	cmp    al,0x65
     94e:	0f 85 3f 01          	jne    a91 <.debug_info+0x311>
D:\OneDrive\Study\Operating Systems\实验\project6\codes/./kernel/os.c:138
			tmp = find(in+5);
     952:	67 66 8b 45 f4       	mov    eax,DWORD PTR [ebp-0xc]
     957:	66 83 c0 05          	add    eax,0x5
     95b:	67 66 89 04 24       	mov    DWORD PTR [esp],eax
     960:	66 e8 92 22 00 00    	call   2bf8 <_find>
     966:	67 66 89 45 f8       	mov    DWORD PTR [ebp-0x8],eax
D:\OneDrive\Study\Operating Systems\实验\project6\codes/./kernel/os.c:139
			if(tmp != -1 && information[tmp].deleted != 1){
     96b:	67 66 83 7d f8 ff    	cmp    DWORD PTR [ebp-0x8],0xffffffff
     971:	0f 84 14 03          	je     c89 <.debug_info+0x509>
     975:	67 66 8b 55 f8       	mov    edx,DWORD PTR [ebp-0x8]
     97a:	66 89 d0             	mov    eax,edx
     97d:	66 01 c0             	add    eax,eax
     980:	66 01 d0             	add    eax,edx
     983:	66 c1 e0 02          	shl    eax,0x2
     987:	66 01 d0             	add    eax,edx
     98a:	66 c1 e0 02          	shl    eax,0x2
     98e:	66 05 cc 77 00 00    	add    eax,0x77cc
     994:	67 66 8b 00          	mov    eax,DWORD PTR [eax]
     998:	66 83 f8 01          	cmp    eax,0x1
     99c:	0f 84 e9 02          	je     c89 <.debug_info+0x509>
D:\OneDrive\Study\Operating Systems\实验\project6\codes/./kernel/os.c:140
				loadReal(information[tmp].lmaddress, information[tmp].size, offsetOfUserPrg, segOfOs);
     9a0:	67 66 8b 55 f8       	mov    edx,DWORD PTR [ebp-0x8]
     9a5:	66 89 d0             	mov    eax,edx
     9a8:	66 01 c0             	add    eax,eax
     9ab:	66 01 d0             	add    eax,edx
     9ae:	66 c1 e0 02          	shl    eax,0x2
     9b2:	66 01 d0             	add    eax,edx
     9b5:	66 c1 e0 02          	shl    eax,0x2
     9b9:	66 05 c8 77 00 00    	add    eax,0x77c8
     9bf:	67 66 8b 08          	mov    ecx,DWORD PTR [eax]
     9c3:	67 66 8b 55 f8       	mov    edx,DWORD PTR [ebp-0x8]
     9c8:	66 89 d0             	mov    eax,edx
     9cb:	66 01 c0             	add    eax,eax
     9ce:	66 01 d0             	add    eax,edx
     9d1:	66 c1 e0 02          	shl    eax,0x2
     9d5:	66 01 d0             	add    eax,edx
     9d8:	66 c1 e0 02          	shl    eax,0x2
     9dc:	66 05 c4 77 00 00    	add    eax,0x77c4
     9e2:	67 66 8b 00          	mov    eax,DWORD PTR [eax]
     9e6:	67 66 c7 44 24 0c 00 	mov    DWORD PTR [esp+0xc],0x2000
     9ed:	20 00 00 
     9f0:	67 66 c7 44 24 08 00 	mov    DWORD PTR [esp+0x8],0xe000
     9f7:	e0 00 00 
     9fa:	67 66 89 4c 24 04    	mov    DWORD PTR [esp+0x4],ecx
     a00:	67 66 89 04 24       	mov    DWORD PTR [esp],eax
     a05:	66 e8 f2 08 00 00    	call   12fd <_loadReal>
D:\OneDrive\Study\Operating Systems\实验\project6\codes/./kernel/os.c:141
				str = getRecords(segOfUser, offsetOfUserPrg);
     a0b:	67 66 c7 44 24 04 00 	mov    DWORD PTR [esp+0x4],0xe000
     a12:	e0 00 00 
     a15:	67 66 c7 04 24 00 00 	mov    DWORD PTR [esp],0x0
     a1c:	00 00 
     a1e:	66 e8 1d 12 00 00    	call   1c41 <_getRecords>
     a24:	67 66 89 45 d0       	mov    DWORD PTR [ebp-0x30],eax
D:\OneDrive\Study\Operating Systems\实验\project6\codes/./kernel/os.c:142
				printSentence(str, line, 0, strlen(str), purple);
     a29:	67 66 8b 45 d0       	mov    eax,DWORD PTR [ebp-0x30]
     a2e:	67 66 89 04 24       	mov    DWORD PTR [esp],eax
     a33:	66 e8 61 1c 00 00    	call   269a <_strlen>
     a39:	66 89 c2             	mov    edx,eax
     a3c:	66 a1 80 71          	mov    eax,ds:0x7180
     a40:	67 66 c7 44 24 10 0d 	mov    DWORD PTR [esp+0x10],0xd
     a47:	00 00 00 
     a4a:	67 66 89 54 24 0c    	mov    DWORD PTR [esp+0xc],edx
     a50:	67 66 c7 44 24 08 00 	mov    DWORD PTR [esp+0x8],0x0
     a57:	00 00 00 
     a5a:	67 66 89 44 24 04    	mov    DWORD PTR [esp+0x4],eax
     a60:	67 66 8b 45 d0       	mov    eax,DWORD PTR [ebp-0x30]
     a65:	67 66 89 04 24       	mov    DWORD PTR [esp],eax
     a6a:	66 e8 eb 06 00 00    	call   115b <_printSentence>
D:\OneDrive\Study\Operating Systems\实验\project6\codes/./kernel/os.c:143
				line += countLines(str);
     a70:	67 66 8b 45 d0       	mov    eax,DWORD PTR [ebp-0x30]
     a75:	67 66 89 04 24       	mov    DWORD PTR [esp],eax
     a7a:	66 e8 60 12 00 00    	call   1ce0 <_countLines>
     a80:	66 89 c2             	mov    edx,eax
     a83:	66 a1 80 71          	mov    eax,ds:0x7180
     a87:	66 01 d0             	add    eax,edx
     a8a:	66 a3 80 71          	mov    ds:0x7180,eax
D:\OneDrive\Study\Operating Systems\实验\project6\codes/./kernel/os.c:139
			if(tmp != -1 && information[tmp].deleted != 1){
     a8e:	e9 f8 01             	jmp    c89 <.debug_info+0x509>
D:\OneDrive\Study\Operating Systems\实验\project6\codes/./kernel/os.c:146
			}
		}
		else if(in[0] == 'r' && in[1] == 'm'){
     a91:	67 66 8b 45 f4       	mov    eax,DWORD PTR [ebp-0xc]
     a96:	67 8a 00             	mov    al,BYTE PTR [eax]
     a99:	3c 72                	cmp    al,0x72
     a9b:	0f 85 86 00          	jne    b25 <.debug_info+0x3a5>
     a9f:	67 66 8b 45 f4       	mov    eax,DWORD PTR [ebp-0xc]
     aa4:	66 40                	inc    eax
     aa6:	67 8a 00             	mov    al,BYTE PTR [eax]
     aa9:	3c 6d                	cmp    al,0x6d
     aab:	75 78                	jne    b25 <.debug_info+0x3a5>
D:\OneDrive\Study\Operating Systems\实验\project6\codes/./kernel/os.c:147
			tmp = find(in+3);
     aad:	67 66 8b 45 f4       	mov    eax,DWORD PTR [ebp-0xc]
     ab2:	66 83 c0 03          	add    eax,0x3
     ab6:	67 66 89 04 24       	mov    DWORD PTR [esp],eax
     abb:	66 e8 37 21 00 00    	call   2bf8 <_find>
     ac1:	67 66 89 45 f8       	mov    DWORD PTR [ebp-0x8],eax
D:\OneDrive\Study\Operating Systems\实验\project6\codes/./kernel/os.c:148
			if(tmp != -1 && information[tmp].deleted != 1){
     ac6:	67 66 83 7d f8 ff    	cmp    DWORD PTR [ebp-0x8],0xffffffff
     acc:	0f 84 bc 01          	je     c8c <.debug_info+0x50c>
     ad0:	67 66 8b 55 f8       	mov    edx,DWORD PTR [ebp-0x8]
     ad5:	66 89 d0             	mov    eax,edx
     ad8:	66 01 c0             	add    eax,eax
     adb:	66 01 d0             	add    eax,edx
     ade:	66 c1 e0 02          	shl    eax,0x2
     ae2:	66 01 d0             	add    eax,edx
     ae5:	66 c1 e0 02          	shl    eax,0x2
     ae9:	66 05 cc 77 00 00    	add    eax,0x77cc
     aef:	67 66 8b 00          	mov    eax,DWORD PTR [eax]
     af3:	66 83 f8 01          	cmp    eax,0x1
     af7:	0f 84 91 01          	je     c8c <.debug_info+0x50c>
D:\OneDrive\Study\Operating Systems\实验\project6\codes/./kernel/os.c:149
				information[tmp].deleted = 1;
     afb:	67 66 8b 55 f8       	mov    edx,DWORD PTR [ebp-0x8]
     b00:	66 89 d0             	mov    eax,edx
     b03:	66 01 c0             	add    eax,eax
     b06:	66 01 d0             	add    eax,edx
     b09:	66 c1 e0 02          	shl    eax,0x2
     b0d:	66 01 d0             	add    eax,edx
     b10:	66 c1 e0 02          	shl    eax,0x2
     b14:	66 05 cc 77 00 00    	add    eax,0x77cc
     b1a:	67 66 c7 00 01 00 00 	mov    DWORD PTR [eax],0x1
     b21:	00 
D:\OneDrive\Study\Operating Systems\实验\project6\codes/./kernel/os.c:148
			if(tmp != -1 && information[tmp].deleted != 1){
     b22:	e9 67 01             	jmp    c8c <.debug_info+0x50c>
D:\OneDrive\Study\Operating Systems\实验\project6\codes/./kernel/os.c:152
			}
		}
		else if(in[0] == 'k' && in[1] == 'i' &&
     b25:	67 66 8b 45 f4       	mov    eax,DWORD PTR [ebp-0xc]
     b2a:	67 8a 00             	mov    al,BYTE PTR [eax]
     b2d:	3c 6b                	cmp    al,0x6b
     b2f:	75 50                	jne    b81 <.debug_info+0x401>
     b31:	67 66 8b 45 f4       	mov    eax,DWORD PTR [ebp-0xc]
     b36:	66 40                	inc    eax
     b38:	67 8a 00             	mov    al,BYTE PTR [eax]
     b3b:	3c 69                	cmp    al,0x69
     b3d:	75 42                	jne    b81 <.debug_info+0x401>
D:\OneDrive\Study\Operating Systems\实验\project6\codes/./kernel/os.c:153
			in[2] == 'l' && in[3] == 'l'){
     b3f:	67 66 8b 45 f4       	mov    eax,DWORD PTR [ebp-0xc]
     b44:	66 83 c0 02          	add    eax,0x2
     b48:	67 8a 00             	mov    al,BYTE PTR [eax]
D:\OneDrive\Study\Operating Systems\实验\project6\codes/./kernel/os.c:152
		else if(in[0] == 'k' && in[1] == 'i' &&
     b4b:	3c 6c                	cmp    al,0x6c
     b4d:	75 32                	jne    b81 <.debug_info+0x401>
D:\OneDrive\Study\Operating Systems\实验\project6\codes/./kernel/os.c:153
			in[2] == 'l' && in[3] == 'l'){
     b4f:	67 66 8b 45 f4       	mov    eax,DWORD PTR [ebp-0xc]
     b54:	66 83 c0 03          	add    eax,0x3
     b58:	67 8a 00             	mov    al,BYTE PTR [eax]
     b5b:	3c 6c                	cmp    al,0x6c
     b5d:	75 22                	jne    b81 <.debug_info+0x401>
D:\OneDrive\Study\Operating Systems\实验\project6\codes/./kernel/os.c:154
			kill(in[5]-'0');
     b5f:	67 66 8b 45 f4       	mov    eax,DWORD PTR [ebp-0xc]
     b64:	66 83 c0 05          	add    eax,0x5
     b68:	67 8a 00             	mov    al,BYTE PTR [eax]
     b6b:	66 0f be c0          	movsx  eax,al
     b6f:	66 83 e8 30          	sub    eax,0x30
     b73:	67 66 89 04 24       	mov    DWORD PTR [esp],eax
     b78:	66 e8 1e 1a 00 00    	call   259c <_kill>
     b7e:	e9 0c 01             	jmp    c8d <.debug_info+0x50d>
D:\OneDrive\Study\Operating Systems\实验\project6\codes/./kernel/os.c:157
		}
		else {
			if(strcmp(in, "reboot") == 0)
     b81:	67 66 c7 44 24 04 0b 	mov    DWORD PTR [esp+0x4],0x500b
     b88:	50 00 00 
     b8b:	67 66 8b 45 f4       	mov    eax,DWORD PTR [ebp-0xc]
     b90:	67 66 89 04 24       	mov    DWORD PTR [esp],eax
     b95:	66 e8 d0 1b 00 00    	call   276b <_strcmp>
     b9b:	66 85 c0             	test   eax,eax
     b9e:	75 06                	jne    ba6 <.debug_info+0x426>
D:\OneDrive\Study\Operating Systems\实验\project6\codes/./kernel/os.c:158
				reboot();
     ba0:	66 e8 99 08 00 00    	call   143f <_reboot>
D:\OneDrive\Study\Operating Systems\实验\project6\codes/./kernel/os.c:159
			if(strcmp(in, "clear") == 0)
     ba6:	67 66 c7 44 24 04 12 	mov    DWORD PTR [esp+0x4],0x5012
     bad:	50 00 00 
     bb0:	67 66 8b 45 f4       	mov    eax,DWORD PTR [ebp-0xc]
     bb5:	67 66 89 04 24       	mov    DWORD PTR [esp],eax
     bba:	66 e8 ab 1b 00 00    	call   276b <_strcmp>
     bc0:	66 85 c0             	test   eax,eax
     bc3:	75 06                	jne    bcb <.debug_info+0x44b>
D:\OneDrive\Study\Operating Systems\实验\project6\codes/./kernel/os.c:160
				clear();
     bc5:	66 e8 54 12 00 00    	call   1e1f <_clear>
D:\OneDrive\Study\Operating Systems\实验\project6\codes/./kernel/os.c:161
			if(strcmp(in, "date") == 0)
     bcb:	67 66 c7 44 24 04 18 	mov    DWORD PTR [esp+0x4],0x5018
     bd2:	50 00 00 
     bd5:	67 66 8b 45 f4       	mov    eax,DWORD PTR [ebp-0xc]
     bda:	67 66 89 04 24       	mov    DWORD PTR [esp],eax
     bdf:	66 e8 86 1b 00 00    	call   276b <_strcmp>
     be5:	66 85 c0             	test   eax,eax
     be8:	75 06                	jne    bf0 <.debug_info+0x470>
D:\OneDrive\Study\Operating Systems\实验\project6\codes/./kernel/os.c:162
				date();
     bea:	66 e8 48 12 00 00    	call   1e38 <_date>
D:\OneDrive\Study\Operating Systems\实验\project6\codes/./kernel/os.c:163
			if(strcmp(in, "man") == 0)
     bf0:	67 66 c7 44 24 04 1d 	mov    DWORD PTR [esp+0x4],0x501d
     bf7:	50 00 00 
     bfa:	67 66 8b 45 f4       	mov    eax,DWORD PTR [ebp-0xc]
     bff:	67 66 89 04 24       	mov    DWORD PTR [esp],eax
     c04:	66 e8 61 1b 00 00    	call   276b <_strcmp>
     c0a:	66 85 c0             	test   eax,eax
     c0d:	75 06                	jne    c15 <.debug_info+0x495>
D:\OneDrive\Study\Operating Systems\实验\project6\codes/./kernel/os.c:164
				man();
     c0f:	66 e8 a7 12 00 00    	call   1ebc <_man>
D:\OneDrive\Study\Operating Systems\实验\project6\codes/./kernel/os.c:165
			if(strcmp(in, "ls") == 0)
     c15:	67 66 c7 44 24 04 21 	mov    DWORD PTR [esp+0x4],0x5021
     c1c:	50 00 00 
     c1f:	67 66 8b 45 f4       	mov    eax,DWORD PTR [ebp-0xc]
     c24:	67 66 89 04 24       	mov    DWORD PTR [esp],eax
     c29:	66 e8 3c 1b 00 00    	call   276b <_strcmp>
     c2f:	66 85 c0             	test   eax,eax
     c32:	75 06                	jne    c3a <.debug_info+0x4ba>
D:\OneDrive\Study\Operating Systems\实验\project6\codes/./kernel/os.c:166
				ls();
     c34:	66 e8 ac 13 00 00    	call   1fe6 <_ls>
D:\OneDrive\Study\Operating Systems\实验\project6\codes/./kernel/os.c:167
			if(strcmp(in, "exit") == 0)
     c3a:	67 66 c7 44 24 04 24 	mov    DWORD PTR [esp+0x4],0x5024
     c41:	50 00 00 
     c44:	67 66 8b 45 f4       	mov    eax,DWORD PTR [ebp-0xc]
     c49:	67 66 89 04 24       	mov    DWORD PTR [esp],eax
     c4e:	66 e8 17 1b 00 00    	call   276b <_strcmp>
     c54:	66 85 c0             	test   eax,eax
     c57:	75 06                	jne    c5f <.debug_info+0x4df>
D:\OneDrive\Study\Operating Systems\实验\project6\codes/./kernel/os.c:168
				shutdown();
     c59:	66 e8 7f 06 00 00    	call   12de <_shutdown>
D:\OneDrive\Study\Operating Systems\实验\project6\codes/./kernel/os.c:169
			if(strcmp(in, "ps") == 0)
     c5f:	67 66 c7 44 24 04 29 	mov    DWORD PTR [esp+0x4],0x5029
     c66:	50 00 00 
     c69:	67 66 8b 45 f4       	mov    eax,DWORD PTR [ebp-0xc]
     c6e:	67 66 89 04 24       	mov    DWORD PTR [esp],eax
     c73:	66 e8 f2 1a 00 00    	call   276b <_strcmp>
     c79:	66 85 c0             	test   eax,eax
     c7c:	75 0f                	jne    c8d <.debug_info+0x50d>
D:\OneDrive\Study\Operating Systems\实验\project6\codes/./kernel/os.c:170
				ps();
     c7e:	66 e8 65 16 00 00    	call   22e9 <_ps>
     c84:	eb 07                	jmp    c8d <.debug_info+0x50d>
D:\OneDrive\Study\Operating Systems\实验\project6\codes/./kernel/os.c:118
			if(tmp != -1 && information[tmp].deleted != 1){
     c86:	90                   	nop
     c87:	eb 04                	jmp    c8d <.debug_info+0x50d>
D:\OneDrive\Study\Operating Systems\实验\project6\codes/./kernel/os.c:139
			if(tmp != -1 && information[tmp].deleted != 1){
     c89:	90                   	nop
     c8a:	eb 01                	jmp    c8d <.debug_info+0x50d>
D:\OneDrive\Study\Operating Systems\实验\project6\codes/./kernel/os.c:148
			if(tmp != -1 && information[tmp].deleted != 1){
     c8c:	90                   	nop
D:\OneDrive\Study\Operating Systems\实验\project6\codes/./kernel/os.c:172
		}
		newline();
     c8d:	66 e8 c9 12 00 00    	call   1f5c <_newline>
D:\OneDrive\Study\Operating Systems\实验\project6\codes/./kernel/os.c:69
		in = getInput();
     c93:	e9 dc f3             	jmp    72 <.debug_str+0x41>
     c96:	00 00                	add    BYTE PTR [bx+si],al
     c98:	66 90                	xchg   eax,eax
     c9a:	66 90                	xchg   eax,eax
     c9c:	66 90                	xchg   eax,eax
     c9e:	66 90                	xchg   eax,eax

00000ca0 <_test>:
     ca0:	ea 00 00 50 00       	jmp    0x50:0x0

00000ca5 <_inisys>:
     ca5:	60                   	pusha  
     ca6:	e8 e5 02             	call   f8e <installInt8h>
     ca9:	e8 7c 02             	call   f28 <installInt9h>
     cac:	e8 26 02             	call   ed5 <installInt2Bh>
     caf:	e8 05 00             	call   cb7 <installInt21h>
     cb2:	e8 2c 04             	call   10e1 <installInt34_37h>
     cb5:	61                   	popa   
     cb6:	c3                   	ret    

00000cb7 <installInt21h>:
     cb7:	50                   	push   ax
     cb8:	06                   	push   es
     cb9:	b8 00 00             	mov    ax,0x0
     cbc:	8e c0                	mov    es,ax
     cbe:	26 c7 06 84 00 cd 0c 	mov    WORD PTR es:0x84,0xccd
     cc5:	26 8c 0e 86 00       	mov    WORD PTR es:0x86,cs
     cca:	07                   	pop    es
     ccb:	58                   	pop    ax
     ccc:	c3                   	ret    

00000ccd <int21h>:
     ccd:	2e 89 1e 8b 0d       	mov    WORD PTR cs:0xd8b,bx
     cd2:	53                   	push   bx
     cd3:	1e                   	push   ds
     cd4:	0e                   	push   cs
     cd5:	1f                   	pop    ds
     cd6:	bb 00 00             	mov    bx,0x0
     cd9:	50                   	push   ax
     cda:	88 e0                	mov    al,ah
     cdc:	b3 02                	mov    bl,0x2
     cde:	f6 e3                	mul    bl
     ce0:	88 c3                	mov    bl,al
     ce2:	58                   	pop    ax
     ce3:	2e ff 97 eb 0c       	call   WORD PTR cs:[bx+0xceb]

00000ce8 <int21hre>:
     ce8:	1f                   	pop    ds
     ce9:	5b                   	pop    bx
     cea:	cf                   	iret   

00000ceb <int21hTable>:
     ceb:	a7                   	cmps   WORD PTR ds:[si],WORD PTR es:[di]
     cec:	0d b5 0d             	or     ax,0xdb5
     cef:	fe 0d                	dec    BYTE PTR [di]
     cf1:	d3 0d                	ror    WORD PTR [di],cl
     cf3:	de 0d                	fimul  WORD PTR [di]
     cf5:	32 0e 49 0e          	xor    cl,BYTE PTR ds:0xe49
     cf9:	62 0e 71 0e          	bound  cx,DWORD PTR ds:0xe71
     cfd:	91                   	xchg   cx,ax
     cfe:	0d 00 00             	or     ax,0x0
	...
     d81:	00 00                	add    BYTE PTR [bx+si],al
     d83:	f0                   	lock
     d84:	0d                   	.byte 0xd

00000d85 <int21h_store_ip>:
	...

00000d87 <int21h_store_cs>:
	...

00000d89 <int21h_store_flags>:
	...

00000d8b <int21h_store_ebx>:
     d8b:	00 00                	add    BYTE PTR [bx+si],al
	...

00000d8f <int21_store_retaddr>:
	...

00000d91 <int21hMalloc>:
     d91:	66 53                	push   ebx
     d93:	1e                   	push   ds
     d94:	0e                   	push   cs
     d95:	1f                   	pop    ds
     d96:	66 53                	push   ebx
     d98:	66 b8 95 3c 00 00    	mov    eax,0x3c95
     d9e:	66 ff d0             	call   eax
     da1:	66 5b                	pop    ebx
     da3:	1f                   	pop    ds
     da4:	66 5b                	pop    ebx
     da6:	c3                   	ret    

00000da7 <int21hps>:
     da7:	66 50                	push   eax
     da9:	66 31 c0             	xor    eax,eax
     dac:	b8 e9 22             	mov    ax,0x22e9
     daf:	66 ff d0             	call   eax
     db2:	66 58                	pop    eax
     db4:	c3                   	ret    

00000db5 <int21hkill>:
     db5:	66 50                	push   eax
     db7:	66 53                	push   ebx
     db9:	66 bb 00 00 00 00    	mov    ebx,0x0
     dbf:	88 c3                	mov    bl,al
     dc1:	66 53                	push   ebx
     dc3:	66 31 c0             	xor    eax,eax
     dc6:	b8 9c 25             	mov    ax,0x259c
     dc9:	66 ff d0             	call   eax
     dcc:	66 5b                	pop    ebx
     dce:	66 5b                	pop    ebx
     dd0:	66 58                	pop    eax
     dd2:	c3                   	ret    

00000dd3 <int21hshowDate>:
     dd3:	fb                   	sti    
     dd4:	66 31 c0             	xor    eax,eax
     dd7:	b8 38 1e             	mov    ax,0x1e38
     dda:	66 ff d0             	call   eax
     ddd:	c3                   	ret    

00000dde <int21hClear>:
     dde:	66 50                	push   eax
     de0:	66 31 c0             	xor    eax,eax
     de3:	66 50                	push   eax
     de5:	b8 3d 1d             	mov    ax,0x1d3d
     de8:	66 ff d0             	call   eax
     deb:	66 58                	pop    eax
     ded:	66 58                	pop    eax
     def:	c3                   	ret    

00000df0 <int21hexit>:
     df0:	66 50                	push   eax
     df2:	66 31 c0             	xor    eax,eax
     df5:	b8 de 12             	mov    ax,0x12de
     df8:	66 ff d0             	call   eax
     dfb:	66 58                	pop    eax
     dfd:	c3                   	ret    

00000dfe <int21hPrintString>:
     dfe:	60                   	pusha  
     dff:	1e                   	push   ds
     e00:	66 50                	push   eax
     e02:	8c e8                	mov    ax,gs
     e04:	8e d8                	mov    ds,ax
     e06:	66 53                	push   ebx
     e08:	66 51                	push   ecx
     e0a:	66 b8 00 00 00 00    	mov    eax,0x0
     e10:	88 d0                	mov    al,dl
     e12:	66 50                	push   eax
     e14:	88 f0                	mov    al,dh
     e16:	66 50                	push   eax
     e18:	66 57                	push   edi
     e1a:	66 31 c0             	xor    eax,eax
     e1d:	b8 5b 11             	mov    ax,0x115b
     e20:	66 ff d0             	call   eax
     e23:	66 5f                	pop    edi
     e25:	66 58                	pop    eax
     e27:	66 58                	pop    eax
     e29:	66 59                	pop    ecx
     e2b:	66 5b                	pop    ebx
     e2d:	66 58                	pop    eax
     e2f:	1f                   	pop    ds
     e30:	61                   	popa   
     e31:	c3                   	ret    

00000e32 <int21hint2str>:
     e32:	60                   	pusha  
     e33:	1e                   	push   ds
     e34:	8c e8                	mov    ax,gs
     e36:	8e d8                	mov    ds,ax
     e38:	66 57                	push   edi
     e3a:	66 53                	push   ebx
     e3c:	b8 ef 28             	mov    ax,0x28ef
     e3f:	66 ff d0             	call   eax
     e42:	66 5b                	pop    ebx
     e44:	66 5f                	pop    edi
     e46:	1f                   	pop    ds
     e47:	61                   	popa   
     e48:	c3                   	ret    

00000e49 <int21hexitprg>:
     e49:	60                   	pusha  
     e4a:	1e                   	push   ds
     e4b:	2e 66 ff 36 8b 0d    	push   DWORD PTR cs:0xd8b
     e51:	66 b8 00 00 00 00    	mov    eax,0x0
     e57:	b8 d1 39             	mov    ax,0x39d1
     e5a:	66 ff d0             	call   eax
     e5d:	66 5b                	pop    ebx
     e5f:	1f                   	pop    ds
     e60:	61                   	popa   
     e61:	c3                   	ret    

00000e62 <int21hwait>:
     e62:	1e                   	push   ds
     e63:	66 b8 00 00 00 00    	mov    eax,0x0
     e69:	b8 9f 3a             	mov    ax,0x3a9f
     e6c:	66 ff d0             	call   eax
     e6f:	1f                   	pop    ds
     e70:	c3                   	ret    

00000e71 <int21hfork>:
     e71:	fa                   	cli    
     e72:	0e                   	push   cs
     e73:	53                   	push   bx
     e74:	50                   	push   ax
     e75:	1e                   	push   ds
     e76:	8c c8                	mov    ax,cs
     e78:	8e d8                	mov    ds,ax
     e7a:	2e 8b 1e a0 94       	mov    bx,WORD PTR cs:0x94a0
     e7f:	2e a1 5c 77          	mov    ax,cs:0x775c
     e83:	f6 e3                	mul    bl
     e85:	89 c3                	mov    bx,ax
     e87:	81 c3 e0 81          	add    bx,0x81e0
     e8b:	2e 89 1e 2b 14       	mov    WORD PTR cs:0x142b,bx
     e90:	1f                   	pop    ds
     e91:	58                   	pop    ax
     e92:	5b                   	pop    bx
     e93:	fb                   	sti    
     e94:	e8 c0 04             	call   1357 <save>
     e97:	fa                   	cli    
     e98:	60                   	pusha  
     e99:	1e                   	push   ds
     e9a:	66 b8 00 00 00 00    	mov    eax,0x0
     ea0:	8c c8                	mov    ax,cs
     ea2:	8e d8                	mov    ds,ax
     ea4:	b8 ac 35             	mov    ax,0x35ac
     ea7:	66 ff d0             	call   eax
     eaa:	1f                   	pop    ds
     eab:	61                   	popa   
     eac:	53                   	push   bx
     ead:	50                   	push   ax
     eae:	1e                   	push   ds
     eaf:	8c c8                	mov    ax,cs
     eb1:	8e d8                	mov    ds,ax
     eb3:	2e 8b 1e a0 94       	mov    bx,WORD PTR cs:0x94a0
     eb8:	2e a1 5c 77          	mov    ax,cs:0x775c
     ebc:	f6 e3                	mul    bl
     ebe:	89 c3                	mov    bx,ax
     ec0:	81 c3 e0 81          	add    bx,0x81e0
     ec4:	2e 89 1e 29 14       	mov    WORD PTR cs:0x1429,bx
     ec9:	1f                   	pop    ds
     eca:	58                   	pop    ax
     ecb:	5b                   	pop    bx
     ecc:	e8 07 05             	call   13d6 <restart>

00000ecf <int21hfork_store_cs>:
	...

00000ed1 <int21hfork_store_ip>:
	...

00000ed3 <int21hfork_store_flags>:
	...

00000ed5 <installInt2Bh>:
     ed5:	60                   	pusha  
     ed6:	06                   	push   es
     ed7:	b8 00 00             	mov    ax,0x0
     eda:	8e c0                	mov    es,ax
     edc:	26 c7 06 ac 00 eb 0e 	mov    WORD PTR es:0xac,0xeeb
     ee3:	26 8c 0e ae 00       	mov    WORD PTR es:0xae,cs
     ee8:	07                   	pop    es
     ee9:	61                   	popa   
     eea:	c3                   	ret    

00000eeb <int2Bh>:
     eeb:	2e 8f 06 24 0f       	pop    WORD PTR cs:0xf24
     ef0:	2e 8f 06 26 0f       	pop    WORD PTR cs:0xf26
     ef5:	9d                   	popf   
     ef6:	2e 8f 06 24 0f       	pop    WORD PTR cs:0xf24
     efb:	60                   	pusha  
     efc:	1e                   	push   ds
     efd:	66 b8 00 00 00 00    	mov    eax,0x0
     f03:	8c c8                	mov    ax,cs
     f05:	8e d8                	mov    ds,ax
     f07:	a1 a0 94             	mov    ax,ds:0x94a0
     f0a:	66 50                	push   eax
     f0c:	b8 2d 32             	mov    ax,0x322d
     f0f:	66 ff d0             	call   eax
     f12:	66 58                	pop    eax
     f14:	1f                   	pop    ds
     f15:	61                   	popa   
     f16:	9c                   	pushf  
     f17:	2e ff 36 26 0f       	push   WORD PTR cs:0xf26
     f1c:	2e ff 36 24 0f       	push   WORD PTR cs:0xf24
     f21:	e9 a9 00             	jmp    fcd <int8h>

00000f24 <in2b_store_ip>:
	...

00000f26 <in2b_store_cs>:
	...

00000f28 <installInt9h>:
     f28:	60                   	pusha  
     f29:	06                   	push   es
     f2a:	1e                   	push   ds
     f2b:	31 c0                	xor    ax,ax
     f2d:	8e c0                	mov    es,ax
     f2f:	8c c8                	mov    ax,cs
     f31:	8e d8                	mov    ds,ax
     f33:	26 a1 26 00          	mov    ax,es:0x26
     f37:	2e a3 57 0f          	mov    cs:0xf57,ax
     f3b:	26 a1 24 00          	mov    ax,es:0x24
     f3f:	2e a3 55 0f          	mov    cs:0xf55,ax
     f43:	fa                   	cli    
     f44:	26 8c 0e 26 00       	mov    WORD PTR es:0x26,cs
     f49:	26 c7 06 24 00 59 0f 	mov    WORD PTR es:0x24,0xf59
     f50:	fb                   	sti    
     f51:	1f                   	pop    ds
     f52:	07                   	pop    es
     f53:	61                   	popa   
     f54:	c3                   	ret    

00000f55 <tmp9>:
     f55:	00 00                	add    BYTE PTR [bx+si],al
	...

00000f59 <int9h>:
     f59:	60                   	pusha  
     f5a:	06                   	push   es
     f5b:	1e                   	push   ds
     f5c:	8c c8                	mov    ax,cs
     f5e:	8e d8                	mov    ds,ax
     f60:	8e c0                	mov    es,ax
     f62:	9c                   	pushf  
     f63:	2e ff 1e 55 0f       	call   DWORD PTR cs:0xf55

00000f68 <showInsert>:
     f68:	b9 09 00             	mov    cx,0x9
     f6b:	bd 85 0f             	mov    bp,0xf85
     f6e:	ba 45 18             	mov    dx,0x1845
     f71:	b3 0f                	mov    bl,0xf
     f73:	b7 00                	mov    bh,0x0
     f75:	b4 13                	mov    ah,0x13
     f77:	b0 00                	mov    al,0x0
     f79:	cd 10                	int    0x10
     f7b:	b0 20                	mov    al,0x20
     f7d:	e6 20                	out    0x20,al
     f7f:	e6 a0                	out    0xa0,al
     f81:	1f                   	pop    ds
     f82:	07                   	pop    es
     f83:	61                   	popa   
     f84:	cf                   	iret   

00000f85 <inserting>:
     f85:	69 6e 73 65 72       	imul   bp,WORD PTR [bp+0x73],0x7265
     f8a:	74 69                	je     ff5 <int8h+0x28>
     f8c:	6e                   	outs   dx,BYTE PTR ds:[si]
     f8d:	67                   	addr32

00000f8e <installInt8h>:
     f8e:	06                   	push   es
     f8f:	50                   	push   ax
     f90:	31 c0                	xor    ax,ax
     f92:	8e c0                	mov    es,ax
     f94:	26 a1 22 00          	mov    ax,es:0x22
     f98:	2e a3 cb 0f          	mov    cs:0xfcb,ax
     f9c:	26 a1 20 00          	mov    ax,es:0x20
     fa0:	2e a3 c9 0f          	mov    cs:0xfc9,ax
     fa4:	fa                   	cli    
     fa5:	26 8c 0e 22 00       	mov    WORD PTR es:0x22,cs
     faa:	26 c7 06 20 00 cd 0f 	mov    WORD PTR es:0x20,0xfcd
     fb1:	2e c7 06 ce 10 28 00 	mov    WORD PTR cs:0x10ce,0x28
     fb8:	fb                   	sti    

00000fb9 <SetTimer>:
     fb9:	b0 34                	mov    al,0x34
     fbb:	e6 43                	out    0x43,al
     fbd:	b8 0b e9             	mov    ax,0xe90b
     fc0:	e6 40                	out    0x40,al
     fc2:	88 e0                	mov    al,ah
     fc4:	e6 40                	out    0x40,al
     fc6:	58                   	pop    ax
     fc7:	07                   	pop    es
     fc8:	c3                   	ret    

00000fc9 <tmp8>:
     fc9:	00 00                	add    BYTE PTR [bx+si],al
	...

00000fcd <int8h>:
     fcd:	60                   	pusha  
     fce:	1e                   	push   ds
     fcf:	06                   	push   es
     fd0:	8c c8                	mov    ax,cs
     fd2:	8e d8                	mov    ds,ax
     fd4:	9c                   	pushf  
     fd5:	ff 1e c9 0f          	call   DWORD PTR ds:0xfc9
     fd9:	ff 0e ce 10          	dec    WORD PTR ds:0x10ce
     fdd:	83 3e ce 10 00       	cmp    WORD PTR ds:0x10ce,0x0
     fe2:	75 73                	jne    1057 <int8hret>
     fe4:	c7 06 ce 10 28 00    	mov    WORD PTR ds:0x10ce,0x28
     fea:	b8 00 b8             	mov    ax,0xb800
     fed:	8e c0                	mov    es,ax
     fef:	b4 04                	mov    ah,0x4
     ff1:	b7 00                	mov    bh,0x0
     ff3:	b4 03                	mov    ah,0x3
     ff5:	cd 10                	int    0x10
     ff7:	b8 00 00             	mov    ax,0x0
     ffa:	88 f0                	mov    al,dh
     ffc:	b3 50                	mov    bl,0x50
     ffe:	f6 e3                	mul    bl
    1000:	b6 00                	mov    dh,0x0
    1002:	01 d0                	add    ax,dx
    1004:	bb 02 00             	mov    bx,0x2
    1007:	f7 e3                	mul    bx
    1009:	89 c5                	mov    bp,ax
    100b:	bb d2 10             	mov    bx,0x10d2
    100e:	03 1e d0 10          	add    bx,WORD PTR ds:0x10d0
    1012:	8a 07                	mov    al,BYTE PTR [bx]
    1014:	b4 0f                	mov    ah,0xf
    1016:	26 89 46 00          	mov    WORD PTR es:[bp+0x0],ax
    101a:	b8 20 0f             	mov    ax,0xf20
    101d:	26 89 46 02          	mov    WORD PTR es:[bp+0x2],ax
    1021:	26 89 46 04          	mov    WORD PTR es:[bp+0x4],ax
    1025:	26 89 46 06          	mov    WORD PTR es:[bp+0x6],ax
    1029:	26 89 46 08          	mov    WORD PTR es:[bp+0x8],ax
    102d:	ff 06 d0 10          	inc    WORD PTR ds:0x10d0
    1031:	83 3e d0 10 04       	cmp    WORD PTR ds:0x10d0,0x4
    1036:	7c 06                	jl     103e <insertShow>
    1038:	c7 06 d0 10 00 00    	mov    WORD PTR ds:0x10d0,0x0

0000103e <insertShow>:
    103e:	06                   	push   es
    103f:	8c c8                	mov    ax,cs
    1041:	8e c0                	mov    es,ax
    1043:	b9 09 00             	mov    cx,0x9
    1046:	bd d6 10             	mov    bp,0x10d6
    1049:	ba 45 18             	mov    dx,0x1845
    104c:	b3 0f                	mov    bl,0xf
    104e:	b7 00                	mov    bh,0x0
    1050:	b4 13                	mov    ah,0x13
    1052:	b0 00                	mov    al,0x0
    1054:	cd 10                	int    0x10
    1056:	07                   	pop    es

00001057 <int8hret>:
    1057:	fa                   	cli    
    1058:	b0 20                	mov    al,0x20
    105a:	e6 20                	out    0x20,al
    105c:	e6 a0                	out    0xa0,al
    105e:	07                   	pop    es
    105f:	1f                   	pop    ds
    1060:	61                   	popa   
    1061:	53                   	push   bx
    1062:	50                   	push   ax
    1063:	1e                   	push   ds
    1064:	8c c8                	mov    ax,cs
    1066:	8e d8                	mov    ds,ax
    1068:	2e 8b 1e a0 94       	mov    bx,WORD PTR cs:0x94a0
    106d:	2e a1 5c 77          	mov    ax,cs:0x775c
    1071:	f6 e3                	mul    bl
    1073:	89 c3                	mov    bx,ax
    1075:	81 c3 e0 81          	add    bx,0x81e0
    1079:	2e 89 1e 2b 14       	mov    WORD PTR cs:0x142b,bx
    107e:	1f                   	pop    ds
    107f:	58                   	pop    ax
    1080:	5b                   	pop    bx
    1081:	50                   	push   ax
    1082:	1e                   	push   ds
    1083:	0e                   	push   cs
    1084:	1f                   	pop    ds
    1085:	60                   	pusha  
    1086:	66 31 c0             	xor    eax,eax
    1089:	b8 97 33             	mov    ax,0x3397
    108c:	66 ff d0             	call   eax
    108f:	61                   	popa   
    1090:	1f                   	pop    ds
    1091:	58                   	pop    ax
    1092:	2e 8f 06 24 0f       	pop    WORD PTR cs:0xf24
    1097:	2e 8f 06 26 0f       	pop    WORD PTR cs:0xf26
    109c:	9d                   	popf   
    109d:	2e ff 36 24 0f       	push   WORD PTR cs:0xf24
    10a2:	2e ff 36 26 0f       	push   WORD PTR cs:0xf26
    10a7:	53                   	push   bx
    10a8:	50                   	push   ax
    10a9:	1e                   	push   ds
    10aa:	8c c8                	mov    ax,cs
    10ac:	8e d8                	mov    ds,ax
    10ae:	2e 8b 1e a0 94       	mov    bx,WORD PTR cs:0x94a0
    10b3:	2e a1 5c 77          	mov    ax,cs:0x775c
    10b7:	f6 e3                	mul    bl
    10b9:	89 c3                	mov    bx,ax
    10bb:	81 c3 e0 81          	add    bx,0x81e0
    10bf:	2e 89 1e 29 14       	mov    WORD PTR cs:0x1429,bx
    10c4:	1f                   	pop    ds
    10c5:	58                   	pop    ax
    10c6:	5b                   	pop    bx
    10c7:	e8 8d 02             	call   1357 <save>
    10ca:	e8 09 03             	call   13d6 <restart>
    10cd:	cf                   	iret   

000010ce <count>:
    10ce:	28 00                	sub    BYTE PTR [bx+si],al

000010d0 <k>:
	...

000010d2 <char>:
    10d2:	7c 5c                	jl     1130 <int34h+0xd>
    10d4:	2d                   	.byte 0x2d
    10d5:	2f                   	das    

000010d6 <inserted>:
    10d6:	69 6e 73 65 72       	imul   bp,WORD PTR [bp+0x73],0x7265
    10db:	74 65                	je     1142 <int36h+0x3>
    10dd:	64                   	fs
    10de:	20                   	.byte 0x20

000010df <int8h_store_ss>:
	...

000010e1 <installInt34_37h>:
    10e1:	06                   	push   es
    10e2:	50                   	push   ax
    10e3:	b8 00 00             	mov    ax,0x0
    10e6:	8e c0                	mov    es,ax
    10e8:	fa                   	cli    
    10e9:	26 8c 0e d2 00       	mov    WORD PTR es:0xd2,cs
    10ee:	26 c7 06 d0 00 23 11 	mov    WORD PTR es:0xd0,0x1123
    10f5:	fb                   	sti    
    10f6:	fa                   	cli    
    10f7:	26 8c 0e d6 00       	mov    WORD PTR es:0xd6,cs
    10fc:	26 c7 06 d4 00 31 11 	mov    WORD PTR es:0xd4,0x1131
    1103:	fb                   	sti    
    1104:	fa                   	cli    
    1105:	26 8c 0e da 00       	mov    WORD PTR es:0xda,cs
    110a:	26 c7 06 d8 00 3f 11 	mov    WORD PTR es:0xd8,0x113f
    1111:	fb                   	sti    
    1112:	fa                   	cli    
    1113:	26 8c 0e de 00       	mov    WORD PTR es:0xde,cs
    1118:	26 c7 06 dc 00 4d 11 	mov    WORD PTR es:0xdc,0x114d
    111f:	fb                   	sti    
    1120:	58                   	pop    ax
    1121:	07                   	pop    es
    1122:	c3                   	ret    

00001123 <int34h>:
    1123:	8c c8                	mov    ax,cs
    1125:	8e d8                	mov    ds,ax
    1127:	66 31 c0             	xor    eax,eax
    112a:	b8 59 4d             	mov    ax,0x4d59
    112d:	66 ff d0             	call   eax
    1130:	cf                   	iret   

00001131 <int35h>:
    1131:	8c c8                	mov    ax,cs
    1133:	8e d8                	mov    ds,ax
    1135:	66 31 c0             	xor    eax,eax
    1138:	b8 b4 4d             	mov    ax,0x4db4
    113b:	66 ff d0             	call   eax
    113e:	cf                   	iret   

0000113f <int36h>:
    113f:	8c c8                	mov    ax,cs
    1141:	8e d8                	mov    ds,ax
    1143:	66 31 c0             	xor    eax,eax
    1146:	b8 0f 4e             	mov    ax,0x4e0f
    1149:	66 ff d0             	call   eax
    114c:	cf                   	iret   

0000114d <int37h>:
    114d:	8c c8                	mov    ax,cs
    114f:	8e d8                	mov    ds,ax
    1151:	66 31 c0             	xor    eax,eax
    1154:	b8 6a 4e             	mov    ax,0x4e6a
    1157:	66 ff d0             	call   eax
    115a:	cf                   	iret   

0000115b <_printSentence>:
    115b:	66 55                	push   ebp
    115d:	67 8a 5c 24 18       	mov    bl,BYTE PTR [esp+0x18]
    1162:	67 8b 4c 24 14       	mov    cx,WORD PTR [esp+0x14]
    1167:	67 8a 54 24 10       	mov    dl,BYTE PTR [esp+0x10]
    116c:	67 8a 74 24 0c       	mov    dh,BYTE PTR [esp+0xc]
    1171:	67 8b 6c 24 08       	mov    bp,WORD PTR [esp+0x8]
    1176:	b0 01                	mov    al,0x1
    1178:	b7 00                	mov    bh,0x0
    117a:	1e                   	push   ds
    117b:	07                   	pop    es
    117c:	b4 13                	mov    ah,0x13
    117e:	cd 10                	int    0x10
    1180:	66 5d                	pop    ebp
    1182:	66 59                	pop    ecx
    1184:	ff e1                	jmp    cx

00001186 <_ClearScreen>:
    1186:	60                   	pusha  
    1187:	b4 06                	mov    ah,0x6
    1189:	b0 00                	mov    al,0x0
    118b:	b7 0f                	mov    bh,0xf
    118d:	b5 00                	mov    ch,0x0
    118f:	b1 00                	mov    cl,0x0
    1191:	b6 18                	mov    dh,0x18
    1193:	b2 4f                	mov    dl,0x4f
    1195:	cd 10                	int    0x10
    1197:	61                   	popa   
    1198:	66 59                	pop    ecx
    119a:	ff e1                	jmp    cx

0000119c <_getInput>:
    119c:	c7 06 d6 12 00 00    	mov    WORD PTR ds:0x12d6,0x0

000011a2 <getStr>:
    11a2:	b4 00                	mov    ah,0x0
    11a4:	cd 16                	int    0x16
    11a6:	3c 20                	cmp    al,0x20
    11a8:	7c 07                	jl     11b1 <nochar>
    11aa:	b4 00                	mov    ah,0x0
    11ac:	e8 26 00             	call   11d5 <Charmini>
    11af:	eb f1                	jmp    11a2 <getStr>

000011b1 <nochar>:
    11b1:	80 fc 0e             	cmp    ah,0xe
    11b4:	74 07                	je     11bd <backspace>
    11b6:	80 fc 1c             	cmp    ah,0x1c
    11b9:	74 09                	je     11c4 <enter>
    11bb:	eb e5                	jmp    11a2 <getStr>

000011bd <backspace>:
    11bd:	b4 01                	mov    ah,0x1
    11bf:	e8 13 00             	call   11d5 <Charmini>
    11c2:	eb de                	jmp    11a2 <getStr>

000011c4 <enter>:
    11c4:	b0 00                	mov    al,0x0
    11c6:	b4 00                	mov    ah,0x0
    11c8:	e8 0a 00             	call   11d5 <Charmini>
    11cb:	66 29 c0             	sub    eax,eax
    11ce:	b8 71 12             	mov    ax,0x1271
    11d1:	66 59                	pop    ecx
    11d3:	ff e1                	jmp    cx

000011d5 <Charmini>:
    11d5:	53                   	push   bx
    11d6:	52                   	push   dx
    11d7:	57                   	push   di
    11d8:	06                   	push   es
    11d9:	80 fc 01             	cmp    ah,0x1
    11dc:	0f 8f 8c 00          	jg     126c <Charminiret>
    11e0:	88 e3                	mov    bl,ah
    11e2:	b7 00                	mov    bh,0x0
    11e4:	01 db                	add    bx,bx
    11e6:	ff a7 d8 12          	jmp    WORD PTR [bx+0x12d8]

000011ea <charpush>:
    11ea:	80 3e d6 12 64       	cmp    BYTE PTR ds:0x12d6,0x64
    11ef:	7d 7b                	jge    126c <Charminiret>
    11f1:	8b 1e d6 12          	mov    bx,WORD PTR ds:0x12d6
    11f5:	fe 06 d6 12          	inc    BYTE PTR ds:0x12d6
    11f9:	88 87 71 12          	mov    BYTE PTR [bx+0x1271],al
    11fd:	e8 1a 00             	call   121a <charshow>
    1200:	eb 6a                	jmp    126c <Charminiret>

00001202 <charpop>:
    1202:	80 3e d6 12 00       	cmp    BYTE PTR ds:0x12d6,0x0
    1207:	7e 63                	jle    126c <Charminiret>
    1209:	fe 0e d6 12          	dec    BYTE PTR ds:0x12d6
    120d:	8b 1e d6 12          	mov    bx,WORD PTR ds:0x12d6
    1211:	8a 87 71 12          	mov    al,BYTE PTR [bx+0x1271]
    1215:	e8 24 00             	call   123c <coverLast>
    1218:	eb 52                	jmp    126c <Charminiret>

0000121a <charshow>:
    121a:	66 55                	push   ebp
    121c:	b7 00                	mov    bh,0x0
    121e:	b4 03                	mov    ah,0x3
    1220:	cd 10                	int    0x10
    1222:	b0 01                	mov    al,0x1
    1224:	b4 13                	mov    ah,0x13
    1226:	b7 00                	mov    bh,0x0
    1228:	b3 0e                	mov    bl,0xe
    122a:	b9 01 00             	mov    cx,0x1
    122d:	0e                   	push   cs
    122e:	07                   	pop    es
    122f:	bd 71 12             	mov    bp,0x1271
    1232:	03 2e d6 12          	add    bp,WORD PTR ds:0x12d6
    1236:	4d                   	dec    bp
    1237:	cd 10                	int    0x10
    1239:	66 5d                	pop    ebp
    123b:	c3                   	ret    

0000123c <coverLast>:
    123c:	b8 00 b8             	mov    ax,0xb800
    123f:	8e c0                	mov    es,ax
    1241:	b4 03                	mov    ah,0x3
    1243:	cd 10                	int    0x10
    1245:	80 fa 00             	cmp    dl,0x0
    1248:	7f 04                	jg     124e <noEndofLine>
    124a:	b2 50                	mov    dl,0x50
    124c:	fe ce                	dec    dh

0000124e <noEndofLine>:
    124e:	fe ca                	dec    dl
    1250:	b4 02                	mov    ah,0x2
    1252:	b7 00                	mov    bh,0x0
    1254:	cd 10                	int    0x10
    1256:	b8 50 00             	mov    ax,0x50
    1259:	f6 e6                	mul    dh
    125b:	b6 00                	mov    dh,0x0
    125d:	01 d0                	add    ax,dx
    125f:	ba 02 00             	mov    dx,0x2
    1262:	f7 e2                	mul    dx
    1264:	89 c3                	mov    bx,ax
    1266:	26 c7 07 20 0f       	mov    WORD PTR es:[bx],0xf20
    126b:	c3                   	ret    

0000126c <Charminiret>:
    126c:	07                   	pop    es
    126d:	5f                   	pop    di
    126e:	5a                   	pop    dx
    126f:	5b                   	pop    bx
    1270:	c3                   	ret    

00001271 <input>:
	...

000012d6 <top>:
	...

000012d8 <getInputTable>:
    12d8:	ea 11 02 12 1a       	jmp    0x1a12:0x211
    12dd:	12                   	.byte 0x12

000012de <_shutdown>:
    12de:	60                   	pusha  
    12df:	b8 01 53             	mov    ax,0x5301
    12e2:	31 db                	xor    bx,bx
    12e4:	cd 15                	int    0x15
    12e6:	b8 0e 53             	mov    ax,0x530e
    12e9:	b9 02 01             	mov    cx,0x102
    12ec:	cd 15                	int    0x15
    12ee:	b8 07 53             	mov    ax,0x5307
    12f1:	b3 01                	mov    bl,0x1
    12f3:	b9 03 00             	mov    cx,0x3
    12f6:	cd 15                	int    0x15
    12f8:	61                   	popa   
    12f9:	66 59                	pop    ecx
    12fb:	ff e1                	jmp    cx

000012fd <_loadReal>:
    12fd:	66 55                	push   ebp
    12ff:	06                   	push   es
    1300:	1e                   	push   ds
    1301:	50                   	push   ax
    1302:	52                   	push   dx
    1303:	51                   	push   cx
    1304:	53                   	push   bx
    1305:	8c c8                	mov    ax,cs
    1307:	8e d8                	mov    ds,ax
    1309:	67 8b 44 24 20       	mov    ax,WORD PTR [esp+0x20]
    130e:	8e c0                	mov    es,ax
    1310:	67 8b 44 24 14       	mov    ax,WORD PTR [esp+0x14]
    1315:	ba 00 00             	mov    dx,0x0
    1318:	b9 00 02             	mov    cx,0x200
    131b:	f7 f1                	div    cx
    131d:	b9 12 00             	mov    cx,0x12
    1320:	f7 f1                	div    cx
    1322:	88 d1                	mov    cl,dl
    1324:	fe c1                	inc    cl
    1326:	89 c2                	mov    dx,ax
    1328:	d1 e8                	shr    ax,1
    132a:	88 c5                	mov    ch,al
    132c:	88 d6                	mov    dh,dl
    132e:	80 e6 01             	and    dh,0x1
    1331:	b2 00                	mov    dl,0x0
    1333:	51                   	push   cx
    1334:	67 8b 44 24 1a       	mov    ax,WORD PTR [esp+0x1a]
    1339:	b9 00 02             	mov    cx,0x200
    133c:	ba 00 00             	mov    dx,0x0
    133f:	f7 f1                	div    cx
    1341:	59                   	pop    cx
    1342:	67 8b 5c 24 1c       	mov    bx,WORD PTR [esp+0x1c]
    1347:	b4 02                	mov    ah,0x2
    1349:	cd 13                	int    0x13
    134b:	5b                   	pop    bx
    134c:	59                   	pop    cx
    134d:	5a                   	pop    dx
    134e:	58                   	pop    ax
    134f:	1f                   	pop    ds
    1350:	07                   	pop    es
    1351:	66 5d                	pop    ebp
    1353:	66 59                	pop    ecx
    1355:	ff e1                	jmp    cx

00001357 <save>:
    1357:	83 c4 06             	add    sp,0x6
    135a:	2e 89 26 23 14       	mov    WORD PTR cs:0x1423,sp
    135f:	2e 8c 16 25 14       	mov    WORD PTR cs:0x1425,ss
    1364:	83 ec 06             	sub    sp,0x6
    1367:	2e 8f 06 3d 14       	pop    WORD PTR cs:0x143d
    136c:	1e                   	push   ds
    136d:	0e                   	push   cs
    136e:	1f                   	pop    ds
    136f:	56                   	push   si
    1370:	57                   	push   di
    1371:	2e 8b 3e 2b 14       	mov    di,WORD PTR cs:0x142b
    1376:	2e 8f 06 2f 14       	pop    WORD PTR cs:0x142f
    137b:	2e 8f 06 31 14       	pop    WORD PTR cs:0x1431
    1380:	2e 8f 06 33 14       	pop    WORD PTR cs:0x1433
    1385:	2e 8f 06 37 14       	pop    WORD PTR cs:0x1437
    138a:	2e 8f 06 35 14       	pop    WORD PTR cs:0x1435
    138f:	8c 55 20             	mov    WORD PTR [di+0x20],ss
    1392:	89 65 1e             	mov    WORD PTR [di+0x1e],sp
    1395:	0e                   	push   cs
    1396:	17                   	pop    ss
    1397:	83 c7 1e             	add    di,0x1e
    139a:	89 fc                	mov    sp,di
    139c:	9c                   	pushf  
    139d:	2e ff 36 37 14       	push   WORD PTR cs:0x1437
    13a2:	2e ff 36 35 14       	push   WORD PTR cs:0x1435
    13a7:	60                   	pusha  
    13a8:	5f                   	pop    di
    13a9:	5f                   	pop    di
    13aa:	2e ff 36 31 14       	push   WORD PTR cs:0x1431
    13af:	2e ff 36 2f 14       	push   WORD PTR cs:0x142f
    13b4:	2e ff 36 33 14       	push   WORD PTR cs:0x1433
    13b9:	06                   	push   es
    13ba:	0f a0                	push   fs
    13bc:	0f a8                	push   gs
    13be:	2e 8e 16 25 14       	mov    ss,WORD PTR cs:0x1425
    13c3:	2e a3 27 14          	mov    cs:0x1427,ax
    13c7:	2e a1 23 14          	mov    ax,cs:0x1423
    13cb:	89 c4                	mov    sp,ax
    13cd:	2e a1 27 14          	mov    ax,cs:0x1427
    13d1:	2e ff 26 3d 14       	jmp    WORD PTR cs:0x143d

000013d6 <restart>:
    13d6:	0e                   	push   cs
    13d7:	17                   	pop    ss
    13d8:	2e 8f 06 3d 14       	pop    WORD PTR cs:0x143d
    13dd:	2e 8b 26 29 14       	mov    sp,WORD PTR cs:0x1429
    13e2:	89 e0                	mov    ax,sp
    13e4:	83 c0 18             	add    ax,0x18
    13e7:	2e a3 3b 14          	mov    cs:0x143b,ax
    13eb:	0f a9                	pop    gs
    13ed:	0f a1                	pop    fs
    13ef:	07                   	pop    es
    13f0:	1f                   	pop    ds
    13f1:	61                   	popa   
    13f2:	2e 8b 26 3b 14       	mov    sp,WORD PTR cs:0x143b
    13f7:	2e 8f 06 35 14       	pop    WORD PTR cs:0x1435
    13fc:	2e 8f 06 37 14       	pop    WORD PTR cs:0x1437
    1401:	9d                   	popf   
    1402:	2e 8f 06 3b 14       	pop    WORD PTR cs:0x143b
    1407:	17                   	pop    ss
    1408:	2e a3 2d 14          	mov    cs:0x142d,ax
    140c:	2e a1 3b 14          	mov    ax,cs:0x143b
    1410:	89 c4                	mov    sp,ax
    1412:	2e a1 2d 14          	mov    ax,cs:0x142d
    1416:	fb                   	sti    
    1417:	9c                   	pushf  
    1418:	2e ff 36 37 14       	push   WORD PTR cs:0x1437
    141d:	2e ff 36 35 14       	push   WORD PTR cs:0x1435
    1422:	cf                   	iret   

00001423 <store_sp_dispatch>:
	...

00001425 <store_ss_dispatch>:
	...

00001427 <store_ax_dispatch>:
	...

00001429 <new_process>:
	...

0000142b <old_process>:
	...

0000142d <store_ax>:
	...

0000142f <store_di>:
	...

00001431 <store_si>:
	...

00001433 <store_ds>:
	...

00001435 <store_ip>:
	...

00001437 <store_cs>:
	...

00001439 <store_ss>:
	...

0000143b <store_sp>:
	...

0000143d <store_retaddr>:
	...

0000143f <_reboot>:
    143f:	cd 19                	int    0x19

00001441 <_getDate>:
    1441:	60                   	pusha  
    1442:	b4 04                	mov    ah,0x4
    1444:	cd 1a                	int    0x1a
    1446:	88 cb                	mov    bl,cl
    1448:	88 d8                	mov    al,bl
    144a:	24 f0                	and    al,0xf0
    144c:	b1 04                	mov    cl,0x4
    144e:	d2 e8                	shr    al,cl
    1450:	80 e3 0f             	and    bl,0xf
    1453:	88 dc                	mov    ah,bl
    1455:	05 30 30             	add    ax,0x3030
    1458:	c7 06 a6 14 32 30    	mov    WORD PTR ds:0x14a6,0x3032
    145e:	a3 a8 14             	mov    ds:0x14a8,ax
    1461:	88 f3                	mov    bl,dh
    1463:	88 d8                	mov    al,bl
    1465:	24 f0                	and    al,0xf0
    1467:	b1 04                	mov    cl,0x4
    1469:	d2 e8                	shr    al,cl
    146b:	80 e3 0f             	and    bl,0xf
    146e:	88 dc                	mov    ah,bl
    1470:	05 30 30             	add    ax,0x3030
    1473:	a3 a3 14             	mov    ds:0x14a3,ax
    1476:	c6 06 a5 14 2f       	mov    BYTE PTR ds:0x14a5,0x2f
    147b:	88 d3                	mov    bl,dl
    147d:	88 d8                	mov    al,bl
    147f:	24 f0                	and    al,0xf0
    1481:	b1 04                	mov    cl,0x4
    1483:	d2 e8                	shr    al,cl
    1485:	80 e3 0f             	and    bl,0xf
    1488:	88 dc                	mov    ah,bl
    148a:	05 30 30             	add    ax,0x3030
    148d:	a3 a0 14             	mov    ds:0x14a0,ax
    1490:	c6 06 a2 14 2f       	mov    BYTE PTR ds:0x14a2,0x2f
    1495:	61                   	popa   
    1496:	66 31 c0             	xor    eax,eax
    1499:	b8 a0 14             	mov    ax,0x14a0
    149c:	66 59                	pop    ecx
    149e:	ff e1                	jmp    cx

000014a0 <date>:
	...

000014ab <_roll>:
    14ab:	66 55                	push   ebp
    14ad:	b4 06                	mov    ah,0x6
    14af:	b0 01                	mov    al,0x1
    14b1:	b7 0f                	mov    bh,0xf
    14b3:	b9 00 00             	mov    cx,0x0
    14b6:	ba 4f 18             	mov    dx,0x184f
    14b9:	cd 10                	int    0x10
    14bb:	66 5d                	pop    ebp
    14bd:	66 59                	pop    ecx
    14bf:	ff e1                	jmp    cx

000014c1 <lastline>:
	...

00001c41 <_getRecords>:
    1c41:	66 55                	push   ebp
    1c43:	8c c8                	mov    ax,cs
    1c45:	67 8b 44 24 08       	mov    ax,WORD PTR [esp+0x8]
    1c4a:	8e c0                	mov    es,ax
    1c4c:	66 31 db             	xor    ebx,ebx
    1c4f:	66 67 8b 5c 24 0c    	mov    ebx,DWORD PTR [esp+0xc]
    1c55:	66 31 c0             	xor    eax,eax
    1c58:	66 89 d8             	mov    eax,ebx
    1c5b:	66 5d                	pop    ebp
    1c5d:	66 59                	pop    ecx
    1c5f:	ff e1                	jmp    cx

00001c61 <_fork>:
    1c61:	60                   	pusha  
    1c62:	b4 08                	mov    ah,0x8
    1c64:	cd 21                	int    0x21
    1c66:	61                   	popa   
    1c67:	c3                   	ret    

00001c68 <_exitprg>:
    1c68:	66 55                	push   ebp
    1c6a:	66 89 e5             	mov    ebp,esp
    1c6d:	60                   	pusha  
    1c6e:	36 67 8b 5d 08       	mov    bx,WORD PTR ss:[ebp+0x8]
    1c73:	b4 06                	mov    ah,0x6
    1c75:	cd 21                	int    0x21
    1c77:	61                   	popa   
    1c78:	66 89 ec             	mov    esp,ebp
    1c7b:	66 5d                	pop    ebp
    1c7d:	c3                   	ret    

00001c7e <_wait>:
    1c7e:	66 55                	push   ebp
    1c80:	66 89 e5             	mov    ebp,esp
    1c83:	60                   	pusha  
    1c84:	36 67 8b 5d 08       	mov    bx,WORD PTR ss:[ebp+0x8]
    1c89:	b4 07                	mov    ah,0x7
    1c8b:	cd 21                	int    0x21
    1c8d:	61                   	popa   
    1c8e:	66 89 ec             	mov    esp,ebp
    1c91:	66 5d                	pop    ebp
    1c93:	c3                   	ret    

00001c94 <_memcpy>:
    1c94:	66 55                	push   ebp
    1c96:	66 89 e5             	mov    ebp,esp
    1c99:	60                   	pusha  
    1c9a:	1e                   	push   ds
    1c9b:	06                   	push   es
    1c9c:	36 67 8b 45 08       	mov    ax,WORD PTR ss:[ebp+0x8]
    1ca1:	8e d8                	mov    ds,ax
    1ca3:	36 67 8b 75 0c       	mov    si,WORD PTR ss:[ebp+0xc]
    1ca8:	36 67 8b 45 10       	mov    ax,WORD PTR ss:[ebp+0x10]
    1cad:	8e c0                	mov    es,ax
    1caf:	36 67 8b 7d 14       	mov    di,WORD PTR ss:[ebp+0x14]
    1cb4:	36 67 8b 4d 18       	mov    cx,WORD PTR ss:[ebp+0x18]
    1cb9:	f3 a4                	rep movs BYTE PTR es:[di],BYTE PTR ds:[si]
    1cbb:	07                   	pop    es
    1cbc:	1f                   	pop    ds
    1cbd:	61                   	popa   
    1cbe:	66 89 ec             	mov    esp,ebp
    1cc1:	66 5d                	pop    ebp
    1cc3:	66 59                	pop    ecx
    1cc5:	ff e1                	jmp    cx
    1cc7:	66 90                	xchg   eax,eax
    1cc9:	66 90                	xchg   eax,eax
    1ccb:	66 90                	xchg   eax,eax
    1ccd:	66 90                	xchg   eax,eax
    1ccf:	66 90                	xchg   eax,eax
    1cd1:	66 90                	xchg   eax,eax
    1cd3:	66 90                	xchg   eax,eax
    1cd5:	66 90                	xchg   eax,eax
    1cd7:	66 90                	xchg   eax,eax
    1cd9:	66 90                	xchg   eax,eax
    1cdb:	66 90                	xchg   eax,eax
    1cdd:	66 90                	xchg   eax,eax
    1cdf:	90                   	nop

00001ce0 <_countLines>:
countLines():
D:\OneDrive\Study\Operating Systems\实验\project6\codes/./lib/utilsC.c:37
void initialProcessTable();
/////////// inside declarations end ////////////

//////////// IO ////////////////////
int countLines(char * sen)
{
    1ce0:	66 55                	push   ebp
    1ce2:	66 89 e5             	mov    ebp,esp
    1ce5:	66 83 ec 08          	sub    esp,0x8
D:\OneDrive\Study\Operating Systems\实验\project6\codes/./lib/utilsC.c:38
	int lines = 0;
    1ce9:	67 66 c7 45 fc 00 00 	mov    DWORD PTR [ebp-0x4],0x0
    1cf0:	00 00 
D:\OneDrive\Study\Operating Systems\实验\project6\codes/./lib/utilsC.c:39
	for(int i = 0; sen[i]; ++i) {
    1cf2:	67 66 c7 45 f8 00 00 	mov    DWORD PTR [ebp-0x8],0x0
    1cf9:	00 00 
    1cfb:	eb 1e                	jmp    1d1b <_countLines+0x3b>
D:\OneDrive\Study\Operating Systems\实验\project6\codes/./lib/utilsC.c:40
		if(sen[i] == '\n') {
    1cfd:	67 66 8b 55 f8       	mov    edx,DWORD PTR [ebp-0x8]
    1d02:	67 66 8b 45 08       	mov    eax,DWORD PTR [ebp+0x8]
    1d07:	66 01 d0             	add    eax,edx
    1d0a:	67 8a 00             	mov    al,BYTE PTR [eax]
    1d0d:	3c 0a                	cmp    al,0xa
    1d0f:	75 05                	jne    1d16 <_countLines+0x36>
D:\OneDrive\Study\Operating Systems\实验\project6\codes/./lib/utilsC.c:41
			++lines;
    1d11:	67 66 ff 45 fc       	inc    DWORD PTR [ebp-0x4]
D:\OneDrive\Study\Operating Systems\实验\project6\codes/./lib/utilsC.c:39
	for(int i = 0; sen[i]; ++i) {
    1d16:	67 66 ff 45 f8       	inc    DWORD PTR [ebp-0x8]
    1d1b:	67 66 8b 55 f8       	mov    edx,DWORD PTR [ebp-0x8]
    1d20:	67 66 8b 45 08       	mov    eax,DWORD PTR [ebp+0x8]
    1d25:	66 01 d0             	add    eax,edx
    1d28:	67 8a 00             	mov    al,BYTE PTR [eax]
    1d2b:	84 c0                	test   al,al
    1d2d:	75 ce                	jne    1cfd <_countLines+0x1d>
D:\OneDrive\Study\Operating Systems\实验\project6\codes/./lib/utilsC.c:44
		}
	}
	lines += 1;
    1d2f:	67 66 ff 45 fc       	inc    DWORD PTR [ebp-0x4]
D:\OneDrive\Study\Operating Systems\实验\project6\codes/./lib/utilsC.c:45
	return lines;
    1d34:	67 66 8b 45 fc       	mov    eax,DWORD PTR [ebp-0x4]
D:\OneDrive\Study\Operating Systems\实验\project6\codes/./lib/utilsC.c:46
}
    1d39:	66 c9                	leave  
    1d3b:	66 c3                	ret    

00001d3d <_initialScreen>:
initialScreen():
D:\OneDrive\Study\Operating Systems\实验\project6\codes/./lib/utilsC.c:49

void initialScreen(int welcome)
{
    1d3d:	66 55                	push   ebp
    1d3f:	66 89 e5             	mov    ebp,esp
    1d42:	66 83 ec 14          	sub    esp,0x14
D:\OneDrive\Study\Operating Systems\实验\project6\codes/./lib/utilsC.c:50
	clear();
    1d46:	66 e8 d3 00 00 00    	call   1e1f <_clear>
D:\OneDrive\Study\Operating Systems\实验\project6\codes/./lib/utilsC.c:51
	if(welcome) {
    1d4c:	67 66 83 7d 08 00    	cmp    DWORD PTR [ebp+0x8],0x0
    1d52:	74 63                	je     1db7 <_initialScreen+0x7a>
D:\OneDrive\Study\Operating Systems\实验\project6\codes/./lib/utilsC.c:52
		printSentence(WelcomeSentence, line, 0, strlen(WelcomeSentence), white);
    1d54:	66 a1 c8 4e          	mov    eax,ds:0x4ec8
    1d58:	67 66 89 04 24       	mov    DWORD PTR [esp],eax
    1d5d:	66 e8 37 09 00 00    	call   269a <_strlen>
    1d63:	66 89 c1             	mov    ecx,eax
    1d66:	66 8b 16 80 71       	mov    edx,DWORD PTR ds:0x7180
    1d6b:	66 a1 c8 4e          	mov    eax,ds:0x4ec8
    1d6f:	67 66 c7 44 24 10 0f 	mov    DWORD PTR [esp+0x10],0xf
    1d76:	00 00 00 
    1d79:	67 66 89 4c 24 0c    	mov    DWORD PTR [esp+0xc],ecx
    1d7f:	67 66 c7 44 24 08 00 	mov    DWORD PTR [esp+0x8],0x0
    1d86:	00 00 00 
    1d89:	67 66 89 54 24 04    	mov    DWORD PTR [esp+0x4],edx
    1d8f:	67 66 89 04 24       	mov    DWORD PTR [esp],eax
    1d94:	66 e8 c1 f3 ff ff    	call   115b <_printSentence>
D:\OneDrive\Study\Operating Systems\实验\project6\codes/./lib/utilsC.c:53
		line += countLines(WelcomeSentence);
    1d9a:	66 a1 c8 4e          	mov    eax,ds:0x4ec8
    1d9e:	67 66 89 04 24       	mov    DWORD PTR [esp],eax
    1da3:	66 e8 37 ff ff ff    	call   1ce0 <_countLines>
    1da9:	66 89 c2             	mov    edx,eax
    1dac:	66 a1 80 71          	mov    eax,ds:0x7180
    1db0:	66 01 d0             	add    eax,edx
    1db3:	66 a3 80 71          	mov    ds:0x7180,eax
D:\OneDrive\Study\Operating Systems\实验\project6\codes/./lib/utilsC.c:55
	}
	printSentence(prompt, line, 0, strlen(prompt), white);
    1db7:	66 a1 cc 4e          	mov    eax,ds:0x4ecc
    1dbb:	67 66 89 04 24       	mov    DWORD PTR [esp],eax
    1dc0:	66 e8 d4 08 00 00    	call   269a <_strlen>
    1dc6:	66 89 c1             	mov    ecx,eax
    1dc9:	66 8b 16 80 71       	mov    edx,DWORD PTR ds:0x7180
    1dce:	66 a1 cc 4e          	mov    eax,ds:0x4ecc
    1dd2:	67 66 c7 44 24 10 0f 	mov    DWORD PTR [esp+0x10],0xf
    1dd9:	00 00 00 
    1ddc:	67 66 89 4c 24 0c    	mov    DWORD PTR [esp+0xc],ecx
    1de2:	67 66 c7 44 24 08 00 	mov    DWORD PTR [esp+0x8],0x0
    1de9:	00 00 00 
    1dec:	67 66 89 54 24 04    	mov    DWORD PTR [esp+0x4],edx
    1df2:	67 66 89 04 24       	mov    DWORD PTR [esp],eax
    1df7:	66 e8 5e f3 ff ff    	call   115b <_printSentence>
D:\OneDrive\Study\Operating Systems\实验\project6\codes/./lib/utilsC.c:56
	line += countLines(prompt);
    1dfd:	66 a1 cc 4e          	mov    eax,ds:0x4ecc
    1e01:	67 66 89 04 24       	mov    DWORD PTR [esp],eax
    1e06:	66 e8 d4 fe ff ff    	call   1ce0 <_countLines>
    1e0c:	66 89 c2             	mov    edx,eax
    1e0f:	66 a1 80 71          	mov    eax,ds:0x7180
    1e13:	66 01 d0             	add    eax,edx
    1e16:	66 a3 80 71          	mov    ds:0x7180,eax
D:\OneDrive\Study\Operating Systems\实验\project6\codes/./lib/utilsC.c:57
}
    1e1a:	90                   	nop
    1e1b:	66 c9                	leave  
    1e1d:	66 c3                	ret    

00001e1f <_clear>:
clear():
D:\OneDrive\Study\Operating Systems\实验\project6\codes/./lib/utilsC.c:60

void clear()
{
    1e1f:	66 55                	push   ebp
    1e21:	66 89 e5             	mov    ebp,esp
D:\OneDrive\Study\Operating Systems\实验\project6\codes/./lib/utilsC.c:61
	line = 0;
    1e24:	66 c7 06 80 71 00 00 	mov    DWORD PTR ds:0x7180,0x0
    1e2b:	00 00 
D:\OneDrive\Study\Operating Systems\实验\project6\codes/./lib/utilsC.c:62
	ClearScreen();
    1e2d:	66 e8 53 f3 ff ff    	call   1186 <_ClearScreen>
D:\OneDrive\Study\Operating Systems\实验\project6\codes/./lib/utilsC.c:63
}
    1e33:	90                   	nop
    1e34:	66 5d                	pop    ebp
    1e36:	66 c3                	ret    

00001e38 <_date>:
date():
D:\OneDrive\Study\Operating Systems\实验\project6\codes/./lib/utilsC.c:66

void date()
{
    1e38:	66 55                	push   ebp
    1e3a:	66 89 e5             	mov    ebp,esp
    1e3d:	66 83 ec 18          	sub    esp,0x18
D:\OneDrive\Study\Operating Systems\实验\project6\codes/./lib/utilsC.c:67
	char * dateSen = getDate();
    1e41:	66 e8 fa f5 ff ff    	call   1441 <_getDate>
    1e47:	67 66 89 45 fc       	mov    DWORD PTR [ebp-0x4],eax
D:\OneDrive\Study\Operating Systems\实验\project6\codes/./lib/utilsC.c:68
	printSentence(dateSen, line, 30, strlen(dateSen), purple);
    1e4c:	67 66 8b 45 fc       	mov    eax,DWORD PTR [ebp-0x4]
    1e51:	67 66 89 04 24       	mov    DWORD PTR [esp],eax
    1e56:	66 e8 3e 08 00 00    	call   269a <_strlen>
    1e5c:	66 89 c2             	mov    edx,eax
    1e5f:	66 a1 80 71          	mov    eax,ds:0x7180
    1e63:	67 66 c7 44 24 10 0d 	mov    DWORD PTR [esp+0x10],0xd
    1e6a:	00 00 00 
    1e6d:	67 66 89 54 24 0c    	mov    DWORD PTR [esp+0xc],edx
    1e73:	67 66 c7 44 24 08 1e 	mov    DWORD PTR [esp+0x8],0x1e
    1e7a:	00 00 00 
    1e7d:	67 66 89 44 24 04    	mov    DWORD PTR [esp+0x4],eax
    1e83:	67 66 8b 45 fc       	mov    eax,DWORD PTR [ebp-0x4]
    1e88:	67 66 89 04 24       	mov    DWORD PTR [esp],eax
    1e8d:	66 e8 c8 f2 ff ff    	call   115b <_printSentence>
D:\OneDrive\Study\Operating Systems\实验\project6\codes/./lib/utilsC.c:69
	newline();
    1e93:	66 e8 c3 00 00 00    	call   1f5c <_newline>
D:\OneDrive\Study\Operating Systems\实验\project6\codes/./lib/utilsC.c:70
	line += countLines(dateSen);
    1e99:	67 66 8b 45 fc       	mov    eax,DWORD PTR [ebp-0x4]
    1e9e:	67 66 89 04 24       	mov    DWORD PTR [esp],eax
    1ea3:	66 e8 37 fe ff ff    	call   1ce0 <_countLines>
    1ea9:	66 89 c2             	mov    edx,eax
    1eac:	66 a1 80 71          	mov    eax,ds:0x7180
    1eb0:	66 01 d0             	add    eax,edx
    1eb3:	66 a3 80 71          	mov    ds:0x7180,eax
D:\OneDrive\Study\Operating Systems\实验\project6\codes/./lib/utilsC.c:71
}
    1eb7:	90                   	nop
    1eb8:	66 c9                	leave  
    1eba:	66 c3                	ret    

00001ebc <_man>:
man():
D:\OneDrive\Study\Operating Systems\实验\project6\codes/./lib/utilsC.c:75


void man()
{
    1ebc:	66 55                	push   ebp
    1ebe:	66 89 e5             	mov    ebp,esp
    1ec1:	66 83 ec 18          	sub    esp,0x18
D:\OneDrive\Study\Operating Systems\实验\project6\codes/./lib/utilsC.c:76
	char * manual = getRecords(segOfOs, offsetOfManual);
    1ec5:	67 66 c7 44 24 04 00 	mov    DWORD PTR [esp+0x4],0xd500
    1ecc:	d5 00 00 
    1ecf:	67 66 c7 04 24 00 20 	mov    DWORD PTR [esp],0x2000
    1ed6:	00 00 
    1ed8:	66 e8 63 fd ff ff    	call   1c41 <_getRecords>
    1ede:	67 66 89 45 fc       	mov    DWORD PTR [ebp-0x4],eax
D:\OneDrive\Study\Operating Systems\实验\project6\codes/./lib/utilsC.c:77
	line = 0;
    1ee3:	66 c7 06 80 71 00 00 	mov    DWORD PTR ds:0x7180,0x0
    1eea:	00 00 
D:\OneDrive\Study\Operating Systems\实验\project6\codes/./lib/utilsC.c:78
	ClearScreen();
    1eec:	66 e8 94 f2 ff ff    	call   1186 <_ClearScreen>
D:\OneDrive\Study\Operating Systems\实验\project6\codes/./lib/utilsC.c:79
	printSentence(manual, line, 0, strlen(manual), purple);
    1ef2:	67 66 8b 45 fc       	mov    eax,DWORD PTR [ebp-0x4]
    1ef7:	67 66 89 04 24       	mov    DWORD PTR [esp],eax
    1efc:	66 e8 98 07 00 00    	call   269a <_strlen>
    1f02:	66 89 c2             	mov    edx,eax
    1f05:	66 a1 80 71          	mov    eax,ds:0x7180
    1f09:	67 66 c7 44 24 10 0d 	mov    DWORD PTR [esp+0x10],0xd
    1f10:	00 00 00 
    1f13:	67 66 89 54 24 0c    	mov    DWORD PTR [esp+0xc],edx
    1f19:	67 66 c7 44 24 08 00 	mov    DWORD PTR [esp+0x8],0x0
    1f20:	00 00 00 
    1f23:	67 66 89 44 24 04    	mov    DWORD PTR [esp+0x4],eax
    1f29:	67 66 8b 45 fc       	mov    eax,DWORD PTR [ebp-0x4]
    1f2e:	67 66 89 04 24       	mov    DWORD PTR [esp],eax
    1f33:	66 e8 22 f2 ff ff    	call   115b <_printSentence>
D:\OneDrive\Study\Operating Systems\实验\project6\codes/./lib/utilsC.c:80
	line += countLines(manual);
    1f39:	67 66 8b 45 fc       	mov    eax,DWORD PTR [ebp-0x4]
    1f3e:	67 66 89 04 24       	mov    DWORD PTR [esp],eax
    1f43:	66 e8 97 fd ff ff    	call   1ce0 <_countLines>
    1f49:	66 89 c2             	mov    edx,eax
    1f4c:	66 a1 80 71          	mov    eax,ds:0x7180
    1f50:	66 01 d0             	add    eax,edx
    1f53:	66 a3 80 71          	mov    ds:0x7180,eax
D:\OneDrive\Study\Operating Systems\实验\project6\codes/./lib/utilsC.c:81
}
    1f57:	90                   	nop
    1f58:	66 c9                	leave  
    1f5a:	66 c3                	ret    

00001f5c <_newline>:
newline():
D:\OneDrive\Study\Operating Systems\实验\project6\codes/./lib/utilsC.c:84

void newline()
{
    1f5c:	66 55                	push   ebp
    1f5e:	66 89 e5             	mov    ebp,esp
    1f61:	66 83 ec 14          	sub    esp,0x14
D:\OneDrive\Study\Operating Systems\实验\project6\codes/./lib/utilsC.c:85
	if(line >= 25) {
    1f65:	66 a1 80 71          	mov    eax,ds:0x7180
    1f69:	66 83 f8 18          	cmp    eax,0x18
    1f6d:	7e 0f                	jle    1f7e <_newline+0x22>
D:\OneDrive\Study\Operating Systems\实验\project6\codes/./lib/utilsC.c:86
		roll();
    1f6f:	66 e8 36 f5 ff ff    	call   14ab <_roll>
D:\OneDrive\Study\Operating Systems\实验\project6\codes/./lib/utilsC.c:87
		line = 24;
    1f75:	66 c7 06 80 71 18 00 	mov    DWORD PTR ds:0x7180,0x18
    1f7c:	00 00 
D:\OneDrive\Study\Operating Systems\实验\project6\codes/./lib/utilsC.c:89
	}
	printSentence(prompt, line, 0, strlen(prompt), white);
    1f7e:	66 a1 cc 4e          	mov    eax,ds:0x4ecc
    1f82:	67 66 89 04 24       	mov    DWORD PTR [esp],eax
    1f87:	66 e8 0d 07 00 00    	call   269a <_strlen>
    1f8d:	66 89 c1             	mov    ecx,eax
    1f90:	66 8b 16 80 71       	mov    edx,DWORD PTR ds:0x7180
    1f95:	66 a1 cc 4e          	mov    eax,ds:0x4ecc
    1f99:	67 66 c7 44 24 10 0f 	mov    DWORD PTR [esp+0x10],0xf
    1fa0:	00 00 00 
    1fa3:	67 66 89 4c 24 0c    	mov    DWORD PTR [esp+0xc],ecx
    1fa9:	67 66 c7 44 24 08 00 	mov    DWORD PTR [esp+0x8],0x0
    1fb0:	00 00 00 
    1fb3:	67 66 89 54 24 04    	mov    DWORD PTR [esp+0x4],edx
    1fb9:	67 66 89 04 24       	mov    DWORD PTR [esp],eax
    1fbe:	66 e8 97 f1 ff ff    	call   115b <_printSentence>
D:\OneDrive\Study\Operating Systems\实验\project6\codes/./lib/utilsC.c:90
	line += countLines(prompt);
    1fc4:	66 a1 cc 4e          	mov    eax,ds:0x4ecc
    1fc8:	67 66 89 04 24       	mov    DWORD PTR [esp],eax
    1fcd:	66 e8 0d fd ff ff    	call   1ce0 <_countLines>
    1fd3:	66 89 c2             	mov    edx,eax
    1fd6:	66 a1 80 71          	mov    eax,ds:0x7180
    1fda:	66 01 d0             	add    eax,edx
    1fdd:	66 a3 80 71          	mov    ds:0x7180,eax
D:\OneDrive\Study\Operating Systems\实验\project6\codes/./lib/utilsC.c:91
}
    1fe1:	90                   	nop
    1fe2:	66 c9                	leave  
    1fe4:	66 c3                	ret    

00001fe6 <_ls>:
ls():
D:\OneDrive\Study\Operating Systems\实验\project6\codes/./lib/utilsC.c:94

void ls()
{
    1fe6:	66 55                	push   ebp
    1fe8:	66 89 e5             	mov    ebp,esp
    1feb:	66 57                	push   edi
    1fed:	66 53                	push   ebx
    1fef:	66 83 ec 38          	sub    esp,0x38
D:\OneDrive\Study\Operating Systems\实验\project6\codes/./lib/utilsC.c:95
	char * head = "Name           Size           Lma            Type";
    1ff3:	67 66 c7 45 f0 70 50 	mov    DWORD PTR [ebp-0x10],0x5070
    1ffa:	00 00 
D:\OneDrive\Study\Operating Systems\实验\project6\codes/./lib/utilsC.c:96
	printSentence(head, line, 10, strlen(head), green);
    1ffc:	67 66 8b 45 f0       	mov    eax,DWORD PTR [ebp-0x10]
    2001:	67 66 89 04 24       	mov    DWORD PTR [esp],eax
    2006:	66 e8 8e 06 00 00    	call   269a <_strlen>
    200c:	66 89 c2             	mov    edx,eax
    200f:	66 a1 80 71          	mov    eax,ds:0x7180
    2013:	67 66 c7 44 24 10 0a 	mov    DWORD PTR [esp+0x10],0xa
    201a:	00 00 00 
    201d:	67 66 89 54 24 0c    	mov    DWORD PTR [esp+0xc],edx
    2023:	67 66 c7 44 24 08 0a 	mov    DWORD PTR [esp+0x8],0xa
    202a:	00 00 00 
    202d:	67 66 89 44 24 04    	mov    DWORD PTR [esp+0x4],eax
    2033:	67 66 8b 45 f0       	mov    eax,DWORD PTR [ebp-0x10]
    2038:	67 66 89 04 24       	mov    DWORD PTR [esp],eax
    203d:	66 e8 18 f1 ff ff    	call   115b <_printSentence>
D:\OneDrive\Study\Operating Systems\实验\project6\codes/./lib/utilsC.c:97
	char typeTable[10][1] = {"N", "D", "E", "F"};
    2043:	67 66 8d 55 e6       	lea    edx,[ebp-0x1a]
    2048:	66 b9 0a 00 00 00    	mov    ecx,0xa
    204e:	b0 00                	mov    al,0x0
    2050:	66 89 d7             	mov    edi,edx
    2053:	f3 aa                	rep stos BYTE PTR es:[di],al
    2055:	67 c6 45 e6 4e       	mov    BYTE PTR [ebp-0x1a],0x4e
    205a:	67 c6 45 e7 44       	mov    BYTE PTR [ebp-0x19],0x44
    205f:	67 c6 45 e8 45       	mov    BYTE PTR [ebp-0x18],0x45
    2064:	67 c6 45 e9 46       	mov    BYTE PTR [ebp-0x17],0x46
D:\OneDrive\Study\Operating Systems\实验\project6\codes/./lib/utilsC.c:98
	line += countLines(head);
    2069:	67 66 8b 45 f0       	mov    eax,DWORD PTR [ebp-0x10]
    206e:	67 66 89 04 24       	mov    DWORD PTR [esp],eax
    2073:	66 e8 67 fc ff ff    	call   1ce0 <_countLines>
    2079:	66 89 c2             	mov    edx,eax
    207c:	66 a1 80 71          	mov    eax,ds:0x7180
    2080:	66 01 d0             	add    eax,edx
    2083:	66 a3 80 71          	mov    ds:0x7180,eax
D:\OneDrive\Study\Operating Systems\实验\project6\codes/./lib/utilsC.c:100
	char tmp[15];
	for(int i = 0; i < Len; ++i) 
    2087:	67 66 c7 45 f4 00 00 	mov    DWORD PTR [ebp-0xc],0x0
    208e:	00 00 
    2090:	e9 3f 02             	jmp    22d2 <segOfOs+0x2d2>
D:\OneDrive\Study\Operating Systems\实验\project6\codes/./lib/utilsC.c:102
	{
		if(information[i].type != null && information[i].deleted != 1) {
    2093:	67 66 8b 55 f4       	mov    edx,DWORD PTR [ebp-0xc]
    2098:	66 89 d0             	mov    eax,edx
    209b:	66 01 c0             	add    eax,eax
    209e:	66 01 d0             	add    eax,edx
    20a1:	66 c1 e0 02          	shl    eax,0x2
    20a5:	66 01 d0             	add    eax,edx
    20a8:	66 c1 e0 02          	shl    eax,0x2
    20ac:	66 05 c0 77 00 00    	add    eax,0x77c0
    20b2:	67 66 8b 00          	mov    eax,DWORD PTR [eax]
    20b6:	66 85 c0             	test   eax,eax
    20b9:	0f 84 10 02          	je     22cd <segOfOs+0x2cd>
    20bd:	67 66 8b 55 f4       	mov    edx,DWORD PTR [ebp-0xc]
    20c2:	66 89 d0             	mov    eax,edx
    20c5:	66 01 c0             	add    eax,eax
    20c8:	66 01 d0             	add    eax,edx
    20cb:	66 c1 e0 02          	shl    eax,0x2
    20cf:	66 01 d0             	add    eax,edx
    20d2:	66 c1 e0 02          	shl    eax,0x2
    20d6:	66 05 cc 77 00 00    	add    eax,0x77cc
    20dc:	67 66 8b 00          	mov    eax,DWORD PTR [eax]
    20e0:	66 83 f8 01          	cmp    eax,0x1
    20e4:	0f 84 e5 01          	je     22cd <segOfOs+0x2cd>
D:\OneDrive\Study\Operating Systems\实验\project6\codes/./lib/utilsC.c:103
			printSentence(information[i].name, line, 10, strlen(information[i].name), purple);
    20e8:	67 66 8b 55 f4       	mov    edx,DWORD PTR [ebp-0xc]
    20ed:	66 89 d0             	mov    eax,edx
    20f0:	66 01 c0             	add    eax,eax
    20f3:	66 01 d0             	add    eax,edx
    20f6:	66 c1 e0 02          	shl    eax,0x2
    20fa:	66 01 d0             	add    eax,edx
    20fd:	66 c1 e0 02          	shl    eax,0x2
    2101:	66 05 a0 77 00 00    	add    eax,0x77a0
    2107:	67 66 89 04 24       	mov    DWORD PTR [esp],eax
    210c:	66 e8 88 05 00 00    	call   269a <_strlen>
    2112:	66 89 c3             	mov    ebx,eax
    2115:	66 8b 0e 80 71       	mov    ecx,DWORD PTR ds:0x7180
    211a:	67 66 8b 55 f4       	mov    edx,DWORD PTR [ebp-0xc]
    211f:	66 89 d0             	mov    eax,edx
    2122:	66 01 c0             	add    eax,eax
    2125:	66 01 d0             	add    eax,edx
    2128:	66 c1 e0 02          	shl    eax,0x2
    212c:	66 01 d0             	add    eax,edx
    212f:	66 c1 e0 02          	shl    eax,0x2
    2133:	66 05 a0 77 00 00    	add    eax,0x77a0
    2139:	67 66 c7 44 24 10 0d 	mov    DWORD PTR [esp+0x10],0xd
    2140:	00 00 00 
    2143:	67 66 89 5c 24 0c    	mov    DWORD PTR [esp+0xc],ebx
    2149:	67 66 c7 44 24 08 0a 	mov    DWORD PTR [esp+0x8],0xa
    2150:	00 00 00 
    2153:	67 66 89 4c 24 04    	mov    DWORD PTR [esp+0x4],ecx
    2159:	67 66 89 04 24       	mov    DWORD PTR [esp],eax
    215e:	66 e8 f7 ef ff ff    	call   115b <_printSentence>
D:\OneDrive\Study\Operating Systems\实验\project6\codes/./lib/utilsC.c:104
			int2str(information[i].size, tmp);
    2164:	67 66 8b 55 f4       	mov    edx,DWORD PTR [ebp-0xc]
    2169:	66 89 d0             	mov    eax,edx
    216c:	66 01 c0             	add    eax,eax
    216f:	66 01 d0             	add    eax,edx
    2172:	66 c1 e0 02          	shl    eax,0x2
    2176:	66 01 d0             	add    eax,edx
    2179:	66 c1 e0 02          	shl    eax,0x2
    217d:	66 05 c8 77 00 00    	add    eax,0x77c8
    2183:	67 66 8b 00          	mov    eax,DWORD PTR [eax]
    2187:	67 66 8d 55 d7       	lea    edx,[ebp-0x29]
    218c:	67 66 89 54 24 04    	mov    DWORD PTR [esp+0x4],edx
    2192:	67 66 89 04 24       	mov    DWORD PTR [esp],eax
    2197:	66 e8 52 07 00 00    	call   28ef <_int2str>
D:\OneDrive\Study\Operating Systems\实验\project6\codes/./lib/utilsC.c:105
			printSentence(tmp, line, 25, strlen(tmp), purple);
    219d:	67 66 8d 45 d7       	lea    eax,[ebp-0x29]
    21a2:	67 66 89 04 24       	mov    DWORD PTR [esp],eax
    21a7:	66 e8 ed 04 00 00    	call   269a <_strlen>
    21ad:	66 89 c2             	mov    edx,eax
    21b0:	66 a1 80 71          	mov    eax,ds:0x7180
    21b4:	67 66 c7 44 24 10 0d 	mov    DWORD PTR [esp+0x10],0xd
    21bb:	00 00 00 
    21be:	67 66 89 54 24 0c    	mov    DWORD PTR [esp+0xc],edx
    21c4:	67 66 c7 44 24 08 19 	mov    DWORD PTR [esp+0x8],0x19
    21cb:	00 00 00 
    21ce:	67 66 89 44 24 04    	mov    DWORD PTR [esp+0x4],eax
    21d4:	67 66 8d 45 d7       	lea    eax,[ebp-0x29]
    21d9:	67 66 89 04 24       	mov    DWORD PTR [esp],eax
    21de:	66 e8 77 ef ff ff    	call   115b <_printSentence>
D:\OneDrive\Study\Operating Systems\实验\project6\codes/./lib/utilsC.c:106
			int2str(information[i].lmaddress, tmp);
    21e4:	67 66 8b 55 f4       	mov    edx,DWORD PTR [ebp-0xc]
    21e9:	66 89 d0             	mov    eax,edx
    21ec:	66 01 c0             	add    eax,eax
    21ef:	66 01 d0             	add    eax,edx
    21f2:	66 c1 e0 02          	shl    eax,0x2
    21f6:	66 01 d0             	add    eax,edx
    21f9:	66 c1 e0 02          	shl    eax,0x2
    21fd:	66 05 c4 77 00 00    	add    eax,0x77c4
    2203:	67 66 8b 00          	mov    eax,DWORD PTR [eax]
    2207:	67 66 8d 55 d7       	lea    edx,[ebp-0x29]
    220c:	67 66 89 54 24 04    	mov    DWORD PTR [esp+0x4],edx
    2212:	67 66 89 04 24       	mov    DWORD PTR [esp],eax
    2217:	66 e8 d2 06 00 00    	call   28ef <_int2str>
D:\OneDrive\Study\Operating Systems\实验\project6\codes/./lib/utilsC.c:107
			printSentence(tmp, line, 40, strlen(tmp), purple);
    221d:	67 66 8d 45 d7       	lea    eax,[ebp-0x29]
    2222:	67 66 89 04 24       	mov    DWORD PTR [esp],eax
    2227:	66 e8 6d 04 00 00    	call   269a <_strlen>
    222d:	66 89 c2             	mov    edx,eax
    2230:	66 a1 80 71          	mov    eax,ds:0x7180
    2234:	67 66 c7 44 24 10 0d 	mov    DWORD PTR [esp+0x10],0xd
    223b:	00 00 00 
    223e:	67 66 89 54 24 0c    	mov    DWORD PTR [esp+0xc],edx
    2244:	67 66 c7 44 24 08 28 	mov    DWORD PTR [esp+0x8],0x28
    224b:	00 00 00 
    224e:	67 66 89 44 24 04    	mov    DWORD PTR [esp+0x4],eax
    2254:	67 66 8d 45 d7       	lea    eax,[ebp-0x29]
    2259:	67 66 89 04 24       	mov    DWORD PTR [esp],eax
    225e:	66 e8 f7 ee ff ff    	call   115b <_printSentence>
D:\OneDrive\Study\Operating Systems\实验\project6\codes/./lib/utilsC.c:108
			printSentence(typeTable[information[i].type], line, 55, 1, purple);
    2264:	66 8b 0e 80 71       	mov    ecx,DWORD PTR ds:0x7180
    2269:	67 66 8b 55 f4       	mov    edx,DWORD PTR [ebp-0xc]
    226e:	66 89 d0             	mov    eax,edx
    2271:	66 01 c0             	add    eax,eax
    2274:	66 01 d0             	add    eax,edx
    2277:	66 c1 e0 02          	shl    eax,0x2
    227b:	66 01 d0             	add    eax,edx
    227e:	66 c1 e0 02          	shl    eax,0x2
    2282:	66 05 c0 77 00 00    	add    eax,0x77c0
    2288:	67 66 8b 00          	mov    eax,DWORD PTR [eax]
    228c:	67 66 8d 55 e6       	lea    edx,[ebp-0x1a]
    2291:	66 01 d0             	add    eax,edx
    2294:	67 66 c7 44 24 10 0d 	mov    DWORD PTR [esp+0x10],0xd
    229b:	00 00 00 
    229e:	67 66 c7 44 24 0c 01 	mov    DWORD PTR [esp+0xc],0x1
    22a5:	00 00 00 
    22a8:	67 66 c7 44 24 08 37 	mov    DWORD PTR [esp+0x8],0x37
    22af:	00 00 00 
    22b2:	67 66 89 4c 24 04    	mov    DWORD PTR [esp+0x4],ecx
    22b8:	67 66 89 04 24       	mov    DWORD PTR [esp],eax
    22bd:	66 e8 98 ee ff ff    	call   115b <_printSentence>
D:\OneDrive\Study\Operating Systems\实验\project6\codes/./lib/utilsC.c:109
			line += 1;
    22c3:	66 a1 80 71          	mov    eax,ds:0x7180
    22c7:	66 40                	inc    eax
    22c9:	66 a3 80 71          	mov    ds:0x7180,eax
D:\OneDrive\Study\Operating Systems\实验\project6\codes/./lib/utilsC.c:100
	for(int i = 0; i < Len; ++i) 
    22cd:	67 66 ff 45 f4       	inc    DWORD PTR [ebp-0xc]
    22d2:	67 66 83 7d f4 31    	cmp    DWORD PTR [ebp-0xc],0x31
    22d8:	0f 8e b7 fd          	jle    2093 <segOfOs+0x93>
D:\OneDrive\Study\Operating Systems\实验\project6\codes/./lib/utilsC.c:112
		}
	}
}
    22dc:	90                   	nop
    22dd:	66 83 c4 38          	add    esp,0x38
    22e1:	66 5b                	pop    ebx
    22e3:	66 5f                	pop    edi
    22e5:	66 5d                	pop    ebp
    22e7:	66 c3                	ret    

000022e9 <_ps>:
ps():
D:\OneDrive\Study\Operating Systems\实验\project6\codes/./lib/utilsC.c:115

void ps()
{
    22e9:	66 55                	push   ebp
    22eb:	66 89 e5             	mov    ebp,esp
    22ee:	66 57                	push   edi
    22f0:	66 56                	push   esi
    22f2:	66 53                	push   ebx
    22f4:	66 83 ec 7c          	sub    esp,0x7c
D:\OneDrive\Study\Operating Systems\实验\project6\codes/./lib/utilsC.c:116
	char * head = "Id  ProcessName       Status\n";
    22f8:	67 66 c7 45 ec a2 50 	mov    DWORD PTR [ebp-0x14],0x50a2
    22ff:	00 00 
D:\OneDrive\Study\Operating Systems\实验\project6\codes/./lib/utilsC.c:117
	char status[6][10] = {"Origin", "ready", "running", "blocked", "suspend", "exit"};
    2301:	67 66 8d 45 ac       	lea    eax,[ebp-0x54]
    2306:	66 bb e0 4e 00 00    	mov    ebx,0x4ee0
    230c:	66 ba 0f 00 00 00    	mov    edx,0xf
    2312:	66 89 c7             	mov    edi,eax
    2315:	66 89 de             	mov    esi,ebx
    2318:	66 89 d1             	mov    ecx,edx
    231b:	66 f3 a5             	rep movs DWORD PTR es:[di],DWORD PTR ds:[si]
D:\OneDrive\Study\Operating Systems\实验\project6\codes/./lib/utilsC.c:118
	int begin = 20;
    231e:	67 66 c7 45 e8 14 00 	mov    DWORD PTR [ebp-0x18],0x14
    2325:	00 00 
D:\OneDrive\Study\Operating Systems\实验\project6\codes/./lib/utilsC.c:119
	printSentence(head, line++, begin, strlen(head), purple);
    2327:	67 66 8b 45 ec       	mov    eax,DWORD PTR [ebp-0x14]
    232c:	67 66 89 04 24       	mov    DWORD PTR [esp],eax
    2331:	66 e8 63 03 00 00    	call   269a <_strlen>
    2337:	66 89 c2             	mov    edx,eax
    233a:	66 a1 80 71          	mov    eax,ds:0x7180
    233e:	67 66 8d 48 01       	lea    ecx,[eax+0x1]
    2343:	66 89 0e 80 71       	mov    DWORD PTR ds:0x7180,ecx
    2348:	67 66 c7 44 24 10 0d 	mov    DWORD PTR [esp+0x10],0xd
    234f:	00 00 00 
    2352:	67 66 89 54 24 0c    	mov    DWORD PTR [esp+0xc],edx
    2358:	67 66 8b 55 e8       	mov    edx,DWORD PTR [ebp-0x18]
    235d:	67 66 89 54 24 08    	mov    DWORD PTR [esp+0x8],edx
    2363:	67 66 89 44 24 04    	mov    DWORD PTR [esp+0x4],eax
    2369:	67 66 8b 45 ec       	mov    eax,DWORD PTR [ebp-0x14]
    236e:	67 66 89 04 24       	mov    DWORD PTR [esp],eax
    2373:	66 e8 e2 ed ff ff    	call   115b <_printSentence>
D:\OneDrive\Study\Operating Systems\实验\project6\codes/./lib/utilsC.c:121
	char str[30];
	for (int i = 0; i < Len; ++i)
    2379:	67 66 c7 45 f0 00 00 	mov    DWORD PTR [ebp-0x10],0x0
    2380:	00 00 
    2382:	e9 fe 01             	jmp    2583 <_ps+0x29a>
D:\OneDrive\Study\Operating Systems\实验\project6\codes/./lib/utilsC.c:123
	{
		if(processTable[i].id != -1 && processTable[i].status != Origin)
    2385:	67 66 8b 55 f0       	mov    edx,DWORD PTR [ebp-0x10]
    238a:	66 89 d0             	mov    eax,edx
    238d:	66 01 c0             	add    eax,eax
    2390:	66 01 d0             	add    eax,edx
    2393:	66 c1 e0 05          	shl    eax,0x5
    2397:	66 05 04 82 00 00    	add    eax,0x8204
    239d:	67 66 8b 00          	mov    eax,DWORD PTR [eax]
    23a1:	66 83 f8 ff          	cmp    eax,0xffffffff
    23a5:	0f 84 d5 01          	je     257e <_ps+0x295>
    23a9:	67 66 8b 55 f0       	mov    edx,DWORD PTR [ebp-0x10]
    23ae:	66 89 d0             	mov    eax,edx
    23b1:	66 01 c0             	add    eax,eax
    23b4:	66 01 d0             	add    eax,edx
    23b7:	66 c1 e0 05          	shl    eax,0x5
    23bb:	66 05 3c 82 00 00    	add    eax,0x823c
    23c1:	67 66 8b 00          	mov    eax,DWORD PTR [eax]
    23c5:	66 85 c0             	test   eax,eax
    23c8:	0f 84 b2 01          	je     257e <_ps+0x295>
D:\OneDrive\Study\Operating Systems\实验\project6\codes/./lib/utilsC.c:125
		{
			int2str(processTable[i].id, str);
    23cc:	67 66 8b 55 f0       	mov    edx,DWORD PTR [ebp-0x10]
    23d1:	66 89 d0             	mov    eax,edx
    23d4:	66 01 c0             	add    eax,eax
    23d7:	66 01 d0             	add    eax,edx
    23da:	66 c1 e0 05          	shl    eax,0x5
    23de:	66 05 04 82 00 00    	add    eax,0x8204
    23e4:	67 66 8b 00          	mov    eax,DWORD PTR [eax]
    23e8:	67 66 8d 55 8e       	lea    edx,[ebp-0x72]
    23ed:	67 66 89 54 24 04    	mov    DWORD PTR [esp+0x4],edx
    23f3:	67 66 89 04 24       	mov    DWORD PTR [esp],eax
    23f8:	66 e8 f1 04 00 00    	call   28ef <_int2str>
D:\OneDrive\Study\Operating Systems\实验\project6\codes/./lib/utilsC.c:126
			printSentence(str, line, begin+1, strlen(str), purple);
    23fe:	67 66 8d 45 8e       	lea    eax,[ebp-0x72]
    2403:	67 66 89 04 24       	mov    DWORD PTR [esp],eax
    2408:	66 e8 8c 02 00 00    	call   269a <_strlen>
    240e:	66 89 c2             	mov    edx,eax
    2411:	67 66 8b 45 e8       	mov    eax,DWORD PTR [ebp-0x18]
    2416:	67 66 8d 48 01       	lea    ecx,[eax+0x1]
    241b:	66 a1 80 71          	mov    eax,ds:0x7180
    241f:	67 66 c7 44 24 10 0d 	mov    DWORD PTR [esp+0x10],0xd
    2426:	00 00 00 
    2429:	67 66 89 54 24 0c    	mov    DWORD PTR [esp+0xc],edx
    242f:	67 66 89 4c 24 08    	mov    DWORD PTR [esp+0x8],ecx
    2435:	67 66 89 44 24 04    	mov    DWORD PTR [esp+0x4],eax
    243b:	67 66 8d 45 8e       	lea    eax,[ebp-0x72]
    2440:	67 66 89 04 24       	mov    DWORD PTR [esp],eax
    2445:	66 e8 10 ed ff ff    	call   115b <_printSentence>
D:\OneDrive\Study\Operating Systems\实验\project6\codes/./lib/utilsC.c:127
			printSentence(processTable[i].name, line, begin+5, strlen(processTable[i].name), purple);
    244b:	67 66 8b 55 f0       	mov    edx,DWORD PTR [ebp-0x10]
    2450:	66 89 d0             	mov    eax,edx
    2453:	66 01 c0             	add    eax,eax
    2456:	66 01 d0             	add    eax,edx
    2459:	66 c1 e0 05          	shl    eax,0x5
    245d:	66 83 c0 20          	add    eax,0x20
    2461:	66 05 e0 81 00 00    	add    eax,0x81e0
    2467:	66 83 c0 0c          	add    eax,0xc
    246b:	67 66 89 04 24       	mov    DWORD PTR [esp],eax
    2470:	66 e8 24 02 00 00    	call   269a <_strlen>
    2476:	66 89 c1             	mov    ecx,eax
    2479:	67 66 8b 45 e8       	mov    eax,DWORD PTR [ebp-0x18]
    247e:	67 66 8d 70 05       	lea    esi,[eax+0x5]
    2483:	66 8b 16 80 71       	mov    edx,DWORD PTR ds:0x7180
    2488:	67 66 8b 5d f0       	mov    ebx,DWORD PTR [ebp-0x10]
    248d:	66 89 d8             	mov    eax,ebx
    2490:	66 01 c0             	add    eax,eax
    2493:	66 01 d8             	add    eax,ebx
    2496:	66 c1 e0 05          	shl    eax,0x5
    249a:	66 83 c0 20          	add    eax,0x20
    249e:	66 05 e0 81 00 00    	add    eax,0x81e0
    24a4:	66 83 c0 0c          	add    eax,0xc
    24a8:	67 66 c7 44 24 10 0d 	mov    DWORD PTR [esp+0x10],0xd
    24af:	00 00 00 
    24b2:	67 66 89 4c 24 0c    	mov    DWORD PTR [esp+0xc],ecx
    24b8:	67 66 89 74 24 08    	mov    DWORD PTR [esp+0x8],esi
    24be:	67 66 89 54 24 04    	mov    DWORD PTR [esp+0x4],edx
    24c4:	67 66 89 04 24       	mov    DWORD PTR [esp],eax
    24c9:	66 e8 8c ec ff ff    	call   115b <_printSentence>
D:\OneDrive\Study\Operating Systems\实验\project6\codes/./lib/utilsC.c:128
			printSentence(status[processTable[i].status], line++, begin+23, strlen(status[processTable[i].status]), purple);
    24cf:	67 66 8b 55 f0       	mov    edx,DWORD PTR [ebp-0x10]
    24d4:	66 89 d0             	mov    eax,edx
    24d7:	66 01 c0             	add    eax,eax
    24da:	66 01 d0             	add    eax,edx
    24dd:	66 c1 e0 05          	shl    eax,0x5
    24e1:	66 05 3c 82 00 00    	add    eax,0x823c
    24e7:	67 66 8b 10          	mov    edx,DWORD PTR [eax]
    24eb:	67 66 8d 4d ac       	lea    ecx,[ebp-0x54]
    24f0:	66 89 d0             	mov    eax,edx
    24f3:	66 c1 e0 02          	shl    eax,0x2
    24f7:	66 01 d0             	add    eax,edx
    24fa:	66 01 c0             	add    eax,eax
    24fd:	66 01 c8             	add    eax,ecx
    2500:	67 66 89 04 24       	mov    DWORD PTR [esp],eax
    2505:	66 e8 8f 01 00 00    	call   269a <_strlen>
    250b:	66 89 c1             	mov    ecx,eax
    250e:	67 66 8b 45 e8       	mov    eax,DWORD PTR [ebp-0x18]
    2513:	67 66 8d 70 17       	lea    esi,[eax+0x17]
    2518:	66 8b 16 80 71       	mov    edx,DWORD PTR ds:0x7180
    251d:	67 66 8d 42 01       	lea    eax,[edx+0x1]
    2522:	66 a3 80 71          	mov    ds:0x7180,eax
    2526:	67 66 8b 5d f0       	mov    ebx,DWORD PTR [ebp-0x10]
    252b:	66 89 d8             	mov    eax,ebx
    252e:	66 01 c0             	add    eax,eax
    2531:	66 01 d8             	add    eax,ebx
    2534:	66 c1 e0 05          	shl    eax,0x5
    2538:	66 05 3c 82 00 00    	add    eax,0x823c
    253e:	67 66 8b 18          	mov    ebx,DWORD PTR [eax]
    2542:	67 66 8d 7d ac       	lea    edi,[ebp-0x54]
    2547:	66 89 d8             	mov    eax,ebx
    254a:	66 c1 e0 02          	shl    eax,0x2
    254e:	66 01 d8             	add    eax,ebx
    2551:	66 01 c0             	add    eax,eax
    2554:	66 01 f8             	add    eax,edi
    2557:	67 66 c7 44 24 10 0d 	mov    DWORD PTR [esp+0x10],0xd
    255e:	00 00 00 
    2561:	67 66 89 4c 24 0c    	mov    DWORD PTR [esp+0xc],ecx
    2567:	67 66 89 74 24 08    	mov    DWORD PTR [esp+0x8],esi
    256d:	67 66 89 54 24 04    	mov    DWORD PTR [esp+0x4],edx
    2573:	67 66 89 04 24       	mov    DWORD PTR [esp],eax
    2578:	66 e8 dd eb ff ff    	call   115b <_printSentence>
D:\OneDrive\Study\Operating Systems\实验\project6\codes/./lib/utilsC.c:121
	for (int i = 0; i < Len; ++i)
    257e:	67 66 ff 45 f0       	inc    DWORD PTR [ebp-0x10]
    2583:	67 66 83 7d f0 31    	cmp    DWORD PTR [ebp-0x10],0x31
    2589:	0f 8e f8 fd          	jle    2385 <_ps+0x9c>
D:\OneDrive\Study\Operating Systems\实验\project6\codes/./lib/utilsC.c:131
		}
	}
}
    258d:	90                   	nop
    258e:	66 83 c4 7c          	add    esp,0x7c
    2592:	66 5b                	pop    ebx
    2594:	66 5e                	pop    esi
    2596:	66 5f                	pop    edi
    2598:	66 5d                	pop    ebp
    259a:	66 c3                	ret    

0000259c <_kill>:
kill():
D:\OneDrive\Study\Operating Systems\实验\project6\codes/./lib/utilsC.c:134

void kill(int id)
{
    259c:	66 55                	push   ebp
    259e:	66 89 e5             	mov    ebp,esp
    25a1:	66 83 ec 08          	sub    esp,0x8
D:\OneDrive\Study\Operating Systems\实验\project6\codes/./lib/utilsC.c:135
	if(id != 0){
    25a5:	67 66 83 7d 08 00    	cmp    DWORD PTR [ebp+0x8],0x0
    25ab:	0f 84 b7 00          	je     2666 <_kill+0xca>
D:\OneDrive\Study\Operating Systems\实验\project6\codes/./lib/utilsC.c:136
		processTable[id].status = exit;
    25af:	67 66 8b 55 08       	mov    edx,DWORD PTR [ebp+0x8]
    25b4:	66 89 d0             	mov    eax,edx
    25b7:	66 01 c0             	add    eax,eax
    25ba:	66 01 d0             	add    eax,edx
    25bd:	66 c1 e0 05          	shl    eax,0x5
    25c1:	66 05 3c 82 00 00    	add    eax,0x823c
    25c7:	67 66 c7 00 05 00 00 	mov    DWORD PTR [eax],0x5
    25ce:	00 
D:\OneDrive\Study\Operating Systems\实验\project6\codes/./lib/utilsC.c:137
		processTable[id].id = -1;
    25cf:	67 66 8b 55 08       	mov    edx,DWORD PTR [ebp+0x8]
    25d4:	66 89 d0             	mov    eax,edx
    25d7:	66 01 c0             	add    eax,eax
    25da:	66 01 d0             	add    eax,edx
    25dd:	66 c1 e0 05          	shl    eax,0x5
    25e1:	66 05 04 82 00 00    	add    eax,0x8204
    25e7:	67 66 c7 00 ff ff ff 	mov    DWORD PTR [eax],0xffffffff
    25ee:	ff 
D:\OneDrive\Study\Operating Systems\实验\project6\codes/./lib/utilsC.c:138
		release(memoryTable[processTable[id].blockNum].beginAddr, memoryTable[processTable[id].blockNum].endAddr);
    25ef:	67 66 8b 55 08       	mov    edx,DWORD PTR [ebp+0x8]
    25f4:	66 89 d0             	mov    eax,edx
    25f7:	66 01 c0             	add    eax,eax
    25fa:	66 01 d0             	add    eax,edx
    25fd:	66 c1 e0 05          	shl    eax,0x5
    2601:	66 05 08 82 00 00    	add    eax,0x8208
    2607:	67 66 8b 10          	mov    edx,DWORD PTR [eax]
    260b:	66 89 d0             	mov    eax,edx
    260e:	66 01 c0             	add    eax,eax
    2611:	66 01 d0             	add    eax,edx
    2614:	66 c1 e0 03          	shl    eax,0x3
    2618:	66 05 c4 71 00 00    	add    eax,0x71c4
    261e:	67 66 8b 10          	mov    edx,DWORD PTR [eax]
    2622:	67 66 8b 4d 08       	mov    ecx,DWORD PTR [ebp+0x8]
    2627:	66 89 c8             	mov    eax,ecx
    262a:	66 01 c0             	add    eax,eax
    262d:	66 01 c8             	add    eax,ecx
    2630:	66 c1 e0 05          	shl    eax,0x5
    2634:	66 05 08 82 00 00    	add    eax,0x8208
    263a:	67 66 8b 08          	mov    ecx,DWORD PTR [eax]
    263e:	66 89 c8             	mov    eax,ecx
    2641:	66 01 c0             	add    eax,eax
    2644:	66 01 c8             	add    eax,ecx
    2647:	66 c1 e0 03          	shl    eax,0x3
    264b:	66 05 c0 71 00 00    	add    eax,0x71c0
    2651:	67 66 8b 00          	mov    eax,DWORD PTR [eax]
    2655:	67 66 89 54 24 04    	mov    DWORD PTR [esp+0x4],edx
    265b:	67 66 89 04 24       	mov    DWORD PTR [esp],eax
    2660:	66 e8 c7 23 00 00    	call   4a2d <_release>
D:\OneDrive\Study\Operating Systems\实验\project6\codes/./lib/utilsC.c:140
	}
}
    2666:	90                   	nop
    2667:	66 c9                	leave  
    2669:	66 c3                	ret    

0000266b <_initial>:
initial():
D:\OneDrive\Study\Operating Systems\实验\project6\codes/./lib/utilsC.c:143

void initial()
{
    266b:	66 55                	push   ebp
    266d:	66 89 e5             	mov    ebp,esp
    2670:	66 83 ec 04          	sub    esp,0x4
D:\OneDrive\Study\Operating Systems\实验\project6\codes/./lib/utilsC.c:144
	initialFile();
    2674:	66 e8 59 06 00 00    	call   2cd3 <_initialFile>
D:\OneDrive\Study\Operating Systems\实验\project6\codes/./lib/utilsC.c:145
	initialScreen(1);
    267a:	67 66 c7 04 24 01 00 	mov    DWORD PTR [esp],0x1
    2681:	00 00 
    2683:	66 e8 b4 f6 ff ff    	call   1d3d <_initialScreen>
D:\OneDrive\Study\Operating Systems\实验\project6\codes/./lib/utilsC.c:146
	initialProcessTable();
    2689:	66 e8 59 09 00 00    	call   2fe8 <_initialProcessTable>
D:\OneDrive\Study\Operating Systems\实验\project6\codes/./lib/utilsC.c:147
	initialMemoryTable();
    268f:	66 e8 41 17 00 00    	call   3dd6 <_initialMemoryTable>
D:\OneDrive\Study\Operating Systems\实验\project6\codes/./lib/utilsC.c:148
}
    2695:	90                   	nop
    2696:	66 c9                	leave  
    2698:	66 c3                	ret    

0000269a <_strlen>:
strlen():
D:\OneDrive\Study\Operating Systems\实验\project6\codes/./lib/utilsC.c:155


//////////// string /////////////////
// 垄芒路没麓庐陋'0'陆谩虏隆拢
int strlen(char * sen)
{
    269a:	66 55                	push   ebp
    269c:	66 89 e5             	mov    ebp,esp
    269f:	66 83 ec 04          	sub    esp,0x4
D:\OneDrive\Study\Operating Systems\实验\project6\codes/./lib/utilsC.c:156
	int i = 0;
    26a3:	67 66 c7 45 fc 00 00 	mov    DWORD PTR [ebp-0x4],0x0
    26aa:	00 00 
D:\OneDrive\Study\Operating Systems\实验\project6\codes/./lib/utilsC.c:157
	while(sen[i]) { ++i; }
    26ac:	eb 05                	jmp    26b3 <_strlen+0x19>
    26ae:	67 66 ff 45 fc       	inc    DWORD PTR [ebp-0x4]
    26b3:	67 66 8b 55 fc       	mov    edx,DWORD PTR [ebp-0x4]
    26b8:	67 66 8b 45 08       	mov    eax,DWORD PTR [ebp+0x8]
    26bd:	66 01 d0             	add    eax,edx
    26c0:	67 8a 00             	mov    al,BYTE PTR [eax]
    26c3:	84 c0                	test   al,al
    26c5:	75 e7                	jne    26ae <_strlen+0x14>
D:\OneDrive\Study\Operating Systems\实验\project6\codes/./lib/utilsC.c:158
	return i;
    26c7:	67 66 8b 45 fc       	mov    eax,DWORD PTR [ebp-0x4]
D:\OneDrive\Study\Operating Systems\实验\project6\codes/./lib/utilsC.c:159
}
    26cc:	66 c9                	leave  
    26ce:	66 c3                	ret    

000026d0 <_concate>:
concate():
D:\OneDrive\Study\Operating Systems\实验\project6\codes/./lib/utilsC.c:163


void concate(char * sour, char * append)
{
    26d0:	66 55                	push   ebp
    26d2:	66 89 e5             	mov    ebp,esp
    26d5:	66 83 ec 10          	sub    esp,0x10
D:\OneDrive\Study\Operating Systems\实验\project6\codes/./lib/utilsC.c:164
	int lenOfAppend = strlen(append);
    26d9:	67 66 8b 45 0c       	mov    eax,DWORD PTR [ebp+0xc]
    26de:	67 66 89 04 24       	mov    DWORD PTR [esp],eax
    26e3:	66 e8 b1 ff ff ff    	call   269a <_strlen>
    26e9:	67 66 89 45 f8       	mov    DWORD PTR [ebp-0x8],eax
D:\OneDrive\Study\Operating Systems\实验\project6\codes/./lib/utilsC.c:165
	int lenOfSour = strlen(sour);
    26ee:	67 66 8b 45 08       	mov    eax,DWORD PTR [ebp+0x8]
    26f3:	67 66 89 04 24       	mov    DWORD PTR [esp],eax
    26f8:	66 e8 9c ff ff ff    	call   269a <_strlen>
    26fe:	67 66 89 45 f4       	mov    DWORD PTR [ebp-0xc],eax
D:\OneDrive\Study\Operating Systems\实验\project6\codes/./lib/utilsC.c:166
	for(int i = 0; i < lenOfAppend; ++i)
    2703:	67 66 c7 45 fc 00 00 	mov    DWORD PTR [ebp-0x4],0x0
    270a:	00 00 
    270c:	eb 30                	jmp    273e <_concate+0x6e>
D:\OneDrive\Study\Operating Systems\实验\project6\codes/./lib/utilsC.c:168
	{
		sour[i+lenOfSour] = append[i];
    270e:	67 66 8b 55 fc       	mov    edx,DWORD PTR [ebp-0x4]
    2713:	67 66 8b 45 f4       	mov    eax,DWORD PTR [ebp-0xc]
    2718:	66 01 d0             	add    eax,edx
    271b:	66 89 c2             	mov    edx,eax
    271e:	67 66 8b 45 08       	mov    eax,DWORD PTR [ebp+0x8]
    2723:	66 01 c2             	add    edx,eax
    2726:	67 66 8b 4d fc       	mov    ecx,DWORD PTR [ebp-0x4]
    272b:	67 66 8b 45 0c       	mov    eax,DWORD PTR [ebp+0xc]
    2730:	66 01 c8             	add    eax,ecx
    2733:	67 8a 00             	mov    al,BYTE PTR [eax]
    2736:	67 88 02             	mov    BYTE PTR [edx],al
D:\OneDrive\Study\Operating Systems\实验\project6\codes/./lib/utilsC.c:166
	for(int i = 0; i < lenOfAppend; ++i)
    2739:	67 66 ff 45 fc       	inc    DWORD PTR [ebp-0x4]
    273e:	67 66 8b 45 fc       	mov    eax,DWORD PTR [ebp-0x4]
    2743:	67 66 3b 45 f8       	cmp    eax,DWORD PTR [ebp-0x8]
    2748:	7c c4                	jl     270e <_concate+0x3e>
D:\OneDrive\Study\Operating Systems\实验\project6\codes/./lib/utilsC.c:170
	}
	sour[lenOfAppend+lenOfSour] = '\0';
    274a:	67 66 8b 55 f8       	mov    edx,DWORD PTR [ebp-0x8]
    274f:	67 66 8b 45 f4       	mov    eax,DWORD PTR [ebp-0xc]
    2754:	66 01 d0             	add    eax,edx
    2757:	66 89 c2             	mov    edx,eax
    275a:	67 66 8b 45 08       	mov    eax,DWORD PTR [ebp+0x8]
    275f:	66 01 d0             	add    eax,edx
    2762:	67 c6 00 00          	mov    BYTE PTR [eax],0x0
D:\OneDrive\Study\Operating Systems\实验\project6\codes/./lib/utilsC.c:171
}
    2766:	90                   	nop
    2767:	66 c9                	leave  
    2769:	66 c3                	ret    

0000276b <_strcmp>:
strcmp():
D:\OneDrive\Study\Operating Systems\实验\project6\codes/./lib/utilsC.c:174

int strcmp(char * l, char * r)
{
    276b:	66 55                	push   ebp
    276d:	66 89 e5             	mov    ebp,esp
    2770:	66 83 ec 08          	sub    esp,0x8
D:\OneDrive\Study\Operating Systems\实验\project6\codes/./lib/utilsC.c:175
	int i=0, j=0;
    2774:	67 66 c7 45 fc 00 00 	mov    DWORD PTR [ebp-0x4],0x0
    277b:	00 00 
    277d:	67 66 c7 45 f8 00 00 	mov    DWORD PTR [ebp-0x8],0x0
    2784:	00 00 
D:\OneDrive\Study\Operating Systems\实验\project6\codes/./lib/utilsC.c:176
	for(; l[i] && r[i]; ++i, ++j)
    2786:	eb 64                	jmp    27ec <_strcmp+0x81>
D:\OneDrive\Study\Operating Systems\实验\project6\codes/./lib/utilsC.c:178
	{
		if(l[i] < r[j]) {
    2788:	67 66 8b 55 fc       	mov    edx,DWORD PTR [ebp-0x4]
    278d:	67 66 8b 45 08       	mov    eax,DWORD PTR [ebp+0x8]
    2792:	66 01 d0             	add    eax,edx
    2795:	67 8a 10             	mov    dl,BYTE PTR [eax]
    2798:	67 66 8b 4d f8       	mov    ecx,DWORD PTR [ebp-0x8]
    279d:	67 66 8b 45 0c       	mov    eax,DWORD PTR [ebp+0xc]
    27a2:	66 01 c8             	add    eax,ecx
    27a5:	67 8a 00             	mov    al,BYTE PTR [eax]
    27a8:	38 c2                	cmp    dl,al
    27aa:	7d 09                	jge    27b5 <_strcmp+0x4a>
D:\OneDrive\Study\Operating Systems\实验\project6\codes/./lib/utilsC.c:179
			return -1;
    27ac:	66 b8 ff ff ff ff    	mov    eax,0xffffffff
    27b2:	e9 c7 00             	jmp    287c <_strcmp+0x111>
D:\OneDrive\Study\Operating Systems\实验\project6\codes/./lib/utilsC.c:180
		} else if(l[i] > r[j]) {
    27b5:	67 66 8b 55 fc       	mov    edx,DWORD PTR [ebp-0x4]
    27ba:	67 66 8b 45 08       	mov    eax,DWORD PTR [ebp+0x8]
    27bf:	66 01 d0             	add    eax,edx
    27c2:	67 8a 10             	mov    dl,BYTE PTR [eax]
    27c5:	67 66 8b 4d f8       	mov    ecx,DWORD PTR [ebp-0x8]
    27ca:	67 66 8b 45 0c       	mov    eax,DWORD PTR [ebp+0xc]
    27cf:	66 01 c8             	add    eax,ecx
    27d2:	67 8a 00             	mov    al,BYTE PTR [eax]
    27d5:	38 c2                	cmp    dl,al
    27d7:	7e 09                	jle    27e2 <_strcmp+0x77>
D:\OneDrive\Study\Operating Systems\实验\project6\codes/./lib/utilsC.c:181
			return 1;
    27d9:	66 b8 01 00 00 00    	mov    eax,0x1
    27df:	e9 9a 00             	jmp    287c <_strcmp+0x111>
D:\OneDrive\Study\Operating Systems\实验\project6\codes/./lib/utilsC.c:176
	for(; l[i] && r[i]; ++i, ++j)
    27e2:	67 66 ff 45 fc       	inc    DWORD PTR [ebp-0x4]
    27e7:	67 66 ff 45 f8       	inc    DWORD PTR [ebp-0x8]
    27ec:	67 66 8b 55 fc       	mov    edx,DWORD PTR [ebp-0x4]
    27f1:	67 66 8b 45 08       	mov    eax,DWORD PTR [ebp+0x8]
    27f6:	66 01 d0             	add    eax,edx
    27f9:	67 8a 00             	mov    al,BYTE PTR [eax]
    27fc:	84 c0                	test   al,al
    27fe:	74 16                	je     2816 <_strcmp+0xab>
    2800:	67 66 8b 55 fc       	mov    edx,DWORD PTR [ebp-0x4]
    2805:	67 66 8b 45 0c       	mov    eax,DWORD PTR [ebp+0xc]
    280a:	66 01 d0             	add    eax,edx
    280d:	67 8a 00             	mov    al,BYTE PTR [eax]
    2810:	84 c0                	test   al,al
    2812:	0f 85 72 ff          	jne    2788 <_strcmp+0x1d>
D:\OneDrive\Study\Operating Systems\实验\project6\codes/./lib/utilsC.c:184
		} 
	}
	if(!l[i] && r[j]) {
    2816:	67 66 8b 55 fc       	mov    edx,DWORD PTR [ebp-0x4]
    281b:	67 66 8b 45 08       	mov    eax,DWORD PTR [ebp+0x8]
    2820:	66 01 d0             	add    eax,edx
    2823:	67 8a 00             	mov    al,BYTE PTR [eax]
    2826:	84 c0                	test   al,al
    2828:	75 1c                	jne    2846 <_strcmp+0xdb>
    282a:	67 66 8b 55 f8       	mov    edx,DWORD PTR [ebp-0x8]
    282f:	67 66 8b 45 0c       	mov    eax,DWORD PTR [ebp+0xc]
    2834:	66 01 d0             	add    eax,edx
    2837:	67 8a 00             	mov    al,BYTE PTR [eax]
    283a:	84 c0                	test   al,al
    283c:	74 08                	je     2846 <_strcmp+0xdb>
D:\OneDrive\Study\Operating Systems\实验\project6\codes/./lib/utilsC.c:185
		return -1;
    283e:	66 b8 ff ff ff ff    	mov    eax,0xffffffff
    2844:	eb 36                	jmp    287c <_strcmp+0x111>
D:\OneDrive\Study\Operating Systems\实验\project6\codes/./lib/utilsC.c:186
	} else if(l[i] && !r[j]) {
    2846:	67 66 8b 55 fc       	mov    edx,DWORD PTR [ebp-0x4]
    284b:	67 66 8b 45 08       	mov    eax,DWORD PTR [ebp+0x8]
    2850:	66 01 d0             	add    eax,edx
    2853:	67 8a 00             	mov    al,BYTE PTR [eax]
    2856:	84 c0                	test   al,al
    2858:	74 1c                	je     2876 <_strcmp+0x10b>
    285a:	67 66 8b 55 f8       	mov    edx,DWORD PTR [ebp-0x8]
    285f:	67 66 8b 45 0c       	mov    eax,DWORD PTR [ebp+0xc]
    2864:	66 01 d0             	add    eax,edx
    2867:	67 8a 00             	mov    al,BYTE PTR [eax]
    286a:	84 c0                	test   al,al
    286c:	75 08                	jne    2876 <_strcmp+0x10b>
D:\OneDrive\Study\Operating Systems\实验\project6\codes/./lib/utilsC.c:187
		return 1;
    286e:	66 b8 01 00 00 00    	mov    eax,0x1
    2874:	eb 06                	jmp    287c <_strcmp+0x111>
D:\OneDrive\Study\Operating Systems\实验\project6\codes/./lib/utilsC.c:189
	} else {
		return 0;
    2876:	66 b8 00 00 00 00    	mov    eax,0x0
D:\OneDrive\Study\Operating Systems\实验\project6\codes/./lib/utilsC.c:191
	}
}
    287c:	66 c9                	leave  
    287e:	66 c3                	ret    

00002880 <_strncpy>:
strncpy():
D:\OneDrive\Study\Operating Systems\实验\project6\codes/./lib/utilsC.c:194

void strncpy(char * sour, char * des, int len)
{
    2880:	66 55                	push   ebp
    2882:	66 89 e5             	mov    ebp,esp
    2885:	66 83 ec 04          	sub    esp,0x4
D:\OneDrive\Study\Operating Systems\实验\project6\codes/./lib/utilsC.c:195
	int i = 0;
    2889:	67 66 c7 45 fc 00 00 	mov    DWORD PTR [ebp-0x4],0x0
    2890:	00 00 
D:\OneDrive\Study\Operating Systems\实验\project6\codes/./lib/utilsC.c:196
	while(sour[i] && i < len){
    2892:	eb 25                	jmp    28b9 <_strncpy+0x39>
D:\OneDrive\Study\Operating Systems\实验\project6\codes/./lib/utilsC.c:197
		des[i] = sour[i];
    2894:	67 66 8b 55 fc       	mov    edx,DWORD PTR [ebp-0x4]
    2899:	67 66 8b 45 0c       	mov    eax,DWORD PTR [ebp+0xc]
    289e:	66 01 c2             	add    edx,eax
    28a1:	67 66 8b 4d fc       	mov    ecx,DWORD PTR [ebp-0x4]
    28a6:	67 66 8b 45 08       	mov    eax,DWORD PTR [ebp+0x8]
    28ab:	66 01 c8             	add    eax,ecx
    28ae:	67 8a 00             	mov    al,BYTE PTR [eax]
    28b1:	67 88 02             	mov    BYTE PTR [edx],al
D:\OneDrive\Study\Operating Systems\实验\project6\codes/./lib/utilsC.c:198
		++i;
    28b4:	67 66 ff 45 fc       	inc    DWORD PTR [ebp-0x4]
D:\OneDrive\Study\Operating Systems\实验\project6\codes/./lib/utilsC.c:196
	while(sour[i] && i < len){
    28b9:	67 66 8b 55 fc       	mov    edx,DWORD PTR [ebp-0x4]
    28be:	67 66 8b 45 08       	mov    eax,DWORD PTR [ebp+0x8]
    28c3:	66 01 d0             	add    eax,edx
    28c6:	67 8a 00             	mov    al,BYTE PTR [eax]
    28c9:	84 c0                	test   al,al
    28cb:	74 0c                	je     28d9 <_strncpy+0x59>
    28cd:	67 66 8b 45 fc       	mov    eax,DWORD PTR [ebp-0x4]
    28d2:	67 66 3b 45 10       	cmp    eax,DWORD PTR [ebp+0x10]
    28d7:	7c bb                	jl     2894 <_strncpy+0x14>
D:\OneDrive\Study\Operating Systems\实验\project6\codes/./lib/utilsC.c:200
	}
	des[i] = '\0';
    28d9:	67 66 8b 55 fc       	mov    edx,DWORD PTR [ebp-0x4]
    28de:	67 66 8b 45 0c       	mov    eax,DWORD PTR [ebp+0xc]
    28e3:	66 01 d0             	add    eax,edx
    28e6:	67 c6 00 00          	mov    BYTE PTR [eax],0x0
D:\OneDrive\Study\Operating Systems\实验\project6\codes/./lib/utilsC.c:201
}
    28ea:	90                   	nop
    28eb:	66 c9                	leave  
    28ed:	66 c3                	ret    

000028ef <_int2str>:
int2str():
D:\OneDrive\Study\Operating Systems\实验\project6\codes/./lib/utilsC.c:204

void int2str(int org, char * str)
{
    28ef:	66 55                	push   ebp
    28f1:	66 89 e5             	mov    ebp,esp
    28f4:	66 53                	push   ebx
    28f6:	66 83 ec 0c          	sub    esp,0xc
D:\OneDrive\Study\Operating Systems\实验\project6\codes/./lib/utilsC.c:205
	int num = 0;
    28fa:	67 66 c7 45 f8 00 00 	mov    DWORD PTR [ebp-0x8],0x0
    2901:	00 00 
D:\OneDrive\Study\Operating Systems\实验\project6\codes/./lib/utilsC.c:206
	int cp = org;
    2903:	67 66 8b 45 08       	mov    eax,DWORD PTR [ebp+0x8]
    2908:	67 66 89 45 f4       	mov    DWORD PTR [ebp-0xc],eax
D:\OneDrive\Study\Operating Systems\实验\project6\codes/./lib/utilsC.c:207
	while(cp != 0)
    290d:	eb 29                	jmp    2938 <_int2str+0x49>
D:\OneDrive\Study\Operating Systems\实验\project6\codes/./lib/utilsC.c:209
	{
		cp /= 10;
    290f:	67 66 8b 4d f4       	mov    ecx,DWORD PTR [ebp-0xc]
    2914:	66 b8 67 66 66 66    	mov    eax,0x66666667
    291a:	66 f7 e9             	imul   ecx
    291d:	66 c1 fa 02          	sar    edx,0x2
    2921:	66 89 c8             	mov    eax,ecx
    2924:	66 c1 f8 1f          	sar    eax,0x1f
    2928:	66 29 c2             	sub    edx,eax
    292b:	66 89 d0             	mov    eax,edx
    292e:	67 66 89 45 f4       	mov    DWORD PTR [ebp-0xc],eax
D:\OneDrive\Study\Operating Systems\实验\project6\codes/./lib/utilsC.c:210
		++num;
    2933:	67 66 ff 45 f8       	inc    DWORD PTR [ebp-0x8]
D:\OneDrive\Study\Operating Systems\实验\project6\codes/./lib/utilsC.c:207
	while(cp != 0)
    2938:	67 66 83 7d f4 00    	cmp    DWORD PTR [ebp-0xc],0x0
    293e:	75 cf                	jne    290f <_int2str+0x20>
D:\OneDrive\Study\Operating Systems\实验\project6\codes/./lib/utilsC.c:212
	}
	if(org == 0)
    2940:	67 66 83 7d 08 00    	cmp    DWORD PTR [ebp+0x8],0x0
    2946:	75 09                	jne    2951 <_int2str+0x62>
D:\OneDrive\Study\Operating Systems\实验\project6\codes/./lib/utilsC.c:213
		num = 1;
    2948:	67 66 c7 45 f8 01 00 	mov    DWORD PTR [ebp-0x8],0x1
    294f:	00 00 
D:\OneDrive\Study\Operating Systems\实验\project6\codes/./lib/utilsC.c:214
	str[num--] = '\0';
    2951:	67 66 8b 45 f8       	mov    eax,DWORD PTR [ebp-0x8]
    2956:	67 66 8d 50 ff       	lea    edx,[eax-0x1]
    295b:	67 66 89 55 f8       	mov    DWORD PTR [ebp-0x8],edx
    2960:	66 89 c2             	mov    edx,eax
    2963:	67 66 8b 45 0c       	mov    eax,DWORD PTR [ebp+0xc]
    2968:	66 01 d0             	add    eax,edx
    296b:	67 c6 00 00          	mov    BYTE PTR [eax],0x0
D:\OneDrive\Study\Operating Systems\实验\project6\codes/./lib/utilsC.c:215
	for(int i = num; i >= 0; --i)
    296f:	67 66 8b 45 f8       	mov    eax,DWORD PTR [ebp-0x8]
    2974:	67 66 89 45 f0       	mov    DWORD PTR [ebp-0x10],eax
    2979:	eb 70                	jmp    29eb <_int2str+0xfc>
D:\OneDrive\Study\Operating Systems\实验\project6\codes/./lib/utilsC.c:217
	{
		str[i] = org % 10 + 48;
    297b:	67 66 8b 55 f0       	mov    edx,DWORD PTR [ebp-0x10]
    2980:	67 66 8b 45 0c       	mov    eax,DWORD PTR [ebp+0xc]
    2985:	67 66 8d 1c 02       	lea    ebx,[edx+eax*1]
    298a:	67 66 8b 4d 08       	mov    ecx,DWORD PTR [ebp+0x8]
    298f:	66 b8 67 66 66 66    	mov    eax,0x66666667
    2995:	66 f7 e9             	imul   ecx
    2998:	66 c1 fa 02          	sar    edx,0x2
    299c:	66 89 c8             	mov    eax,ecx
    299f:	66 c1 f8 1f          	sar    eax,0x1f
    29a3:	66 29 c2             	sub    edx,eax
    29a6:	66 89 d0             	mov    eax,edx
    29a9:	66 c1 e0 02          	shl    eax,0x2
    29ad:	66 01 d0             	add    eax,edx
    29b0:	66 01 c0             	add    eax,eax
    29b3:	66 29 c1             	sub    ecx,eax
    29b6:	66 89 ca             	mov    edx,ecx
    29b9:	88 d0                	mov    al,dl
    29bb:	66 83 c0 30          	add    eax,0x30
    29bf:	67 88 03             	mov    BYTE PTR [ebx],al
D:\OneDrive\Study\Operating Systems\实验\project6\codes/./lib/utilsC.c:218
		org /= 10;
    29c2:	67 66 8b 4d 08       	mov    ecx,DWORD PTR [ebp+0x8]
    29c7:	66 b8 67 66 66 66    	mov    eax,0x66666667
    29cd:	66 f7 e9             	imul   ecx
    29d0:	66 c1 fa 02          	sar    edx,0x2
    29d4:	66 89 c8             	mov    eax,ecx
    29d7:	66 c1 f8 1f          	sar    eax,0x1f
    29db:	66 29 c2             	sub    edx,eax
    29de:	66 89 d0             	mov    eax,edx
    29e1:	67 66 89 45 08       	mov    DWORD PTR [ebp+0x8],eax
D:\OneDrive\Study\Operating Systems\实验\project6\codes/./lib/utilsC.c:215
	for(int i = num; i >= 0; --i)
    29e6:	67 66 ff 4d f0       	dec    DWORD PTR [ebp-0x10]
    29eb:	67 66 83 7d f0 00    	cmp    DWORD PTR [ebp-0x10],0x0
    29f1:	79 88                	jns    297b <_int2str+0x8c>
D:\OneDrive\Study\Operating Systems\实验\project6\codes/./lib/utilsC.c:220
	}
}
    29f3:	90                   	nop
    29f4:	66 83 c4 0c          	add    esp,0xc
    29f8:	66 5b                	pop    ebx
    29fa:	66 5d                	pop    ebp
    29fc:	66 c3                	ret    

000029fe <_hashfun>:
hashfun():
D:\OneDrive\Study\Operating Systems\实验\project6\codes/./lib/utilsC.c:229

////////////// File ////////////////



int hashfun(char * key){
    29fe:	66 55                	push   ebp
    2a00:	66 89 e5             	mov    ebp,esp
    2a03:	66 83 ec 0c          	sub    esp,0xc
D:\OneDrive\Study\Operating Systems\实验\project6\codes/./lib/utilsC.c:230
	int weight = 29;
    2a07:	67 66 c7 45 f4 1d 00 	mov    DWORD PTR [ebp-0xc],0x1d
    2a0e:	00 00 
D:\OneDrive\Study\Operating Systems\实验\project6\codes/./lib/utilsC.c:231
	int i = 0;
    2a10:	67 66 c7 45 fc 00 00 	mov    DWORD PTR [ebp-0x4],0x0
    2a17:	00 00 
D:\OneDrive\Study\Operating Systems\实验\project6\codes/./lib/utilsC.c:232
	int ret = 0;
    2a19:	67 66 c7 45 f8 00 00 	mov    DWORD PTR [ebp-0x8],0x0
    2a20:	00 00 
D:\OneDrive\Study\Operating Systems\实验\project6\codes/./lib/utilsC.c:233
	while(key[i]){
    2a22:	eb 3a                	jmp    2a5e <_hashfun+0x60>
D:\OneDrive\Study\Operating Systems\实验\project6\codes/./lib/utilsC.c:234
		ret = (ret + key[i]*weight) % Len;
    2a24:	67 66 8b 55 fc       	mov    edx,DWORD PTR [ebp-0x4]
    2a29:	67 66 8b 45 08       	mov    eax,DWORD PTR [ebp+0x8]
    2a2e:	66 01 d0             	add    eax,edx
    2a31:	67 8a 00             	mov    al,BYTE PTR [eax]
    2a34:	66 0f be c0          	movsx  eax,al
    2a38:	67 66 0f af 45 f4    	imul   eax,DWORD PTR [ebp-0xc]
    2a3e:	66 89 c2             	mov    edx,eax
    2a41:	67 66 8b 45 f8       	mov    eax,DWORD PTR [ebp-0x8]
    2a46:	66 01 d0             	add    eax,edx
    2a49:	66 b9 32 00 00 00    	mov    ecx,0x32
    2a4f:	66 99                	cdq    
    2a51:	66 f7 f9             	idiv   ecx
    2a54:	67 66 89 55 f8       	mov    DWORD PTR [ebp-0x8],edx
D:\OneDrive\Study\Operating Systems\实验\project6\codes/./lib/utilsC.c:235
		++i;
    2a59:	67 66 ff 45 fc       	inc    DWORD PTR [ebp-0x4]
D:\OneDrive\Study\Operating Systems\实验\project6\codes/./lib/utilsC.c:233
	while(key[i]){
    2a5e:	67 66 8b 55 fc       	mov    edx,DWORD PTR [ebp-0x4]
    2a63:	67 66 8b 45 08       	mov    eax,DWORD PTR [ebp+0x8]
    2a68:	66 01 d0             	add    eax,edx
    2a6b:	67 8a 00             	mov    al,BYTE PTR [eax]
    2a6e:	84 c0                	test   al,al
    2a70:	75 b2                	jne    2a24 <_hashfun+0x26>
D:\OneDrive\Study\Operating Systems\实验\project6\codes/./lib/utilsC.c:237
	}
	return ret;
    2a72:	67 66 8b 45 f8       	mov    eax,DWORD PTR [ebp-0x8]
D:\OneDrive\Study\Operating Systems\实验\project6\codes/./lib/utilsC.c:238
}
    2a77:	66 c9                	leave  
    2a79:	66 c3                	ret    

00002a7b <_hash>:
hash():
D:\OneDrive\Study\Operating Systems\实验\project6\codes/./lib/utilsC.c:241

int hash(char * key, struct info record)
{
    2a7b:	66 55                	push   ebp
    2a7d:	66 89 e5             	mov    ebp,esp
    2a80:	66 83 ec 18          	sub    esp,0x18
D:\OneDrive\Study\Operating Systems\实验\project6\codes/./lib/utilsC.c:242
	int inicode = hashfun(key);
    2a84:	67 66 8b 45 08       	mov    eax,DWORD PTR [ebp+0x8]
    2a89:	67 66 89 04 24       	mov    DWORD PTR [esp],eax
    2a8e:	66 e8 6a ff ff ff    	call   29fe <_hashfun>
    2a94:	67 66 89 45 f4       	mov    DWORD PTR [ebp-0xc],eax
D:\OneDrive\Study\Operating Systems\实验\project6\codes/./lib/utilsC.c:243
	int code = inicode, i = 1;
    2a99:	67 66 8b 45 f4       	mov    eax,DWORD PTR [ebp-0xc]
    2a9e:	67 66 89 45 fc       	mov    DWORD PTR [ebp-0x4],eax
    2aa3:	67 66 c7 45 f8 01 00 	mov    DWORD PTR [ebp-0x8],0x1
    2aaa:	00 00 
D:\OneDrive\Study\Operating Systems\实验\project6\codes/./lib/utilsC.c:244
	while(information[code].type!=null){
    2aac:	eb 2b                	jmp    2ad9 <_hash+0x5e>
D:\OneDrive\Study\Operating Systems\实验\project6\codes/./lib/utilsC.c:245
		code = (inicode + i * i) % Len;
    2aae:	67 66 8b 45 f8       	mov    eax,DWORD PTR [ebp-0x8]
    2ab3:	67 66 0f af 45 f8    	imul   eax,DWORD PTR [ebp-0x8]
    2ab9:	66 89 c2             	mov    edx,eax
    2abc:	67 66 8b 45 f4       	mov    eax,DWORD PTR [ebp-0xc]
    2ac1:	66 01 d0             	add    eax,edx
    2ac4:	66 b9 32 00 00 00    	mov    ecx,0x32
    2aca:	66 99                	cdq    
    2acc:	66 f7 f9             	idiv   ecx
    2acf:	67 66 89 55 fc       	mov    DWORD PTR [ebp-0x4],edx
D:\OneDrive\Study\Operating Systems\实验\project6\codes/./lib/utilsC.c:246
		++i;
    2ad4:	67 66 ff 45 f8       	inc    DWORD PTR [ebp-0x8]
D:\OneDrive\Study\Operating Systems\实验\project6\codes/./lib/utilsC.c:244
	while(information[code].type!=null){
    2ad9:	67 66 8b 55 fc       	mov    edx,DWORD PTR [ebp-0x4]
    2ade:	66 89 d0             	mov    eax,edx
    2ae1:	66 01 c0             	add    eax,eax
    2ae4:	66 01 d0             	add    eax,edx
    2ae7:	66 c1 e0 02          	shl    eax,0x2
    2aeb:	66 01 d0             	add    eax,edx
    2aee:	66 c1 e0 02          	shl    eax,0x2
    2af2:	66 05 c0 77 00 00    	add    eax,0x77c0
    2af8:	67 66 8b 00          	mov    eax,DWORD PTR [eax]
    2afc:	66 85 c0             	test   eax,eax
    2aff:	75 ad                	jne    2aae <_hash+0x33>
D:\OneDrive\Study\Operating Systems\实验\project6\codes/./lib/utilsC.c:250
	}


	information[code].type = record.type;
    2b01:	67 66 8b 4d 2c       	mov    ecx,DWORD PTR [ebp+0x2c]
    2b06:	67 66 8b 55 fc       	mov    edx,DWORD PTR [ebp-0x4]
    2b0b:	66 89 d0             	mov    eax,edx
    2b0e:	66 01 c0             	add    eax,eax
    2b11:	66 01 d0             	add    eax,edx
    2b14:	66 c1 e0 02          	shl    eax,0x2
    2b18:	66 01 d0             	add    eax,edx
    2b1b:	66 c1 e0 02          	shl    eax,0x2
    2b1f:	66 05 c0 77 00 00    	add    eax,0x77c0
    2b25:	67 66 89 08          	mov    DWORD PTR [eax],ecx
D:\OneDrive\Study\Operating Systems\实验\project6\codes/./lib/utilsC.c:251
	strncpy(record.name, information[code].name, strlen(record.name));
    2b29:	67 66 8d 45 0c       	lea    eax,[ebp+0xc]
    2b2e:	67 66 89 04 24       	mov    DWORD PTR [esp],eax
    2b33:	66 e8 61 fb ff ff    	call   269a <_strlen>
    2b39:	66 89 c1             	mov    ecx,eax
    2b3c:	67 66 8b 55 fc       	mov    edx,DWORD PTR [ebp-0x4]
    2b41:	66 89 d0             	mov    eax,edx
    2b44:	66 01 c0             	add    eax,eax
    2b47:	66 01 d0             	add    eax,edx
    2b4a:	66 c1 e0 02          	shl    eax,0x2
    2b4e:	66 01 d0             	add    eax,edx
    2b51:	66 c1 e0 02          	shl    eax,0x2
    2b55:	66 05 a0 77 00 00    	add    eax,0x77a0
    2b5b:	67 66 89 4c 24 08    	mov    DWORD PTR [esp+0x8],ecx
    2b61:	67 66 89 44 24 04    	mov    DWORD PTR [esp+0x4],eax
    2b67:	67 66 8d 45 0c       	lea    eax,[ebp+0xc]
    2b6c:	67 66 89 04 24       	mov    DWORD PTR [esp],eax
    2b71:	66 e8 09 fd ff ff    	call   2880 <_strncpy>
D:\OneDrive\Study\Operating Systems\实验\project6\codes/./lib/utilsC.c:252
	information[code].size = record.size;
    2b77:	67 66 8b 4d 34       	mov    ecx,DWORD PTR [ebp+0x34]
    2b7c:	67 66 8b 55 fc       	mov    edx,DWORD PTR [ebp-0x4]
    2b81:	66 89 d0             	mov    eax,edx
    2b84:	66 01 c0             	add    eax,eax
    2b87:	66 01 d0             	add    eax,edx
    2b8a:	66 c1 e0 02          	shl    eax,0x2
    2b8e:	66 01 d0             	add    eax,edx
    2b91:	66 c1 e0 02          	shl    eax,0x2
    2b95:	66 05 c8 77 00 00    	add    eax,0x77c8
    2b9b:	67 66 89 08          	mov    DWORD PTR [eax],ecx
D:\OneDrive\Study\Operating Systems\实验\project6\codes/./lib/utilsC.c:253
	information[code].lmaddress = record.lmaddress;
    2b9f:	67 66 8b 4d 30       	mov    ecx,DWORD PTR [ebp+0x30]
    2ba4:	67 66 8b 55 fc       	mov    edx,DWORD PTR [ebp-0x4]
    2ba9:	66 89 d0             	mov    eax,edx
    2bac:	66 01 c0             	add    eax,eax
    2baf:	66 01 d0             	add    eax,edx
    2bb2:	66 c1 e0 02          	shl    eax,0x2
    2bb6:	66 01 d0             	add    eax,edx
    2bb9:	66 c1 e0 02          	shl    eax,0x2
    2bbd:	66 05 c4 77 00 00    	add    eax,0x77c4
    2bc3:	67 66 89 08          	mov    DWORD PTR [eax],ecx
D:\OneDrive\Study\Operating Systems\实验\project6\codes/./lib/utilsC.c:254
	information[code].deleted = record.deleted;
    2bc7:	67 66 8b 4d 38       	mov    ecx,DWORD PTR [ebp+0x38]
    2bcc:	67 66 8b 55 fc       	mov    edx,DWORD PTR [ebp-0x4]
    2bd1:	66 89 d0             	mov    eax,edx
    2bd4:	66 01 c0             	add    eax,eax
    2bd7:	66 01 d0             	add    eax,edx
    2bda:	66 c1 e0 02          	shl    eax,0x2
    2bde:	66 01 d0             	add    eax,edx
    2be1:	66 c1 e0 02          	shl    eax,0x2
    2be5:	66 05 cc 77 00 00    	add    eax,0x77cc
    2beb:	67 66 89 08          	mov    DWORD PTR [eax],ecx
D:\OneDrive\Study\Operating Systems\实验\project6\codes/./lib/utilsC.c:255
	return code;
    2bef:	67 66 8b 45 fc       	mov    eax,DWORD PTR [ebp-0x4]
D:\OneDrive\Study\Operating Systems\实验\project6\codes/./lib/utilsC.c:256
}
    2bf4:	66 c9                	leave  
    2bf6:	66 c3                	ret    

00002bf8 <_find>:
find():
D:\OneDrive\Study\Operating Systems\实验\project6\codes/./lib/utilsC.c:259

int find(char * key)
{
    2bf8:	66 55                	push   ebp
    2bfa:	66 89 e5             	mov    ebp,esp
    2bfd:	66 83 ec 14          	sub    esp,0x14
D:\OneDrive\Study\Operating Systems\实验\project6\codes/./lib/utilsC.c:260
	int inicode = hashfun(key);
    2c01:	67 66 8b 45 08       	mov    eax,DWORD PTR [ebp+0x8]
    2c06:	67 66 89 04 24       	mov    DWORD PTR [esp],eax
    2c0b:	66 e8 ed fd ff ff    	call   29fe <_hashfun>
    2c11:	67 66 89 45 f4       	mov    DWORD PTR [ebp-0xc],eax
D:\OneDrive\Study\Operating Systems\实验\project6\codes/./lib/utilsC.c:261
	int code = inicode, i = 1;
    2c16:	67 66 8b 45 f4       	mov    eax,DWORD PTR [ebp-0xc]
    2c1b:	67 66 89 45 fc       	mov    DWORD PTR [ebp-0x4],eax
    2c20:	67 66 c7 45 f8 01 00 	mov    DWORD PTR [ebp-0x8],0x1
    2c27:	00 00 
D:\OneDrive\Study\Operating Systems\实验\project6\codes/./lib/utilsC.c:262
	while(information[code].type == null || strcmp(key, information[code].name) != 0){
    2c29:	eb 3b                	jmp    2c66 <_find+0x6e>
D:\OneDrive\Study\Operating Systems\实验\project6\codes/./lib/utilsC.c:263
		code = (inicode + i * i) % Len;
    2c2b:	67 66 8b 45 f8       	mov    eax,DWORD PTR [ebp-0x8]
    2c30:	67 66 0f af 45 f8    	imul   eax,DWORD PTR [ebp-0x8]
    2c36:	66 89 c2             	mov    edx,eax
    2c39:	67 66 8b 45 f4       	mov    eax,DWORD PTR [ebp-0xc]
    2c3e:	66 01 d0             	add    eax,edx
    2c41:	66 b9 32 00 00 00    	mov    ecx,0x32
    2c47:	66 99                	cdq    
    2c49:	66 f7 f9             	idiv   ecx
    2c4c:	67 66 89 55 fc       	mov    DWORD PTR [ebp-0x4],edx
D:\OneDrive\Study\Operating Systems\实验\project6\codes/./lib/utilsC.c:264
		++i;
    2c51:	67 66 ff 45 f8       	inc    DWORD PTR [ebp-0x8]
D:\OneDrive\Study\Operating Systems\实验\project6\codes/./lib/utilsC.c:265
		if(i > Len)
    2c56:	67 66 83 7d f8 32    	cmp    DWORD PTR [ebp-0x8],0x32
    2c5c:	7e 08                	jle    2c66 <_find+0x6e>
D:\OneDrive\Study\Operating Systems\实验\project6\codes/./lib/utilsC.c:266
			return -1;
    2c5e:	66 b8 ff ff ff ff    	mov    eax,0xffffffff
    2c64:	eb 69                	jmp    2ccf <_find+0xd7>
D:\OneDrive\Study\Operating Systems\实验\project6\codes/./lib/utilsC.c:262
	while(information[code].type == null || strcmp(key, information[code].name) != 0){
    2c66:	67 66 8b 55 fc       	mov    edx,DWORD PTR [ebp-0x4]
    2c6b:	66 89 d0             	mov    eax,edx
    2c6e:	66 01 c0             	add    eax,eax
    2c71:	66 01 d0             	add    eax,edx
    2c74:	66 c1 e0 02          	shl    eax,0x2
    2c78:	66 01 d0             	add    eax,edx
    2c7b:	66 c1 e0 02          	shl    eax,0x2
    2c7f:	66 05 c0 77 00 00    	add    eax,0x77c0
    2c85:	67 66 8b 00          	mov    eax,DWORD PTR [eax]
    2c89:	66 85 c0             	test   eax,eax
    2c8c:	74 9d                	je     2c2b <_find+0x33>
    2c8e:	67 66 8b 55 fc       	mov    edx,DWORD PTR [ebp-0x4]
    2c93:	66 89 d0             	mov    eax,edx
    2c96:	66 01 c0             	add    eax,eax
    2c99:	66 01 d0             	add    eax,edx
    2c9c:	66 c1 e0 02          	shl    eax,0x2
    2ca0:	66 01 d0             	add    eax,edx
    2ca3:	66 c1 e0 02          	shl    eax,0x2
    2ca7:	66 05 a0 77 00 00    	add    eax,0x77a0
    2cad:	67 66 89 44 24 04    	mov    DWORD PTR [esp+0x4],eax
    2cb3:	67 66 8b 45 08       	mov    eax,DWORD PTR [ebp+0x8]
    2cb8:	67 66 89 04 24       	mov    DWORD PTR [esp],eax
    2cbd:	66 e8 a8 fa ff ff    	call   276b <_strcmp>
    2cc3:	66 85 c0             	test   eax,eax
    2cc6:	0f 85 61 ff          	jne    2c2b <_find+0x33>
D:\OneDrive\Study\Operating Systems\实验\project6\codes/./lib/utilsC.c:268
	}
	return code;
    2cca:	67 66 8b 45 fc       	mov    eax,DWORD PTR [ebp-0x4]
D:\OneDrive\Study\Operating Systems\实验\project6\codes/./lib/utilsC.c:269
}
    2ccf:	66 c9                	leave  
    2cd1:	66 c3                	ret    

00002cd3 <_initialFile>:
initialFile():
D:\OneDrive\Study\Operating Systems\实验\project6\codes/./lib/utilsC.c:272

void initialFile()
{
    2cd3:	66 55                	push   ebp
    2cd5:	66 89 e5             	mov    ebp,esp
    2cd8:	66 83 ec 10          	sub    esp,0x10
D:\OneDrive\Study\Operating Systems\实验\project6\codes/./lib/utilsC.c:273
	FAT = (short*)getRecords(segOfOs, offsetOfFat);
    2cdc:	67 66 c7 44 24 04 00 	mov    DWORD PTR [esp+0x4],0xe000
    2ce3:	e0 00 00 
    2ce6:	67 66 c7 04 24 00 20 	mov    DWORD PTR [esp],0x2000
    2ced:	00 00 
    2cef:	66 e8 4c ef ff ff    	call   1c41 <_getRecords>
    2cf5:	66 a3 58 77          	mov    ds:0x7758,eax
D:\OneDrive\Study\Operating Systems\实验\project6\codes/./lib/utilsC.c:274
	for(int i = 0; i < Len; ++i){
    2cf9:	67 66 c7 45 fc 00 00 	mov    DWORD PTR [ebp-0x4],0x0
    2d00:	00 00 
    2d02:	eb 2c                	jmp    2d30 <_initialFile+0x5d>
D:\OneDrive\Study\Operating Systems\实验\project6\codes/./lib/utilsC.c:275
		information[i].type=null;
    2d04:	67 66 8b 55 fc       	mov    edx,DWORD PTR [ebp-0x4]
    2d09:	66 89 d0             	mov    eax,edx
    2d0c:	66 01 c0             	add    eax,eax
    2d0f:	66 01 d0             	add    eax,edx
    2d12:	66 c1 e0 02          	shl    eax,0x2
    2d16:	66 01 d0             	add    eax,edx
    2d19:	66 c1 e0 02          	shl    eax,0x2
    2d1d:	66 05 c0 77 00 00    	add    eax,0x77c0
    2d23:	67 66 c7 00 00 00 00 	mov    DWORD PTR [eax],0x0
    2d2a:	00 
D:\OneDrive\Study\Operating Systems\实验\project6\codes/./lib/utilsC.c:274
	for(int i = 0; i < Len; ++i){
    2d2b:	67 66 ff 45 fc       	inc    DWORD PTR [ebp-0x4]
    2d30:	67 66 83 7d fc 31    	cmp    DWORD PTR [ebp-0x4],0x31
    2d36:	7e cc                	jle    2d04 <_initialFile+0x31>
D:\OneDrive\Study\Operating Systems\实验\project6\codes/./lib/utilsC.c:277
	}
	no.lmaddress = 0;
    2d38:	66 c7 06 84 77 00 00 	mov    DWORD PTR ds:0x7784,0x0
    2d3f:	00 00 
D:\OneDrive\Study\Operating Systems\实验\project6\codes/./lib/utilsC.c:278
	no.size = 0;
    2d41:	66 c7 06 88 77 00 00 	mov    DWORD PTR ds:0x7788,0x0
    2d48:	00 00 
D:\OneDrive\Study\Operating Systems\实验\project6\codes/./lib/utilsC.c:279
	no.type = null;
    2d4a:	66 c7 06 80 77 00 00 	mov    DWORD PTR ds:0x7780,0x0
    2d51:	00 00 
D:\OneDrive\Study\Operating Systems\实验\project6\codes/./lib/utilsC.c:280
	strncpy("", no.name, 0);
    2d53:	67 66 c7 44 24 08 00 	mov    DWORD PTR [esp+0x8],0x0
    2d5a:	00 00 00 
    2d5d:	67 66 c7 44 24 04 60 	mov    DWORD PTR [esp+0x4],0x7760
    2d64:	77 00 00 
    2d67:	67 66 c7 04 24 c0 50 	mov    DWORD PTR [esp],0x50c0
    2d6e:	00 00 
    2d70:	66 e8 0a fb ff ff    	call   2880 <_strncpy>
D:\OneDrive\Study\Operating Systems\实验\project6\codes/./lib/utilsC.c:281
	loadFiles();
    2d76:	66 e8 05 00 00 00    	call   2d81 <_loadFiles>
D:\OneDrive\Study\Operating Systems\实验\project6\codes/./lib/utilsC.c:282
}
    2d7c:	90                   	nop
    2d7d:	66 c9                	leave  
    2d7f:	66 c3                	ret    

00002d81 <_loadFiles>:
loadFiles():
D:\OneDrive\Study\Operating Systems\实验\project6\codes/./lib/utilsC.c:286


void loadFiles()
{
    2d81:	66 55                	push   ebp
    2d83:	66 89 e5             	mov    ebp,esp
    2d86:	66 57                	push   edi
    2d88:	66 56                	push   esi
    2d8a:	66 81 ec a4 00 00 00 	sub    esp,0xa4
D:\OneDrive\Study\Operating Systems\实验\project6\codes/./lib/utilsC.c:287
	char * rawRecords = getRecords(segOfOs, offsetOfRecord);
    2d91:	67 66 c7 44 24 04 00 	mov    DWORD PTR [esp+0x4],0xd000
    2d98:	d0 00 00 
    2d9b:	67 66 c7 04 24 00 20 	mov    DWORD PTR [esp],0x2000
    2da2:	00 00 
    2da4:	66 e8 97 ee ff ff    	call   1c41 <_getRecords>
    2daa:	67 66 89 45 e4       	mov    DWORD PTR [ebp-0x1c],eax
D:\OneDrive\Study\Operating Systems\实验\project6\codes/./lib/utilsC.c:288
	int i = 0;
    2daf:	67 66 c7 45 f4 00 00 	mov    DWORD PTR [ebp-0xc],0x0
    2db6:	00 00 
D:\OneDrive\Study\Operating Systems\实验\project6\codes/./lib/utilsC.c:289
	int l = 0;
    2db8:	67 66 c7 45 f0 00 00 	mov    DWORD PTR [ebp-0x10],0x0
    2dbf:	00 00 
D:\OneDrive\Study\Operating Systems\实验\project6\codes/./lib/utilsC.c:290
	int size = 0;
    2dc1:	67 66 c7 45 ec 00 00 	mov    DWORD PTR [ebp-0x14],0x0
    2dc8:	00 00 
D:\OneDrive\Study\Operating Systems\实验\project6\codes/./lib/utilsC.c:291
	int place = 0;
    2dca:	67 66 c7 45 e8 00 00 	mov    DWORD PTR [ebp-0x18],0x0
    2dd1:	00 00 
D:\OneDrive\Study\Operating Systems\实验\project6\codes/./lib/utilsC.c:293
	char name[30];
	enum fileType t = null;
    2dd3:	67 66 c7 45 e0 00 00 	mov    DWORD PTR [ebp-0x20],0x0
    2dda:	00 00 
D:\OneDrive\Study\Operating Systems\实验\project6\codes/./lib/utilsC.c:295
	struct info tmp;
	while(rawRecords[i] != '\n')
    2ddc:	e9 e3 01             	jmp    2fc2 <_loadFiles+0x241>
D:\OneDrive\Study\Operating Systems\实验\project6\codes/./lib/utilsC.c:297
	{
		size = 0;
    2ddf:	67 66 c7 45 ec 00 00 	mov    DWORD PTR [ebp-0x14],0x0
    2de6:	00 00 
D:\OneDrive\Study\Operating Systems\实验\project6\codes/./lib/utilsC.c:298
		place = 0;
    2de8:	67 66 c7 45 e8 00 00 	mov    DWORD PTR [ebp-0x18],0x0
    2def:	00 00 
D:\OneDrive\Study\Operating Systems\实验\project6\codes/./lib/utilsC.c:300
		// name
		++i;
    2df1:	67 66 ff 45 f4       	inc    DWORD PTR [ebp-0xc]
D:\OneDrive\Study\Operating Systems\实验\project6\codes/./lib/utilsC.c:301
		l = 0;
    2df6:	67 66 c7 45 f0 00 00 	mov    DWORD PTR [ebp-0x10],0x0
    2dfd:	00 00 
D:\OneDrive\Study\Operating Systems\实验\project6\codes/./lib/utilsC.c:302
		while(rawRecords[i]!='|'){
    2dff:	eb 0a                	jmp    2e0b <_loadFiles+0x8a>
D:\OneDrive\Study\Operating Systems\实验\project6\codes/./lib/utilsC.c:303
			++i;
    2e01:	67 66 ff 45 f4       	inc    DWORD PTR [ebp-0xc]
D:\OneDrive\Study\Operating Systems\实验\project6\codes/./lib/utilsC.c:304
			++l;
    2e06:	67 66 ff 45 f0       	inc    DWORD PTR [ebp-0x10]
D:\OneDrive\Study\Operating Systems\实验\project6\codes/./lib/utilsC.c:302
		while(rawRecords[i]!='|'){
    2e0b:	67 66 8b 55 f4       	mov    edx,DWORD PTR [ebp-0xc]
    2e10:	67 66 8b 45 e4       	mov    eax,DWORD PTR [ebp-0x1c]
    2e15:	66 01 d0             	add    eax,edx
    2e18:	67 8a 00             	mov    al,BYTE PTR [eax]
    2e1b:	3c 7c                	cmp    al,0x7c
    2e1d:	75 e2                	jne    2e01 <_loadFiles+0x80>
D:\OneDrive\Study\Operating Systems\实验\project6\codes/./lib/utilsC.c:306
		}
		++i;
    2e1f:	67 66 ff 45 f4       	inc    DWORD PTR [ebp-0xc]
D:\OneDrive\Study\Operating Systems\实验\project6\codes/./lib/utilsC.c:307
		strncpy(rawRecords+i-l-1, name, l);
    2e24:	67 66 8b 55 f4       	mov    edx,DWORD PTR [ebp-0xc]
    2e29:	67 66 8b 45 f0       	mov    eax,DWORD PTR [ebp-0x10]
    2e2e:	66 29 c2             	sub    edx,eax
    2e31:	66 89 d0             	mov    eax,edx
    2e34:	67 66 8d 50 ff       	lea    edx,[eax-0x1]
    2e39:	67 66 8b 45 e4       	mov    eax,DWORD PTR [ebp-0x1c]
    2e3e:	66 01 c2             	add    edx,eax
    2e41:	67 66 8b 45 f0       	mov    eax,DWORD PTR [ebp-0x10]
    2e46:	67 66 89 44 24 08    	mov    DWORD PTR [esp+0x8],eax
    2e4c:	67 66 8d 45 c2       	lea    eax,[ebp-0x3e]
    2e51:	67 66 89 44 24 04    	mov    DWORD PTR [esp+0x4],eax
    2e57:	67 66 89 14 24       	mov    DWORD PTR [esp],edx
    2e5c:	66 e8 1e fa ff ff    	call   2880 <_strncpy>
D:\OneDrive\Study\Operating Systems\实验\project6\codes/./lib/utilsC.c:308
		name[l] = '\0';
    2e62:	67 66 8d 55 c2       	lea    edx,[ebp-0x3e]
    2e67:	67 66 8b 45 f0       	mov    eax,DWORD PTR [ebp-0x10]
    2e6c:	66 01 d0             	add    eax,edx
    2e6f:	67 c6 00 00          	mov    BYTE PTR [eax],0x0
D:\OneDrive\Study\Operating Systems\实验\project6\codes/./lib/utilsC.c:310
		// size
		while(rawRecords[i]!='|'){
    2e73:	eb 3a                	jmp    2eaf <_loadFiles+0x12e>
D:\OneDrive\Study\Operating Systems\实验\project6\codes/./lib/utilsC.c:311
			size = size * 10 + rawRecords[i]-'0';
    2e75:	67 66 8b 55 ec       	mov    edx,DWORD PTR [ebp-0x14]
    2e7a:	66 89 d0             	mov    eax,edx
    2e7d:	66 c1 e0 02          	shl    eax,0x2
    2e81:	66 01 d0             	add    eax,edx
    2e84:	66 01 c0             	add    eax,eax
    2e87:	66 89 c1             	mov    ecx,eax
    2e8a:	67 66 8b 55 f4       	mov    edx,DWORD PTR [ebp-0xc]
    2e8f:	67 66 8b 45 e4       	mov    eax,DWORD PTR [ebp-0x1c]
    2e94:	66 01 d0             	add    eax,edx
    2e97:	67 8a 00             	mov    al,BYTE PTR [eax]
    2e9a:	66 0f be c0          	movsx  eax,al
    2e9e:	66 01 c8             	add    eax,ecx
    2ea1:	66 83 e8 30          	sub    eax,0x30
    2ea5:	67 66 89 45 ec       	mov    DWORD PTR [ebp-0x14],eax
D:\OneDrive\Study\Operating Systems\实验\project6\codes/./lib/utilsC.c:312
			++i;
    2eaa:	67 66 ff 45 f4       	inc    DWORD PTR [ebp-0xc]
D:\OneDrive\Study\Operating Systems\实验\project6\codes/./lib/utilsC.c:310
		while(rawRecords[i]!='|'){
    2eaf:	67 66 8b 55 f4       	mov    edx,DWORD PTR [ebp-0xc]
    2eb4:	67 66 8b 45 e4       	mov    eax,DWORD PTR [ebp-0x1c]
    2eb9:	66 01 d0             	add    eax,edx
    2ebc:	67 8a 00             	mov    al,BYTE PTR [eax]
    2ebf:	3c 7c                	cmp    al,0x7c
    2ec1:	75 b2                	jne    2e75 <_loadFiles+0xf4>
D:\OneDrive\Study\Operating Systems\实验\project6\codes/./lib/utilsC.c:314
		}		
		++i;
    2ec3:	67 66 ff 45 f4       	inc    DWORD PTR [ebp-0xc]
D:\OneDrive\Study\Operating Systems\实验\project6\codes/./lib/utilsC.c:316
		// place
		while(rawRecords[i]!='|'){
    2ec8:	eb 3a                	jmp    2f04 <_loadFiles+0x183>
D:\OneDrive\Study\Operating Systems\实验\project6\codes/./lib/utilsC.c:317
			place = place * 10 + rawRecords[i]-'0';
    2eca:	67 66 8b 55 e8       	mov    edx,DWORD PTR [ebp-0x18]
    2ecf:	66 89 d0             	mov    eax,edx
    2ed2:	66 c1 e0 02          	shl    eax,0x2
    2ed6:	66 01 d0             	add    eax,edx
    2ed9:	66 01 c0             	add    eax,eax
    2edc:	66 89 c1             	mov    ecx,eax
    2edf:	67 66 8b 55 f4       	mov    edx,DWORD PTR [ebp-0xc]
    2ee4:	67 66 8b 45 e4       	mov    eax,DWORD PTR [ebp-0x1c]
    2ee9:	66 01 d0             	add    eax,edx
    2eec:	67 8a 00             	mov    al,BYTE PTR [eax]
    2eef:	66 0f be c0          	movsx  eax,al
    2ef3:	66 01 c8             	add    eax,ecx
    2ef6:	66 83 e8 30          	sub    eax,0x30
    2efa:	67 66 89 45 e8       	mov    DWORD PTR [ebp-0x18],eax
D:\OneDrive\Study\Operating Systems\实验\project6\codes/./lib/utilsC.c:318
			++i;
    2eff:	67 66 ff 45 f4       	inc    DWORD PTR [ebp-0xc]
D:\OneDrive\Study\Operating Systems\实验\project6\codes/./lib/utilsC.c:316
		while(rawRecords[i]!='|'){
    2f04:	67 66 8b 55 f4       	mov    edx,DWORD PTR [ebp-0xc]
    2f09:	67 66 8b 45 e4       	mov    eax,DWORD PTR [ebp-0x1c]
    2f0e:	66 01 d0             	add    eax,edx
    2f11:	67 8a 00             	mov    al,BYTE PTR [eax]
    2f14:	3c 7c                	cmp    al,0x7c
    2f16:	75 b2                	jne    2eca <_loadFiles+0x149>
D:\OneDrive\Study\Operating Systems\实验\project6\codes/./lib/utilsC.c:320
		}		
		++i;
    2f18:	67 66 ff 45 f4       	inc    DWORD PTR [ebp-0xc]
D:\OneDrive\Study\Operating Systems\实验\project6\codes/./lib/utilsC.c:322
		//type
		t = rawRecords[i]-'0';
    2f1d:	67 66 8b 55 f4       	mov    edx,DWORD PTR [ebp-0xc]
    2f22:	67 66 8b 45 e4       	mov    eax,DWORD PTR [ebp-0x1c]
    2f27:	66 01 d0             	add    eax,edx
    2f2a:	67 8a 00             	mov    al,BYTE PTR [eax]
    2f2d:	66 0f be c0          	movsx  eax,al
    2f31:	66 83 e8 30          	sub    eax,0x30
    2f35:	67 66 89 45 e0       	mov    DWORD PTR [ebp-0x20],eax
D:\OneDrive\Study\Operating Systems\实验\project6\codes/./lib/utilsC.c:323
		i+=3;
    2f3a:	67 66 83 45 f4 03    	add    DWORD PTR [ebp-0xc],0x3
D:\OneDrive\Study\Operating Systems\实验\project6\codes/./lib/utilsC.c:324
		tmp.size = size;
    2f40:	67 66 8b 45 ec       	mov    eax,DWORD PTR [ebp-0x14]
    2f45:	67 66 89 45 b4       	mov    DWORD PTR [ebp-0x4c],eax
D:\OneDrive\Study\Operating Systems\实验\project6\codes/./lib/utilsC.c:325
		tmp.type = t;
    2f4a:	67 66 8b 45 e0       	mov    eax,DWORD PTR [ebp-0x20]
    2f4f:	67 66 89 45 ac       	mov    DWORD PTR [ebp-0x54],eax
D:\OneDrive\Study\Operating Systems\实验\project6\codes/./lib/utilsC.c:326
		tmp.lmaddress = place;
    2f54:	67 66 8b 45 e8       	mov    eax,DWORD PTR [ebp-0x18]
    2f59:	67 66 89 45 b0       	mov    DWORD PTR [ebp-0x50],eax
D:\OneDrive\Study\Operating Systems\实验\project6\codes/./lib/utilsC.c:327
		tmp.deleted = 0;
    2f5e:	67 66 c7 45 b8 00 00 	mov    DWORD PTR [ebp-0x48],0x0
    2f65:	00 00 
D:\OneDrive\Study\Operating Systems\实验\project6\codes/./lib/utilsC.c:328
		strncpy(name, tmp.name, strlen(name));
    2f67:	67 66 8d 45 c2       	lea    eax,[ebp-0x3e]
    2f6c:	67 66 89 04 24       	mov    DWORD PTR [esp],eax
    2f71:	66 e8 23 f7 ff ff    	call   269a <_strlen>
    2f77:	67 66 89 44 24 08    	mov    DWORD PTR [esp+0x8],eax
    2f7d:	67 66 8d 45 8c       	lea    eax,[ebp-0x74]
    2f82:	67 66 89 44 24 04    	mov    DWORD PTR [esp+0x4],eax
    2f88:	67 66 8d 45 c2       	lea    eax,[ebp-0x3e]
    2f8d:	67 66 89 04 24       	mov    DWORD PTR [esp],eax
    2f92:	66 e8 e8 f8 ff ff    	call   2880 <_strncpy>
D:\OneDrive\Study\Operating Systems\实验\project6\codes/./lib/utilsC.c:329
		hash(name, tmp);
    2f98:	67 66 8d 44 24 04    	lea    eax,[esp+0x4]
    2f9e:	67 66 8d 55 8c       	lea    edx,[ebp-0x74]
    2fa3:	66 b9 0d 00 00 00    	mov    ecx,0xd
    2fa9:	66 89 c7             	mov    edi,eax
    2fac:	66 89 d6             	mov    esi,edx
    2faf:	66 f3 a5             	rep movs DWORD PTR es:[di],DWORD PTR ds:[si]
    2fb2:	67 66 8d 45 c2       	lea    eax,[ebp-0x3e]
    2fb7:	67 66 89 04 24       	mov    DWORD PTR [esp],eax
    2fbc:	66 e8 b9 fa ff ff    	call   2a7b <_hash>
D:\OneDrive\Study\Operating Systems\实验\project6\codes/./lib/utilsC.c:295
	while(rawRecords[i] != '\n')
    2fc2:	67 66 8b 55 f4       	mov    edx,DWORD PTR [ebp-0xc]
    2fc7:	67 66 8b 45 e4       	mov    eax,DWORD PTR [ebp-0x1c]
    2fcc:	66 01 d0             	add    eax,edx
    2fcf:	67 8a 00             	mov    al,BYTE PTR [eax]
    2fd2:	3c 0a                	cmp    al,0xa
    2fd4:	0f 85 07 fe          	jne    2ddf <_loadFiles+0x5e>
D:\OneDrive\Study\Operating Systems\实验\project6\codes/./lib/utilsC.c:331
	}
}
    2fd8:	90                   	nop
    2fd9:	66 81 c4 a4 00 00 00 	add    esp,0xa4
    2fe0:	66 5e                	pop    esi
    2fe2:	66 5f                	pop    edi
    2fe4:	66 5d                	pop    ebp
    2fe6:	66 c3                	ret    

00002fe8 <_initialProcessTable>:
initialProcessTable():
D:\OneDrive\Study\Operating Systems\实验\project6\codes/./lib/utilsC.c:338



///////////// process ////////////////
void initialProcessTable()
{
    2fe8:	66 55                	push   ebp
    2fea:	66 89 e5             	mov    ebp,esp
    2fed:	66 83 ec 10          	sub    esp,0x10
D:\OneDrive\Study\Operating Systems\实验\project6\codes/./lib/utilsC.c:339
	for (int i = 0; i < Len; ++i)
    2ff1:	67 66 c7 45 fc 00 00 	mov    DWORD PTR [ebp-0x4],0x0
    2ff8:	00 00 
    2ffa:	e9 85 00             	jmp    3082 <_initialProcessTable+0x9a>
D:\OneDrive\Study\Operating Systems\实验\project6\codes/./lib/utilsC.c:341
	{
		processTable[i].id = -1;
    2ffd:	67 66 8b 55 fc       	mov    edx,DWORD PTR [ebp-0x4]
    3002:	66 89 d0             	mov    eax,edx
    3005:	66 01 c0             	add    eax,eax
    3008:	66 01 d0             	add    eax,edx
    300b:	66 c1 e0 05          	shl    eax,0x5
    300f:	66 05 04 82 00 00    	add    eax,0x8204
    3015:	67 66 c7 00 ff ff ff 	mov    DWORD PTR [eax],0xffffffff
    301c:	ff 
D:\OneDrive\Study\Operating Systems\实验\project6\codes/./lib/utilsC.c:342
		processTable[i].status = Origin;
    301d:	67 66 8b 55 fc       	mov    edx,DWORD PTR [ebp-0x4]
    3022:	66 89 d0             	mov    eax,edx
    3025:	66 01 c0             	add    eax,eax
    3028:	66 01 d0             	add    eax,edx
    302b:	66 c1 e0 05          	shl    eax,0x5
    302f:	66 05 3c 82 00 00    	add    eax,0x823c
    3035:	67 66 c7 00 00 00 00 	mov    DWORD PTR [eax],0x0
    303c:	00 
D:\OneDrive\Study\Operating Systems\实验\project6\codes/./lib/utilsC.c:343
		processTable[i].fatherID = -1;
    303d:	67 66 8b 55 fc       	mov    edx,DWORD PTR [ebp-0x4]
    3042:	66 89 d0             	mov    eax,edx
    3045:	66 01 c0             	add    eax,eax
    3048:	66 01 d0             	add    eax,edx
    304b:	66 c1 e0 05          	shl    eax,0x5
    304f:	66 05 30 82 00 00    	add    eax,0x8230
    3055:	67 66 c7 00 ff ff ff 	mov    DWORD PTR [eax],0xffffffff
    305c:	ff 
D:\OneDrive\Study\Operating Systems\实验\project6\codes/./lib/utilsC.c:344
		processTable[i].sonID = -1;
    305d:	67 66 8b 55 fc       	mov    edx,DWORD PTR [ebp-0x4]
    3062:	66 89 d0             	mov    eax,edx
    3065:	66 01 c0             	add    eax,eax
    3068:	66 01 d0             	add    eax,edx
    306b:	66 c1 e0 05          	shl    eax,0x5
    306f:	66 05 38 82 00 00    	add    eax,0x8238
    3075:	67 66 c7 00 ff ff ff 	mov    DWORD PTR [eax],0xffffffff
    307c:	ff 
D:\OneDrive\Study\Operating Systems\实验\project6\codes/./lib/utilsC.c:339
	for (int i = 0; i < Len; ++i)
    307d:	67 66 ff 45 fc       	inc    DWORD PTR [ebp-0x4]
    3082:	67 66 83 7d fc 31    	cmp    DWORD PTR [ebp-0x4],0x31
    3088:	0f 8e 71 ff          	jle    2ffd <_initialProcessTable+0x15>
D:\OneDrive\Study\Operating Systems\实验\project6\codes/./lib/utilsC.c:348

	}
	
	processTable[0].status = running;
    308c:	66 c7 06 3c 82 02 00 	mov    DWORD PTR ds:0x823c,0x2
    3093:	00 00 
D:\OneDrive\Study\Operating Systems\实验\project6\codes/./lib/utilsC.c:349
	strncpy("kernel", processTable[0].name, 6); 
    3095:	67 66 c7 44 24 08 06 	mov    DWORD PTR [esp+0x8],0x6
    309c:	00 00 00 
    309f:	67 66 c7 44 24 04 0c 	mov    DWORD PTR [esp+0x4],0x820c
    30a6:	82 00 00 
    30a9:	67 66 c7 04 24 c1 50 	mov    DWORD PTR [esp],0x50c1
    30b0:	00 00 
    30b2:	66 e8 c8 f7 ff ff    	call   2880 <_strncpy>
D:\OneDrive\Study\Operating Systems\实验\project6\codes/./lib/utilsC.c:350
	processTable[0].id = 0;
    30b8:	66 c7 06 04 82 00 00 	mov    DWORD PTR ds:0x8204,0x0
    30bf:	00 00 
D:\OneDrive\Study\Operating Systems\实验\project6\codes/./lib/utilsC.c:351
	processTable[0].pcb.cs = 0x2000;
    30c1:	c7 06 fa 81 00 20    	mov    WORD PTR ds:0x81fa,0x2000
D:\OneDrive\Study\Operating Systems\实验\project6\codes/./lib/utilsC.c:352
	processTable[0].pcb.ip = 0x0;
    30c7:	c7 06 f8 81 00 00    	mov    WORD PTR ds:0x81f8,0x0
D:\OneDrive\Study\Operating Systems\实验\project6\codes/./lib/utilsC.c:353
	processTable[0].pcb.ss_now = 0x2000;
    30cd:	c7 06 00 82 00 20    	mov    WORD PTR ds:0x8200,0x2000
D:\OneDrive\Study\Operating Systems\实验\project6\codes/./lib/utilsC.c:354
	processTable[0].pcb.sp_now = 0xffff;
    30d3:	c7 06 fe 81 ff ff    	mov    WORD PTR ds:0x81fe,0xffff
D:\OneDrive\Study\Operating Systems\实验\project6\codes/./lib/utilsC.c:356
	// curProcessId = 1;
}
    30d9:	90                   	nop
    30da:	66 c9                	leave  
    30dc:	66 c3                	ret    

000030de <_createProcess>:
createProcess():
D:\OneDrive\Study\Operating Systems\实验\project6\codes/./lib/utilsC.c:361


//size瑕澶у
void createProcess(int id, char * name, int size, int cs, int ip, int ss, int sp, int blockNum)
{
    30de:	66 55                	push   ebp
    30e0:	66 89 e5             	mov    ebp,esp
    30e3:	66 83 ec 0c          	sub    esp,0xc
D:\OneDrive\Study\Operating Systems\实验\project6\codes/./lib/utilsC.c:362
	processTable[id].id = id;
    30e7:	67 66 8b 55 08       	mov    edx,DWORD PTR [ebp+0x8]
    30ec:	66 89 d0             	mov    eax,edx
    30ef:	66 01 c0             	add    eax,eax
    30f2:	66 01 d0             	add    eax,edx
    30f5:	66 c1 e0 05          	shl    eax,0x5
    30f9:	67 66 8d 90 04 82 00 	lea    edx,[eax+0x8204]
    3100:	00 
    3101:	67 66 8b 45 08       	mov    eax,DWORD PTR [ebp+0x8]
    3106:	67 66 89 02          	mov    DWORD PTR [edx],eax
D:\OneDrive\Study\Operating Systems\实验\project6\codes/./lib/utilsC.c:363
	processTable[id].status = ready;
    310a:	67 66 8b 55 08       	mov    edx,DWORD PTR [ebp+0x8]
    310f:	66 89 d0             	mov    eax,edx
    3112:	66 01 c0             	add    eax,eax
    3115:	66 01 d0             	add    eax,edx
    3118:	66 c1 e0 05          	shl    eax,0x5
    311c:	66 05 3c 82 00 00    	add    eax,0x823c
    3122:	67 66 c7 00 01 00 00 	mov    DWORD PTR [eax],0x1
    3129:	00 
D:\OneDrive\Study\Operating Systems\实验\project6\codes/./lib/utilsC.c:366
	// int blockNum = findEnoughBlock(size);
	// blockNum = require(size, blockNum);
	processTable[id].blockNum = blockNum;
    312a:	67 66 8b 55 08       	mov    edx,DWORD PTR [ebp+0x8]
    312f:	66 89 d0             	mov    eax,edx
    3132:	66 01 c0             	add    eax,eax
    3135:	66 01 d0             	add    eax,edx
    3138:	66 c1 e0 05          	shl    eax,0x5
    313c:	67 66 8d 90 08 82 00 	lea    edx,[eax+0x8208]
    3143:	00 
    3144:	67 66 8b 45 24       	mov    eax,DWORD PTR [ebp+0x24]
    3149:	67 66 89 02          	mov    DWORD PTR [edx],eax
D:\OneDrive\Study\Operating Systems\实验\project6\codes/./lib/utilsC.c:367
	strncpy(name, processTable[id].name, strlen(name));
    314d:	67 66 8b 45 0c       	mov    eax,DWORD PTR [ebp+0xc]
    3152:	67 66 89 04 24       	mov    DWORD PTR [esp],eax
    3157:	66 e8 3d f5 ff ff    	call   269a <_strlen>
    315d:	66 89 c2             	mov    edx,eax
    3160:	67 66 8b 4d 08       	mov    ecx,DWORD PTR [ebp+0x8]
    3165:	66 89 c8             	mov    eax,ecx
    3168:	66 01 c0             	add    eax,eax
    316b:	66 01 c8             	add    eax,ecx
    316e:	66 c1 e0 05          	shl    eax,0x5
    3172:	66 83 c0 20          	add    eax,0x20
    3176:	66 05 e0 81 00 00    	add    eax,0x81e0
    317c:	66 83 c0 0c          	add    eax,0xc
    3180:	67 66 89 54 24 08    	mov    DWORD PTR [esp+0x8],edx
    3186:	67 66 89 44 24 04    	mov    DWORD PTR [esp+0x4],eax
    318c:	67 66 8b 45 0c       	mov    eax,DWORD PTR [ebp+0xc]
    3191:	67 66 89 04 24       	mov    DWORD PTR [esp],eax
    3196:	66 e8 e4 f6 ff ff    	call   2880 <_strncpy>
D:\OneDrive\Study\Operating Systems\实验\project6\codes/./lib/utilsC.c:379
	//浠ヤㄥ浠ｇ宸э规存ユ瑰csss娈碉涓绉婚崇Щ4浣硷浠ヤ娇寰绋搴锛org 0h锛涓瑕org绉婚 
	// processTable[id].pcb.cs = segOfPrg + (offsetOfPrg >> 4);
	// processTable[id].pcb.ip = 0;
	// processTable[id].pcb.ss_now = segOfPrg + (offsetOfPrg >> 4);
	// processTable[id].pcb.sp_now = size-1;
	processTable[id].pcb.cs = cs;
    319c:	67 66 8b 45 14       	mov    eax,DWORD PTR [ebp+0x14]
    31a1:	66 89 c2             	mov    edx,eax
    31a4:	67 66 8b 4d 08       	mov    ecx,DWORD PTR [ebp+0x8]
    31a9:	66 89 c8             	mov    eax,ecx
    31ac:	66 01 c0             	add    eax,eax
    31af:	66 01 c8             	add    eax,ecx
    31b2:	66 c1 e0 05          	shl    eax,0x5
    31b6:	66 05 fa 81 00 00    	add    eax,0x81fa
    31bc:	67 89 10             	mov    WORD PTR [eax],dx
D:\OneDrive\Study\Operating Systems\实验\project6\codes/./lib/utilsC.c:380
	processTable[id].pcb.ip = ip;
    31bf:	67 66 8b 45 18       	mov    eax,DWORD PTR [ebp+0x18]
    31c4:	66 89 c2             	mov    edx,eax
    31c7:	67 66 8b 4d 08       	mov    ecx,DWORD PTR [ebp+0x8]
    31cc:	66 89 c8             	mov    eax,ecx
    31cf:	66 01 c0             	add    eax,eax
    31d2:	66 01 c8             	add    eax,ecx
    31d5:	66 c1 e0 05          	shl    eax,0x5
    31d9:	66 05 f8 81 00 00    	add    eax,0x81f8
    31df:	67 89 10             	mov    WORD PTR [eax],dx
D:\OneDrive\Study\Operating Systems\实验\project6\codes/./lib/utilsC.c:381
	processTable[id].pcb.ss_now = ss;
    31e2:	67 66 8b 45 1c       	mov    eax,DWORD PTR [ebp+0x1c]
    31e7:	66 89 c2             	mov    edx,eax
    31ea:	67 66 8b 4d 08       	mov    ecx,DWORD PTR [ebp+0x8]
    31ef:	66 89 c8             	mov    eax,ecx
    31f2:	66 01 c0             	add    eax,eax
    31f5:	66 01 c8             	add    eax,ecx
    31f8:	66 c1 e0 05          	shl    eax,0x5
    31fc:	66 05 00 82 00 00    	add    eax,0x8200
    3202:	67 89 10             	mov    WORD PTR [eax],dx
D:\OneDrive\Study\Operating Systems\实验\project6\codes/./lib/utilsC.c:382
	processTable[id].pcb.sp_now = sp;
    3205:	67 66 8b 45 20       	mov    eax,DWORD PTR [ebp+0x20]
    320a:	66 89 c2             	mov    edx,eax
    320d:	67 66 8b 4d 08       	mov    ecx,DWORD PTR [ebp+0x8]
    3212:	66 89 c8             	mov    eax,ecx
    3215:	66 01 c0             	add    eax,eax
    3218:	66 01 c8             	add    eax,ecx
    321b:	66 c1 e0 05          	shl    eax,0x5
    321f:	66 05 fe 81 00 00    	add    eax,0x81fe
    3225:	67 89 10             	mov    WORD PTR [eax],dx
D:\OneDrive\Study\Operating Systems\实验\project6\codes/./lib/utilsC.c:384
	// loadReal(lmaddress, fileSize, offsetOfPrg, segOfPrg);
}
    3228:	90                   	nop
    3229:	66 c9                	leave  
    322b:	66 c3                	ret    

0000322d <_block>:
block():
D:\OneDrive\Study\Operating Systems\实验\project6\codes/./lib/utilsC.c:388

int quesize, tmp;
void block(int id)
{
    322d:	66 55                	push   ebp
    322f:	66 89 e5             	mov    ebp,esp
    3232:	66 83 ec 0c          	sub    esp,0xc
D:\OneDrive\Study\Operating Systems\实验\project6\codes/./lib/utilsC.c:389
	__asm__("cli\n");
    3236:	fa                   	cli    
D:\OneDrive\Study\Operating Systems\实验\project6\codes/./lib/utilsC.c:390
	processTable[id].status = blocked;
    3237:	67 66 8b 55 08       	mov    edx,DWORD PTR [ebp+0x8]
    323c:	66 89 d0             	mov    eax,edx
    323f:	66 01 c0             	add    eax,eax
    3242:	66 01 d0             	add    eax,edx
    3245:	66 c1 e0 05          	shl    eax,0x5
    3249:	66 05 3c 82 00 00    	add    eax,0x823c
    324f:	67 66 c7 00 03 00 00 	mov    DWORD PTR [eax],0x3
    3256:	00 
D:\OneDrive\Study\Operating Systems\实验\project6\codes/./lib/utilsC.c:391
	enqueue(&BlockedQue, id);
    3257:	67 66 8b 45 08       	mov    eax,DWORD PTR [ebp+0x8]
    325c:	67 66 89 44 24 04    	mov    DWORD PTR [esp+0x4],eax
    3262:	67 66 c7 04 24 80 76 	mov    DWORD PTR [esp],0x7680
    3269:	00 00 
    326b:	66 e8 44 09 00 00    	call   3bb5 <_enqueue>
D:\OneDrive\Study\Operating Systems\实验\project6\codes/./lib/utilsC.c:392
	quesize = size(&ReadyQue);
    3271:	67 66 c7 04 24 c0 94 	mov    DWORD PTR [esp],0x94c0
    3278:	00 00 
    327a:	66 e8 ef 08 00 00    	call   3b6f <_size>
    3280:	66 a3 a0 95          	mov    ds:0x95a0,eax
D:\OneDrive\Study\Operating Systems\实验\project6\codes/./lib/utilsC.c:393
	for (int i = 0; i < quesize; ++i)
    3284:	67 66 c7 45 fc 00 00 	mov    DWORD PTR [ebp-0x4],0x0
    328b:	00 00 
    328d:	eb 42                	jmp    32d1 <_block+0xa4>
D:\OneDrive\Study\Operating Systems\实验\project6\codes/./lib/utilsC.c:395
	{
		dequeue(&ReadyQue, &tmp);
    328f:	67 66 c7 44 24 04 a4 	mov    DWORD PTR [esp+0x4],0x95a4
    3296:	95 00 00 
    3299:	67 66 c7 04 24 c0 94 	mov    DWORD PTR [esp],0x94c0
    32a0:	00 00 
    32a2:	66 e8 7a 09 00 00    	call   3c22 <_dequeue>
D:\OneDrive\Study\Operating Systems\实验\project6\codes/./lib/utilsC.c:396
		if(id != tmp)
    32a8:	66 a1 a4 95          	mov    eax,ds:0x95a4
    32ac:	67 66 39 45 08       	cmp    DWORD PTR [ebp+0x8],eax
    32b1:	74 19                	je     32cc <_block+0x9f>
D:\OneDrive\Study\Operating Systems\实验\project6\codes/./lib/utilsC.c:397
			enqueue(&ReadyQue, tmp);
    32b3:	66 a1 a4 95          	mov    eax,ds:0x95a4
    32b7:	67 66 89 44 24 04    	mov    DWORD PTR [esp+0x4],eax
    32bd:	67 66 c7 04 24 c0 94 	mov    DWORD PTR [esp],0x94c0
    32c4:	00 00 
    32c6:	66 e8 e9 08 00 00    	call   3bb5 <_enqueue>
D:\OneDrive\Study\Operating Systems\实验\project6\codes/./lib/utilsC.c:393
	for (int i = 0; i < quesize; ++i)
    32cc:	67 66 ff 45 fc       	inc    DWORD PTR [ebp-0x4]
    32d1:	66 a1 a0 95          	mov    eax,ds:0x95a0
    32d5:	67 66 39 45 fc       	cmp    DWORD PTR [ebp-0x4],eax
    32da:	7c b3                	jl     328f <_block+0x62>
D:\OneDrive\Study\Operating Systems\实验\project6\codes/./lib/utilsC.c:399
	}
	__asm__("sti\n");
    32dc:	fb                   	sti    
D:\OneDrive\Study\Operating Systems\实验\project6\codes/./lib/utilsC.c:400
}
    32dd:	90                   	nop
    32de:	66 c9                	leave  
    32e0:	66 c3                	ret    

000032e2 <_wakeup>:
wakeup():
D:\OneDrive\Study\Operating Systems\实验\project6\codes/./lib/utilsC.c:403

void wakeup(int id)
{
    32e2:	66 55                	push   ebp
    32e4:	66 89 e5             	mov    ebp,esp
    32e7:	66 83 ec 0c          	sub    esp,0xc
D:\OneDrive\Study\Operating Systems\实验\project6\codes/./lib/utilsC.c:404
	__asm__("cli\n");
    32eb:	fa                   	cli    
D:\OneDrive\Study\Operating Systems\实验\project6\codes/./lib/utilsC.c:405
	processTable[id].status = ready;
    32ec:	67 66 8b 55 08       	mov    edx,DWORD PTR [ebp+0x8]
    32f1:	66 89 d0             	mov    eax,edx
    32f4:	66 01 c0             	add    eax,eax
    32f7:	66 01 d0             	add    eax,edx
    32fa:	66 c1 e0 05          	shl    eax,0x5
    32fe:	66 05 3c 82 00 00    	add    eax,0x823c
    3304:	67 66 c7 00 01 00 00 	mov    DWORD PTR [eax],0x1
    330b:	00 
D:\OneDrive\Study\Operating Systems\实验\project6\codes/./lib/utilsC.c:406
	enqueue(&ReadyQue, id);
    330c:	67 66 8b 45 08       	mov    eax,DWORD PTR [ebp+0x8]
    3311:	67 66 89 44 24 04    	mov    DWORD PTR [esp+0x4],eax
    3317:	67 66 c7 04 24 c0 94 	mov    DWORD PTR [esp],0x94c0
    331e:	00 00 
    3320:	66 e8 8f 08 00 00    	call   3bb5 <_enqueue>
D:\OneDrive\Study\Operating Systems\实验\project6\codes/./lib/utilsC.c:407
	quesize = size(&BlockedQue);
    3326:	67 66 c7 04 24 80 76 	mov    DWORD PTR [esp],0x7680
    332d:	00 00 
    332f:	66 e8 3a 08 00 00    	call   3b6f <_size>
    3335:	66 a3 a0 95          	mov    ds:0x95a0,eax
D:\OneDrive\Study\Operating Systems\实验\project6\codes/./lib/utilsC.c:408
	for (int i = 0; i < quesize; ++i)
    3339:	67 66 c7 45 fc 00 00 	mov    DWORD PTR [ebp-0x4],0x0
    3340:	00 00 
    3342:	eb 42                	jmp    3386 <_wakeup+0xa4>
D:\OneDrive\Study\Operating Systems\实验\project6\codes/./lib/utilsC.c:410
	{
		dequeue(&BlockedQue, &tmp);
    3344:	67 66 c7 44 24 04 a4 	mov    DWORD PTR [esp+0x4],0x95a4
    334b:	95 00 00 
    334e:	67 66 c7 04 24 80 76 	mov    DWORD PTR [esp],0x7680
    3355:	00 00 
    3357:	66 e8 c5 08 00 00    	call   3c22 <_dequeue>
D:\OneDrive\Study\Operating Systems\实验\project6\codes/./lib/utilsC.c:411
		if(id != tmp)
    335d:	66 a1 a4 95          	mov    eax,ds:0x95a4
    3361:	67 66 39 45 08       	cmp    DWORD PTR [ebp+0x8],eax
    3366:	74 19                	je     3381 <_wakeup+0x9f>
D:\OneDrive\Study\Operating Systems\实验\project6\codes/./lib/utilsC.c:412
			enqueue(&BlockedQue, tmp);
    3368:	66 a1 a4 95          	mov    eax,ds:0x95a4
    336c:	67 66 89 44 24 04    	mov    DWORD PTR [esp+0x4],eax
    3372:	67 66 c7 04 24 80 76 	mov    DWORD PTR [esp],0x7680
    3379:	00 00 
    337b:	66 e8 34 08 00 00    	call   3bb5 <_enqueue>
D:\OneDrive\Study\Operating Systems\实验\project6\codes/./lib/utilsC.c:408
	for (int i = 0; i < quesize; ++i)
    3381:	67 66 ff 45 fc       	inc    DWORD PTR [ebp-0x4]
    3386:	66 a1 a0 95          	mov    eax,ds:0x95a0
    338a:	67 66 39 45 fc       	cmp    DWORD PTR [ebp-0x4],eax
    338f:	7c b3                	jl     3344 <_wakeup+0x62>
D:\OneDrive\Study\Operating Systems\实验\project6\codes/./lib/utilsC.c:414
	}
	__asm__("sti\n");
    3391:	fb                   	sti    
D:\OneDrive\Study\Operating Systems\实验\project6\codes/./lib/utilsC.c:415
}
    3392:	90                   	nop
    3393:	66 c9                	leave  
    3395:	66 c3                	ret    

00003397 <_schedule>:
schedule():
D:\OneDrive\Study\Operating Systems\实验\project6\codes/./lib/utilsC.c:421

// 娉ㄦ褰舵锛诲洪撅
// 褰舵芥runningblocked
int next;
void schedule()
{
    3397:	66 55                	push   ebp
    3399:	66 89 e5             	mov    ebp,esp
    339c:	66 83 ec 08          	sub    esp,0x8
D:\OneDrive\Study\Operating Systems\实验\project6\codes/./lib/utilsC.c:422
	if(runSub == 1 && size(&ReadyQue) > 1)
    33a0:	66 a1 a0 71          	mov    eax,ds:0x71a0
    33a4:	66 83 f8 01          	cmp    eax,0x1
    33a8:	0f 85 e1 00          	jne    348d <_schedule+0xf6>
    33ac:	67 66 c7 04 24 c0 94 	mov    DWORD PTR [esp],0x94c0
    33b3:	00 00 
    33b5:	66 e8 b4 07 00 00    	call   3b6f <_size>
    33bb:	66 83 f8 01          	cmp    eax,0x1
    33bf:	0f 8e ca 00          	jle    348d <_schedule+0xf6>
D:\OneDrive\Study\Operating Systems\实验\project6\codes/./lib/utilsC.c:426
	{
		// 娉ㄦ哄舵
		do{
			dequeue(&ReadyQue, &next);
    33c3:	67 66 c7 44 24 04 e8 	mov    DWORD PTR [esp+0x4],0x95e8
    33ca:	95 00 00 
    33cd:	67 66 c7 04 24 c0 94 	mov    DWORD PTR [esp],0x94c0
    33d4:	00 00 
    33d6:	66 e8 46 08 00 00    	call   3c22 <_dequeue>
D:\OneDrive\Study\Operating Systems\实验\project6\codes/./lib/utilsC.c:427
			if(next == 0){
    33dc:	66 a1 e8 95          	mov    eax,ds:0x95e8
    33e0:	66 85 c0             	test   eax,eax
    33e3:	75 19                	jne    33fe <_schedule+0x67>
D:\OneDrive\Study\Operating Systems\实验\project6\codes/./lib/utilsC.c:428
				enqueue(&ReadyQue, next);
    33e5:	66 a1 e8 95          	mov    eax,ds:0x95e8
    33e9:	67 66 89 44 24 04    	mov    DWORD PTR [esp+0x4],eax
    33ef:	67 66 c7 04 24 c0 94 	mov    DWORD PTR [esp],0x94c0
    33f6:	00 00 
    33f8:	66 e8 b7 07 00 00    	call   3bb5 <_enqueue>
D:\OneDrive\Study\Operating Systems\实验\project6\codes/./lib/utilsC.c:430
			}
		}while(next == 0);
    33fe:	66 a1 e8 95          	mov    eax,ds:0x95e8
    3402:	66 85 c0             	test   eax,eax
    3405:	74 bc                	je     33c3 <_schedule+0x2c>
D:\OneDrive\Study\Operating Systems\实验\project6\codes/./lib/utilsC.c:431
		processTable[next].status = running;
    3407:	66 8b 16 e8 95       	mov    edx,DWORD PTR ds:0x95e8
    340c:	66 89 d0             	mov    eax,edx
    340f:	66 01 c0             	add    eax,eax
    3412:	66 01 d0             	add    eax,edx
    3415:	66 c1 e0 05          	shl    eax,0x5
    3419:	66 05 3c 82 00 00    	add    eax,0x823c
    341f:	67 66 c7 00 02 00 00 	mov    DWORD PTR [eax],0x2
    3426:	00 
D:\OneDrive\Study\Operating Systems\实验\project6\codes/./lib/utilsC.c:432
		if(processTable[curProcessId].status == running){
    3427:	66 8b 16 a0 94       	mov    edx,DWORD PTR ds:0x94a0
    342c:	66 89 d0             	mov    eax,edx
    342f:	66 01 c0             	add    eax,eax
    3432:	66 01 d0             	add    eax,edx
    3435:	66 c1 e0 05          	shl    eax,0x5
    3439:	66 05 3c 82 00 00    	add    eax,0x823c
    343f:	67 66 8b 00          	mov    eax,DWORD PTR [eax]
    3443:	66 83 f8 02          	cmp    eax,0x2
    3447:	75 39                	jne    3482 <_schedule+0xeb>
D:\OneDrive\Study\Operating Systems\实验\project6\codes/./lib/utilsC.c:433
			processTable[curProcessId].status = ready;
    3449:	66 8b 16 a0 94       	mov    edx,DWORD PTR ds:0x94a0
    344e:	66 89 d0             	mov    eax,edx
    3451:	66 01 c0             	add    eax,eax
    3454:	66 01 d0             	add    eax,edx
    3457:	66 c1 e0 05          	shl    eax,0x5
    345b:	66 05 3c 82 00 00    	add    eax,0x823c
    3461:	67 66 c7 00 01 00 00 	mov    DWORD PTR [eax],0x1
    3468:	00 
D:\OneDrive\Study\Operating Systems\实验\project6\codes/./lib/utilsC.c:434
			enqueue(&ReadyQue, curProcessId);
    3469:	66 a1 a0 94          	mov    eax,ds:0x94a0
    346d:	67 66 89 44 24 04    	mov    DWORD PTR [esp+0x4],eax
    3473:	67 66 c7 04 24 c0 94 	mov    DWORD PTR [esp],0x94c0
    347a:	00 00 
    347c:	66 e8 33 07 00 00    	call   3bb5 <_enqueue>
D:\OneDrive\Study\Operating Systems\实验\project6\codes/./lib/utilsC.c:436
		}
		curProcessId = next;
    3482:	66 a1 e8 95          	mov    eax,ds:0x95e8
    3486:	66 a3 a0 94          	mov    ds:0x94a0,eax
    348a:	e9 1a 01             	jmp    35a7 <_schedule+0x210>
D:\OneDrive\Study\Operating Systems\实验\project6\codes/./lib/utilsC.c:438
	}
	else if(runSub == 1 && size(&ReadyQue) == 1)
    348d:	66 a1 a0 71          	mov    eax,ds:0x71a0
    3491:	66 83 f8 01          	cmp    eax,0x1
    3495:	0f 85 e5 00          	jne    357e <_schedule+0x1e7>
    3499:	67 66 c7 04 24 c0 94 	mov    DWORD PTR [esp],0x94c0
    34a0:	00 00 
    34a2:	66 e8 c7 06 00 00    	call   3b6f <_size>
    34a8:	66 83 f8 01          	cmp    eax,0x1
    34ac:	0f 85 ce 00          	jne    357e <_schedule+0x1e7>
D:\OneDrive\Study\Operating Systems\实验\project6\codes/./lib/utilsC.c:441
	{
		// 浠ring0ring1锛浠ring1ring0涓
		dequeue(&ReadyQue, &next);
    34b0:	67 66 c7 44 24 04 e8 	mov    DWORD PTR [esp+0x4],0x95e8
    34b7:	95 00 00 
    34ba:	67 66 c7 04 24 c0 94 	mov    DWORD PTR [esp],0x94c0
    34c1:	00 00 
    34c3:	66 e8 59 07 00 00    	call   3c22 <_dequeue>
D:\OneDrive\Study\Operating Systems\实验\project6\codes/./lib/utilsC.c:442
		if(next != 0){
    34c9:	66 a1 e8 95          	mov    eax,ds:0x95e8
    34cd:	66 85 c0             	test   eax,eax
    34d0:	74 44                	je     3516 <_schedule+0x17f>
D:\OneDrive\Study\Operating Systems\实验\project6\codes/./lib/utilsC.c:443
			processTable[next].status = running;
    34d2:	66 8b 16 e8 95       	mov    edx,DWORD PTR ds:0x95e8
    34d7:	66 89 d0             	mov    eax,edx
    34da:	66 01 c0             	add    eax,eax
    34dd:	66 01 d0             	add    eax,edx
    34e0:	66 c1 e0 05          	shl    eax,0x5
    34e4:	66 05 3c 82 00 00    	add    eax,0x823c
    34ea:	67 66 c7 00 02 00 00 	mov    DWORD PTR [eax],0x2
    34f1:	00 
D:\OneDrive\Study\Operating Systems\实验\project6\codes/./lib/utilsC.c:444
			enqueue(&ReadyQue, curProcessId);
    34f2:	66 a1 a0 94          	mov    eax,ds:0x94a0
    34f6:	67 66 89 44 24 04    	mov    DWORD PTR [esp+0x4],eax
    34fc:	67 66 c7 04 24 c0 94 	mov    DWORD PTR [esp],0x94c0
    3503:	00 00 
    3505:	66 e8 aa 06 00 00    	call   3bb5 <_enqueue>
D:\OneDrive\Study\Operating Systems\实验\project6\codes/./lib/utilsC.c:445
			curProcessId = next;
    350b:	66 a1 e8 95          	mov    eax,ds:0x95e8
    350f:	66 a3 a0 94          	mov    ds:0x94a0,eax
D:\OneDrive\Study\Operating Systems\实验\project6\codes/./lib/utilsC.c:442
		if(next != 0){
    3513:	e9 91 00             	jmp    35a7 <_schedule+0x210>
D:\OneDrive\Study\Operating Systems\实验\project6\codes/./lib/utilsC.c:446
		} else if(processTable[curProcessId].status == running) {
    3516:	66 8b 16 a0 94       	mov    edx,DWORD PTR ds:0x94a0
    351b:	66 89 d0             	mov    eax,edx
    351e:	66 01 c0             	add    eax,eax
    3521:	66 01 d0             	add    eax,edx
    3524:	66 c1 e0 05          	shl    eax,0x5
    3528:	66 05 3c 82 00 00    	add    eax,0x823c
    352e:	67 66 8b 00          	mov    eax,DWORD PTR [eax]
    3532:	66 83 f8 02          	cmp    eax,0x2
    3536:	75 1b                	jne    3553 <_schedule+0x1bc>
D:\OneDrive\Study\Operating Systems\实验\project6\codes/./lib/utilsC.c:447
			enqueue(&ReadyQue, next);
    3538:	66 a1 e8 95          	mov    eax,ds:0x95e8
    353c:	67 66 89 44 24 04    	mov    DWORD PTR [esp+0x4],eax
    3542:	67 66 c7 04 24 c0 94 	mov    DWORD PTR [esp],0x94c0
    3549:	00 00 
    354b:	66 e8 64 06 00 00    	call   3bb5 <_enqueue>
D:\OneDrive\Study\Operating Systems\实验\project6\codes/./lib/utilsC.c:442
		if(next != 0){
    3551:	eb 54                	jmp    35a7 <_schedule+0x210>
D:\OneDrive\Study\Operating Systems\实验\project6\codes/./lib/utilsC.c:449
		} else {
			curProcessId = 0;
    3553:	66 c7 06 a0 94 00 00 	mov    DWORD PTR ds:0x94a0,0x0
    355a:	00 00 
D:\OneDrive\Study\Operating Systems\实验\project6\codes/./lib/utilsC.c:450
			processTable[curProcessId].status = running;
    355c:	66 8b 16 a0 94       	mov    edx,DWORD PTR ds:0x94a0
    3561:	66 89 d0             	mov    eax,edx
    3564:	66 01 c0             	add    eax,eax
    3567:	66 01 d0             	add    eax,edx
    356a:	66 c1 e0 05          	shl    eax,0x5
    356e:	66 05 3c 82 00 00    	add    eax,0x823c
    3574:	67 66 c7 00 02 00 00 	mov    DWORD PTR [eax],0x2
    357b:	00 
D:\OneDrive\Study\Operating Systems\实验\project6\codes/./lib/utilsC.c:442
		if(next != 0){
    357c:	eb 29                	jmp    35a7 <_schedule+0x210>
D:\OneDrive\Study\Operating Systems\实验\project6\codes/./lib/utilsC.c:455
		}
	}
	else
	{
		curProcessId = 0;
    357e:	66 c7 06 a0 94 00 00 	mov    DWORD PTR ds:0x94a0,0x0
    3585:	00 00 
D:\OneDrive\Study\Operating Systems\实验\project6\codes/./lib/utilsC.c:456
		processTable[curProcessId].status = running;
    3587:	66 8b 16 a0 94       	mov    edx,DWORD PTR ds:0x94a0
    358c:	66 89 d0             	mov    eax,edx
    358f:	66 01 c0             	add    eax,eax
    3592:	66 01 d0             	add    eax,edx
    3595:	66 c1 e0 05          	shl    eax,0x5
    3599:	66 05 3c 82 00 00    	add    eax,0x823c
    359f:	67 66 c7 00 02 00 00 	mov    DWORD PTR [eax],0x2
    35a6:	00 
D:\OneDrive\Study\Operating Systems\实验\project6\codes/./lib/utilsC.c:458
	}
}
    35a7:	90                   	nop
    35a8:	66 c9                	leave  
    35aa:	66 c3                	ret    

000035ac <_do_fork>:
do_fork():
D:\OneDrive\Study\Operating Systems\实验\project6\codes/./lib/utilsC.c:465

//璁板充腑
//杩ヤ宸茬save宸憋哄讳restart板澶杩绋
char name[40];
void do_fork()
{
    35ac:	66 55                	push   ebp
    35ae:	66 89 e5             	mov    ebp,esp
    35b1:	66 83 ec 44          	sub    esp,0x44
D:\OneDrive\Study\Operating Systems\实验\project6\codes/./lib/utilsC.c:466
	strncpy(processTable[curProcessId].name, name, strlen(processTable[curProcessId].name)); 
    35b5:	66 8b 16 a0 94       	mov    edx,DWORD PTR ds:0x94a0
    35ba:	66 89 d0             	mov    eax,edx
    35bd:	66 01 c0             	add    eax,eax
    35c0:	66 01 d0             	add    eax,edx
    35c3:	66 c1 e0 05          	shl    eax,0x5
    35c7:	66 83 c0 20          	add    eax,0x20
    35cb:	66 05 e0 81 00 00    	add    eax,0x81e0
    35d1:	66 83 c0 0c          	add    eax,0xc
    35d5:	67 66 89 04 24       	mov    DWORD PTR [esp],eax
    35da:	66 e8 ba f0 ff ff    	call   269a <_strlen>
    35e0:	66 89 c2             	mov    edx,eax
    35e3:	66 8b 0e a0 94       	mov    ecx,DWORD PTR ds:0x94a0
    35e8:	66 89 c8             	mov    eax,ecx
    35eb:	66 01 c0             	add    eax,eax
    35ee:	66 01 c8             	add    eax,ecx
    35f1:	66 c1 e0 05          	shl    eax,0x5
    35f5:	66 83 c0 20          	add    eax,0x20
    35f9:	66 05 e0 81 00 00    	add    eax,0x81e0
    35ff:	66 83 c0 0c          	add    eax,0xc
    3603:	67 66 89 54 24 08    	mov    DWORD PTR [esp+0x8],edx
    3609:	67 66 c7 44 24 04 c0 	mov    DWORD PTR [esp+0x4],0x95c0
    3610:	95 00 00 
    3613:	67 66 89 04 24       	mov    DWORD PTR [esp],eax
    3618:	66 e8 62 f2 ff ff    	call   2880 <_strncpy>
D:\OneDrive\Study\Operating Systems\实验\project6\codes/./lib/utilsC.c:467
	concate(name, "SubPrg");
    361e:	67 66 c7 44 24 04 c8 	mov    DWORD PTR [esp+0x4],0x50c8
    3625:	50 00 00 
    3628:	67 66 c7 04 24 c0 95 	mov    DWORD PTR [esp],0x95c0
    362f:	00 00 
    3631:	66 e8 99 f0 ff ff    	call   26d0 <_concate>
D:\OneDrive\Study\Operating Systems\实验\project6\codes/./lib/utilsC.c:468
	int blockNum = findEnoughBlock(1024);
    3637:	67 66 c7 04 24 00 04 	mov    DWORD PTR [esp],0x400
    363e:	00 00 
    3640:	66 e8 3a 14 00 00    	call   4a80 <_findEnoughBlock>
    3646:	67 66 89 45 fc       	mov    DWORD PTR [ebp-0x4],eax
D:\OneDrive\Study\Operating Systems\实验\project6\codes/./lib/utilsC.c:469
	blockNum = require(1024, blockNum);
    364b:	67 66 8b 45 fc       	mov    eax,DWORD PTR [ebp-0x4]
    3650:	67 66 89 44 24 04    	mov    DWORD PTR [esp+0x4],eax
    3656:	67 66 c7 04 24 00 04 	mov    DWORD PTR [esp],0x400
    365d:	00 00 
    365f:	66 e8 c4 14 00 00    	call   4b29 <_require>
    3665:	67 66 89 45 fc       	mov    DWORD PTR [ebp-0x4],eax
D:\OneDrive\Study\Operating Systems\实验\project6\codes/./lib/utilsC.c:471
	int segOfSour, segOfDes;
	int segMask = 0xf0000;
    366a:	67 66 c7 45 f8 00 00 	mov    DWORD PTR [ebp-0x8],0xf0000
    3671:	0f 00 
D:\OneDrive\Study\Operating Systems\实验\project6\codes/./lib/utilsC.c:472
	int offsetMask = 0x0000ffff;
    3673:	67 66 c7 45 f4 ff ff 	mov    DWORD PTR [ebp-0xc],0xffff
    367a:	00 00 
D:\OneDrive\Study\Operating Systems\实验\project6\codes/./lib/utilsC.c:473
	segOfDes = (memoryTable[blockNum].beginAddr & segMask) >> 4;
    367c:	67 66 8b 55 fc       	mov    edx,DWORD PTR [ebp-0x4]
    3681:	66 89 d0             	mov    eax,edx
    3684:	66 01 c0             	add    eax,eax
    3687:	66 01 d0             	add    eax,edx
    368a:	66 c1 e0 03          	shl    eax,0x3
    368e:	66 05 c0 71 00 00    	add    eax,0x71c0
    3694:	67 66 8b 00          	mov    eax,DWORD PTR [eax]
    3698:	67 66 23 45 f8       	and    eax,DWORD PTR [ebp-0x8]
    369d:	66 c1 f8 04          	sar    eax,0x4
    36a1:	67 66 89 45 f0       	mov    DWORD PTR [ebp-0x10],eax
D:\OneDrive\Study\Operating Systems\实验\project6\codes/./lib/utilsC.c:474
	segOfSour = ((memoryTable[processTable[curProcessId].blockNum].endAddr-1024+1) & segMask) >> 4;
    36a6:	66 8b 16 a0 94       	mov    edx,DWORD PTR ds:0x94a0
    36ab:	66 89 d0             	mov    eax,edx
    36ae:	66 01 c0             	add    eax,eax
    36b1:	66 01 d0             	add    eax,edx
    36b4:	66 c1 e0 05          	shl    eax,0x5
    36b8:	66 05 08 82 00 00    	add    eax,0x8208
    36be:	67 66 8b 10          	mov    edx,DWORD PTR [eax]
    36c2:	66 89 d0             	mov    eax,edx
    36c5:	66 01 c0             	add    eax,eax
    36c8:	66 01 d0             	add    eax,edx
    36cb:	66 c1 e0 03          	shl    eax,0x3
    36cf:	66 05 c4 71 00 00    	add    eax,0x71c4
    36d5:	67 66 8b 00          	mov    eax,DWORD PTR [eax]
    36d9:	66 2d ff 03 00 00    	sub    eax,0x3ff
    36df:	67 66 23 45 f8       	and    eax,DWORD PTR [ebp-0x8]
    36e4:	66 c1 f8 04          	sar    eax,0x4
    36e8:	67 66 89 45 ec       	mov    DWORD PTR [ebp-0x14],eax
D:\OneDrive\Study\Operating Systems\实验\project6\codes/./lib/utilsC.c:475
	int cs = processTable[curProcessId].pcb.cs, ip = processTable[curProcessId].pcb.ip;
    36ed:	66 8b 16 a0 94       	mov    edx,DWORD PTR ds:0x94a0
    36f2:	66 89 d0             	mov    eax,edx
    36f5:	66 01 c0             	add    eax,eax
    36f8:	66 01 d0             	add    eax,edx
    36fb:	66 c1 e0 05          	shl    eax,0x5
    36ff:	66 05 fa 81 00 00    	add    eax,0x81fa
    3705:	67 8b 00             	mov    ax,WORD PTR [eax]
    3708:	66 98                	cwde   
    370a:	67 66 89 45 e8       	mov    DWORD PTR [ebp-0x18],eax
    370f:	66 8b 16 a0 94       	mov    edx,DWORD PTR ds:0x94a0
    3714:	66 89 d0             	mov    eax,edx
    3717:	66 01 c0             	add    eax,eax
    371a:	66 01 d0             	add    eax,edx
    371d:	66 c1 e0 05          	shl    eax,0x5
    3721:	66 05 f8 81 00 00    	add    eax,0x81f8
    3727:	67 66 8b 00          	mov    eax,DWORD PTR [eax]
    372b:	66 98                	cwde   
    372d:	67 66 89 45 e4       	mov    DWORD PTR [ebp-0x1c],eax
D:\OneDrive\Study\Operating Systems\实验\project6\codes/./lib/utilsC.c:476
	int ss = segOfDes, 
    3732:	67 66 8b 45 f0       	mov    eax,DWORD PTR [ebp-0x10]
    3737:	67 66 89 45 e0       	mov    DWORD PTR [ebp-0x20],eax
D:\OneDrive\Study\Operating Systems\实验\project6\codes/./lib/utilsC.c:477
		sp = ((memoryTable[blockNum].beginAddr)&offsetMask) + processTable[curProcessId].pcb.sp_now - ((memoryTable[processTable[curProcessId].blockNum].endAddr-1024+1)&offsetMask);
    373c:	67 66 8b 55 fc       	mov    edx,DWORD PTR [ebp-0x4]
    3741:	66 89 d0             	mov    eax,edx
    3744:	66 01 c0             	add    eax,eax
    3747:	66 01 d0             	add    eax,edx
    374a:	66 c1 e0 03          	shl    eax,0x3
    374e:	66 05 c0 71 00 00    	add    eax,0x71c0
    3754:	67 66 8b 00          	mov    eax,DWORD PTR [eax]
    3758:	67 66 23 45 f4       	and    eax,DWORD PTR [ebp-0xc]
    375d:	66 89 c1             	mov    ecx,eax
    3760:	66 8b 16 a0 94       	mov    edx,DWORD PTR ds:0x94a0
    3765:	66 89 d0             	mov    eax,edx
    3768:	66 01 c0             	add    eax,eax
    376b:	66 01 d0             	add    eax,edx
    376e:	66 c1 e0 05          	shl    eax,0x5
    3772:	66 05 fe 81 00 00    	add    eax,0x81fe
    3778:	67 8b 00             	mov    ax,WORD PTR [eax]
    377b:	66 98                	cwde   
    377d:	66 01 c1             	add    ecx,eax
    3780:	66 8b 16 a0 94       	mov    edx,DWORD PTR ds:0x94a0
    3785:	66 89 d0             	mov    eax,edx
    3788:	66 01 c0             	add    eax,eax
    378b:	66 01 d0             	add    eax,edx
    378e:	66 c1 e0 05          	shl    eax,0x5
    3792:	66 05 08 82 00 00    	add    eax,0x8208
    3798:	67 66 8b 10          	mov    edx,DWORD PTR [eax]
    379c:	66 89 d0             	mov    eax,edx
    379f:	66 01 c0             	add    eax,eax
    37a2:	66 01 d0             	add    eax,edx
    37a5:	66 c1 e0 03          	shl    eax,0x3
    37a9:	66 05 c4 71 00 00    	add    eax,0x71c4
    37af:	67 66 8b 00          	mov    eax,DWORD PTR [eax]
    37b3:	66 2d ff 03 00 00    	sub    eax,0x3ff
    37b9:	67 66 23 45 f4       	and    eax,DWORD PTR [ebp-0xc]
    37be:	66 29 c1             	sub    ecx,eax
    37c1:	66 89 c8             	mov    eax,ecx
    37c4:	67 66 89 45 dc       	mov    DWORD PTR [ebp-0x24],eax
D:\OneDrive\Study\Operating Systems\实验\project6\codes/./lib/utilsC.c:478
	memcpy(segOfOs, (int)&processTable[curProcessId].pcb, segOfOs, (int)&processTable[ProcessSize].pcb, sizeof(struct PCB));
    37c9:	66 8b 16 54 77       	mov    edx,DWORD PTR ds:0x7754
    37ce:	66 89 d0             	mov    eax,edx
    37d1:	66 01 c0             	add    eax,eax
    37d4:	66 01 d0             	add    eax,edx
    37d7:	66 c1 e0 05          	shl    eax,0x5
    37db:	66 05 e0 81 00 00    	add    eax,0x81e0
    37e1:	66 89 c1             	mov    ecx,eax
    37e4:	66 8b 16 a0 94       	mov    edx,DWORD PTR ds:0x94a0
    37e9:	66 89 d0             	mov    eax,edx
    37ec:	66 01 c0             	add    eax,eax
    37ef:	66 01 d0             	add    eax,edx
    37f2:	66 c1 e0 05          	shl    eax,0x5
    37f6:	66 05 e0 81 00 00    	add    eax,0x81e0
    37fc:	67 66 c7 44 24 10 22 	mov    DWORD PTR [esp+0x10],0x22
    3803:	00 00 00 
    3806:	67 66 89 4c 24 0c    	mov    DWORD PTR [esp+0xc],ecx
    380c:	67 66 c7 44 24 08 00 	mov    DWORD PTR [esp+0x8],0x2000
    3813:	20 00 00 
    3816:	67 66 89 44 24 04    	mov    DWORD PTR [esp+0x4],eax
    381c:	67 66 c7 04 24 00 20 	mov    DWORD PTR [esp],0x2000
    3823:	00 00 
    3825:	66 e8 69 e4 ff ff    	call   1c94 <_memcpy>
D:\OneDrive\Study\Operating Systems\实验\project6\codes/./lib/utilsC.c:479
	memcpy(segOfSour, (memoryTable[processTable[curProcessId].blockNum].endAddr-1024+1)&offsetMask, segOfDes, (memoryTable[blockNum].beginAddr)&offsetMask, 1024);
    382b:	67 66 8b 55 fc       	mov    edx,DWORD PTR [ebp-0x4]
    3830:	66 89 d0             	mov    eax,edx
    3833:	66 01 c0             	add    eax,eax
    3836:	66 01 d0             	add    eax,edx
    3839:	66 c1 e0 03          	shl    eax,0x3
    383d:	66 05 c0 71 00 00    	add    eax,0x71c0
    3843:	67 66 8b 00          	mov    eax,DWORD PTR [eax]
    3847:	67 66 23 45 f4       	and    eax,DWORD PTR [ebp-0xc]
    384c:	66 89 c2             	mov    edx,eax
    384f:	66 8b 0e a0 94       	mov    ecx,DWORD PTR ds:0x94a0
    3854:	66 89 c8             	mov    eax,ecx
    3857:	66 01 c0             	add    eax,eax
    385a:	66 01 c8             	add    eax,ecx
    385d:	66 c1 e0 05          	shl    eax,0x5
    3861:	66 05 08 82 00 00    	add    eax,0x8208
    3867:	67 66 8b 08          	mov    ecx,DWORD PTR [eax]
    386b:	66 89 c8             	mov    eax,ecx
    386e:	66 01 c0             	add    eax,eax
    3871:	66 01 c8             	add    eax,ecx
    3874:	66 c1 e0 03          	shl    eax,0x3
    3878:	66 05 c4 71 00 00    	add    eax,0x71c4
    387e:	67 66 8b 00          	mov    eax,DWORD PTR [eax]
    3882:	66 2d ff 03 00 00    	sub    eax,0x3ff
    3888:	67 66 23 45 f4       	and    eax,DWORD PTR [ebp-0xc]
    388d:	67 66 c7 44 24 10 00 	mov    DWORD PTR [esp+0x10],0x400
    3894:	04 00 00 
    3897:	67 66 89 54 24 0c    	mov    DWORD PTR [esp+0xc],edx
    389d:	67 66 8b 55 f0       	mov    edx,DWORD PTR [ebp-0x10]
    38a2:	67 66 89 54 24 08    	mov    DWORD PTR [esp+0x8],edx
    38a8:	67 66 89 44 24 04    	mov    DWORD PTR [esp+0x4],eax
    38ae:	67 66 8b 45 ec       	mov    eax,DWORD PTR [ebp-0x14]
    38b3:	67 66 89 04 24       	mov    DWORD PTR [esp],eax
    38b8:	66 e8 d6 e3 ff ff    	call   1c94 <_memcpy>
D:\OneDrive\Study\Operating Systems\实验\project6\codes/./lib/utilsC.c:480
	createProcess(ProcessSize++, name, 1024, cs, ip, ss, sp, blockNum);
    38be:	66 a1 54 77          	mov    eax,ds:0x7754
    38c2:	67 66 8d 50 01       	lea    edx,[eax+0x1]
    38c7:	66 89 16 54 77       	mov    DWORD PTR ds:0x7754,edx
    38cc:	67 66 8b 55 fc       	mov    edx,DWORD PTR [ebp-0x4]
    38d1:	67 66 89 54 24 1c    	mov    DWORD PTR [esp+0x1c],edx
    38d7:	67 66 8b 55 dc       	mov    edx,DWORD PTR [ebp-0x24]
    38dc:	67 66 89 54 24 18    	mov    DWORD PTR [esp+0x18],edx
    38e2:	67 66 8b 55 e0       	mov    edx,DWORD PTR [ebp-0x20]
    38e7:	67 66 89 54 24 14    	mov    DWORD PTR [esp+0x14],edx
    38ed:	67 66 8b 55 e4       	mov    edx,DWORD PTR [ebp-0x1c]
    38f2:	67 66 89 54 24 10    	mov    DWORD PTR [esp+0x10],edx
    38f8:	67 66 8b 55 e8       	mov    edx,DWORD PTR [ebp-0x18]
    38fd:	67 66 89 54 24 0c    	mov    DWORD PTR [esp+0xc],edx
    3903:	67 66 c7 44 24 08 00 	mov    DWORD PTR [esp+0x8],0x400
    390a:	04 00 00 
    390d:	67 66 c7 44 24 04 c0 	mov    DWORD PTR [esp+0x4],0x95c0
    3914:	95 00 00 
    3917:	67 66 89 04 24       	mov    DWORD PTR [esp],eax
    391c:	66 e8 bc f7 ff ff    	call   30de <_createProcess>
D:\OneDrive\Study\Operating Systems\实验\project6\codes/./lib/utilsC.c:481
	enqueue(&ReadyQue, ProcessSize-1);
    3922:	66 a1 54 77          	mov    eax,ds:0x7754
    3926:	66 48                	dec    eax
    3928:	67 66 89 44 24 04    	mov    DWORD PTR [esp+0x4],eax
    392e:	67 66 c7 04 24 c0 94 	mov    DWORD PTR [esp],0x94c0
    3935:	00 00 
    3937:	66 e8 78 02 00 00    	call   3bb5 <_enqueue>
D:\OneDrive\Study\Operating Systems\实验\project6\codes/./lib/utilsC.c:482
	processTable[ProcessSize-1].fatherID = curProcessId;
    393d:	66 a1 54 77          	mov    eax,ds:0x7754
    3941:	67 66 8d 48 ff       	lea    ecx,[eax-0x1]
    3946:	66 8b 16 a0 94       	mov    edx,DWORD PTR ds:0x94a0
    394b:	66 89 c8             	mov    eax,ecx
    394e:	66 01 c0             	add    eax,eax
    3951:	66 01 c8             	add    eax,ecx
    3954:	66 c1 e0 05          	shl    eax,0x5
    3958:	66 05 30 82 00 00    	add    eax,0x8230
    395e:	67 66 89 10          	mov    DWORD PTR [eax],edx
D:\OneDrive\Study\Operating Systems\实验\project6\codes/./lib/utilsC.c:483
	processTable[curProcessId].sonID = ProcessSize - 1;
    3962:	66 8b 16 a0 94       	mov    edx,DWORD PTR ds:0x94a0
    3967:	66 a1 54 77          	mov    eax,ds:0x7754
    396b:	67 66 8d 48 ff       	lea    ecx,[eax-0x1]
    3970:	66 89 d0             	mov    eax,edx
    3973:	66 01 c0             	add    eax,eax
    3976:	66 01 d0             	add    eax,edx
    3979:	66 c1 e0 05          	shl    eax,0x5
    397d:	66 05 38 82 00 00    	add    eax,0x8238
    3983:	67 66 89 08          	mov    DWORD PTR [eax],ecx
D:\OneDrive\Study\Operating Systems\实验\project6\codes/./lib/utilsC.c:484
	processTable[curProcessId].pcb.ax = ProcessSize - 1;
    3987:	66 8b 0e a0 94       	mov    ecx,DWORD PTR ds:0x94a0
    398c:	66 a1 54 77          	mov    eax,ds:0x7754
    3990:	66 48                	dec    eax
    3992:	66 89 c2             	mov    edx,eax
    3995:	66 89 c8             	mov    eax,ecx
    3998:	66 01 c0             	add    eax,eax
    399b:	66 01 c8             	add    eax,ecx
    399e:	66 c1 e0 05          	shl    eax,0x5
    39a2:	66 05 f6 81 00 00    	add    eax,0x81f6
    39a8:	67 89 10             	mov    WORD PTR [eax],dx
D:\OneDrive\Study\Operating Systems\实验\project6\codes/./lib/utilsC.c:485
	processTable[ProcessSize-1].pcb.ax = 0;
    39ab:	66 a1 54 77          	mov    eax,ds:0x7754
    39af:	67 66 8d 50 ff       	lea    edx,[eax-0x1]
    39b4:	66 89 d0             	mov    eax,edx
    39b7:	66 01 c0             	add    eax,eax
    39ba:	66 01 d0             	add    eax,edx
    39bd:	66 c1 e0 05          	shl    eax,0x5
    39c1:	66 05 f6 81 00 00    	add    eax,0x81f6
    39c7:	67 c7 00 00 00       	mov    WORD PTR [eax],0x0
D:\OneDrive\Study\Operating Systems\实验\project6\codes/./lib/utilsC.c:486
}
    39cc:	90                   	nop
    39cd:	66 c9                	leave  
    39cf:	66 c3                	ret    

000039d1 <_do_exit>:
do_exit():
D:\OneDrive\Study\Operating Systems\实验\project6\codes/./lib/utilsC.c:489

void do_exit(int exit_value)
{		
    39d1:	66 55                	push   ebp
    39d3:	66 89 e5             	mov    ebp,esp
    39d6:	66 83 ec 0c          	sub    esp,0xc
D:\OneDrive\Study\Operating Systems\实验\project6\codes/./lib/utilsC.c:490
	quesize	= size(&BlockedQue);
    39da:	67 66 c7 04 24 80 76 	mov    DWORD PTR [esp],0x7680
    39e1:	00 00 
    39e3:	66 e8 86 01 00 00    	call   3b6f <_size>
    39e9:	66 a3 a0 95          	mov    ds:0x95a0,eax
D:\OneDrive\Study\Operating Systems\实验\project6\codes/./lib/utilsC.c:491
	for (int i = 0; i < quesize; ++i)
    39ed:	67 66 c7 45 fc 00 00 	mov    DWORD PTR [ebp-0x4],0x0
    39f4:	00 00 
    39f6:	eb 63                	jmp    3a5b <_do_exit+0x8a>
D:\OneDrive\Study\Operating Systems\实验\project6\codes/./lib/utilsC.c:493
	{
		dequeue(&BlockedQue, &tmp);
    39f8:	67 66 c7 44 24 04 a4 	mov    DWORD PTR [esp+0x4],0x95a4
    39ff:	95 00 00 
    3a02:	67 66 c7 04 24 80 76 	mov    DWORD PTR [esp],0x7680
    3a09:	00 00 
    3a0b:	66 e8 11 02 00 00    	call   3c22 <_dequeue>
D:\OneDrive\Study\Operating Systems\实验\project6\codes/./lib/utilsC.c:494
		if(processTable[tmp].waitProcess == curProcessId)
    3a11:	66 8b 16 a4 95       	mov    edx,DWORD PTR ds:0x95a4
    3a16:	66 89 d0             	mov    eax,edx
    3a19:	66 01 c0             	add    eax,eax
    3a1c:	66 01 d0             	add    eax,edx
    3a1f:	66 c1 e0 05          	shl    eax,0x5
    3a23:	66 05 34 82 00 00    	add    eax,0x8234
    3a29:	67 66 8b 10          	mov    edx,DWORD PTR [eax]
    3a2d:	66 a1 a0 94          	mov    eax,ds:0x94a0
    3a31:	66 39 c2             	cmp    edx,eax
    3a34:	75 11                	jne    3a47 <_do_exit+0x76>
D:\OneDrive\Study\Operating Systems\实验\project6\codes/./lib/utilsC.c:496
		{
			wakeup(tmp);
    3a36:	66 a1 a4 95          	mov    eax,ds:0x95a4
    3a3a:	67 66 89 04 24       	mov    DWORD PTR [esp],eax
    3a3f:	66 e8 9d f8 ff ff    	call   32e2 <_wakeup>
    3a45:	eb 0f                	jmp    3a56 <_do_exit+0x85>
D:\OneDrive\Study\Operating Systems\实验\project6\codes/./lib/utilsC.c:499
		}
		else {
			block(tmp);
    3a47:	66 a1 a4 95          	mov    eax,ds:0x95a4
    3a4b:	67 66 89 04 24       	mov    DWORD PTR [esp],eax
    3a50:	66 e8 d7 f7 ff ff    	call   322d <_block>
D:\OneDrive\Study\Operating Systems\实验\project6\codes/./lib/utilsC.c:491
	for (int i = 0; i < quesize; ++i)
    3a56:	67 66 ff 45 fc       	inc    DWORD PTR [ebp-0x4]
    3a5b:	66 a1 a0 95          	mov    eax,ds:0x95a0
    3a5f:	67 66 39 45 fc       	cmp    DWORD PTR [ebp-0x4],eax
    3a64:	7c 92                	jl     39f8 <_do_exit+0x27>
D:\OneDrive\Study\Operating Systems\实验\project6\codes/./lib/utilsC.c:502
		}
	}
	processTable[curProcessId].retValue = exit_value; 
    3a66:	66 8b 16 a0 94       	mov    edx,DWORD PTR ds:0x94a0
    3a6b:	66 89 d0             	mov    eax,edx
    3a6e:	66 01 c0             	add    eax,eax
    3a71:	66 01 d0             	add    eax,edx
    3a74:	66 c1 e0 05          	shl    eax,0x5
    3a78:	67 66 8d 90 2c 82 00 	lea    edx,[eax+0x822c]
    3a7f:	00 
    3a80:	67 66 8b 45 08       	mov    eax,DWORD PTR [ebp+0x8]
    3a85:	67 66 89 02          	mov    DWORD PTR [edx],eax
D:\OneDrive\Study\Operating Systems\实验\project6\codes/./lib/utilsC.c:503
	kill(curProcessId);
    3a89:	66 a1 a0 94          	mov    eax,ds:0x94a0
    3a8d:	67 66 89 04 24       	mov    DWORD PTR [esp],eax
    3a92:	66 e8 04 eb ff ff    	call   259c <_kill>
D:\OneDrive\Study\Operating Systems\实验\project6\codes/./lib/utilsC.c:504
	__asm__("int $0x8\n");
    3a98:	cd 08                	int    0x8
D:\OneDrive\Study\Operating Systems\实验\project6\codes/./lib/utilsC.c:505
}
    3a9a:	90                   	nop
    3a9b:	66 c9                	leave  
    3a9d:	66 c3                	ret    

00003a9f <_do_wait>:
do_wait():
D:\OneDrive\Study\Operating Systems\实验\project6\codes/./lib/utilsC.c:508

int do_wait()
{
    3a9f:	66 55                	push   ebp
    3aa1:	66 89 e5             	mov    ebp,esp
    3aa4:	66 83 ec 08          	sub    esp,0x8
D:\OneDrive\Study\Operating Systems\实验\project6\codes/./lib/utilsC.c:509
	processTable[curProcessId].waitProcess = processTable[curProcessId].sonID;
    3aa8:	66 8b 0e a0 94       	mov    ecx,DWORD PTR ds:0x94a0
    3aad:	66 8b 16 a0 94       	mov    edx,DWORD PTR ds:0x94a0
    3ab2:	66 89 d0             	mov    eax,edx
    3ab5:	66 01 c0             	add    eax,eax
    3ab8:	66 01 d0             	add    eax,edx
    3abb:	66 c1 e0 05          	shl    eax,0x5
    3abf:	66 05 38 82 00 00    	add    eax,0x8238
    3ac5:	67 66 8b 10          	mov    edx,DWORD PTR [eax]
    3ac9:	66 89 c8             	mov    eax,ecx
    3acc:	66 01 c0             	add    eax,eax
    3acf:	66 01 c8             	add    eax,ecx
    3ad2:	66 c1 e0 05          	shl    eax,0x5
    3ad6:	66 05 34 82 00 00    	add    eax,0x8234
    3adc:	67 66 89 10          	mov    DWORD PTR [eax],edx
D:\OneDrive\Study\Operating Systems\实验\project6\codes/./lib/utilsC.c:510
	block(curProcessId);
    3ae0:	66 a1 a0 94          	mov    eax,ds:0x94a0
    3ae4:	67 66 89 04 24       	mov    DWORD PTR [esp],eax
    3ae9:	66 e8 3e f7 ff ff    	call   322d <_block>
D:\OneDrive\Study\Operating Systems\实验\project6\codes/./lib/utilsC.c:511
	__asm__("int $0x8\n");
    3aef:	cd 08                	int    0x8
D:\OneDrive\Study\Operating Systems\实验\project6\codes/./lib/utilsC.c:512
	int ret = processTable[processTable[curProcessId].sonID].retValue;
    3af1:	66 8b 16 a0 94       	mov    edx,DWORD PTR ds:0x94a0
    3af6:	66 89 d0             	mov    eax,edx
    3af9:	66 01 c0             	add    eax,eax
    3afc:	66 01 d0             	add    eax,edx
    3aff:	66 c1 e0 05          	shl    eax,0x5
    3b03:	66 05 38 82 00 00    	add    eax,0x8238
    3b09:	67 66 8b 10          	mov    edx,DWORD PTR [eax]
    3b0d:	66 89 d0             	mov    eax,edx
    3b10:	66 01 c0             	add    eax,eax
    3b13:	66 01 d0             	add    eax,edx
    3b16:	66 c1 e0 05          	shl    eax,0x5
    3b1a:	66 05 2c 82 00 00    	add    eax,0x822c
    3b20:	67 66 8b 00          	mov    eax,DWORD PTR [eax]
    3b24:	67 66 89 45 fc       	mov    DWORD PTR [ebp-0x4],eax
D:\OneDrive\Study\Operating Systems\实验\project6\codes/./lib/utilsC.c:513
	processTable[curProcessId].sonID = -1;
    3b29:	66 8b 16 a0 94       	mov    edx,DWORD PTR ds:0x94a0
    3b2e:	66 89 d0             	mov    eax,edx
    3b31:	66 01 c0             	add    eax,eax
    3b34:	66 01 d0             	add    eax,edx
    3b37:	66 c1 e0 05          	shl    eax,0x5
    3b3b:	66 05 38 82 00 00    	add    eax,0x8238
    3b41:	67 66 c7 00 ff ff ff 	mov    DWORD PTR [eax],0xffffffff
    3b48:	ff 
D:\OneDrive\Study\Operating Systems\实验\project6\codes/./lib/utilsC.c:514
	return ret;
    3b49:	67 66 8b 45 fc       	mov    eax,DWORD PTR [ebp-0x4]
D:\OneDrive\Study\Operating Systems\实验\project6\codes/./lib/utilsC.c:515
}
    3b4e:	66 c9                	leave  
    3b50:	66 c3                	ret    

00003b52 <_empty>:
empty():
D:\OneDrive\Study\Operating Systems\实验\project6\codes/./lib/utilsC.c:518

int empty(struct Queue * que)
{
    3b52:	66 55                	push   ebp
    3b54:	66 89 e5             	mov    ebp,esp
D:\OneDrive\Study\Operating Systems\实验\project6\codes/./lib/utilsC.c:519
	return que->size == 0;
    3b57:	67 66 8b 45 08       	mov    eax,DWORD PTR [ebp+0x8]
    3b5c:	67 66 8b 40 08       	mov    eax,DWORD PTR [eax+0x8]
    3b61:	66 85 c0             	test   eax,eax
    3b64:	0f 94 c0             	sete   al
    3b67:	66 0f b6 c0          	movzx  eax,al
D:\OneDrive\Study\Operating Systems\实验\project6\codes/./lib/utilsC.c:520
}
    3b6b:	66 5d                	pop    ebp
    3b6d:	66 c3                	ret    

00003b6f <_size>:
size():
D:\OneDrive\Study\Operating Systems\实验\project6\codes/./lib/utilsC.c:523

int size(struct Queue * que)
{
    3b6f:	66 55                	push   ebp
    3b71:	66 89 e5             	mov    ebp,esp
D:\OneDrive\Study\Operating Systems\实验\project6\codes/./lib/utilsC.c:524
	return que->size;
    3b74:	67 66 8b 45 08       	mov    eax,DWORD PTR [ebp+0x8]
    3b79:	67 66 8b 40 08       	mov    eax,DWORD PTR [eax+0x8]
D:\OneDrive\Study\Operating Systems\实验\project6\codes/./lib/utilsC.c:525
}
    3b7e:	66 5d                	pop    ebp
    3b80:	66 c3                	ret    

00003b82 <_init>:
init():
D:\OneDrive\Study\Operating Systems\实验\project6\codes/./lib/utilsC.c:528

void init(struct Queue * que)
{
    3b82:	66 55                	push   ebp
    3b84:	66 89 e5             	mov    ebp,esp
D:\OneDrive\Study\Operating Systems\实验\project6\codes/./lib/utilsC.c:529
	que->tail = Len - 1;
    3b87:	67 66 8b 45 08       	mov    eax,DWORD PTR [ebp+0x8]
    3b8c:	67 66 c7 00 31 00 00 	mov    DWORD PTR [eax],0x31
    3b93:	00 
D:\OneDrive\Study\Operating Systems\实验\project6\codes/./lib/utilsC.c:530
	que->head = 0;
    3b94:	67 66 8b 45 08       	mov    eax,DWORD PTR [ebp+0x8]
    3b99:	67 66 c7 40 04 00 00 	mov    DWORD PTR [eax+0x4],0x0
    3ba0:	00 00 
D:\OneDrive\Study\Operating Systems\实验\project6\codes/./lib/utilsC.c:531
	que->size = 0;
    3ba2:	67 66 8b 45 08       	mov    eax,DWORD PTR [ebp+0x8]
    3ba7:	67 66 c7 40 08 00 00 	mov    DWORD PTR [eax+0x8],0x0
    3bae:	00 00 
D:\OneDrive\Study\Operating Systems\实验\project6\codes/./lib/utilsC.c:532
}
    3bb0:	90                   	nop
    3bb1:	66 5d                	pop    ebp
    3bb3:	66 c3                	ret    

00003bb5 <_enqueue>:
enqueue():
D:\OneDrive\Study\Operating Systems\实验\project6\codes/./lib/utilsC.c:535

void enqueue(struct Queue * que, int ele)
{
    3bb5:	66 55                	push   ebp
    3bb7:	66 89 e5             	mov    ebp,esp
D:\OneDrive\Study\Operating Systems\实验\project6\codes/./lib/utilsC.c:536
	if(que->size >= Len)
    3bba:	67 66 8b 45 08       	mov    eax,DWORD PTR [ebp+0x8]
    3bbf:	67 66 8b 40 08       	mov    eax,DWORD PTR [eax+0x8]
    3bc4:	66 83 f8 31          	cmp    eax,0x31
    3bc8:	7f 53                	jg     3c1d <_enqueue+0x68>
D:\OneDrive\Study\Operating Systems\实验\project6\codes/./lib/utilsC.c:538
		return ;
	que->size++;
    3bca:	67 66 8b 45 08       	mov    eax,DWORD PTR [ebp+0x8]
    3bcf:	67 66 8b 40 08       	mov    eax,DWORD PTR [eax+0x8]
    3bd4:	67 66 8d 50 01       	lea    edx,[eax+0x1]
    3bd9:	67 66 8b 45 08       	mov    eax,DWORD PTR [ebp+0x8]
    3bde:	67 66 89 50 08       	mov    DWORD PTR [eax+0x8],edx
D:\OneDrive\Study\Operating Systems\实验\project6\codes/./lib/utilsC.c:539
	que->tail = (que->tail+1)%Len;
    3be3:	67 66 8b 45 08       	mov    eax,DWORD PTR [ebp+0x8]
    3be8:	67 66 8b 00          	mov    eax,DWORD PTR [eax]
    3bec:	66 40                	inc    eax
    3bee:	66 b9 32 00 00 00    	mov    ecx,0x32
    3bf4:	66 99                	cdq    
    3bf6:	66 f7 f9             	idiv   ecx
    3bf9:	67 66 8b 45 08       	mov    eax,DWORD PTR [ebp+0x8]
    3bfe:	67 66 89 10          	mov    DWORD PTR [eax],edx
D:\OneDrive\Study\Operating Systems\实验\project6\codes/./lib/utilsC.c:540
	que->array[que->tail] = ele;
    3c02:	67 66 8b 45 08       	mov    eax,DWORD PTR [ebp+0x8]
    3c07:	67 66 8b 10          	mov    edx,DWORD PTR [eax]
    3c0b:	67 66 8b 45 08       	mov    eax,DWORD PTR [ebp+0x8]
    3c10:	67 66 8b 4d 0c       	mov    ecx,DWORD PTR [ebp+0xc]
    3c15:	67 66 89 4c 90 0c    	mov    DWORD PTR [eax+edx*4+0xc],ecx
    3c1b:	eb 01                	jmp    3c1e <_enqueue+0x69>
D:\OneDrive\Study\Operating Systems\实验\project6\codes/./lib/utilsC.c:537
		return ;
    3c1d:	90                   	nop
D:\OneDrive\Study\Operating Systems\实验\project6\codes/./lib/utilsC.c:541
}
    3c1e:	66 5d                	pop    ebp
    3c20:	66 c3                	ret    

00003c22 <_dequeue>:
dequeue():
D:\OneDrive\Study\Operating Systems\实验\project6\codes/./lib/utilsC.c:544

void dequeue(struct Queue * que, int * ele)
{
    3c22:	66 55                	push   ebp
    3c24:	66 89 e5             	mov    ebp,esp
D:\OneDrive\Study\Operating Systems\实验\project6\codes/./lib/utilsC.c:545
	if(que->size <= 0)
    3c27:	67 66 8b 45 08       	mov    eax,DWORD PTR [ebp+0x8]
    3c2c:	67 66 8b 40 08       	mov    eax,DWORD PTR [eax+0x8]
    3c31:	66 85 c0             	test   eax,eax
    3c34:	7e 5a                	jle    3c90 <_dequeue+0x6e>
D:\OneDrive\Study\Operating Systems\实验\project6\codes/./lib/utilsC.c:547
		return ;
	que->size--;
    3c36:	67 66 8b 45 08       	mov    eax,DWORD PTR [ebp+0x8]
    3c3b:	67 66 8b 40 08       	mov    eax,DWORD PTR [eax+0x8]
    3c40:	67 66 8d 50 ff       	lea    edx,[eax-0x1]
    3c45:	67 66 8b 45 08       	mov    eax,DWORD PTR [ebp+0x8]
    3c4a:	67 66 89 50 08       	mov    DWORD PTR [eax+0x8],edx
D:\OneDrive\Study\Operating Systems\实验\project6\codes/./lib/utilsC.c:548
	*ele = que->array[que->head];
    3c4f:	67 66 8b 45 08       	mov    eax,DWORD PTR [ebp+0x8]
    3c54:	67 66 8b 50 04       	mov    edx,DWORD PTR [eax+0x4]
    3c59:	67 66 8b 45 08       	mov    eax,DWORD PTR [ebp+0x8]
    3c5e:	67 66 8b 54 90 0c    	mov    edx,DWORD PTR [eax+edx*4+0xc]
    3c64:	67 66 8b 45 0c       	mov    eax,DWORD PTR [ebp+0xc]
    3c69:	67 66 89 10          	mov    DWORD PTR [eax],edx
D:\OneDrive\Study\Operating Systems\实验\project6\codes/./lib/utilsC.c:549
	que->head = (que->head+1)%Len;
    3c6d:	67 66 8b 45 08       	mov    eax,DWORD PTR [ebp+0x8]
    3c72:	67 66 8b 40 04       	mov    eax,DWORD PTR [eax+0x4]
    3c77:	66 40                	inc    eax
    3c79:	66 b9 32 00 00 00    	mov    ecx,0x32
    3c7f:	66 99                	cdq    
    3c81:	66 f7 f9             	idiv   ecx
    3c84:	67 66 8b 45 08       	mov    eax,DWORD PTR [ebp+0x8]
    3c89:	67 66 89 50 04       	mov    DWORD PTR [eax+0x4],edx
    3c8e:	eb 01                	jmp    3c91 <_dequeue+0x6f>
D:\OneDrive\Study\Operating Systems\实验\project6\codes/./lib/utilsC.c:546
		return ;
    3c90:	90                   	nop
D:\OneDrive\Study\Operating Systems\实验\project6\codes/./lib/utilsC.c:550
}
    3c91:	66 5d                	pop    ebp
    3c93:	66 c3                	ret    

00003c95 <_malloc>:
malloc():
D:\OneDrive\Study\Operating Systems\实验\project6\codes/./lib/utilsC.c:556
///////////// process ends //////////


//////////// memory /////////////
void * malloc(int size)
{
    3c95:	66 55                	push   ebp
    3c97:	66 89 e5             	mov    ebp,esp
    3c9a:	66 83 ec 20          	sub    esp,0x20
D:\OneDrive\Study\Operating Systems\实验\project6\codes/./lib/utilsC.c:558
	int ds;
	__asm__("mov %gs, %eax\n");
    3c9e:	66 8c e8             	mov    eax,gs
D:\OneDrive\Study\Operating Systems\实验\project6\codes/./lib/utilsC.c:559
	__asm__("pushl %eax");
    3ca1:	66 50                	push   eax
D:\OneDrive\Study\Operating Systems\实验\project6\codes/./lib/utilsC.c:560
	__asm__("popl %0":"=m"(ds));
    3ca3:	67 66 8f 45 f4       	pop    DWORD PTR [ebp-0xc]
D:\OneDrive\Study\Operating Systems\实验\project6\codes/./lib/utilsC.c:565
	//ds板ㄦgs(ds)瀵瀛ㄧ笺
	char tmpstr[10];
	// int2str(ds, tmpstr);
	// printSentence(tmpstr, 12, 0, 5, white);
	size = size + (16 - size % 16);
    3ca8:	67 66 8b 45 08       	mov    eax,DWORD PTR [ebp+0x8]
    3cad:	66 25 0f 00 00 80    	and    eax,0x8000000f
    3cb3:	66 85 c0             	test   eax,eax
    3cb6:	79 08                	jns    3cc0 <_malloc+0x2b>
    3cb8:	66 48                	dec    eax
    3cba:	66 83 c8 f0          	or     eax,0xfffffff0
    3cbe:	66 40                	inc    eax
    3cc0:	66 ba 10 00 00 00    	mov    edx,0x10
    3cc6:	66 29 c2             	sub    edx,eax
    3cc9:	66 89 d0             	mov    eax,edx
    3ccc:	67 66 01 45 08       	add    DWORD PTR [ebp+0x8],eax
D:\OneDrive\Study\Operating Systems\实验\project6\codes/./lib/utilsC.c:566
	int blockNum = findLaterBlock(ds<<4, size);
    3cd1:	67 66 8b 45 f4       	mov    eax,DWORD PTR [ebp-0xc]
    3cd6:	66 c1 e0 04          	shl    eax,0x4
    3cda:	66 89 c2             	mov    edx,eax
    3cdd:	67 66 8b 45 08       	mov    eax,DWORD PTR [ebp+0x8]
    3ce2:	67 66 89 44 24 04    	mov    DWORD PTR [esp+0x4],eax
    3ce8:	67 66 89 14 24       	mov    DWORD PTR [esp],edx
    3ced:	66 e8 96 0a 00 00    	call   4789 <_findLaterBlock>
    3cf3:	67 66 89 45 fc       	mov    DWORD PTR [ebp-0x4],eax
D:\OneDrive\Study\Operating Systems\实验\project6\codes/./lib/utilsC.c:567
	int endDs = ((memoryTable[blockNum].beginAddr + size)&0xf0000) >> 4;
    3cf8:	67 66 8b 55 fc       	mov    edx,DWORD PTR [ebp-0x4]
    3cfd:	66 89 d0             	mov    eax,edx
    3d00:	66 01 c0             	add    eax,eax
    3d03:	66 01 d0             	add    eax,edx
    3d06:	66 c1 e0 03          	shl    eax,0x3
    3d0a:	66 05 c0 71 00 00    	add    eax,0x71c0
    3d10:	67 66 8b 10          	mov    edx,DWORD PTR [eax]
    3d14:	67 66 8b 45 08       	mov    eax,DWORD PTR [ebp+0x8]
    3d19:	66 01 d0             	add    eax,edx
    3d1c:	66 c1 f8 04          	sar    eax,0x4
    3d20:	66 25 00 f0 00 00    	and    eax,0xf000
    3d26:	67 66 89 45 f8       	mov    DWORD PTR [ebp-0x8],eax
D:\OneDrive\Study\Operating Systems\实验\project6\codes/./lib/utilsC.c:568
	if(endDs != ds){
    3d2b:	67 66 8b 45 f4       	mov    eax,DWORD PTR [ebp-0xc]
    3d30:	67 66 39 45 f8       	cmp    DWORD PTR [ebp-0x8],eax
    3d35:	74 08                	je     3d3f <_malloc+0xaa>
D:\OneDrive\Study\Operating Systems\实验\project6\codes/./lib/utilsC.c:569
		return 0;
    3d37:	66 b8 00 00 00 00    	mov    eax,0x0
    3d3d:	eb 40                	jmp    3d7f <_malloc+0xea>
D:\OneDrive\Study\Operating Systems\实验\project6\codes/./lib/utilsC.c:571
	} else {
		blockNum = require(size, blockNum);
    3d3f:	67 66 8b 45 fc       	mov    eax,DWORD PTR [ebp-0x4]
    3d44:	67 66 89 44 24 04    	mov    DWORD PTR [esp+0x4],eax
    3d4a:	67 66 8b 45 08       	mov    eax,DWORD PTR [ebp+0x8]
    3d4f:	67 66 89 04 24       	mov    DWORD PTR [esp],eax
    3d54:	66 e8 cf 0d 00 00    	call   4b29 <_require>
    3d5a:	67 66 89 45 fc       	mov    DWORD PTR [ebp-0x4],eax
D:\OneDrive\Study\Operating Systems\实验\project6\codes/./lib/utilsC.c:572
		return (void*)(memoryTable[blockNum].beginAddr & 0x0000ffff);
    3d5f:	67 66 8b 55 fc       	mov    edx,DWORD PTR [ebp-0x4]
    3d64:	66 89 d0             	mov    eax,edx
    3d67:	66 01 c0             	add    eax,eax
    3d6a:	66 01 d0             	add    eax,edx
    3d6d:	66 c1 e0 03          	shl    eax,0x3
    3d71:	66 05 c0 71 00 00    	add    eax,0x71c0
    3d77:	67 66 8b 00          	mov    eax,DWORD PTR [eax]
    3d7b:	66 0f b7 c0          	movzx  eax,ax
D:\OneDrive\Study\Operating Systems\实验\project6\codes/./lib/utilsC.c:574
	}
}
    3d7f:	66 c9                	leave  
    3d81:	66 c3                	ret    

00003d83 <_nextUnusedItem>:
nextUnusedItem():
D:\OneDrive\Study\Operating Systems\实验\project6\codes/./lib/utilsC.c:579



int nextUnusedItem()
{
    3d83:	66 55                	push   ebp
    3d85:	66 89 e5             	mov    ebp,esp
    3d88:	66 83 ec 04          	sub    esp,0x4
D:\OneDrive\Study\Operating Systems\实验\project6\codes/./lib/utilsC.c:580
	for (int i = 0; i < MemLen; ++i)
    3d8c:	67 66 c7 45 fc 00 00 	mov    DWORD PTR [ebp-0x4],0x0
    3d93:	00 00 
    3d95:	eb 2d                	jmp    3dc4 <_nextUnusedItem+0x41>
D:\OneDrive\Study\Operating Systems\实验\project6\codes/./lib/utilsC.c:582
	{
		if(memoryTable[i].used == 0)
    3d97:	67 66 8b 55 fc       	mov    edx,DWORD PTR [ebp-0x4]
    3d9c:	66 89 d0             	mov    eax,edx
    3d9f:	66 01 c0             	add    eax,eax
    3da2:	66 01 d0             	add    eax,edx
    3da5:	66 c1 e0 03          	shl    eax,0x3
    3da9:	66 05 d0 71 00 00    	add    eax,0x71d0
    3daf:	67 66 8b 00          	mov    eax,DWORD PTR [eax]
    3db3:	66 85 c0             	test   eax,eax
    3db6:	75 07                	jne    3dbf <_nextUnusedItem+0x3c>
D:\OneDrive\Study\Operating Systems\实验\project6\codes/./lib/utilsC.c:583
			return i;
    3db8:	67 66 8b 45 fc       	mov    eax,DWORD PTR [ebp-0x4]
    3dbd:	eb 13                	jmp    3dd2 <_nextUnusedItem+0x4f>
D:\OneDrive\Study\Operating Systems\实验\project6\codes/./lib/utilsC.c:580
	for (int i = 0; i < MemLen; ++i)
    3dbf:	67 66 ff 45 fc       	inc    DWORD PTR [ebp-0x4]
    3dc4:	67 66 83 7d fc 31    	cmp    DWORD PTR [ebp-0x4],0x31
    3dca:	7e cb                	jle    3d97 <_nextUnusedItem+0x14>
D:\OneDrive\Study\Operating Systems\实验\project6\codes/./lib/utilsC.c:585
	}
	return -1;
    3dcc:	66 b8 ff ff ff ff    	mov    eax,0xffffffff
D:\OneDrive\Study\Operating Systems\实验\project6\codes/./lib/utilsC.c:586
}
    3dd2:	66 c9                	leave  
    3dd4:	66 c3                	ret    

00003dd6 <_initialMemoryTable>:
initialMemoryTable():
D:\OneDrive\Study\Operating Systems\实验\project6\codes/./lib/utilsC.c:589

void initialMemoryTable()
{
    3dd6:	66 55                	push   ebp
    3dd8:	66 89 e5             	mov    ebp,esp
    3ddb:	66 83 ec 08          	sub    esp,0x8
D:\OneDrive\Study\Operating Systems\实验\project6\codes/./lib/utilsC.c:591
	int next;
	for (int i = 0; i < MemLen; ++i)
    3ddf:	67 66 c7 45 fc 00 00 	mov    DWORD PTR [ebp-0x4],0x0
    3de6:	00 00 
    3de8:	e9 85 00             	jmp    3e70 <_initialMemoryTable+0x9a>
D:\OneDrive\Study\Operating Systems\实验\project6\codes/./lib/utilsC.c:593
	{
		memoryTable[i].used = 0;
    3deb:	67 66 8b 55 fc       	mov    edx,DWORD PTR [ebp-0x4]
    3df0:	66 89 d0             	mov    eax,edx
    3df3:	66 01 c0             	add    eax,eax
    3df6:	66 01 d0             	add    eax,edx
    3df9:	66 c1 e0 03          	shl    eax,0x3
    3dfd:	66 05 d0 71 00 00    	add    eax,0x71d0
    3e03:	67 66 c7 00 00 00 00 	mov    DWORD PTR [eax],0x0
    3e0a:	00 
D:\OneDrive\Study\Operating Systems\实验\project6\codes/./lib/utilsC.c:594
		memoryTable[i].next = -1;
    3e0b:	67 66 8b 55 fc       	mov    edx,DWORD PTR [ebp-0x4]
    3e10:	66 89 d0             	mov    eax,edx
    3e13:	66 01 c0             	add    eax,eax
    3e16:	66 01 d0             	add    eax,edx
    3e19:	66 c1 e0 03          	shl    eax,0x3
    3e1d:	66 05 cc 71 00 00    	add    eax,0x71cc
    3e23:	67 66 c7 00 ff ff ff 	mov    DWORD PTR [eax],0xffffffff
    3e2a:	ff 
D:\OneDrive\Study\Operating Systems\实验\project6\codes/./lib/utilsC.c:595
		memoryTable[i].pre = -1;
    3e2b:	67 66 8b 55 fc       	mov    edx,DWORD PTR [ebp-0x4]
    3e30:	66 89 d0             	mov    eax,edx
    3e33:	66 01 c0             	add    eax,eax
    3e36:	66 01 d0             	add    eax,edx
    3e39:	66 c1 e0 03          	shl    eax,0x3
    3e3d:	66 05 c8 71 00 00    	add    eax,0x71c8
    3e43:	67 66 c7 00 ff ff ff 	mov    DWORD PTR [eax],0xffffffff
    3e4a:	ff 
D:\OneDrive\Study\Operating Systems\实验\project6\codes/./lib/utilsC.c:596
		memoryTable[i].status = unused;
    3e4b:	67 66 8b 55 fc       	mov    edx,DWORD PTR [ebp-0x4]
    3e50:	66 89 d0             	mov    eax,edx
    3e53:	66 01 c0             	add    eax,eax
    3e56:	66 01 d0             	add    eax,edx
    3e59:	66 c1 e0 03          	shl    eax,0x3
    3e5d:	66 05 d4 71 00 00    	add    eax,0x71d4
    3e63:	67 66 c7 00 00 00 00 	mov    DWORD PTR [eax],0x0
    3e6a:	00 
D:\OneDrive\Study\Operating Systems\实验\project6\codes/./lib/utilsC.c:591
	for (int i = 0; i < MemLen; ++i)
    3e6b:	67 66 ff 45 fc       	inc    DWORD PTR [ebp-0x4]
    3e70:	67 66 83 7d fc 31    	cmp    DWORD PTR [ebp-0x4],0x31
    3e76:	0f 8e 71 ff          	jle    3deb <_initialMemoryTable+0x15>
D:\OneDrive\Study\Operating Systems\实验\project6\codes/./lib/utilsC.c:598
	}
	firstUnusedMemoryItem = 0;
    3e7a:	66 c7 06 84 71 00 00 	mov    DWORD PTR ds:0x7184,0x0
    3e81:	00 00 
D:\OneDrive\Study\Operating Systems\实验\project6\codes/./lib/utilsC.c:599
	memoryTable[firstUnusedMemoryItem].pre = -1;
    3e83:	66 8b 16 84 71       	mov    edx,DWORD PTR ds:0x7184
    3e88:	66 89 d0             	mov    eax,edx
    3e8b:	66 01 c0             	add    eax,eax
    3e8e:	66 01 d0             	add    eax,edx
    3e91:	66 c1 e0 03          	shl    eax,0x3
    3e95:	66 05 c8 71 00 00    	add    eax,0x71c8
    3e9b:	67 66 c7 00 ff ff ff 	mov    DWORD PTR [eax],0xffffffff
    3ea2:	ff 
D:\OneDrive\Study\Operating Systems\实验\project6\codes/./lib/utilsC.c:600
	memoryTable[firstUnusedMemoryItem].used = 1;
    3ea3:	66 8b 16 84 71       	mov    edx,DWORD PTR ds:0x7184
    3ea8:	66 89 d0             	mov    eax,edx
    3eab:	66 01 c0             	add    eax,eax
    3eae:	66 01 d0             	add    eax,edx
    3eb1:	66 c1 e0 03          	shl    eax,0x3
    3eb5:	66 05 d0 71 00 00    	add    eax,0x71d0
    3ebb:	67 66 c7 00 01 00 00 	mov    DWORD PTR [eax],0x1
    3ec2:	00 
D:\OneDrive\Study\Operating Systems\实验\project6\codes/./lib/utilsC.c:601
	memoryTable[firstUnusedMemoryItem].beginAddr = 0;
    3ec3:	66 8b 16 84 71       	mov    edx,DWORD PTR ds:0x7184
    3ec8:	66 89 d0             	mov    eax,edx
    3ecb:	66 01 c0             	add    eax,eax
    3ece:	66 01 d0             	add    eax,edx
    3ed1:	66 c1 e0 03          	shl    eax,0x3
    3ed5:	66 05 c0 71 00 00    	add    eax,0x71c0
    3edb:	67 66 c7 00 00 00 00 	mov    DWORD PTR [eax],0x0
    3ee2:	00 
D:\OneDrive\Study\Operating Systems\实验\project6\codes/./lib/utilsC.c:602
	memoryTable[firstUnusedMemoryItem].endAddr = 0x4ff;
    3ee3:	66 8b 16 84 71       	mov    edx,DWORD PTR ds:0x7184
    3ee8:	66 89 d0             	mov    eax,edx
    3eeb:	66 01 c0             	add    eax,eax
    3eee:	66 01 d0             	add    eax,edx
    3ef1:	66 c1 e0 03          	shl    eax,0x3
    3ef5:	66 05 c4 71 00 00    	add    eax,0x71c4
    3efb:	67 66 c7 00 ff 04 00 	mov    DWORD PTR [eax],0x4ff
    3f02:	00 
D:\OneDrive\Study\Operating Systems\实验\project6\codes/./lib/utilsC.c:603
	memoryTable[firstUnusedMemoryItem].status = used;
    3f03:	66 8b 16 84 71       	mov    edx,DWORD PTR ds:0x7184
    3f08:	66 89 d0             	mov    eax,edx
    3f0b:	66 01 c0             	add    eax,eax
    3f0e:	66 01 d0             	add    eax,edx
    3f11:	66 c1 e0 03          	shl    eax,0x3
    3f15:	66 05 d4 71 00 00    	add    eax,0x71d4
    3f1b:	67 66 c7 00 01 00 00 	mov    DWORD PTR [eax],0x1
    3f22:	00 
D:\OneDrive\Study\Operating Systems\实验\project6\codes/./lib/utilsC.c:604
	next = nextUnusedItem();
    3f23:	66 e8 5a fe ff ff    	call   3d83 <_nextUnusedItem>
    3f29:	67 66 89 45 f8       	mov    DWORD PTR [ebp-0x8],eax
D:\OneDrive\Study\Operating Systems\实验\project6\codes/./lib/utilsC.c:605
	memoryTable[next].pre = firstUnusedMemoryItem;
    3f2e:	66 8b 16 84 71       	mov    edx,DWORD PTR ds:0x7184
    3f33:	67 66 8b 4d f8       	mov    ecx,DWORD PTR [ebp-0x8]
    3f38:	66 89 c8             	mov    eax,ecx
    3f3b:	66 01 c0             	add    eax,eax
    3f3e:	66 01 c8             	add    eax,ecx
    3f41:	66 c1 e0 03          	shl    eax,0x3
    3f45:	66 05 c8 71 00 00    	add    eax,0x71c8
    3f4b:	67 66 89 10          	mov    DWORD PTR [eax],edx
D:\OneDrive\Study\Operating Systems\实验\project6\codes/./lib/utilsC.c:606
	memoryTable[firstUnusedMemoryItem].next = next;
    3f4f:	66 8b 16 84 71       	mov    edx,DWORD PTR ds:0x7184
    3f54:	66 89 d0             	mov    eax,edx
    3f57:	66 01 c0             	add    eax,eax
    3f5a:	66 01 d0             	add    eax,edx
    3f5d:	66 c1 e0 03          	shl    eax,0x3
    3f61:	67 66 8d 90 cc 71 00 	lea    edx,[eax+0x71cc]
    3f68:	00 
    3f69:	67 66 8b 45 f8       	mov    eax,DWORD PTR [ebp-0x8]
    3f6e:	67 66 89 02          	mov    DWORD PTR [edx],eax
D:\OneDrive\Study\Operating Systems\实验\project6\codes/./lib/utilsC.c:607
	firstUnusedMemoryItem = next;
    3f72:	67 66 8b 45 f8       	mov    eax,DWORD PTR [ebp-0x8]
    3f77:	66 a3 84 71          	mov    ds:0x7184,eax
D:\OneDrive\Study\Operating Systems\实验\project6\codes/./lib/utilsC.c:609

	memoryTable[firstUnusedMemoryItem].used = 1;
    3f7b:	66 8b 16 84 71       	mov    edx,DWORD PTR ds:0x7184
    3f80:	66 89 d0             	mov    eax,edx
    3f83:	66 01 c0             	add    eax,eax
    3f86:	66 01 d0             	add    eax,edx
    3f89:	66 c1 e0 03          	shl    eax,0x3
    3f8d:	66 05 d0 71 00 00    	add    eax,0x71d0
    3f93:	67 66 c7 00 01 00 00 	mov    DWORD PTR [eax],0x1
    3f9a:	00 
D:\OneDrive\Study\Operating Systems\实验\project6\codes/./lib/utilsC.c:610
	memoryTable[firstUnusedMemoryItem].beginAddr = 0x500;
    3f9b:	66 8b 16 84 71       	mov    edx,DWORD PTR ds:0x7184
    3fa0:	66 89 d0             	mov    eax,edx
    3fa3:	66 01 c0             	add    eax,eax
    3fa6:	66 01 d0             	add    eax,edx
    3fa9:	66 c1 e0 03          	shl    eax,0x3
    3fad:	66 05 c0 71 00 00    	add    eax,0x71c0
    3fb3:	67 66 c7 00 00 05 00 	mov    DWORD PTR [eax],0x500
    3fba:	00 
D:\OneDrive\Study\Operating Systems\实验\project6\codes/./lib/utilsC.c:611
	memoryTable[firstUnusedMemoryItem].endAddr = 0x7cff;
    3fbb:	66 8b 16 84 71       	mov    edx,DWORD PTR ds:0x7184
    3fc0:	66 89 d0             	mov    eax,edx
    3fc3:	66 01 c0             	add    eax,eax
    3fc6:	66 01 d0             	add    eax,edx
    3fc9:	66 c1 e0 03          	shl    eax,0x3
    3fcd:	66 05 c4 71 00 00    	add    eax,0x71c4
    3fd3:	67 66 c7 00 ff 7c 00 	mov    DWORD PTR [eax],0x7cff
    3fda:	00 
D:\OneDrive\Study\Operating Systems\实验\project6\codes/./lib/utilsC.c:612
	memoryTable[firstUnusedMemoryItem].status = unused;
    3fdb:	66 8b 16 84 71       	mov    edx,DWORD PTR ds:0x7184
    3fe0:	66 89 d0             	mov    eax,edx
    3fe3:	66 01 c0             	add    eax,eax
    3fe6:	66 01 d0             	add    eax,edx
    3fe9:	66 c1 e0 03          	shl    eax,0x3
    3fed:	66 05 d4 71 00 00    	add    eax,0x71d4
    3ff3:	67 66 c7 00 00 00 00 	mov    DWORD PTR [eax],0x0
    3ffa:	00 
D:\OneDrive\Study\Operating Systems\实验\project6\codes/./lib/utilsC.c:613
	next = nextUnusedItem();
    3ffb:	66 e8 82 fd ff ff    	call   3d83 <_nextUnusedItem>
    4001:	67 66 89 45 f8       	mov    DWORD PTR [ebp-0x8],eax
D:\OneDrive\Study\Operating Systems\实验\project6\codes/./lib/utilsC.c:614
	memoryTable[next].pre = firstUnusedMemoryItem;
    4006:	66 8b 16 84 71       	mov    edx,DWORD PTR ds:0x7184
    400b:	67 66 8b 4d f8       	mov    ecx,DWORD PTR [ebp-0x8]
    4010:	66 89 c8             	mov    eax,ecx
    4013:	66 01 c0             	add    eax,eax
    4016:	66 01 c8             	add    eax,ecx
    4019:	66 c1 e0 03          	shl    eax,0x3
    401d:	66 05 c8 71 00 00    	add    eax,0x71c8
    4023:	67 66 89 10          	mov    DWORD PTR [eax],edx
D:\OneDrive\Study\Operating Systems\实验\project6\codes/./lib/utilsC.c:615
	memoryTable[firstUnusedMemoryItem].next = next;
    4027:	66 8b 16 84 71       	mov    edx,DWORD PTR ds:0x7184
    402c:	66 89 d0             	mov    eax,edx
    402f:	66 01 c0             	add    eax,eax
    4032:	66 01 d0             	add    eax,edx
    4035:	66 c1 e0 03          	shl    eax,0x3
    4039:	67 66 8d 90 cc 71 00 	lea    edx,[eax+0x71cc]
    4040:	00 
    4041:	67 66 8b 45 f8       	mov    eax,DWORD PTR [ebp-0x8]
    4046:	67 66 89 02          	mov    DWORD PTR [edx],eax
D:\OneDrive\Study\Operating Systems\实验\project6\codes/./lib/utilsC.c:616
	firstUnusedMemoryItem = next;
    404a:	67 66 8b 45 f8       	mov    eax,DWORD PTR [ebp-0x8]
    404f:	66 a3 84 71          	mov    ds:0x7184,eax
