
..\imgs\boot.tmp:     file format pei-i386


Disassembly of section .text:

00000000 <.text>:
       0:	66 8c c8             	mov    eax,cs
       3:	8e d8                	mov    ds,ax
       5:	8e c0                	mov    es,ax
       7:	8e d0                	mov    ss,ax
       9:	8e e8                	mov    gs,ax
       b:	66 e8 44 0e 00 00    	call   e55 <_inisys>
      11:	eb 00                	jmp    13 <__main>

00000013 <__main>:
_main():
D:\OneDrive\Study\Operating Systems\实验\project6\codes/./kernel/os.c:36
{
	int i;
	struct testMalloc * next;
};

int _main() {
      13:	66 55                	push   ebp
      15:	66 89 e5             	mov    ebp,esp
      18:	66 53                	push   ebx
      1a:	66 81 ec 9c 00 00 00 	sub    esp,0x9c
D:\OneDrive\Study\Operating Systems\实验\project6\codes/./kernel/os.c:37
	runSub = 0;
      21:	66 c7 06 c0 81 00 00 	mov    DWORD PTR ds:0x81c0,0x0
      28:	00 00 
D:\OneDrive\Study\Operating Systems\实验\project6\codes/./kernel/os.c:38
	curProcessId = 0;
      2a:	66 c7 06 30 a7 00 00 	mov    DWORD PTR ds:0xa730,0x0
      31:	00 00 
D:\OneDrive\Study\Operating Systems\实验\project6\codes/./kernel/os.c:39
	ProcessSize = 1;
      33:	66 c7 06 74 87 01 00 	mov    DWORD PTR ds:0x8774,0x1
      3a:	00 00 
D:\OneDrive\Study\Operating Systems\实验\project6\codes/./kernel/os.c:40
	SizeOfProcessStruct = sizeof(struct Process);
      3c:	66 c7 06 7c 87 68 00 	mov    DWORD PTR ds:0x877c,0x68
      43:	00 00 
D:\OneDrive\Study\Operating Systems\实验\project6\codes/./kernel/os.c:41
	initial();
      45:	66 e8 31 29 00 00    	call   297c <_initial>
D:\OneDrive\Study\Operating Systems\实验\project6\codes/./kernel/os.c:44
	char * in;
	char * str;
	int tmp = -1;
      4b:	67 66 c7 45 80 ff ff 	mov    DWORD PTR [ebp-0x80],0xffffffff
      52:	ff ff 
D:\OneDrive\Study\Operating Systems\实验\project6\codes/./kernel/os.c:45
	init(&ReadyQue);
      54:	67 66 c7 04 24 40 a7 	mov    DWORD PTR [esp],0xa740
      5b:	00 00 
      5d:	66 e8 82 46 00 00    	call   46e5 <_init>
D:\OneDrive\Study\Operating Systems\实验\project6\codes/./kernel/os.c:46
	init(&BlockedQue);
      63:	67 66 c7 04 24 a0 86 	mov    DWORD PTR [esp],0x86a0
      6a:	00 00 
      6c:	66 e8 73 46 00 00    	call   46e5 <_init>
D:\OneDrive\Study\Operating Systems\实验\project6\codes/./kernel/os.c:47
	init(&SuspendQue);
      72:	67 66 c7 04 24 00 92 	mov    DWORD PTR [esp],0x9200
      79:	00 00 
      7b:	66 e8 64 46 00 00    	call   46e5 <_init>
D:\OneDrive\Study\Operating Systems\实验\project6\codes/./kernel/os.c:71
	// 	one = one->next;
	// }


	do {
		in = getInput();
      81:	66 e8 c5 12 00 00    	call   134c <_getInput>
      87:	67 66 89 45 f4       	mov    DWORD PTR [ebp-0xc],eax
D:\OneDrive\Study\Operating Systems\实验\project6\codes/./kernel/os.c:72
		if(strcmp(in, "testFork") == 0){
      8c:	67 66 c7 44 24 04 00 	mov    DWORD PTR [esp+0x4],0x6000
      93:	60 00 00 
      96:	67 66 8b 45 f4       	mov    eax,DWORD PTR [ebp-0xc]
      9b:	67 66 89 04 24       	mov    DWORD PTR [esp],eax
      a0:	66 e8 d6 29 00 00    	call   2a7c <_strcmp>
      a6:	66 85 c0             	test   eax,eax
      a9:	0f 85 99 01          	jne    246 <__file_alignment__+0x46>
D:\OneDrive\Study\Operating Systems\实验\project6\codes/./kernel/os.c:73
			tmp = find(in);
      ad:	67 66 8b 45 f4       	mov    eax,DWORD PTR [ebp-0xc]
      b2:	67 66 89 04 24       	mov    DWORD PTR [esp],eax
      b7:	66 e8 4c 2e 00 00    	call   2f09 <_find>
      bd:	67 66 89 45 80       	mov    DWORD PTR [ebp-0x80],eax
D:\OneDrive\Study\Operating Systems\实验\project6\codes/./kernel/os.c:75
			int offsetOfPrg, segOfPrg;
			int offsetMask = 0x0000ffff;
      c2:	67 66 c7 45 f0 ff ff 	mov    DWORD PTR [ebp-0x10],0xffff
      c9:	00 00 
D:\OneDrive\Study\Operating Systems\实验\project6\codes/./kernel/os.c:76
			int segMask = 0xf0000;
      cb:	67 66 c7 45 ec 00 00 	mov    DWORD PTR [ebp-0x14],0xf0000
      d2:	0f 00 
D:\OneDrive\Study\Operating Systems\实验\project6\codes/./kernel/os.c:77
			offsetOfPrg = 0x80000 & offsetMask;
      d4:	67 66 8b 45 f0       	mov    eax,DWORD PTR [ebp-0x10]
      d9:	66 25 00 00 08 00    	and    eax,0x80000
      df:	67 66 89 45 e8       	mov    DWORD PTR [ebp-0x18],eax
D:\OneDrive\Study\Operating Systems\实验\project6\codes/./kernel/os.c:78
			segOfPrg = (0x80000 & segMask) >> 4;
      e4:	67 66 8b 45 ec       	mov    eax,DWORD PTR [ebp-0x14]
      e9:	66 c1 f8 04          	sar    eax,0x4
      ed:	66 25 00 80 00 00    	and    eax,0x8000
      f3:	67 66 89 45 e4       	mov    DWORD PTR [ebp-0x1c],eax
D:\OneDrive\Study\Operating Systems\实验\project6\codes/./kernel/os.c:79
			int cs = segOfPrg + (offsetOfPrg >> 4), ip = 0, ss = segOfPrg + (offsetOfPrg >> 4), sp = information[tmp].size+1024-1;
      f8:	67 66 8b 45 e8       	mov    eax,DWORD PTR [ebp-0x18]
      fd:	66 c1 f8 04          	sar    eax,0x4
     101:	66 89 c2             	mov    edx,eax
     104:	67 66 8b 45 e4       	mov    eax,DWORD PTR [ebp-0x1c]
     109:	66 01 d0             	add    eax,edx
     10c:	67 66 89 45 e0       	mov    DWORD PTR [ebp-0x20],eax
     111:	67 66 c7 45 dc 00 00 	mov    DWORD PTR [ebp-0x24],0x0
     118:	00 00 
     11a:	67 66 8b 45 e8       	mov    eax,DWORD PTR [ebp-0x18]
     11f:	66 c1 f8 04          	sar    eax,0x4
     123:	66 89 c2             	mov    edx,eax
     126:	67 66 8b 45 e4       	mov    eax,DWORD PTR [ebp-0x1c]
     12b:	66 01 d0             	add    eax,edx
     12e:	67 66 89 45 d8       	mov    DWORD PTR [ebp-0x28],eax
     133:	67 66 8b 55 80       	mov    edx,DWORD PTR [ebp-0x80]
     138:	66 89 d0             	mov    eax,edx
     13b:	66 01 c0             	add    eax,eax
     13e:	66 01 d0             	add    eax,edx
     141:	66 c1 e0 02          	shl    eax,0x2
     145:	66 01 d0             	add    eax,edx
     148:	66 c1 e0 02          	shl    eax,0x2
     14c:	66 05 e8 87 00 00    	add    eax,0x87e8
     152:	67 66 8b 00          	mov    eax,DWORD PTR [eax]
     156:	66 05 ff 03 00 00    	add    eax,0x3ff
     15c:	67 66 89 45 d4       	mov    DWORD PTR [ebp-0x2c],eax
D:\OneDrive\Study\Operating Systems\实验\project6\codes/./kernel/os.c:80
			createProcess(ProcessSize++, information[tmp].name, information[tmp].size+1024, cs, ip, ss, sp, 9);
     161:	67 66 8b 55 80       	mov    edx,DWORD PTR [ebp-0x80]
     166:	66 89 d0             	mov    eax,edx
     169:	66 01 c0             	add    eax,eax
     16c:	66 01 d0             	add    eax,edx
     16f:	66 c1 e0 02          	shl    eax,0x2
     173:	66 01 d0             	add    eax,edx
     176:	66 c1 e0 02          	shl    eax,0x2
     17a:	66 05 e8 87 00 00    	add    eax,0x87e8
     180:	67 66 8b 00          	mov    eax,DWORD PTR [eax]
     184:	67 66 8d 98 00 04 00 	lea    ebx,[eax+0x400]
     18b:	00 
     18c:	67 66 8b 55 80       	mov    edx,DWORD PTR [ebp-0x80]
     191:	66 89 d0             	mov    eax,edx
     194:	66 01 c0             	add    eax,eax
     197:	66 01 d0             	add    eax,edx
     19a:	66 c1 e0 02          	shl    eax,0x2
     19e:	66 01 d0             	add    eax,edx
     1a1:	66 c1 e0 02          	shl    eax,0x2
     1a5:	67 66 8d 88 c0 87 00 	lea    ecx,[eax+0x87c0]
     1ac:	00 
     1ad:	66 a1 74 87          	mov    eax,ds:0x8774
     1b1:	67 66 8d 50 01       	lea    edx,[eax+0x1]
     1b6:	66 89 16 74 87       	mov    DWORD PTR ds:0x8774,edx
     1bb:	67 66 c7 44 24 1c 09 	mov    DWORD PTR [esp+0x1c],0x9
     1c2:	00 00 00 
     1c5:	67 66 8b 55 d4       	mov    edx,DWORD PTR [ebp-0x2c]
     1ca:	67 66 89 54 24 18    	mov    DWORD PTR [esp+0x18],edx
     1d0:	67 66 8b 55 d8       	mov    edx,DWORD PTR [ebp-0x28]
     1d5:	67 66 89 54 24 14    	mov    DWORD PTR [esp+0x14],edx
     1db:	67 66 8b 55 dc       	mov    edx,DWORD PTR [ebp-0x24]
     1e0:	67 66 89 54 24 10    	mov    DWORD PTR [esp+0x10],edx
     1e6:	67 66 8b 55 e0       	mov    edx,DWORD PTR [ebp-0x20]
     1eb:	67 66 89 54 24 0c    	mov    DWORD PTR [esp+0xc],edx
     1f1:	67 66 89 5c 24 08    	mov    DWORD PTR [esp+0x8],ebx
     1f7:	67 66 89 4c 24 04    	mov    DWORD PTR [esp+0x4],ecx
     1fd:	67 66 89 04 24       	mov    DWORD PTR [esp],eax
     202:	66 e8 85 33 00 00    	call   358d <_createProcess>
D:\OneDrive\Study\Operating Systems\实验\project6\codes/./kernel/os.c:81
			enqueue(&ReadyQue, ProcessSize-1);
     208:	66 a1 74 87          	mov    eax,ds:0x8774
     20c:	66 48                	dec    eax
     20e:	67 66 89 44 24 04    	mov    DWORD PTR [esp+0x4],eax
     214:	67 66 c7 04 24 40 a7 	mov    DWORD PTR [esp],0xa740
     21b:	00 00 
     21d:	66 e8 f5 44 00 00    	call   4718 <_enqueue>
D:\OneDrive\Study\Operating Systems\实验\project6\codes/./kernel/os.c:82
			clear();
     223:	66 e8 f6 1d 00 00    	call   201f <_clear>
D:\OneDrive\Study\Operating Systems\实验\project6\codes/./kernel/os.c:83
			runSub = 1;
     229:	66 c7 06 c0 81 01 00 	mov    DWORD PTR ds:0x81c0,0x1
     230:	00 00 
D:\OneDrive\Study\Operating Systems\实验\project6\codes/./kernel/os.c:84
			__asm__("int $0x8\n");
     232:	cd 08                	int    0x8
D:\OneDrive\Study\Operating Systems\实验\project6\codes/./kernel/os.c:85
			runSub = 0;
     234:	66 c7 06 c0 81 00 00 	mov    DWORD PTR ds:0x81c0,0x0
     23b:	00 00 
D:\OneDrive\Study\Operating Systems\实验\project6\codes/./kernel/os.c:86
			clear();
     23d:	66 e8 dc 1d 00 00    	call   201f <_clear>
     243:	e9 f7 0b             	jmp    e3d <.debug_info+0x65a>
D:\OneDrive\Study\Operating Systems\实验\project6\codes/./kernel/os.c:88
		}
		else if(in[0] == 'r' && in[1] == 'u' && in[2] == 'n')
     246:	67 66 8b 45 f4       	mov    eax,DWORD PTR [ebp-0xc]
     24b:	67 8a 00             	mov    al,BYTE PTR [eax]
     24e:	3c 72                	cmp    al,0x72
     250:	0f 85 9e 04          	jne    6f2 <__file_alignment__+0x4f2>
     254:	67 66 8b 45 f4       	mov    eax,DWORD PTR [ebp-0xc]
     259:	66 40                	inc    eax
     25b:	67 8a 00             	mov    al,BYTE PTR [eax]
     25e:	3c 75                	cmp    al,0x75
     260:	0f 85 8e 04          	jne    6f2 <__file_alignment__+0x4f2>
     264:	67 66 8b 45 f4       	mov    eax,DWORD PTR [ebp-0xc]
     269:	66 83 c0 02          	add    eax,0x2
     26d:	67 8a 00             	mov    al,BYTE PTR [eax]
     270:	3c 6e                	cmp    al,0x6e
     272:	0f 85 7c 04          	jne    6f2 <__file_alignment__+0x4f2>
D:\OneDrive\Study\Operating Systems\实验\project6\codes/./kernel/os.c:90
		{
			printSentence("\n", line++, 0, strlen("\n"), white);
     276:	67 66 c7 04 24 09 60 	mov    DWORD PTR [esp],0x6009
     27d:	00 00 
     27f:	66 e8 26 27 00 00    	call   29ab <_strlen>
     285:	66 89 c2             	mov    edx,eax
     288:	66 a1 a0 81          	mov    eax,ds:0x81a0
     28c:	67 66 8d 48 01       	lea    ecx,[eax+0x1]
     291:	66 89 0e a0 81       	mov    DWORD PTR ds:0x81a0,ecx
     296:	67 66 c7 44 24 10 0f 	mov    DWORD PTR [esp+0x10],0xf
     29d:	00 00 00 
     2a0:	67 66 89 54 24 0c    	mov    DWORD PTR [esp+0xc],edx
     2a6:	67 66 c7 44 24 08 00 	mov    DWORD PTR [esp+0x8],0x0
     2ad:	00 00 00 
     2b0:	67 66 89 44 24 04    	mov    DWORD PTR [esp+0x4],eax
     2b6:	67 66 c7 04 24 09 60 	mov    DWORD PTR [esp],0x6009
     2bd:	00 00 
     2bf:	66 e8 46 10 00 00    	call   130b <_printSentence>
D:\OneDrive\Study\Operating Systems\实验\project6\codes/./kernel/os.c:92
			do{
				str = getInput();
     2c5:	66 e8 81 10 00 00    	call   134c <_getInput>
     2cb:	67 66 89 45 d0       	mov    DWORD PTR [ebp-0x30],eax
D:\OneDrive\Study\Operating Systems\实验\project6\codes/./kernel/os.c:93
				printSentence("\n", line++, 0, strlen("\n"), white);
     2d0:	67 66 c7 04 24 09 60 	mov    DWORD PTR [esp],0x6009
     2d7:	00 00 
     2d9:	66 e8 cc 26 00 00    	call   29ab <_strlen>
     2df:	66 89 c2             	mov    edx,eax
     2e2:	66 a1 a0 81          	mov    eax,ds:0x81a0
     2e6:	67 66 8d 48 01       	lea    ecx,[eax+0x1]
     2eb:	66 89 0e a0 81       	mov    DWORD PTR ds:0x81a0,ecx
     2f0:	67 66 c7 44 24 10 0f 	mov    DWORD PTR [esp+0x10],0xf
     2f7:	00 00 00 
     2fa:	67 66 89 54 24 0c    	mov    DWORD PTR [esp+0xc],edx
     300:	67 66 c7 44 24 08 00 	mov    DWORD PTR [esp+0x8],0x0
     307:	00 00 00 
     30a:	67 66 89 44 24 04    	mov    DWORD PTR [esp+0x4],eax
     310:	67 66 c7 04 24 09 60 	mov    DWORD PTR [esp],0x6009
     317:	00 00 
     319:	66 e8 ec 0f 00 00    	call   130b <_printSentence>
D:\OneDrive\Study\Operating Systems\实验\project6\codes/./kernel/os.c:94
				if(str[0]){	
     31f:	67 66 8b 45 d0       	mov    eax,DWORD PTR [ebp-0x30]
     324:	67 8a 00             	mov    al,BYTE PTR [eax]
     327:	84 c0                	test   al,al
     329:	0f 84 c7 02          	je     5f4 <__file_alignment__+0x3f4>
D:\OneDrive\Study\Operating Systems\实验\project6\codes/./kernel/os.c:95
					tmp = find(str);
     32d:	67 66 8b 45 d0       	mov    eax,DWORD PTR [ebp-0x30]
     332:	67 66 89 04 24       	mov    DWORD PTR [esp],eax
     337:	66 e8 cc 2b 00 00    	call   2f09 <_find>
     33d:	67 66 89 45 80       	mov    DWORD PTR [ebp-0x80],eax
D:\OneDrive\Study\Operating Systems\实验\project6\codes/./kernel/os.c:96
					if(tmp != -1 && information[tmp].deleted != 1){
     342:	67 66 8b 45 80       	mov    eax,DWORD PTR [ebp-0x80]
     347:	66 83 f8 ff          	cmp    eax,0xffffffff
     34b:	0f 84 a5 02          	je     5f4 <__file_alignment__+0x3f4>
     34f:	67 66 8b 55 80       	mov    edx,DWORD PTR [ebp-0x80]
     354:	66 89 d0             	mov    eax,edx
     357:	66 01 c0             	add    eax,eax
     35a:	66 01 d0             	add    eax,edx
     35d:	66 c1 e0 02          	shl    eax,0x2
     361:	66 01 d0             	add    eax,edx
     364:	66 c1 e0 02          	shl    eax,0x2
     368:	66 05 ec 87 00 00    	add    eax,0x87ec
     36e:	67 66 8b 00          	mov    eax,DWORD PTR [eax]
     372:	66 83 f8 01          	cmp    eax,0x1
     376:	0f 84 7a 02          	je     5f4 <__file_alignment__+0x3f4>
D:\OneDrive\Study\Operating Systems\实验\project6\codes/./kernel/os.c:97
						int blockNum = findEnoughBlock(information[tmp].size+1024);
     37a:	67 66 8b 55 80       	mov    edx,DWORD PTR [ebp-0x80]
     37f:	66 89 d0             	mov    eax,edx
     382:	66 01 c0             	add    eax,eax
     385:	66 01 d0             	add    eax,edx
     388:	66 c1 e0 02          	shl    eax,0x2
     38c:	66 01 d0             	add    eax,edx
     38f:	66 c1 e0 02          	shl    eax,0x2
     393:	66 05 e8 87 00 00    	add    eax,0x87e8
     399:	67 66 8b 00          	mov    eax,DWORD PTR [eax]
     39d:	66 05 00 04 00 00    	add    eax,0x400
     3a3:	67 66 89 04 24       	mov    DWORD PTR [esp],eax
     3a8:	66 e8 15 53 00 00    	call   56c3 <_findEnoughBlock>
     3ae:	67 66 89 45 cc       	mov    DWORD PTR [ebp-0x34],eax
D:\OneDrive\Study\Operating Systems\实验\project6\codes/./kernel/os.c:98
						blockNum = require(information[tmp].size+1024, blockNum);
     3b3:	67 66 8b 55 80       	mov    edx,DWORD PTR [ebp-0x80]
     3b8:	66 89 d0             	mov    eax,edx
     3bb:	66 01 c0             	add    eax,eax
     3be:	66 01 d0             	add    eax,edx
     3c1:	66 c1 e0 02          	shl    eax,0x2
     3c5:	66 01 d0             	add    eax,edx
     3c8:	66 c1 e0 02          	shl    eax,0x2
     3cc:	66 05 e8 87 00 00    	add    eax,0x87e8
     3d2:	67 66 8b 00          	mov    eax,DWORD PTR [eax]
     3d6:	67 66 8d 90 00 04 00 	lea    edx,[eax+0x400]
     3dd:	00 
     3de:	67 66 8b 45 cc       	mov    eax,DWORD PTR [ebp-0x34]
     3e3:	67 66 89 44 24 04    	mov    DWORD PTR [esp+0x4],eax
     3e9:	67 66 89 14 24       	mov    DWORD PTR [esp],edx
     3ee:	66 e8 78 53 00 00    	call   576c <_require>
     3f4:	67 66 89 45 cc       	mov    DWORD PTR [ebp-0x34],eax
D:\OneDrive\Study\Operating Systems\实验\project6\codes/./kernel/os.c:100
						int offsetOfPrg, segOfPrg;
						int offsetMask = 0x0000ffff;
     3f9:	67 66 c7 45 c8 ff ff 	mov    DWORD PTR [ebp-0x38],0xffff
     400:	00 00 
D:\OneDrive\Study\Operating Systems\实验\project6\codes/./kernel/os.c:101
						int segMask = 0xf0000;
     402:	67 66 c7 45 c4 00 00 	mov    DWORD PTR [ebp-0x3c],0xf0000
     409:	0f 00 
D:\OneDrive\Study\Operating Systems\实验\project6\codes/./kernel/os.c:102
						offsetOfPrg = memoryTable[blockNum].beginAddr & offsetMask;
     40b:	67 66 8b 55 cc       	mov    edx,DWORD PTR [ebp-0x34]
     410:	66 89 d0             	mov    eax,edx
     413:	66 01 c0             	add    eax,eax
     416:	66 01 d0             	add    eax,edx
     419:	66 c1 e0 03          	shl    eax,0x3
     41d:	66 05 e0 81 00 00    	add    eax,0x81e0
     423:	67 66 8b 00          	mov    eax,DWORD PTR [eax]
     427:	67 66 23 45 c8       	and    eax,DWORD PTR [ebp-0x38]
     42c:	67 66 89 45 c0       	mov    DWORD PTR [ebp-0x40],eax
D:\OneDrive\Study\Operating Systems\实验\project6\codes/./kernel/os.c:103
						segOfPrg = (memoryTable[blockNum].beginAddr & segMask) >> 4;
     431:	67 66 8b 55 cc       	mov    edx,DWORD PTR [ebp-0x34]
     436:	66 89 d0             	mov    eax,edx
     439:	66 01 c0             	add    eax,eax
     43c:	66 01 d0             	add    eax,edx
     43f:	66 c1 e0 03          	shl    eax,0x3
     443:	66 05 e0 81 00 00    	add    eax,0x81e0
     449:	67 66 8b 00          	mov    eax,DWORD PTR [eax]
     44d:	67 66 23 45 c4       	and    eax,DWORD PTR [ebp-0x3c]
     452:	66 c1 f8 04          	sar    eax,0x4
     456:	67 66 89 45 bc       	mov    DWORD PTR [ebp-0x44],eax
D:\OneDrive\Study\Operating Systems\实验\project6\codes/./kernel/os.c:104
						int cs = segOfPrg + (offsetOfPrg >> 4), ip = 0, ss = segOfPrg + (offsetOfPrg >> 4), sp = information[tmp].size+1024-1;
     45b:	67 66 8b 45 c0       	mov    eax,DWORD PTR [ebp-0x40]
     460:	66 c1 f8 04          	sar    eax,0x4
     464:	66 89 c2             	mov    edx,eax
     467:	67 66 8b 45 bc       	mov    eax,DWORD PTR [ebp-0x44]
     46c:	66 01 d0             	add    eax,edx
     46f:	67 66 89 45 b8       	mov    DWORD PTR [ebp-0x48],eax
     474:	67 66 c7 45 b4 00 00 	mov    DWORD PTR [ebp-0x4c],0x0
     47b:	00 00 
     47d:	67 66 8b 45 c0       	mov    eax,DWORD PTR [ebp-0x40]
     482:	66 c1 f8 04          	sar    eax,0x4
     486:	66 89 c2             	mov    edx,eax
     489:	67 66 8b 45 bc       	mov    eax,DWORD PTR [ebp-0x44]
     48e:	66 01 d0             	add    eax,edx
     491:	67 66 89 45 b0       	mov    DWORD PTR [ebp-0x50],eax
     496:	67 66 8b 55 80       	mov    edx,DWORD PTR [ebp-0x80]
     49b:	66 89 d0             	mov    eax,edx
     49e:	66 01 c0             	add    eax,eax
     4a1:	66 01 d0             	add    eax,edx
     4a4:	66 c1 e0 02          	shl    eax,0x2
     4a8:	66 01 d0             	add    eax,edx
     4ab:	66 c1 e0 02          	shl    eax,0x2
     4af:	66 05 e8 87 00 00    	add    eax,0x87e8
     4b5:	67 66 8b 00          	mov    eax,DWORD PTR [eax]
     4b9:	66 05 ff 03 00 00    	add    eax,0x3ff
     4bf:	67 66 89 45 ac       	mov    DWORD PTR [ebp-0x54],eax
D:\OneDrive\Study\Operating Systems\实验\project6\codes/./kernel/os.c:105
						createProcess(ProcessSize++, information[tmp].name, information[tmp].size+1024, cs, ip, ss, sp, blockNum);
     4c4:	67 66 8b 55 80       	mov    edx,DWORD PTR [ebp-0x80]
     4c9:	66 89 d0             	mov    eax,edx
     4cc:	66 01 c0             	add    eax,eax
     4cf:	66 01 d0             	add    eax,edx
     4d2:	66 c1 e0 02          	shl    eax,0x2
     4d6:	66 01 d0             	add    eax,edx
     4d9:	66 c1 e0 02          	shl    eax,0x2
     4dd:	66 05 e8 87 00 00    	add    eax,0x87e8
     4e3:	67 66 8b 00          	mov    eax,DWORD PTR [eax]
     4e7:	67 66 8d 98 00 04 00 	lea    ebx,[eax+0x400]
     4ee:	00 
     4ef:	67 66 8b 55 80       	mov    edx,DWORD PTR [ebp-0x80]
     4f4:	66 89 d0             	mov    eax,edx
     4f7:	66 01 c0             	add    eax,eax
     4fa:	66 01 d0             	add    eax,edx
     4fd:	66 c1 e0 02          	shl    eax,0x2
     501:	66 01 d0             	add    eax,edx
     504:	66 c1 e0 02          	shl    eax,0x2
     508:	67 66 8d 88 c0 87 00 	lea    ecx,[eax+0x87c0]
     50f:	00 
     510:	66 a1 74 87          	mov    eax,ds:0x8774
     514:	67 66 8d 50 01       	lea    edx,[eax+0x1]
     519:	66 89 16 74 87       	mov    DWORD PTR ds:0x8774,edx
     51e:	67 66 8b 55 cc       	mov    edx,DWORD PTR [ebp-0x34]
     523:	67 66 89 54 24 1c    	mov    DWORD PTR [esp+0x1c],edx
     529:	67 66 8b 55 ac       	mov    edx,DWORD PTR [ebp-0x54]
     52e:	67 66 89 54 24 18    	mov    DWORD PTR [esp+0x18],edx
     534:	67 66 8b 55 b0       	mov    edx,DWORD PTR [ebp-0x50]
     539:	67 66 89 54 24 14    	mov    DWORD PTR [esp+0x14],edx
     53f:	67 66 8b 55 b4       	mov    edx,DWORD PTR [ebp-0x4c]
     544:	67 66 89 54 24 10    	mov    DWORD PTR [esp+0x10],edx
     54a:	67 66 8b 55 b8       	mov    edx,DWORD PTR [ebp-0x48]
     54f:	67 66 89 54 24 0c    	mov    DWORD PTR [esp+0xc],edx
     555:	67 66 89 5c 24 08    	mov    DWORD PTR [esp+0x8],ebx
     55b:	67 66 89 4c 24 04    	mov    DWORD PTR [esp+0x4],ecx
     561:	67 66 89 04 24       	mov    DWORD PTR [esp],eax
     566:	66 e8 21 30 00 00    	call   358d <_createProcess>
D:\OneDrive\Study\Operating Systems\实验\project6\codes/./kernel/os.c:106
						loadReal(information[tmp].lmaddress, information[tmp].size, offsetOfPrg, segOfPrg);
     56c:	67 66 8b 55 80       	mov    edx,DWORD PTR [ebp-0x80]
     571:	66 89 d0             	mov    eax,edx
     574:	66 01 c0             	add    eax,eax
     577:	66 01 d0             	add    eax,edx
     57a:	66 c1 e0 02          	shl    eax,0x2
     57e:	66 01 d0             	add    eax,edx
     581:	66 c1 e0 02          	shl    eax,0x2
     585:	66 05 e8 87 00 00    	add    eax,0x87e8
     58b:	67 66 8b 08          	mov    ecx,DWORD PTR [eax]
     58f:	67 66 8b 55 80       	mov    edx,DWORD PTR [ebp-0x80]
     594:	66 89 d0             	mov    eax,edx
     597:	66 01 c0             	add    eax,eax
     59a:	66 01 d0             	add    eax,edx
     59d:	66 c1 e0 02          	shl    eax,0x2
     5a1:	66 01 d0             	add    eax,edx
     5a4:	66 c1 e0 02          	shl    eax,0x2
     5a8:	66 05 e4 87 00 00    	add    eax,0x87e4
     5ae:	67 66 8b 00          	mov    eax,DWORD PTR [eax]
     5b2:	67 66 8b 55 bc       	mov    edx,DWORD PTR [ebp-0x44]
     5b7:	67 66 89 54 24 0c    	mov    DWORD PTR [esp+0xc],edx
     5bd:	67 66 8b 55 c0       	mov    edx,DWORD PTR [ebp-0x40]
     5c2:	67 66 89 54 24 08    	mov    DWORD PTR [esp+0x8],edx
     5c8:	67 66 89 4c 24 04    	mov    DWORD PTR [esp+0x4],ecx
     5ce:	67 66 89 04 24       	mov    DWORD PTR [esp],eax
     5d3:	66 e8 d4 0e 00 00    	call   14ad <_loadReal>
D:\OneDrive\Study\Operating Systems\实验\project6\codes/./kernel/os.c:107
						enqueue(&ReadyQue, ProcessSize-1);
     5d9:	66 a1 74 87          	mov    eax,ds:0x8774
     5dd:	66 48                	dec    eax
     5df:	67 66 89 44 24 04    	mov    DWORD PTR [esp+0x4],eax
     5e5:	67 66 c7 04 24 40 a7 	mov    DWORD PTR [esp],0xa740
     5ec:	00 00 
     5ee:	66 e8 24 41 00 00    	call   4718 <_enqueue>
D:\OneDrive\Study\Operating Systems\实验\project6\codes/./kernel/os.c:110
					}
				}
			}while(str[0] != '\0');
     5f4:	67 66 8b 45 d0       	mov    eax,DWORD PTR [ebp-0x30]
     5f9:	67 8a 00             	mov    al,BYTE PTR [eax]
     5fc:	84 c0                	test   al,al
     5fe:	0f 85 c3 fc          	jne    2c5 <__file_alignment__+0xc5>
D:\OneDrive\Study\Operating Systems\实验\project6\codes/./kernel/os.c:111
			int queSize = size(&BlockedQue);
     602:	67 66 c7 04 24 a0 86 	mov    DWORD PTR [esp],0x86a0
     609:	00 00 
     60b:	66 e8 c1 40 00 00    	call   46d2 <_size>
     611:	67 66 89 45 a8       	mov    DWORD PTR [ebp-0x58],eax
D:\OneDrive\Study\Operating Systems\实验\project6\codes/./kernel/os.c:112
			for (int i = 0; i < queSize; ++i)
     616:	67 66 c7 45 f8 00 00 	mov    DWORD PTR [ebp-0x8],0x0
     61d:	00 00 
     61f:	e9 a5 00             	jmp    6c7 <__file_alignment__+0x4c7>
D:\OneDrive\Study\Operating Systems\实验\project6\codes/./kernel/os.c:114
			{
				dequeue(&BlockedQue, &tmp);
     622:	67 66 8d 45 80       	lea    eax,[ebp-0x80]
     627:	67 66 89 44 24 04    	mov    DWORD PTR [esp+0x4],eax
     62d:	67 66 c7 04 24 a0 86 	mov    DWORD PTR [esp],0x86a0
     634:	00 00 
     636:	66 e8 49 41 00 00    	call   4785 <_dequeue>
D:\OneDrive\Study\Operating Systems\实验\project6\codes/./kernel/os.c:115
				if(processTable[tmp].waitProcess == -1) {
     63c:	67 66 8b 55 80       	mov    edx,DWORD PTR [ebp-0x80]
     641:	66 89 d0             	mov    eax,edx
     644:	66 01 c0             	add    eax,eax
     647:	66 01 d0             	add    eax,edx
     64a:	66 c1 e0 02          	shl    eax,0x2
     64e:	66 01 d0             	add    eax,edx
     651:	66 c1 e0 03          	shl    eax,0x3
     655:	66 05 3c 93 00 00    	add    eax,0x933c
     65b:	67 66 8b 00          	mov    eax,DWORD PTR [eax]
     65f:	66 83 f8 ff          	cmp    eax,0xffffffff
     663:	75 43                	jne    6a8 <__file_alignment__+0x4a8>
D:\OneDrive\Study\Operating Systems\实验\project6\codes/./kernel/os.c:116
					processTable[tmp].status = ready;
     665:	67 66 8b 55 80       	mov    edx,DWORD PTR [ebp-0x80]
     66a:	66 89 d0             	mov    eax,edx
     66d:	66 01 c0             	add    eax,eax
     670:	66 01 d0             	add    eax,edx
     673:	66 c1 e0 02          	shl    eax,0x2
     677:	66 01 d0             	add    eax,edx
     67a:	66 c1 e0 03          	shl    eax,0x3
     67e:	66 05 44 93 00 00    	add    eax,0x9344
     684:	67 66 c7 00 01 00 00 	mov    DWORD PTR [eax],0x1
     68b:	00 
D:\OneDrive\Study\Operating Systems\实验\project6\codes/./kernel/os.c:117
					enqueue(&ReadyQue, tmp); 
     68c:	67 66 8b 45 80       	mov    eax,DWORD PTR [ebp-0x80]
     691:	67 66 89 44 24 04    	mov    DWORD PTR [esp+0x4],eax
     697:	67 66 c7 04 24 40 a7 	mov    DWORD PTR [esp],0xa740
     69e:	00 00 
     6a0:	66 e8 72 40 00 00    	call   4718 <_enqueue>
     6a6:	eb 1a                	jmp    6c2 <__file_alignment__+0x4c2>
D:\OneDrive\Study\Operating Systems\实验\project6\codes/./kernel/os.c:119
				} else {
					enqueue(&BlockedQue, tmp);
     6a8:	67 66 8b 45 80       	mov    eax,DWORD PTR [ebp-0x80]
     6ad:	67 66 89 44 24 04    	mov    DWORD PTR [esp+0x4],eax
     6b3:	67 66 c7 04 24 a0 86 	mov    DWORD PTR [esp],0x86a0
     6ba:	00 00 
     6bc:	66 e8 56 40 00 00    	call   4718 <_enqueue>
D:\OneDrive\Study\Operating Systems\实验\project6\codes/./kernel/os.c:112
			for (int i = 0; i < queSize; ++i)
     6c2:	67 66 ff 45 f8       	inc    DWORD PTR [ebp-0x8]
     6c7:	67 66 8b 45 f8       	mov    eax,DWORD PTR [ebp-0x8]
     6cc:	67 66 3b 45 a8       	cmp    eax,DWORD PTR [ebp-0x58]
     6d1:	0f 8c 4d ff          	jl     622 <__file_alignment__+0x422>
D:\OneDrive\Study\Operating Systems\实验\project6\codes/./kernel/os.c:122
				}
			}
			runSub = 1;
     6d5:	66 c7 06 c0 81 01 00 	mov    DWORD PTR ds:0x81c0,0x1
     6dc:	00 00 
D:\OneDrive\Study\Operating Systems\实验\project6\codes/./kernel/os.c:123
			__asm__("int $0x8\n");
     6de:	cd 08                	int    0x8
D:\OneDrive\Study\Operating Systems\实验\project6\codes/./kernel/os.c:124
			runSub = 0;
     6e0:	66 c7 06 c0 81 00 00 	mov    DWORD PTR ds:0x81c0,0x0
     6e7:	00 00 
D:\OneDrive\Study\Operating Systems\实验\project6\codes/./kernel/os.c:125
			clear();
     6e9:	66 e8 30 19 00 00    	call   201f <_clear>
D:\OneDrive\Study\Operating Systems\实验\project6\codes/./kernel/os.c:89
		{
     6ef:	e9 4b 07             	jmp    e3d <.debug_info+0x65a>
D:\OneDrive\Study\Operating Systems\实验\project6\codes/./kernel/os.c:127
		}
		else if(in[0] == '.' && in[1] == '/')
     6f2:	67 66 8b 45 f4       	mov    eax,DWORD PTR [ebp-0xc]
     6f7:	67 8a 00             	mov    al,BYTE PTR [eax]
     6fa:	3c 2e                	cmp    al,0x2e
     6fc:	0f 85 f8 02          	jne    9f8 <.debug_info+0x215>
     700:	67 66 8b 45 f4       	mov    eax,DWORD PTR [ebp-0xc]
     705:	66 40                	inc    eax
     707:	67 8a 00             	mov    al,BYTE PTR [eax]
     70a:	3c 2f                	cmp    al,0x2f
     70c:	0f 85 e8 02          	jne    9f8 <.debug_info+0x215>
D:\OneDrive\Study\Operating Systems\实验\project6\codes/./kernel/os.c:129
		{
			tmp = find(in+2);
     710:	67 66 8b 45 f4       	mov    eax,DWORD PTR [ebp-0xc]
     715:	66 83 c0 02          	add    eax,0x2
     719:	67 66 89 04 24       	mov    DWORD PTR [esp],eax
     71e:	66 e8 e5 27 00 00    	call   2f09 <_find>
     724:	67 66 89 45 80       	mov    DWORD PTR [ebp-0x80],eax
D:\OneDrive\Study\Operating Systems\实验\project6\codes/./kernel/os.c:130
			if(tmp != -1 && information[tmp].deleted != 1){
     729:	67 66 8b 45 80       	mov    eax,DWORD PTR [ebp-0x80]
     72e:	66 83 f8 ff          	cmp    eax,0xffffffff
     732:	0f 84 00 07          	je     e36 <.debug_info+0x653>
     736:	67 66 8b 55 80       	mov    edx,DWORD PTR [ebp-0x80]
     73b:	66 89 d0             	mov    eax,edx
     73e:	66 01 c0             	add    eax,eax
     741:	66 01 d0             	add    eax,edx
     744:	66 c1 e0 02          	shl    eax,0x2
     748:	66 01 d0             	add    eax,edx
     74b:	66 c1 e0 02          	shl    eax,0x2
     74f:	66 05 ec 87 00 00    	add    eax,0x87ec
     755:	67 66 8b 00          	mov    eax,DWORD PTR [eax]
     759:	66 83 f8 01          	cmp    eax,0x1
     75d:	0f 84 d5 06          	je     e36 <.debug_info+0x653>
D:\OneDrive\Study\Operating Systems\实验\project6\codes/./kernel/os.c:131
				int blockNum = findEnoughBlock(information[tmp].size+1024);
     761:	67 66 8b 55 80       	mov    edx,DWORD PTR [ebp-0x80]
     766:	66 89 d0             	mov    eax,edx
     769:	66 01 c0             	add    eax,eax
     76c:	66 01 d0             	add    eax,edx
     76f:	66 c1 e0 02          	shl    eax,0x2
     773:	66 01 d0             	add    eax,edx
     776:	66 c1 e0 02          	shl    eax,0x2
     77a:	66 05 e8 87 00 00    	add    eax,0x87e8
     780:	67 66 8b 00          	mov    eax,DWORD PTR [eax]
     784:	66 05 00 04 00 00    	add    eax,0x400
     78a:	67 66 89 04 24       	mov    DWORD PTR [esp],eax
     78f:	66 e8 2e 4f 00 00    	call   56c3 <_findEnoughBlock>
     795:	67 66 89 45 a4       	mov    DWORD PTR [ebp-0x5c],eax
D:\OneDrive\Study\Operating Systems\实验\project6\codes/./kernel/os.c:132
				blockNum = require(information[tmp].size+1024, blockNum);
     79a:	67 66 8b 55 80       	mov    edx,DWORD PTR [ebp-0x80]
     79f:	66 89 d0             	mov    eax,edx
     7a2:	66 01 c0             	add    eax,eax
     7a5:	66 01 d0             	add    eax,edx
     7a8:	66 c1 e0 02          	shl    eax,0x2
     7ac:	66 01 d0             	add    eax,edx
     7af:	66 c1 e0 02          	shl    eax,0x2
     7b3:	66 05 e8 87 00 00    	add    eax,0x87e8
     7b9:	67 66 8b 00          	mov    eax,DWORD PTR [eax]
     7bd:	67 66 8d 90 00 04 00 	lea    edx,[eax+0x400]
     7c4:	00 
     7c5:	67 66 8b 45 a4       	mov    eax,DWORD PTR [ebp-0x5c]
     7ca:	67 66 89 44 24 04    	mov    DWORD PTR [esp+0x4],eax
     7d0:	67 66 89 14 24       	mov    DWORD PTR [esp],edx
     7d5:	66 e8 91 4f 00 00    	call   576c <_require>
     7db:	67 66 89 45 a4       	mov    DWORD PTR [ebp-0x5c],eax
D:\OneDrive\Study\Operating Systems\实验\project6\codes/./kernel/os.c:134
				int offsetOfPrg, segOfPrg;
				int offsetMask = 0x0000ffff;
     7e0:	67 66 c7 45 a0 ff ff 	mov    DWORD PTR [ebp-0x60],0xffff
     7e7:	00 00 
D:\OneDrive\Study\Operating Systems\实验\project6\codes/./kernel/os.c:135
				int segMask = 0xf0000;
     7e9:	67 66 c7 45 9c 00 00 	mov    DWORD PTR [ebp-0x64],0xf0000
     7f0:	0f 00 
D:\OneDrive\Study\Operating Systems\实验\project6\codes/./kernel/os.c:136
				offsetOfPrg = memoryTable[blockNum].beginAddr & offsetMask;
     7f2:	67 66 8b 55 a4       	mov    edx,DWORD PTR [ebp-0x5c]
     7f7:	66 89 d0             	mov    eax,edx
     7fa:	66 01 c0             	add    eax,eax
     7fd:	66 01 d0             	add    eax,edx
     800:	66 c1 e0 03          	shl    eax,0x3
     804:	66 05 e0 81 00 00    	add    eax,0x81e0
     80a:	67 66 8b 00          	mov    eax,DWORD PTR [eax]
     80e:	67 66 23 45 a0       	and    eax,DWORD PTR [ebp-0x60]
     813:	67 66 89 45 98       	mov    DWORD PTR [ebp-0x68],eax
D:\OneDrive\Study\Operating Systems\实验\project6\codes/./kernel/os.c:137
				segOfPrg = (memoryTable[blockNum].beginAddr & segMask) >> 4;
     818:	67 66 8b 55 a4       	mov    edx,DWORD PTR [ebp-0x5c]
     81d:	66 89 d0             	mov    eax,edx
     820:	66 01 c0             	add    eax,eax
     823:	66 01 d0             	add    eax,edx
     826:	66 c1 e0 03          	shl    eax,0x3
     82a:	66 05 e0 81 00 00    	add    eax,0x81e0
     830:	67 66 8b 00          	mov    eax,DWORD PTR [eax]
     834:	67 66 23 45 9c       	and    eax,DWORD PTR [ebp-0x64]
     839:	66 c1 f8 04          	sar    eax,0x4
     83d:	67 66 89 45 94       	mov    DWORD PTR [ebp-0x6c],eax
D:\OneDrive\Study\Operating Systems\实验\project6\codes/./kernel/os.c:138
				int cs = segOfPrg + (offsetOfPrg >> 4), ip = 0, ss = segOfPrg + (offsetOfPrg >> 4), sp = information[tmp].size+1024-1;
     842:	67 66 8b 45 98       	mov    eax,DWORD PTR [ebp-0x68]
     847:	66 c1 f8 04          	sar    eax,0x4
     84b:	66 89 c2             	mov    edx,eax
     84e:	67 66 8b 45 94       	mov    eax,DWORD PTR [ebp-0x6c]
     853:	66 01 d0             	add    eax,edx
     856:	67 66 89 45 90       	mov    DWORD PTR [ebp-0x70],eax
     85b:	67 66 c7 45 8c 00 00 	mov    DWORD PTR [ebp-0x74],0x0
     862:	00 00 
     864:	67 66 8b 45 98       	mov    eax,DWORD PTR [ebp-0x68]
     869:	66 c1 f8 04          	sar    eax,0x4
     86d:	66 89 c2             	mov    edx,eax
     870:	67 66 8b 45 94       	mov    eax,DWORD PTR [ebp-0x6c]
     875:	66 01 d0             	add    eax,edx
     878:	67 66 89 45 88       	mov    DWORD PTR [ebp-0x78],eax
     87d:	67 66 8b 55 80       	mov    edx,DWORD PTR [ebp-0x80]
     882:	66 89 d0             	mov    eax,edx
     885:	66 01 c0             	add    eax,eax
     888:	66 01 d0             	add    eax,edx
     88b:	66 c1 e0 02          	shl    eax,0x2
     88f:	66 01 d0             	add    eax,edx
     892:	66 c1 e0 02          	shl    eax,0x2
     896:	66 05 e8 87 00 00    	add    eax,0x87e8
     89c:	67 66 8b 00          	mov    eax,DWORD PTR [eax]
     8a0:	66 05 ff 03 00 00    	add    eax,0x3ff
     8a6:	67 66 89 45 84       	mov    DWORD PTR [ebp-0x7c],eax
D:\OneDrive\Study\Operating Systems\实验\project6\codes/./kernel/os.c:139
				createProcess(ProcessSize++, information[tmp].name, information[tmp].size+1024, cs, ip, ss, sp, blockNum);
     8ab:	67 66 8b 55 80       	mov    edx,DWORD PTR [ebp-0x80]
     8b0:	66 89 d0             	mov    eax,edx
     8b3:	66 01 c0             	add    eax,eax
     8b6:	66 01 d0             	add    eax,edx
     8b9:	66 c1 e0 02          	shl    eax,0x2
     8bd:	66 01 d0             	add    eax,edx
     8c0:	66 c1 e0 02          	shl    eax,0x2
     8c4:	66 05 e8 87 00 00    	add    eax,0x87e8
     8ca:	67 66 8b 00          	mov    eax,DWORD PTR [eax]
     8ce:	67 66 8d 98 00 04 00 	lea    ebx,[eax+0x400]
     8d5:	00 
     8d6:	67 66 8b 55 80       	mov    edx,DWORD PTR [ebp-0x80]
     8db:	66 89 d0             	mov    eax,edx
     8de:	66 01 c0             	add    eax,eax
     8e1:	66 01 d0             	add    eax,edx
     8e4:	66 c1 e0 02          	shl    eax,0x2
     8e8:	66 01 d0             	add    eax,edx
     8eb:	66 c1 e0 02          	shl    eax,0x2
     8ef:	67 66 8d 88 c0 87 00 	lea    ecx,[eax+0x87c0]
     8f6:	00 
     8f7:	66 a1 74 87          	mov    eax,ds:0x8774
     8fb:	67 66 8d 50 01       	lea    edx,[eax+0x1]
     900:	66 89 16 74 87       	mov    DWORD PTR ds:0x8774,edx
     905:	67 66 8b 55 a4       	mov    edx,DWORD PTR [ebp-0x5c]
     90a:	67 66 89 54 24 1c    	mov    DWORD PTR [esp+0x1c],edx
     910:	67 66 8b 55 84       	mov    edx,DWORD PTR [ebp-0x7c]
     915:	67 66 89 54 24 18    	mov    DWORD PTR [esp+0x18],edx
     91b:	67 66 8b 55 88       	mov    edx,DWORD PTR [ebp-0x78]
     920:	67 66 89 54 24 14    	mov    DWORD PTR [esp+0x14],edx
     926:	67 66 8b 55 8c       	mov    edx,DWORD PTR [ebp-0x74]
     92b:	67 66 89 54 24 10    	mov    DWORD PTR [esp+0x10],edx
     931:	67 66 8b 55 90       	mov    edx,DWORD PTR [ebp-0x70]
     936:	67 66 89 54 24 0c    	mov    DWORD PTR [esp+0xc],edx
     93c:	67 66 89 5c 24 08    	mov    DWORD PTR [esp+0x8],ebx
     942:	67 66 89 4c 24 04    	mov    DWORD PTR [esp+0x4],ecx
     948:	67 66 89 04 24       	mov    DWORD PTR [esp],eax
     94d:	66 e8 3a 2c 00 00    	call   358d <_createProcess>
D:\OneDrive\Study\Operating Systems\实验\project6\codes/./kernel/os.c:140
				loadReal(information[tmp].lmaddress, information[tmp].size, offsetOfPrg, segOfPrg);
     953:	67 66 8b 55 80       	mov    edx,DWORD PTR [ebp-0x80]
     958:	66 89 d0             	mov    eax,edx
     95b:	66 01 c0             	add    eax,eax
     95e:	66 01 d0             	add    eax,edx
     961:	66 c1 e0 02          	shl    eax,0x2
     965:	66 01 d0             	add    eax,edx
     968:	66 c1 e0 02          	shl    eax,0x2
     96c:	66 05 e8 87 00 00    	add    eax,0x87e8
     972:	67 66 8b 08          	mov    ecx,DWORD PTR [eax]
     976:	67 66 8b 55 80       	mov    edx,DWORD PTR [ebp-0x80]
     97b:	66 89 d0             	mov    eax,edx
     97e:	66 01 c0             	add    eax,eax
     981:	66 01 d0             	add    eax,edx
     984:	66 c1 e0 02          	shl    eax,0x2
     988:	66 01 d0             	add    eax,edx
     98b:	66 c1 e0 02          	shl    eax,0x2
     98f:	66 05 e4 87 00 00    	add    eax,0x87e4
     995:	67 66 8b 00          	mov    eax,DWORD PTR [eax]
     999:	67 66 8b 55 94       	mov    edx,DWORD PTR [ebp-0x6c]
     99e:	67 66 89 54 24 0c    	mov    DWORD PTR [esp+0xc],edx
     9a4:	67 66 8b 55 98       	mov    edx,DWORD PTR [ebp-0x68]
     9a9:	67 66 89 54 24 08    	mov    DWORD PTR [esp+0x8],edx
     9af:	67 66 89 4c 24 04    	mov    DWORD PTR [esp+0x4],ecx
     9b5:	67 66 89 04 24       	mov    DWORD PTR [esp],eax
     9ba:	66 e8 ed 0a 00 00    	call   14ad <_loadReal>
D:\OneDrive\Study\Operating Systems\实验\project6\codes/./kernel/os.c:141
				enqueue(&ReadyQue, ProcessSize-1);
     9c0:	66 a1 74 87          	mov    eax,ds:0x8774
     9c4:	66 48                	dec    eax
     9c6:	67 66 89 44 24 04    	mov    DWORD PTR [esp+0x4],eax
     9cc:	67 66 c7 04 24 40 a7 	mov    DWORD PTR [esp],0xa740
     9d3:	00 00 
     9d5:	66 e8 3d 3d 00 00    	call   4718 <_enqueue>
D:\OneDrive\Study\Operating Systems\实验\project6\codes/./kernel/os.c:142
				runSub = 1;
     9db:	66 c7 06 c0 81 01 00 	mov    DWORD PTR ds:0x81c0,0x1
     9e2:	00 00 
D:\OneDrive\Study\Operating Systems\实验\project6\codes/./kernel/os.c:143
				__asm__("int $0x8\n");
     9e4:	cd 08                	int    0x8
D:\OneDrive\Study\Operating Systems\实验\project6\codes/./kernel/os.c:144
				runSub = 0;
     9e6:	66 c7 06 c0 81 00 00 	mov    DWORD PTR ds:0x81c0,0x0
     9ed:	00 00 
D:\OneDrive\Study\Operating Systems\实验\project6\codes/./kernel/os.c:145
				clear();
     9ef:	66 e8 2a 16 00 00    	call   201f <_clear>
D:\OneDrive\Study\Operating Systems\实验\project6\codes/./kernel/os.c:130
			if(tmp != -1 && information[tmp].deleted != 1){
     9f5:	e9 3e 04             	jmp    e36 <.debug_info+0x653>
D:\OneDrive\Study\Operating Systems\实验\project6\codes/./kernel/os.c:148
			}
		}
		else if(in[0] == 't' && in[1] == 'y' &&
     9f8:	67 66 8b 45 f4       	mov    eax,DWORD PTR [ebp-0xc]
     9fd:	67 8a 00             	mov    al,BYTE PTR [eax]
     a00:	3c 74                	cmp    al,0x74
     a02:	0f 85 76 01          	jne    b7c <.debug_info+0x399>
     a06:	67 66 8b 45 f4       	mov    eax,DWORD PTR [ebp-0xc]
     a0b:	66 40                	inc    eax
     a0d:	67 8a 00             	mov    al,BYTE PTR [eax]
     a10:	3c 79                	cmp    al,0x79
     a12:	0f 85 66 01          	jne    b7c <.debug_info+0x399>
D:\OneDrive\Study\Operating Systems\实验\project6\codes/./kernel/os.c:149
			in[2] == 'p' &&in[3] == 'e'){
     a16:	67 66 8b 45 f4       	mov    eax,DWORD PTR [ebp-0xc]
     a1b:	66 83 c0 02          	add    eax,0x2
     a1f:	67 8a 00             	mov    al,BYTE PTR [eax]
D:\OneDrive\Study\Operating Systems\实验\project6\codes/./kernel/os.c:148
		else if(in[0] == 't' && in[1] == 'y' &&
     a22:	3c 70                	cmp    al,0x70
     a24:	0f 85 54 01          	jne    b7c <.debug_info+0x399>
D:\OneDrive\Study\Operating Systems\实验\project6\codes/./kernel/os.c:149
			in[2] == 'p' &&in[3] == 'e'){
     a28:	67 66 8b 45 f4       	mov    eax,DWORD PTR [ebp-0xc]
     a2d:	66 83 c0 03          	add    eax,0x3
     a31:	67 8a 00             	mov    al,BYTE PTR [eax]
     a34:	3c 65                	cmp    al,0x65
     a36:	0f 85 42 01          	jne    b7c <.debug_info+0x399>
D:\OneDrive\Study\Operating Systems\实验\project6\codes/./kernel/os.c:150
			tmp = find(in+5);
     a3a:	67 66 8b 45 f4       	mov    eax,DWORD PTR [ebp-0xc]
     a3f:	66 83 c0 05          	add    eax,0x5
     a43:	67 66 89 04 24       	mov    DWORD PTR [esp],eax
     a48:	66 e8 bb 24 00 00    	call   2f09 <_find>
     a4e:	67 66 89 45 80       	mov    DWORD PTR [ebp-0x80],eax
D:\OneDrive\Study\Operating Systems\实验\project6\codes/./kernel/os.c:151
			if(tmp != -1 && information[tmp].deleted != 1){
     a53:	67 66 8b 45 80       	mov    eax,DWORD PTR [ebp-0x80]
     a58:	66 83 f8 ff          	cmp    eax,0xffffffff
     a5c:	0f 84 d9 03          	je     e39 <.debug_info+0x656>
     a60:	67 66 8b 55 80       	mov    edx,DWORD PTR [ebp-0x80]
     a65:	66 89 d0             	mov    eax,edx
     a68:	66 01 c0             	add    eax,eax
     a6b:	66 01 d0             	add    eax,edx
     a6e:	66 c1 e0 02          	shl    eax,0x2
     a72:	66 01 d0             	add    eax,edx
     a75:	66 c1 e0 02          	shl    eax,0x2
     a79:	66 05 ec 87 00 00    	add    eax,0x87ec
     a7f:	67 66 8b 00          	mov    eax,DWORD PTR [eax]
     a83:	66 83 f8 01          	cmp    eax,0x1
     a87:	0f 84 ae 03          	je     e39 <.debug_info+0x656>
D:\OneDrive\Study\Operating Systems\实验\project6\codes/./kernel/os.c:152
				loadReal(information[tmp].lmaddress, information[tmp].size, offsetOfUserPrg, segOfOs);
     a8b:	67 66 8b 55 80       	mov    edx,DWORD PTR [ebp-0x80]
     a90:	66 89 d0             	mov    eax,edx
     a93:	66 01 c0             	add    eax,eax
     a96:	66 01 d0             	add    eax,edx
     a99:	66 c1 e0 02          	shl    eax,0x2
     a9d:	66 01 d0             	add    eax,edx
     aa0:	66 c1 e0 02          	shl    eax,0x2
     aa4:	66 05 e8 87 00 00    	add    eax,0x87e8
     aaa:	67 66 8b 08          	mov    ecx,DWORD PTR [eax]
     aae:	67 66 8b 55 80       	mov    edx,DWORD PTR [ebp-0x80]
     ab3:	66 89 d0             	mov    eax,edx
     ab6:	66 01 c0             	add    eax,eax
     ab9:	66 01 d0             	add    eax,edx
     abc:	66 c1 e0 02          	shl    eax,0x2
     ac0:	66 01 d0             	add    eax,edx
     ac3:	66 c1 e0 02          	shl    eax,0x2
     ac7:	66 05 e4 87 00 00    	add    eax,0x87e4
     acd:	67 66 8b 00          	mov    eax,DWORD PTR [eax]
     ad1:	67 66 c7 44 24 0c 00 	mov    DWORD PTR [esp+0xc],0x2000
     ad8:	20 00 00 
     adb:	67 66 c7 44 24 08 00 	mov    DWORD PTR [esp+0x8],0xe000
     ae2:	e0 00 00 
     ae5:	67 66 89 4c 24 04    	mov    DWORD PTR [esp+0x4],ecx
     aeb:	67 66 89 04 24       	mov    DWORD PTR [esp],eax
     af0:	66 e8 b7 09 00 00    	call   14ad <_loadReal>
D:\OneDrive\Study\Operating Systems\实验\project6\codes/./kernel/os.c:153
				str = getRecords(segOfUser, offsetOfUserPrg);
     af6:	67 66 c7 44 24 04 00 	mov    DWORD PTR [esp+0x4],0xe000
     afd:	e0 00 00 
     b00:	67 66 c7 04 24 00 00 	mov    DWORD PTR [esp],0x0
     b07:	00 00 
     b09:	66 e8 e2 12 00 00    	call   1df1 <_getRecords>
     b0f:	67 66 89 45 d0       	mov    DWORD PTR [ebp-0x30],eax
D:\OneDrive\Study\Operating Systems\实验\project6\codes/./kernel/os.c:154
				printSentence(str, line, 0, strlen(str), purple);
     b14:	67 66 8b 45 d0       	mov    eax,DWORD PTR [ebp-0x30]
     b19:	67 66 89 04 24       	mov    DWORD PTR [esp],eax
     b1e:	66 e8 87 1e 00 00    	call   29ab <_strlen>
     b24:	66 89 c2             	mov    edx,eax
     b27:	66 a1 a0 81          	mov    eax,ds:0x81a0
     b2b:	67 66 c7 44 24 10 0d 	mov    DWORD PTR [esp+0x10],0xd
     b32:	00 00 00 
     b35:	67 66 89 54 24 0c    	mov    DWORD PTR [esp+0xc],edx
     b3b:	67 66 c7 44 24 08 00 	mov    DWORD PTR [esp+0x8],0x0
     b42:	00 00 00 
     b45:	67 66 89 44 24 04    	mov    DWORD PTR [esp+0x4],eax
     b4b:	67 66 8b 45 d0       	mov    eax,DWORD PTR [ebp-0x30]
     b50:	67 66 89 04 24       	mov    DWORD PTR [esp],eax
     b55:	66 e8 b0 07 00 00    	call   130b <_printSentence>
D:\OneDrive\Study\Operating Systems\实验\project6\codes/./kernel/os.c:155
				line += countLines(str);
     b5b:	67 66 8b 45 d0       	mov    eax,DWORD PTR [ebp-0x30]
     b60:	67 66 89 04 24       	mov    DWORD PTR [esp],eax
     b65:	66 e8 75 13 00 00    	call   1ee0 <_countLines>
     b6b:	66 89 c2             	mov    edx,eax
     b6e:	66 a1 a0 81          	mov    eax,ds:0x81a0
     b72:	66 01 d0             	add    eax,edx
     b75:	66 a3 a0 81          	mov    ds:0x81a0,eax
D:\OneDrive\Study\Operating Systems\实验\project6\codes/./kernel/os.c:151
			if(tmp != -1 && information[tmp].deleted != 1){
     b79:	e9 bd 02             	jmp    e39 <.debug_info+0x656>
D:\OneDrive\Study\Operating Systems\实验\project6\codes/./kernel/os.c:158
			}
		}
		else if(in[0] == 'r' && in[1] == 'm'){
     b7c:	67 66 8b 45 f4       	mov    eax,DWORD PTR [ebp-0xc]
     b81:	67 8a 00             	mov    al,BYTE PTR [eax]
     b84:	3c 72                	cmp    al,0x72
     b86:	0f 85 89 00          	jne    c13 <.debug_info+0x430>
     b8a:	67 66 8b 45 f4       	mov    eax,DWORD PTR [ebp-0xc]
     b8f:	66 40                	inc    eax
     b91:	67 8a 00             	mov    al,BYTE PTR [eax]
     b94:	3c 6d                	cmp    al,0x6d
     b96:	75 7b                	jne    c13 <.debug_info+0x430>
D:\OneDrive\Study\Operating Systems\实验\project6\codes/./kernel/os.c:159
			tmp = find(in+3);
     b98:	67 66 8b 45 f4       	mov    eax,DWORD PTR [ebp-0xc]
     b9d:	66 83 c0 03          	add    eax,0x3
     ba1:	67 66 89 04 24       	mov    DWORD PTR [esp],eax
     ba6:	66 e8 5d 23 00 00    	call   2f09 <_find>
     bac:	67 66 89 45 80       	mov    DWORD PTR [ebp-0x80],eax
D:\OneDrive\Study\Operating Systems\实验\project6\codes/./kernel/os.c:160
			if(tmp != -1 && information[tmp].deleted != 1){
     bb1:	67 66 8b 45 80       	mov    eax,DWORD PTR [ebp-0x80]
     bb6:	66 83 f8 ff          	cmp    eax,0xffffffff
     bba:	0f 84 7e 02          	je     e3c <.debug_info+0x659>
     bbe:	67 66 8b 55 80       	mov    edx,DWORD PTR [ebp-0x80]
     bc3:	66 89 d0             	mov    eax,edx
     bc6:	66 01 c0             	add    eax,eax
     bc9:	66 01 d0             	add    eax,edx
     bcc:	66 c1 e0 02          	shl    eax,0x2
     bd0:	66 01 d0             	add    eax,edx
     bd3:	66 c1 e0 02          	shl    eax,0x2
     bd7:	66 05 ec 87 00 00    	add    eax,0x87ec
     bdd:	67 66 8b 00          	mov    eax,DWORD PTR [eax]
     be1:	66 83 f8 01          	cmp    eax,0x1
     be5:	0f 84 53 02          	je     e3c <.debug_info+0x659>
D:\OneDrive\Study\Operating Systems\实验\project6\codes/./kernel/os.c:161
				information[tmp].deleted = 1;
     be9:	67 66 8b 55 80       	mov    edx,DWORD PTR [ebp-0x80]
     bee:	66 89 d0             	mov    eax,edx
     bf1:	66 01 c0             	add    eax,eax
     bf4:	66 01 d0             	add    eax,edx
     bf7:	66 c1 e0 02          	shl    eax,0x2
     bfb:	66 01 d0             	add    eax,edx
     bfe:	66 c1 e0 02          	shl    eax,0x2
     c02:	66 05 ec 87 00 00    	add    eax,0x87ec
     c08:	67 66 c7 00 01 00 00 	mov    DWORD PTR [eax],0x1
     c0f:	00 
D:\OneDrive\Study\Operating Systems\实验\project6\codes/./kernel/os.c:160
			if(tmp != -1 && information[tmp].deleted != 1){
     c10:	e9 29 02             	jmp    e3c <.debug_info+0x659>
D:\OneDrive\Study\Operating Systems\实验\project6\codes/./kernel/os.c:164
			}
		}
		else if(in[0] == 'k' && in[1] == 'i' &&
     c13:	67 66 8b 45 f4       	mov    eax,DWORD PTR [ebp-0xc]
     c18:	67 8a 00             	mov    al,BYTE PTR [eax]
     c1b:	3c 6b                	cmp    al,0x6b
     c1d:	75 50                	jne    c6f <.debug_info+0x48c>
     c1f:	67 66 8b 45 f4       	mov    eax,DWORD PTR [ebp-0xc]
     c24:	66 40                	inc    eax
     c26:	67 8a 00             	mov    al,BYTE PTR [eax]
     c29:	3c 69                	cmp    al,0x69
     c2b:	75 42                	jne    c6f <.debug_info+0x48c>
D:\OneDrive\Study\Operating Systems\实验\project6\codes/./kernel/os.c:165
			in[2] == 'l' && in[3] == 'l'){
     c2d:	67 66 8b 45 f4       	mov    eax,DWORD PTR [ebp-0xc]
     c32:	66 83 c0 02          	add    eax,0x2
     c36:	67 8a 00             	mov    al,BYTE PTR [eax]
D:\OneDrive\Study\Operating Systems\实验\project6\codes/./kernel/os.c:164
		else if(in[0] == 'k' && in[1] == 'i' &&
     c39:	3c 6c                	cmp    al,0x6c
     c3b:	75 32                	jne    c6f <.debug_info+0x48c>
D:\OneDrive\Study\Operating Systems\实验\project6\codes/./kernel/os.c:165
			in[2] == 'l' && in[3] == 'l'){
     c3d:	67 66 8b 45 f4       	mov    eax,DWORD PTR [ebp-0xc]
     c42:	66 83 c0 03          	add    eax,0x3
     c46:	67 8a 00             	mov    al,BYTE PTR [eax]
     c49:	3c 6c                	cmp    al,0x6c
     c4b:	75 22                	jne    c6f <.debug_info+0x48c>
D:\OneDrive\Study\Operating Systems\实验\project6\codes/./kernel/os.c:166
			kill(in[5]-'0');
     c4d:	67 66 8b 45 f4       	mov    eax,DWORD PTR [ebp-0xc]
     c52:	66 83 c0 05          	add    eax,0x5
     c56:	67 8a 00             	mov    al,BYTE PTR [eax]
     c59:	66 0f be c0          	movsx  eax,al
     c5d:	66 83 e8 30          	sub    eax,0x30
     c61:	67 66 89 04 24       	mov    DWORD PTR [esp],eax
     c66:	66 e8 25 1c 00 00    	call   2891 <_kill>
     c6c:	e9 ce 01             	jmp    e3d <.debug_info+0x65a>
D:\OneDrive\Study\Operating Systems\实验\project6\codes/./kernel/os.c:168
		}
		else if(in[0] == 's' && in[1] == 'u' &&
     c6f:	67 66 8b 45 f4       	mov    eax,DWORD PTR [ebp-0xc]
     c74:	67 8a 00             	mov    al,BYTE PTR [eax]
     c77:	3c 73                	cmp    al,0x73
     c79:	75 50                	jne    ccb <.debug_info+0x4e8>
     c7b:	67 66 8b 45 f4       	mov    eax,DWORD PTR [ebp-0xc]
     c80:	66 40                	inc    eax
     c82:	67 8a 00             	mov    al,BYTE PTR [eax]
     c85:	3c 75                	cmp    al,0x75
     c87:	75 42                	jne    ccb <.debug_info+0x4e8>
D:\OneDrive\Study\Operating Systems\实验\project6\codes/./kernel/os.c:169
			in[2] == 's' && in[3] == 'p'){
     c89:	67 66 8b 45 f4       	mov    eax,DWORD PTR [ebp-0xc]
     c8e:	66 83 c0 02          	add    eax,0x2
     c92:	67 8a 00             	mov    al,BYTE PTR [eax]
D:\OneDrive\Study\Operating Systems\实验\project6\codes/./kernel/os.c:168
		else if(in[0] == 's' && in[1] == 'u' &&
     c95:	3c 73                	cmp    al,0x73
     c97:	75 32                	jne    ccb <.debug_info+0x4e8>
D:\OneDrive\Study\Operating Systems\实验\project6\codes/./kernel/os.c:169
			in[2] == 's' && in[3] == 'p'){
     c99:	67 66 8b 45 f4       	mov    eax,DWORD PTR [ebp-0xc]
     c9e:	66 83 c0 03          	add    eax,0x3
     ca2:	67 8a 00             	mov    al,BYTE PTR [eax]
     ca5:	3c 70                	cmp    al,0x70
     ca7:	75 22                	jne    ccb <.debug_info+0x4e8>
D:\OneDrive\Study\Operating Systems\实验\project6\codes/./kernel/os.c:170
			Tosuspend(in[5]-'0');
     ca9:	67 66 8b 45 f4       	mov    eax,DWORD PTR [ebp-0xc]
     cae:	66 83 c0 05          	add    eax,0x5
     cb2:	67 8a 00             	mov    al,BYTE PTR [eax]
     cb5:	66 0f be c0          	movsx  eax,al
     cb9:	66 83 e8 30          	sub    eax,0x30
     cbd:	67 66 89 04 24       	mov    DWORD PTR [esp],eax
     cc2:	66 e8 6d 34 00 00    	call   4135 <_Tosuspend>
     cc8:	e9 72 01             	jmp    e3d <.debug_info+0x65a>
D:\OneDrive\Study\Operating Systems\实验\project6\codes/./kernel/os.c:172
		}
		else if(in[0] == 'a' && in[1] == 'c' &&
     ccb:	67 66 8b 45 f4       	mov    eax,DWORD PTR [ebp-0xc]
     cd0:	67 8a 00             	mov    al,BYTE PTR [eax]
     cd3:	3c 61                	cmp    al,0x61
     cd5:	75 5a                	jne    d31 <.debug_info+0x54e>
     cd7:	67 66 8b 45 f4       	mov    eax,DWORD PTR [ebp-0xc]
     cdc:	66 40                	inc    eax
     cde:	67 8a 00             	mov    al,BYTE PTR [eax]
     ce1:	3c 63                	cmp    al,0x63
     ce3:	75 4c                	jne    d31 <.debug_info+0x54e>
D:\OneDrive\Study\Operating Systems\实验\project6\codes/./kernel/os.c:173
			in[2] == 't' && in[3] == 'i'){
     ce5:	67 66 8b 45 f4       	mov    eax,DWORD PTR [ebp-0xc]
     cea:	66 83 c0 02          	add    eax,0x2
     cee:	67 8a 00             	mov    al,BYTE PTR [eax]
D:\OneDrive\Study\Operating Systems\实验\project6\codes/./kernel/os.c:172
		else if(in[0] == 'a' && in[1] == 'c' &&
     cf1:	3c 74                	cmp    al,0x74
     cf3:	75 3c                	jne    d31 <.debug_info+0x54e>
D:\OneDrive\Study\Operating Systems\实验\project6\codes/./kernel/os.c:173
			in[2] == 't' && in[3] == 'i'){
     cf5:	67 66 8b 45 f4       	mov    eax,DWORD PTR [ebp-0xc]
     cfa:	66 83 c0 03          	add    eax,0x3
     cfe:	67 8a 00             	mov    al,BYTE PTR [eax]
     d01:	3c 69                	cmp    al,0x69
     d03:	75 2c                	jne    d31 <.debug_info+0x54e>
D:\OneDrive\Study\Operating Systems\实验\project6\codes/./kernel/os.c:174
			tmp = in[5]-'0';
     d05:	67 66 8b 45 f4       	mov    eax,DWORD PTR [ebp-0xc]
     d0a:	66 83 c0 05          	add    eax,0x5
     d0e:	67 8a 00             	mov    al,BYTE PTR [eax]
     d11:	66 0f be c0          	movsx  eax,al
     d15:	66 83 e8 30          	sub    eax,0x30
     d19:	67 66 89 45 80       	mov    DWORD PTR [ebp-0x80],eax
D:\OneDrive\Study\Operating Systems\实验\project6\codes/./kernel/os.c:188
			// int cs = segOfPrg + (offsetOfPrg >> 4), ip = 0, ss = segOfPrg + (offsetOfPrg >> 4), sp = processTable[tmp].size-1;
			// processTable[tmp].pcb.cs = cs;
			// processTable[tmp].pcb.ip = ip;
			// processTable[tmp].pcb.ss_now = ss;
			// processTable[tmp].pcb.sp_now = sp;
			activate(tmp);
     d1e:	67 66 8b 45 80       	mov    eax,DWORD PTR [ebp-0x80]
     d23:	67 66 89 04 24       	mov    DWORD PTR [esp],eax
     d28:	66 e8 d9 37 00 00    	call   4507 <_activate>
     d2e:	e9 0c 01             	jmp    e3d <.debug_info+0x65a>
D:\OneDrive\Study\Operating Systems\实验\project6\codes/./kernel/os.c:191
		}
		else {
			if(strcmp(in, "reboot") == 0)
     d31:	67 66 c7 44 24 04 0b 	mov    DWORD PTR [esp+0x4],0x600b
     d38:	60 00 00 
     d3b:	67 66 8b 45 f4       	mov    eax,DWORD PTR [ebp-0xc]
     d40:	67 66 89 04 24       	mov    DWORD PTR [esp],eax
     d45:	66 e8 31 1d 00 00    	call   2a7c <_strcmp>
     d4b:	66 85 c0             	test   eax,eax
     d4e:	75 06                	jne    d56 <.debug_info+0x573>
D:\OneDrive\Study\Operating Systems\实验\project6\codes/./kernel/os.c:192
				reboot();
     d50:	66 e8 99 08 00 00    	call   15ef <_reboot>
D:\OneDrive\Study\Operating Systems\实验\project6\codes/./kernel/os.c:193
			if(strcmp(in, "clear") == 0)
     d56:	67 66 c7 44 24 04 12 	mov    DWORD PTR [esp+0x4],0x6012
     d5d:	60 00 00 
     d60:	67 66 8b 45 f4       	mov    eax,DWORD PTR [ebp-0xc]
     d65:	67 66 89 04 24       	mov    DWORD PTR [esp],eax
     d6a:	66 e8 0c 1d 00 00    	call   2a7c <_strcmp>
     d70:	66 85 c0             	test   eax,eax
     d73:	75 06                	jne    d7b <.debug_info+0x598>
D:\OneDrive\Study\Operating Systems\实验\project6\codes/./kernel/os.c:194
				clear();
     d75:	66 e8 a4 12 00 00    	call   201f <_clear>
D:\OneDrive\Study\Operating Systems\实验\project6\codes/./kernel/os.c:195
			if(strcmp(in, "date") == 0)
     d7b:	67 66 c7 44 24 04 18 	mov    DWORD PTR [esp+0x4],0x6018
     d82:	60 00 00 
     d85:	67 66 8b 45 f4       	mov    eax,DWORD PTR [ebp-0xc]
     d8a:	67 66 89 04 24       	mov    DWORD PTR [esp],eax
     d8f:	66 e8 e7 1c 00 00    	call   2a7c <_strcmp>
     d95:	66 85 c0             	test   eax,eax
     d98:	75 06                	jne    da0 <.debug_info+0x5bd>
D:\OneDrive\Study\Operating Systems\实验\project6\codes/./kernel/os.c:196
				date();
     d9a:	66 e8 98 12 00 00    	call   2038 <_date>
D:\OneDrive\Study\Operating Systems\实验\project6\codes/./kernel/os.c:197
			if(strcmp(in, "man") == 0)
     da0:	67 66 c7 44 24 04 1d 	mov    DWORD PTR [esp+0x4],0x601d
     da7:	60 00 00 
     daa:	67 66 8b 45 f4       	mov    eax,DWORD PTR [ebp-0xc]
     daf:	67 66 89 04 24       	mov    DWORD PTR [esp],eax
     db4:	66 e8 c2 1c 00 00    	call   2a7c <_strcmp>
     dba:	66 85 c0             	test   eax,eax
     dbd:	75 06                	jne    dc5 <.debug_info+0x5e2>
D:\OneDrive\Study\Operating Systems\实验\project6\codes/./kernel/os.c:198
				man();
     dbf:	66 e8 f7 12 00 00    	call   20bc <_man>
D:\OneDrive\Study\Operating Systems\实验\project6\codes/./kernel/os.c:199
			if(strcmp(in, "ls") == 0)
     dc5:	67 66 c7 44 24 04 21 	mov    DWORD PTR [esp+0x4],0x6021
     dcc:	60 00 00 
     dcf:	67 66 8b 45 f4       	mov    eax,DWORD PTR [ebp-0xc]
     dd4:	67 66 89 04 24       	mov    DWORD PTR [esp],eax
     dd9:	66 e8 9d 1c 00 00    	call   2a7c <_strcmp>
     ddf:	66 85 c0             	test   eax,eax
     de2:	75 06                	jne    dea <.debug_info+0x607>
D:\OneDrive\Study\Operating Systems\实验\project6\codes/./kernel/os.c:200
				ls();
     de4:	66 e8 fc 13 00 00    	call   21e6 <_ls>
D:\OneDrive\Study\Operating Systems\实验\project6\codes/./kernel/os.c:201
			if(strcmp(in, "exit") == 0)
     dea:	67 66 c7 44 24 04 24 	mov    DWORD PTR [esp+0x4],0x6024
     df1:	60 00 00 
     df4:	67 66 8b 45 f4       	mov    eax,DWORD PTR [ebp-0xc]
     df9:	67 66 89 04 24       	mov    DWORD PTR [esp],eax
     dfe:	66 e8 78 1c 00 00    	call   2a7c <_strcmp>
     e04:	66 85 c0             	test   eax,eax
     e07:	75 06                	jne    e0f <.debug_info+0x62c>
D:\OneDrive\Study\Operating Systems\实验\project6\codes/./kernel/os.c:202
				shutdown();
     e09:	66 e8 7f 06 00 00    	call   148e <_shutdown>
D:\OneDrive\Study\Operating Systems\实验\project6\codes/./kernel/os.c:203
			if(strcmp(in, "ps") == 0)
     e0f:	67 66 c7 44 24 04 29 	mov    DWORD PTR [esp+0x4],0x6029
     e16:	60 00 00 
     e19:	67 66 8b 45 f4       	mov    eax,DWORD PTR [ebp-0xc]
     e1e:	67 66 89 04 24       	mov    DWORD PTR [esp],eax
     e23:	66 e8 53 1c 00 00    	call   2a7c <_strcmp>
     e29:	66 85 c0             	test   eax,eax
     e2c:	75 0f                	jne    e3d <.debug_info+0x65a>
D:\OneDrive\Study\Operating Systems\实验\project6\codes/./kernel/os.c:204
				ps();
     e2e:	66 e8 79 17 00 00    	call   25ad <_ps>
     e34:	eb 07                	jmp    e3d <.debug_info+0x65a>
D:\OneDrive\Study\Operating Systems\实验\project6\codes/./kernel/os.c:130
			if(tmp != -1 && information[tmp].deleted != 1){
     e36:	90                   	nop
     e37:	eb 04                	jmp    e3d <.debug_info+0x65a>
D:\OneDrive\Study\Operating Systems\实验\project6\codes/./kernel/os.c:151
			if(tmp != -1 && information[tmp].deleted != 1){
     e39:	90                   	nop
     e3a:	eb 01                	jmp    e3d <.debug_info+0x65a>
D:\OneDrive\Study\Operating Systems\实验\project6\codes/./kernel/os.c:160
			if(tmp != -1 && information[tmp].deleted != 1){
     e3c:	90                   	nop
D:\OneDrive\Study\Operating Systems\实验\project6\codes/./kernel/os.c:206
		}
		newline();
     e3d:	66 e8 19 13 00 00    	call   215c <_newline>
D:\OneDrive\Study\Operating Systems\实验\project6\codes/./kernel/os.c:71
		in = getInput();
     e43:	e9 3b f2             	jmp    81 <.debug_str+0x46>
     e46:	00 00                	add    BYTE PTR [bx+si],al
     e48:	66 90                	xchg   eax,eax
     e4a:	66 90                	xchg   eax,eax
     e4c:	66 90                	xchg   eax,eax
     e4e:	66 90                	xchg   eax,eax

00000e50 <_test>:
     e50:	ea 00 00 50 00       	jmp    0x50:0x0

00000e55 <_inisys>:
     e55:	60                   	pusha  
     e56:	e8 e5 02             	call   113e <installInt8h>
     e59:	e8 7c 02             	call   10d8 <installInt9h>
     e5c:	e8 26 02             	call   1085 <installInt2Bh>
     e5f:	e8 05 00             	call   e67 <installInt21h>
     e62:	e8 2c 04             	call   1291 <installInt34_37h>
     e65:	61                   	popa   
     e66:	c3                   	ret    

00000e67 <installInt21h>:
     e67:	50                   	push   ax
     e68:	06                   	push   es
     e69:	b8 00 00             	mov    ax,0x0
     e6c:	8e c0                	mov    es,ax
     e6e:	26 c7 06 84 00 7d 0e 	mov    WORD PTR es:0x84,0xe7d
     e75:	26 8c 0e 86 00       	mov    WORD PTR es:0x86,cs
     e7a:	07                   	pop    es
     e7b:	58                   	pop    ax
     e7c:	c3                   	ret    

00000e7d <int21h>:
     e7d:	2e 89 1e 3b 0f       	mov    WORD PTR cs:0xf3b,bx
     e82:	53                   	push   bx
     e83:	1e                   	push   ds
     e84:	0e                   	push   cs
     e85:	1f                   	pop    ds
     e86:	bb 00 00             	mov    bx,0x0
     e89:	50                   	push   ax
     e8a:	88 e0                	mov    al,ah
     e8c:	b3 02                	mov    bl,0x2
     e8e:	f6 e3                	mul    bl
     e90:	88 c3                	mov    bl,al
     e92:	58                   	pop    ax
     e93:	2e ff 97 9b 0e       	call   WORD PTR cs:[bx+0xe9b]

00000e98 <int21hre>:
     e98:	1f                   	pop    ds
     e99:	5b                   	pop    bx
     e9a:	cf                   	iret   

00000e9b <int21hTable>:
     e9b:	57                   	push   di
     e9c:	0f 65 0f             	pcmpgtw mm1,QWORD PTR [bx]
     e9f:	ae                   	scas   al,BYTE PTR es:[di]
     ea0:	0f 83 0f 8e          	jae    9cb3 <_processTable+0x9d3>
     ea4:	0f e2 0f             	psrad  mm1,QWORD PTR [bx]
     ea7:	f9                   	stc    
     ea8:	0f 12 10             	movlps xmm2,QWORD PTR [bx+si]
     eab:	21 10                	and    WORD PTR [bx+si],dx
     ead:	41                   	inc    cx
     eae:	0f 00 00             	sldt   WORD PTR [bx+si]
	...
     f31:	00 00                	add    BYTE PTR [bx+si],al
     f33:	a0                   	.byte 0xa0
     f34:	0f                   	.byte 0xf

00000f35 <int21h_store_ip>:
	...

00000f37 <int21h_store_cs>:
	...

00000f39 <int21h_store_flags>:
	...

00000f3b <int21h_store_ebx>:
     f3b:	00 00                	add    BYTE PTR [bx+si],al
	...

00000f3f <int21_store_retaddr>:
	...

00000f41 <int21hMalloc>:
     f41:	66 53                	push   ebx
     f43:	1e                   	push   ds
     f44:	0e                   	push   cs
     f45:	1f                   	pop    ds
     f46:	66 53                	push   ebx
     f48:	66 b8 f8 47 00 00    	mov    eax,0x47f8
     f4e:	66 ff d0             	call   eax
     f51:	66 5b                	pop    ebx
     f53:	1f                   	pop    ds
     f54:	66 5b                	pop    ebx
     f56:	c3                   	ret    

00000f57 <int21hps>:
     f57:	66 50                	push   eax
     f59:	66 31 c0             	xor    eax,eax
     f5c:	b8 ad 25             	mov    ax,0x25ad
     f5f:	66 ff d0             	call   eax
     f62:	66 58                	pop    eax
     f64:	c3                   	ret    

00000f65 <int21hkill>:
     f65:	66 50                	push   eax
     f67:	66 53                	push   ebx
     f69:	66 bb 00 00 00 00    	mov    ebx,0x0
     f6f:	88 c3                	mov    bl,al
     f71:	66 53                	push   ebx
     f73:	66 31 c0             	xor    eax,eax
     f76:	b8 91 28             	mov    ax,0x2891
     f79:	66 ff d0             	call   eax
     f7c:	66 5b                	pop    ebx
     f7e:	66 5b                	pop    ebx
     f80:	66 58                	pop    eax
     f82:	c3                   	ret    

00000f83 <int21hshowDate>:
     f83:	fb                   	sti    
     f84:	66 31 c0             	xor    eax,eax
     f87:	b8 38 20             	mov    ax,0x2038
     f8a:	66 ff d0             	call   eax
     f8d:	c3                   	ret    

00000f8e <int21hClear>:
     f8e:	66 50                	push   eax
     f90:	66 31 c0             	xor    eax,eax
     f93:	66 50                	push   eax
     f95:	b8 3d 1f             	mov    ax,0x1f3d
     f98:	66 ff d0             	call   eax
     f9b:	66 58                	pop    eax
     f9d:	66 58                	pop    eax
     f9f:	c3                   	ret    

00000fa0 <int21hexit>:
     fa0:	66 50                	push   eax
     fa2:	66 31 c0             	xor    eax,eax
     fa5:	b8 8e 14             	mov    ax,0x148e
     fa8:	66 ff d0             	call   eax
     fab:	66 58                	pop    eax
     fad:	c3                   	ret    

00000fae <int21hPrintString>:
     fae:	60                   	pusha  
     faf:	1e                   	push   ds
     fb0:	66 50                	push   eax
     fb2:	8c e8                	mov    ax,gs
     fb4:	8e d8                	mov    ds,ax
     fb6:	66 53                	push   ebx
     fb8:	66 51                	push   ecx
     fba:	66 b8 00 00 00 00    	mov    eax,0x0
     fc0:	88 d0                	mov    al,dl
     fc2:	66 50                	push   eax
     fc4:	88 f0                	mov    al,dh
     fc6:	66 50                	push   eax
     fc8:	66 57                	push   edi
     fca:	66 31 c0             	xor    eax,eax
     fcd:	b8 0b 13             	mov    ax,0x130b
     fd0:	66 ff d0             	call   eax
     fd3:	66 5f                	pop    edi
     fd5:	66 58                	pop    eax
     fd7:	66 58                	pop    eax
     fd9:	66 59                	pop    ecx
     fdb:	66 5b                	pop    ebx
     fdd:	66 58                	pop    eax
     fdf:	1f                   	pop    ds
     fe0:	61                   	popa   
     fe1:	c3                   	ret    

00000fe2 <int21hint2str>:
     fe2:	60                   	pusha  
     fe3:	1e                   	push   ds
     fe4:	8c e8                	mov    ax,gs
     fe6:	8e d8                	mov    ds,ax
     fe8:	66 57                	push   edi
     fea:	66 53                	push   ebx
     fec:	b8 00 2c             	mov    ax,0x2c00
     fef:	66 ff d0             	call   eax
     ff2:	66 5b                	pop    ebx
     ff4:	66 5f                	pop    edi
     ff6:	1f                   	pop    ds
     ff7:	61                   	popa   
     ff8:	c3                   	ret    

00000ff9 <int21hexitprg>:
     ff9:	60                   	pusha  
     ffa:	1e                   	push   ds
     ffb:	2e 66 ff 36 3b 0f    	push   DWORD PTR cs:0xf3b
    1001:	66 b8 00 00 00 00    	mov    eax,0x0
    1007:	b8 83 3f             	mov    ax,0x3f83
    100a:	66 ff d0             	call   eax
    100d:	66 5b                	pop    ebx
    100f:	1f                   	pop    ds
    1010:	61                   	popa   
    1011:	c3                   	ret    

00001012 <int21hwait>:
    1012:	1e                   	push   ds
    1013:	66 b8 00 00 00 00    	mov    eax,0x0
    1019:	b8 5f 40             	mov    ax,0x405f
    101c:	66 ff d0             	call   eax
    101f:	1f                   	pop    ds
    1020:	c3                   	ret    

00001021 <int21hfork>:
    1021:	fa                   	cli    
    1022:	0e                   	push   cs
    1023:	53                   	push   bx
    1024:	50                   	push   ax
    1025:	1e                   	push   ds
    1026:	8c c8                	mov    ax,cs
    1028:	8e d8                	mov    ds,ax
    102a:	2e 8b 1e 30 a7       	mov    bx,WORD PTR cs:0xa730
    102f:	2e a1 7c 87          	mov    ax,cs:0x877c
    1033:	f6 e3                	mul    bl
    1035:	89 c3                	mov    bx,ax
    1037:	81 c3 e0 92          	add    bx,0x92e0
    103b:	2e 89 1e db 15       	mov    WORD PTR cs:0x15db,bx
    1040:	1f                   	pop    ds
    1041:	58                   	pop    ax
    1042:	5b                   	pop    bx
    1043:	fb                   	sti    
    1044:	e8 c0 04             	call   1507 <save>
    1047:	fa                   	cli    
    1048:	60                   	pusha  
    1049:	1e                   	push   ds
    104a:	66 b8 00 00 00 00    	mov    eax,0x0
    1050:	8c c8                	mov    ax,cs
    1052:	8e d8                	mov    ds,ax
    1054:	b8 fc 3a             	mov    ax,0x3afc
    1057:	66 ff d0             	call   eax
    105a:	1f                   	pop    ds
    105b:	61                   	popa   
    105c:	53                   	push   bx
    105d:	50                   	push   ax
    105e:	1e                   	push   ds
    105f:	8c c8                	mov    ax,cs
    1061:	8e d8                	mov    ds,ax
    1063:	2e 8b 1e 30 a7       	mov    bx,WORD PTR cs:0xa730
    1068:	2e a1 7c 87          	mov    ax,cs:0x877c
    106c:	f6 e3                	mul    bl
    106e:	89 c3                	mov    bx,ax
    1070:	81 c3 e0 92          	add    bx,0x92e0
    1074:	2e 89 1e d9 15       	mov    WORD PTR cs:0x15d9,bx
    1079:	1f                   	pop    ds
    107a:	58                   	pop    ax
    107b:	5b                   	pop    bx
    107c:	e8 07 05             	call   1586 <restart>

0000107f <int21hfork_store_cs>:
	...

00001081 <int21hfork_store_ip>:
	...

00001083 <int21hfork_store_flags>:
	...

00001085 <installInt2Bh>:
    1085:	60                   	pusha  
    1086:	06                   	push   es
    1087:	b8 00 00             	mov    ax,0x0
    108a:	8e c0                	mov    es,ax
    108c:	26 c7 06 ac 00 9b 10 	mov    WORD PTR es:0xac,0x109b
    1093:	26 8c 0e ae 00       	mov    WORD PTR es:0xae,cs
    1098:	07                   	pop    es
    1099:	61                   	popa   
    109a:	c3                   	ret    

0000109b <int2Bh>:
    109b:	2e 8f 06 d4 10       	pop    WORD PTR cs:0x10d4
    10a0:	2e 8f 06 d6 10       	pop    WORD PTR cs:0x10d6
    10a5:	9d                   	popf   
    10a6:	2e 8f 06 d4 10       	pop    WORD PTR cs:0x10d4
    10ab:	60                   	pusha  
    10ac:	1e                   	push   ds
    10ad:	66 b8 00 00 00 00    	mov    eax,0x0
    10b3:	8c c8                	mov    ax,cs
    10b5:	8e d8                	mov    ds,ax
    10b7:	a1 30 a7             	mov    ax,ds:0xa730
    10ba:	66 50                	push   eax
    10bc:	b8 3e 37             	mov    ax,0x373e
    10bf:	66 ff d0             	call   eax
    10c2:	66 58                	pop    eax
    10c4:	1f                   	pop    ds
    10c5:	61                   	popa   
    10c6:	9c                   	pushf  
    10c7:	2e ff 36 d6 10       	push   WORD PTR cs:0x10d6
    10cc:	2e ff 36 d4 10       	push   WORD PTR cs:0x10d4
    10d1:	e9 a9 00             	jmp    117d <int8h>

000010d4 <in2b_store_ip>:
	...

000010d6 <in2b_store_cs>:
	...

000010d8 <installInt9h>:
    10d8:	60                   	pusha  
    10d9:	06                   	push   es
    10da:	1e                   	push   ds
    10db:	31 c0                	xor    ax,ax
    10dd:	8e c0                	mov    es,ax
    10df:	8c c8                	mov    ax,cs
    10e1:	8e d8                	mov    ds,ax
    10e3:	26 a1 26 00          	mov    ax,es:0x26
    10e7:	2e a3 07 11          	mov    cs:0x1107,ax
    10eb:	26 a1 24 00          	mov    ax,es:0x24
    10ef:	2e a3 05 11          	mov    cs:0x1105,ax
    10f3:	fa                   	cli    
    10f4:	26 8c 0e 26 00       	mov    WORD PTR es:0x26,cs
    10f9:	26 c7 06 24 00 09 11 	mov    WORD PTR es:0x24,0x1109
    1100:	fb                   	sti    
    1101:	1f                   	pop    ds
    1102:	07                   	pop    es
    1103:	61                   	popa   
    1104:	c3                   	ret    

00001105 <tmp9>:
    1105:	00 00                	add    BYTE PTR [bx+si],al
	...

00001109 <int9h>:
    1109:	60                   	pusha  
    110a:	06                   	push   es
    110b:	1e                   	push   ds
    110c:	8c c8                	mov    ax,cs
    110e:	8e d8                	mov    ds,ax
    1110:	8e c0                	mov    es,ax
    1112:	9c                   	pushf  
    1113:	2e ff 1e 05 11       	call   DWORD PTR cs:0x1105

00001118 <showInsert>:
    1118:	b9 09 00             	mov    cx,0x9
    111b:	bd 35 11             	mov    bp,0x1135
    111e:	ba 45 18             	mov    dx,0x1845
    1121:	b3 0f                	mov    bl,0xf
    1123:	b7 00                	mov    bh,0x0
    1125:	b4 13                	mov    ah,0x13
    1127:	b0 00                	mov    al,0x0
    1129:	cd 10                	int    0x10
    112b:	b0 20                	mov    al,0x20
    112d:	e6 20                	out    0x20,al
    112f:	e6 a0                	out    0xa0,al
    1131:	1f                   	pop    ds
    1132:	07                   	pop    es
    1133:	61                   	popa   
    1134:	cf                   	iret   

00001135 <inserting>:
    1135:	69 6e 73 65 72       	imul   bp,WORD PTR [bp+0x73],0x7265
    113a:	74 69                	je     11a5 <int8h+0x28>
    113c:	6e                   	outs   dx,BYTE PTR ds:[si]
    113d:	67                   	addr32

0000113e <installInt8h>:
    113e:	06                   	push   es
    113f:	50                   	push   ax
    1140:	31 c0                	xor    ax,ax
    1142:	8e c0                	mov    es,ax
    1144:	26 a1 22 00          	mov    ax,es:0x22
    1148:	2e a3 7b 11          	mov    cs:0x117b,ax
    114c:	26 a1 20 00          	mov    ax,es:0x20
    1150:	2e a3 79 11          	mov    cs:0x1179,ax
    1154:	fa                   	cli    
    1155:	26 8c 0e 22 00       	mov    WORD PTR es:0x22,cs
    115a:	26 c7 06 20 00 7d 11 	mov    WORD PTR es:0x20,0x117d
    1161:	2e c7 06 7e 12 28 00 	mov    WORD PTR cs:0x127e,0x28
    1168:	fb                   	sti    

00001169 <SetTimer>:
    1169:	b0 34                	mov    al,0x34
    116b:	e6 43                	out    0x43,al
    116d:	b8 0b e9             	mov    ax,0xe90b
    1170:	e6 40                	out    0x40,al
    1172:	88 e0                	mov    al,ah
    1174:	e6 40                	out    0x40,al
    1176:	58                   	pop    ax
    1177:	07                   	pop    es
    1178:	c3                   	ret    

00001179 <tmp8>:
    1179:	00 00                	add    BYTE PTR [bx+si],al
	...

0000117d <int8h>:
    117d:	60                   	pusha  
    117e:	1e                   	push   ds
    117f:	06                   	push   es
    1180:	8c c8                	mov    ax,cs
    1182:	8e d8                	mov    ds,ax
    1184:	9c                   	pushf  
    1185:	ff 1e 79 11          	call   DWORD PTR ds:0x1179
    1189:	ff 0e 7e 12          	dec    WORD PTR ds:0x127e
    118d:	83 3e 7e 12 00       	cmp    WORD PTR ds:0x127e,0x0
    1192:	75 73                	jne    1207 <int8hret>
    1194:	c7 06 7e 12 28 00    	mov    WORD PTR ds:0x127e,0x28
    119a:	b8 00 b8             	mov    ax,0xb800
    119d:	8e c0                	mov    es,ax
    119f:	b4 04                	mov    ah,0x4
    11a1:	b7 00                	mov    bh,0x0
    11a3:	b4 03                	mov    ah,0x3
    11a5:	cd 10                	int    0x10
    11a7:	b8 00 00             	mov    ax,0x0
    11aa:	88 f0                	mov    al,dh
    11ac:	b3 50                	mov    bl,0x50
    11ae:	f6 e3                	mul    bl
    11b0:	b6 00                	mov    dh,0x0
    11b2:	01 d0                	add    ax,dx
    11b4:	bb 02 00             	mov    bx,0x2
    11b7:	f7 e3                	mul    bx
    11b9:	89 c5                	mov    bp,ax
    11bb:	bb 82 12             	mov    bx,0x1282
    11be:	03 1e 80 12          	add    bx,WORD PTR ds:0x1280
    11c2:	8a 07                	mov    al,BYTE PTR [bx]
    11c4:	b4 0f                	mov    ah,0xf
    11c6:	26 89 46 00          	mov    WORD PTR es:[bp+0x0],ax
    11ca:	b8 20 0f             	mov    ax,0xf20
    11cd:	26 89 46 02          	mov    WORD PTR es:[bp+0x2],ax
    11d1:	26 89 46 04          	mov    WORD PTR es:[bp+0x4],ax
    11d5:	26 89 46 06          	mov    WORD PTR es:[bp+0x6],ax
    11d9:	26 89 46 08          	mov    WORD PTR es:[bp+0x8],ax
    11dd:	ff 06 80 12          	inc    WORD PTR ds:0x1280
    11e1:	83 3e 80 12 04       	cmp    WORD PTR ds:0x1280,0x4
    11e6:	7c 06                	jl     11ee <insertShow>
    11e8:	c7 06 80 12 00 00    	mov    WORD PTR ds:0x1280,0x0

000011ee <insertShow>:
    11ee:	06                   	push   es
    11ef:	8c c8                	mov    ax,cs
    11f1:	8e c0                	mov    es,ax
    11f3:	b9 09 00             	mov    cx,0x9
    11f6:	bd 86 12             	mov    bp,0x1286
    11f9:	ba 45 18             	mov    dx,0x1845
    11fc:	b3 0f                	mov    bl,0xf
    11fe:	b7 00                	mov    bh,0x0
    1200:	b4 13                	mov    ah,0x13
    1202:	b0 00                	mov    al,0x0
    1204:	cd 10                	int    0x10
    1206:	07                   	pop    es

00001207 <int8hret>:
    1207:	fa                   	cli    
    1208:	b0 20                	mov    al,0x20
    120a:	e6 20                	out    0x20,al
    120c:	e6 a0                	out    0xa0,al
    120e:	07                   	pop    es
    120f:	1f                   	pop    ds
    1210:	61                   	popa   
    1211:	53                   	push   bx
    1212:	50                   	push   ax
    1213:	1e                   	push   ds
    1214:	8c c8                	mov    ax,cs
    1216:	8e d8                	mov    ds,ax
    1218:	2e 8b 1e 30 a7       	mov    bx,WORD PTR cs:0xa730
    121d:	2e a1 7c 87          	mov    ax,cs:0x877c
    1221:	f6 e3                	mul    bl
    1223:	89 c3                	mov    bx,ax
    1225:	81 c3 e0 92          	add    bx,0x92e0
    1229:	2e 89 1e db 15       	mov    WORD PTR cs:0x15db,bx
    122e:	1f                   	pop    ds
    122f:	58                   	pop    ax
    1230:	5b                   	pop    bx
    1231:	50                   	push   ax
    1232:	1e                   	push   ds
    1233:	0e                   	push   cs
    1234:	1f                   	pop    ds
    1235:	60                   	pusha  
    1236:	66 31 c0             	xor    eax,eax
    1239:	b8 b6 38             	mov    ax,0x38b6
    123c:	66 ff d0             	call   eax
    123f:	61                   	popa   
    1240:	1f                   	pop    ds
    1241:	58                   	pop    ax
    1242:	2e 8f 06 d4 10       	pop    WORD PTR cs:0x10d4
    1247:	2e 8f 06 d6 10       	pop    WORD PTR cs:0x10d6
    124c:	9d                   	popf   
    124d:	2e ff 36 d4 10       	push   WORD PTR cs:0x10d4
    1252:	2e ff 36 d6 10       	push   WORD PTR cs:0x10d6
    1257:	53                   	push   bx
    1258:	50                   	push   ax
    1259:	1e                   	push   ds
    125a:	8c c8                	mov    ax,cs
    125c:	8e d8                	mov    ds,ax
    125e:	2e 8b 1e 30 a7       	mov    bx,WORD PTR cs:0xa730
    1263:	2e a1 7c 87          	mov    ax,cs:0x877c
    1267:	f6 e3                	mul    bl
    1269:	89 c3                	mov    bx,ax
    126b:	81 c3 e0 92          	add    bx,0x92e0
    126f:	2e 89 1e d9 15       	mov    WORD PTR cs:0x15d9,bx
    1274:	1f                   	pop    ds
    1275:	58                   	pop    ax
    1276:	5b                   	pop    bx
    1277:	e8 8d 02             	call   1507 <save>
    127a:	e8 09 03             	call   1586 <restart>
    127d:	cf                   	iret   

0000127e <count>:
    127e:	28 00                	sub    BYTE PTR [bx+si],al

00001280 <k>:
	...

00001282 <char>:
    1282:	7c 5c                	jl     12e0 <int34h+0xd>
    1284:	2d                   	.byte 0x2d
    1285:	2f                   	das    

00001286 <inserted>:
    1286:	69 6e 73 65 72       	imul   bp,WORD PTR [bp+0x73],0x7265
    128b:	74 65                	je     12f2 <int36h+0x3>
    128d:	64                   	fs
    128e:	20                   	.byte 0x20

0000128f <int8h_store_ss>:
	...

00001291 <installInt34_37h>:
    1291:	06                   	push   es
    1292:	50                   	push   ax
    1293:	b8 00 00             	mov    ax,0x0
    1296:	8e c0                	mov    es,ax
    1298:	fa                   	cli    
    1299:	26 8c 0e d2 00       	mov    WORD PTR es:0xd2,cs
    129e:	26 c7 06 d0 00 d3 12 	mov    WORD PTR es:0xd0,0x12d3
    12a5:	fb                   	sti    
    12a6:	fa                   	cli    
    12a7:	26 8c 0e d6 00       	mov    WORD PTR es:0xd6,cs
    12ac:	26 c7 06 d4 00 e1 12 	mov    WORD PTR es:0xd4,0x12e1
    12b3:	fb                   	sti    
    12b4:	fa                   	cli    
    12b5:	26 8c 0e da 00       	mov    WORD PTR es:0xda,cs
    12ba:	26 c7 06 d8 00 ef 12 	mov    WORD PTR es:0xd8,0x12ef
    12c1:	fb                   	sti    
    12c2:	fa                   	cli    
    12c3:	26 8c 0e de 00       	mov    WORD PTR es:0xde,cs
    12c8:	26 c7 06 dc 00 fd 12 	mov    WORD PTR es:0xdc,0x12fd
    12cf:	fb                   	sti    
    12d0:	58                   	pop    ax
    12d1:	07                   	pop    es
    12d2:	c3                   	ret    

000012d3 <int34h>:
    12d3:	8c c8                	mov    ax,cs
    12d5:	8e d8                	mov    ds,ax
    12d7:	66 31 c0             	xor    eax,eax
    12da:	b8 9c 59             	mov    ax,0x599c
    12dd:	66 ff d0             	call   eax
    12e0:	cf                   	iret   

000012e1 <int35h>:
    12e1:	8c c8                	mov    ax,cs
    12e3:	8e d8                	mov    ds,ax
    12e5:	66 31 c0             	xor    eax,eax
    12e8:	b8 f7 59             	mov    ax,0x59f7
    12eb:	66 ff d0             	call   eax
    12ee:	cf                   	iret   

000012ef <int36h>:
    12ef:	8c c8                	mov    ax,cs
    12f1:	8e d8                	mov    ds,ax
    12f3:	66 31 c0             	xor    eax,eax
    12f6:	b8 52 5a             	mov    ax,0x5a52
    12f9:	66 ff d0             	call   eax
    12fc:	cf                   	iret   

000012fd <int37h>:
    12fd:	8c c8                	mov    ax,cs
    12ff:	8e d8                	mov    ds,ax
    1301:	66 31 c0             	xor    eax,eax
    1304:	b8 ad 5a             	mov    ax,0x5aad
    1307:	66 ff d0             	call   eax
    130a:	cf                   	iret   

0000130b <_printSentence>:
    130b:	66 55                	push   ebp
    130d:	67 8a 5c 24 18       	mov    bl,BYTE PTR [esp+0x18]
    1312:	67 8b 4c 24 14       	mov    cx,WORD PTR [esp+0x14]
    1317:	67 8a 54 24 10       	mov    dl,BYTE PTR [esp+0x10]
    131c:	67 8a 74 24 0c       	mov    dh,BYTE PTR [esp+0xc]
    1321:	67 8b 6c 24 08       	mov    bp,WORD PTR [esp+0x8]
    1326:	b0 01                	mov    al,0x1
    1328:	b7 00                	mov    bh,0x0
    132a:	1e                   	push   ds
    132b:	07                   	pop    es
    132c:	b4 13                	mov    ah,0x13
    132e:	cd 10                	int    0x10
    1330:	66 5d                	pop    ebp
    1332:	66 59                	pop    ecx
    1334:	ff e1                	jmp    cx

00001336 <_ClearScreen>:
    1336:	60                   	pusha  
    1337:	b4 06                	mov    ah,0x6
    1339:	b0 00                	mov    al,0x0
    133b:	b7 0f                	mov    bh,0xf
    133d:	b5 00                	mov    ch,0x0
    133f:	b1 00                	mov    cl,0x0
    1341:	b6 18                	mov    dh,0x18
    1343:	b2 4f                	mov    dl,0x4f
    1345:	cd 10                	int    0x10
    1347:	61                   	popa   
    1348:	66 59                	pop    ecx
    134a:	ff e1                	jmp    cx

0000134c <_getInput>:
    134c:	c7 06 86 14 00 00    	mov    WORD PTR ds:0x1486,0x0

00001352 <getStr>:
    1352:	b4 00                	mov    ah,0x0
    1354:	cd 16                	int    0x16
    1356:	3c 20                	cmp    al,0x20
    1358:	7c 07                	jl     1361 <nochar>
    135a:	b4 00                	mov    ah,0x0
    135c:	e8 26 00             	call   1385 <Charmini>
    135f:	eb f1                	jmp    1352 <getStr>

00001361 <nochar>:
    1361:	80 fc 0e             	cmp    ah,0xe
    1364:	74 07                	je     136d <backspace>
    1366:	80 fc 1c             	cmp    ah,0x1c
    1369:	74 09                	je     1374 <enter>
    136b:	eb e5                	jmp    1352 <getStr>

0000136d <backspace>:
    136d:	b4 01                	mov    ah,0x1
    136f:	e8 13 00             	call   1385 <Charmini>
    1372:	eb de                	jmp    1352 <getStr>

00001374 <enter>:
    1374:	b0 00                	mov    al,0x0
    1376:	b4 00                	mov    ah,0x0
    1378:	e8 0a 00             	call   1385 <Charmini>
    137b:	66 29 c0             	sub    eax,eax
    137e:	b8 21 14             	mov    ax,0x1421
    1381:	66 59                	pop    ecx
    1383:	ff e1                	jmp    cx

00001385 <Charmini>:
    1385:	53                   	push   bx
    1386:	52                   	push   dx
    1387:	57                   	push   di
    1388:	06                   	push   es
    1389:	80 fc 01             	cmp    ah,0x1
    138c:	0f 8f 8c 00          	jg     141c <Charminiret>
    1390:	88 e3                	mov    bl,ah
    1392:	b7 00                	mov    bh,0x0
    1394:	01 db                	add    bx,bx
    1396:	ff a7 88 14          	jmp    WORD PTR [bx+0x1488]

0000139a <charpush>:
    139a:	80 3e 86 14 64       	cmp    BYTE PTR ds:0x1486,0x64
    139f:	7d 7b                	jge    141c <Charminiret>
    13a1:	8b 1e 86 14          	mov    bx,WORD PTR ds:0x1486
    13a5:	fe 06 86 14          	inc    BYTE PTR ds:0x1486
    13a9:	88 87 21 14          	mov    BYTE PTR [bx+0x1421],al
    13ad:	e8 1a 00             	call   13ca <charshow>
    13b0:	eb 6a                	jmp    141c <Charminiret>

000013b2 <charpop>:
    13b2:	80 3e 86 14 00       	cmp    BYTE PTR ds:0x1486,0x0
    13b7:	7e 63                	jle    141c <Charminiret>
    13b9:	fe 0e 86 14          	dec    BYTE PTR ds:0x1486
    13bd:	8b 1e 86 14          	mov    bx,WORD PTR ds:0x1486
    13c1:	8a 87 21 14          	mov    al,BYTE PTR [bx+0x1421]
    13c5:	e8 24 00             	call   13ec <coverLast>
    13c8:	eb 52                	jmp    141c <Charminiret>

000013ca <charshow>:
    13ca:	66 55                	push   ebp
    13cc:	b7 00                	mov    bh,0x0
    13ce:	b4 03                	mov    ah,0x3
    13d0:	cd 10                	int    0x10
    13d2:	b0 01                	mov    al,0x1
    13d4:	b4 13                	mov    ah,0x13
    13d6:	b7 00                	mov    bh,0x0
    13d8:	b3 0e                	mov    bl,0xe
    13da:	b9 01 00             	mov    cx,0x1
    13dd:	0e                   	push   cs
    13de:	07                   	pop    es
    13df:	bd 21 14             	mov    bp,0x1421
    13e2:	03 2e 86 14          	add    bp,WORD PTR ds:0x1486
    13e6:	4d                   	dec    bp
    13e7:	cd 10                	int    0x10
    13e9:	66 5d                	pop    ebp
    13eb:	c3                   	ret    

000013ec <coverLast>:
    13ec:	b8 00 b8             	mov    ax,0xb800
    13ef:	8e c0                	mov    es,ax
    13f1:	b4 03                	mov    ah,0x3
    13f3:	cd 10                	int    0x10
    13f5:	80 fa 00             	cmp    dl,0x0
    13f8:	7f 04                	jg     13fe <noEndofLine>
    13fa:	b2 50                	mov    dl,0x50
    13fc:	fe ce                	dec    dh

000013fe <noEndofLine>:
    13fe:	fe ca                	dec    dl
    1400:	b4 02                	mov    ah,0x2
    1402:	b7 00                	mov    bh,0x0
    1404:	cd 10                	int    0x10
    1406:	b8 50 00             	mov    ax,0x50
    1409:	f6 e6                	mul    dh
    140b:	b6 00                	mov    dh,0x0
    140d:	01 d0                	add    ax,dx
    140f:	ba 02 00             	mov    dx,0x2
    1412:	f7 e2                	mul    dx
    1414:	89 c3                	mov    bx,ax
    1416:	26 c7 07 20 0f       	mov    WORD PTR es:[bx],0xf20
    141b:	c3                   	ret    

0000141c <Charminiret>:
    141c:	07                   	pop    es
    141d:	5f                   	pop    di
    141e:	5a                   	pop    dx
    141f:	5b                   	pop    bx
    1420:	c3                   	ret    

00001421 <input>:
	...

00001486 <top>:
	...

00001488 <getInputTable>:
    1488:	9a 13 b2 13 ca       	call   0xca13:0xb213
    148d:	13                   	.byte 0x13

0000148e <_shutdown>:
    148e:	60                   	pusha  
    148f:	b8 01 53             	mov    ax,0x5301
    1492:	31 db                	xor    bx,bx
    1494:	cd 15                	int    0x15
    1496:	b8 0e 53             	mov    ax,0x530e
    1499:	b9 02 01             	mov    cx,0x102
    149c:	cd 15                	int    0x15
    149e:	b8 07 53             	mov    ax,0x5307
    14a1:	b3 01                	mov    bl,0x1
    14a3:	b9 03 00             	mov    cx,0x3
    14a6:	cd 15                	int    0x15
    14a8:	61                   	popa   
    14a9:	66 59                	pop    ecx
    14ab:	ff e1                	jmp    cx

000014ad <_loadReal>:
    14ad:	66 55                	push   ebp
    14af:	06                   	push   es
    14b0:	1e                   	push   ds
    14b1:	50                   	push   ax
    14b2:	52                   	push   dx
    14b3:	51                   	push   cx
    14b4:	53                   	push   bx
    14b5:	8c c8                	mov    ax,cs
    14b7:	8e d8                	mov    ds,ax
    14b9:	67 8b 44 24 20       	mov    ax,WORD PTR [esp+0x20]
    14be:	8e c0                	mov    es,ax
    14c0:	67 8b 44 24 14       	mov    ax,WORD PTR [esp+0x14]
    14c5:	ba 00 00             	mov    dx,0x0
    14c8:	b9 00 02             	mov    cx,0x200
    14cb:	f7 f1                	div    cx
    14cd:	b9 12 00             	mov    cx,0x12
    14d0:	f7 f1                	div    cx
    14d2:	88 d1                	mov    cl,dl
    14d4:	fe c1                	inc    cl
    14d6:	89 c2                	mov    dx,ax
    14d8:	d1 e8                	shr    ax,1
    14da:	88 c5                	mov    ch,al
    14dc:	88 d6                	mov    dh,dl
    14de:	80 e6 01             	and    dh,0x1
    14e1:	b2 00                	mov    dl,0x0
    14e3:	51                   	push   cx
    14e4:	67 8b 44 24 1a       	mov    ax,WORD PTR [esp+0x1a]
    14e9:	b9 00 02             	mov    cx,0x200
    14ec:	ba 00 00             	mov    dx,0x0
    14ef:	f7 f1                	div    cx
    14f1:	59                   	pop    cx
    14f2:	67 8b 5c 24 1c       	mov    bx,WORD PTR [esp+0x1c]
    14f7:	b4 02                	mov    ah,0x2
    14f9:	cd 13                	int    0x13
    14fb:	5b                   	pop    bx
    14fc:	59                   	pop    cx
    14fd:	5a                   	pop    dx
    14fe:	58                   	pop    ax
    14ff:	1f                   	pop    ds
    1500:	07                   	pop    es
    1501:	66 5d                	pop    ebp
    1503:	66 59                	pop    ecx
    1505:	ff e1                	jmp    cx

00001507 <save>:
    1507:	83 c4 06             	add    sp,0x6
    150a:	2e 89 26 d3 15       	mov    WORD PTR cs:0x15d3,sp
    150f:	2e 8c 16 d5 15       	mov    WORD PTR cs:0x15d5,ss
    1514:	83 ec 06             	sub    sp,0x6
    1517:	2e 8f 06 ed 15       	pop    WORD PTR cs:0x15ed
    151c:	1e                   	push   ds
    151d:	0e                   	push   cs
    151e:	1f                   	pop    ds
    151f:	56                   	push   si
    1520:	57                   	push   di
    1521:	2e 8b 3e db 15       	mov    di,WORD PTR cs:0x15db
    1526:	2e 8f 06 df 15       	pop    WORD PTR cs:0x15df
    152b:	2e 8f 06 e1 15       	pop    WORD PTR cs:0x15e1
    1530:	2e 8f 06 e3 15       	pop    WORD PTR cs:0x15e3
    1535:	2e 8f 06 e7 15       	pop    WORD PTR cs:0x15e7
    153a:	2e 8f 06 e5 15       	pop    WORD PTR cs:0x15e5
    153f:	8c 55 20             	mov    WORD PTR [di+0x20],ss
    1542:	89 65 1e             	mov    WORD PTR [di+0x1e],sp
    1545:	0e                   	push   cs
    1546:	17                   	pop    ss
    1547:	83 c7 1e             	add    di,0x1e
    154a:	89 fc                	mov    sp,di
    154c:	9c                   	pushf  
    154d:	2e ff 36 e7 15       	push   WORD PTR cs:0x15e7
    1552:	2e ff 36 e5 15       	push   WORD PTR cs:0x15e5
    1557:	60                   	pusha  
    1558:	5f                   	pop    di
    1559:	5f                   	pop    di
    155a:	2e ff 36 e1 15       	push   WORD PTR cs:0x15e1
    155f:	2e ff 36 df 15       	push   WORD PTR cs:0x15df
    1564:	2e ff 36 e3 15       	push   WORD PTR cs:0x15e3
    1569:	06                   	push   es
    156a:	0f a0                	push   fs
    156c:	0f a8                	push   gs
    156e:	2e 8e 16 d5 15       	mov    ss,WORD PTR cs:0x15d5
    1573:	2e a3 d7 15          	mov    cs:0x15d7,ax
    1577:	2e a1 d3 15          	mov    ax,cs:0x15d3
    157b:	89 c4                	mov    sp,ax
    157d:	2e a1 d7 15          	mov    ax,cs:0x15d7
    1581:	2e ff 26 ed 15       	jmp    WORD PTR cs:0x15ed

00001586 <restart>:
    1586:	0e                   	push   cs
    1587:	17                   	pop    ss
    1588:	2e 8f 06 ed 15       	pop    WORD PTR cs:0x15ed
    158d:	2e 8b 26 d9 15       	mov    sp,WORD PTR cs:0x15d9
    1592:	89 e0                	mov    ax,sp
    1594:	83 c0 18             	add    ax,0x18
    1597:	2e a3 eb 15          	mov    cs:0x15eb,ax
    159b:	0f a9                	pop    gs
    159d:	0f a1                	pop    fs
    159f:	07                   	pop    es
    15a0:	1f                   	pop    ds
    15a1:	61                   	popa   
    15a2:	2e 8b 26 eb 15       	mov    sp,WORD PTR cs:0x15eb
    15a7:	2e 8f 06 e5 15       	pop    WORD PTR cs:0x15e5
    15ac:	2e 8f 06 e7 15       	pop    WORD PTR cs:0x15e7
    15b1:	9d                   	popf   
    15b2:	2e 8f 06 eb 15       	pop    WORD PTR cs:0x15eb
    15b7:	17                   	pop    ss
    15b8:	2e a3 dd 15          	mov    cs:0x15dd,ax
    15bc:	2e a1 eb 15          	mov    ax,cs:0x15eb
    15c0:	89 c4                	mov    sp,ax
    15c2:	2e a1 dd 15          	mov    ax,cs:0x15dd
    15c6:	fb                   	sti    
    15c7:	9c                   	pushf  
    15c8:	2e ff 36 e7 15       	push   WORD PTR cs:0x15e7
    15cd:	2e ff 36 e5 15       	push   WORD PTR cs:0x15e5
    15d2:	cf                   	iret   

000015d3 <store_sp_dispatch>:
	...

000015d5 <store_ss_dispatch>:
	...

000015d7 <store_ax_dispatch>:
	...

000015d9 <new_process>:
	...

000015db <old_process>:
	...

000015dd <store_ax>:
	...

000015df <store_di>:
	...

000015e1 <store_si>:
	...

000015e3 <store_ds>:
	...

000015e5 <store_ip>:
	...

000015e7 <store_cs>:
	...

000015e9 <store_ss>:
	...

000015eb <store_sp>:
	...

000015ed <store_retaddr>:
	...

000015ef <_reboot>:
    15ef:	cd 19                	int    0x19

000015f1 <_getDate>:
    15f1:	60                   	pusha  
    15f2:	b4 04                	mov    ah,0x4
    15f4:	cd 1a                	int    0x1a
    15f6:	88 cb                	mov    bl,cl
    15f8:	88 d8                	mov    al,bl
    15fa:	24 f0                	and    al,0xf0
    15fc:	b1 04                	mov    cl,0x4
    15fe:	d2 e8                	shr    al,cl
    1600:	80 e3 0f             	and    bl,0xf
    1603:	88 dc                	mov    ah,bl
    1605:	05 30 30             	add    ax,0x3030
    1608:	c7 06 56 16 32 30    	mov    WORD PTR ds:0x1656,0x3032
    160e:	a3 58 16             	mov    ds:0x1658,ax
    1611:	88 f3                	mov    bl,dh
    1613:	88 d8                	mov    al,bl
    1615:	24 f0                	and    al,0xf0
    1617:	b1 04                	mov    cl,0x4
    1619:	d2 e8                	shr    al,cl
    161b:	80 e3 0f             	and    bl,0xf
    161e:	88 dc                	mov    ah,bl
    1620:	05 30 30             	add    ax,0x3030
    1623:	a3 53 16             	mov    ds:0x1653,ax
    1626:	c6 06 55 16 2f       	mov    BYTE PTR ds:0x1655,0x2f
    162b:	88 d3                	mov    bl,dl
    162d:	88 d8                	mov    al,bl
    162f:	24 f0                	and    al,0xf0
    1631:	b1 04                	mov    cl,0x4
    1633:	d2 e8                	shr    al,cl
    1635:	80 e3 0f             	and    bl,0xf
    1638:	88 dc                	mov    ah,bl
    163a:	05 30 30             	add    ax,0x3030
    163d:	a3 50 16             	mov    ds:0x1650,ax
    1640:	c6 06 52 16 2f       	mov    BYTE PTR ds:0x1652,0x2f
    1645:	61                   	popa   
    1646:	66 31 c0             	xor    eax,eax
    1649:	b8 50 16             	mov    ax,0x1650
    164c:	66 59                	pop    ecx
    164e:	ff e1                	jmp    cx

00001650 <date>:
	...

0000165b <_roll>:
    165b:	66 55                	push   ebp
    165d:	b4 06                	mov    ah,0x6
    165f:	b0 01                	mov    al,0x1
    1661:	b7 0f                	mov    bh,0xf
    1663:	b9 00 00             	mov    cx,0x0
    1666:	ba 4f 18             	mov    dx,0x184f
    1669:	cd 10                	int    0x10
    166b:	66 5d                	pop    ebp
    166d:	66 59                	pop    ecx
    166f:	ff e1                	jmp    cx

00001671 <lastline>:
	...

00001df1 <_getRecords>:
    1df1:	66 55                	push   ebp
    1df3:	8c c8                	mov    ax,cs
    1df5:	67 8b 44 24 08       	mov    ax,WORD PTR [esp+0x8]
    1dfa:	8e c0                	mov    es,ax
    1dfc:	66 31 db             	xor    ebx,ebx
    1dff:	66 67 8b 5c 24 0c    	mov    ebx,DWORD PTR [esp+0xc]
    1e05:	66 31 c0             	xor    eax,eax
    1e08:	66 89 d8             	mov    eax,ebx
    1e0b:	66 5d                	pop    ebp
    1e0d:	66 59                	pop    ecx
    1e0f:	ff e1                	jmp    cx

00001e11 <_fork>:
    1e11:	60                   	pusha  
    1e12:	b4 08                	mov    ah,0x8
    1e14:	cd 21                	int    0x21
    1e16:	61                   	popa   
    1e17:	c3                   	ret    

00001e18 <_exitprg>:
    1e18:	66 55                	push   ebp
    1e1a:	66 89 e5             	mov    ebp,esp
    1e1d:	60                   	pusha  
    1e1e:	36 67 8b 5d 08       	mov    bx,WORD PTR ss:[ebp+0x8]
    1e23:	b4 06                	mov    ah,0x6
    1e25:	cd 21                	int    0x21
    1e27:	61                   	popa   
    1e28:	66 89 ec             	mov    esp,ebp
    1e2b:	66 5d                	pop    ebp
    1e2d:	c3                   	ret    

00001e2e <_wait>:
    1e2e:	66 55                	push   ebp
    1e30:	66 89 e5             	mov    ebp,esp
    1e33:	60                   	pusha  
    1e34:	36 67 8b 5d 08       	mov    bx,WORD PTR ss:[ebp+0x8]
    1e39:	b4 07                	mov    ah,0x7
    1e3b:	cd 21                	int    0x21
    1e3d:	61                   	popa   
    1e3e:	66 89 ec             	mov    esp,ebp
    1e41:	66 5d                	pop    ebp
    1e43:	c3                   	ret    

00001e44 <_memcpy>:
    1e44:	66 55                	push   ebp
    1e46:	66 89 e5             	mov    ebp,esp
    1e49:	60                   	pusha  
    1e4a:	1e                   	push   ds
    1e4b:	06                   	push   es
    1e4c:	36 67 8b 45 08       	mov    ax,WORD PTR ss:[ebp+0x8]
    1e51:	8e d8                	mov    ds,ax
    1e53:	36 67 8b 75 0c       	mov    si,WORD PTR ss:[ebp+0xc]
    1e58:	36 67 8b 45 10       	mov    ax,WORD PTR ss:[ebp+0x10]
    1e5d:	8e c0                	mov    es,ax
    1e5f:	36 67 8b 7d 14       	mov    di,WORD PTR ss:[ebp+0x14]
    1e64:	36 67 8b 4d 18       	mov    cx,WORD PTR ss:[ebp+0x18]
    1e69:	f3 a4                	rep movs BYTE PTR es:[di],BYTE PTR ds:[si]
    1e6b:	07                   	pop    es
    1e6c:	1f                   	pop    ds
    1e6d:	61                   	popa   
    1e6e:	66 89 ec             	mov    esp,ebp
    1e71:	66 5d                	pop    ebp
    1e73:	66 59                	pop    ecx
    1e75:	ff e1                	jmp    cx

00001e77 <_write>:
    1e77:	66 55                	push   ebp
    1e79:	06                   	push   es
    1e7a:	1e                   	push   ds
    1e7b:	50                   	push   ax
    1e7c:	52                   	push   dx
    1e7d:	51                   	push   cx
    1e7e:	53                   	push   bx
    1e7f:	8c c8                	mov    ax,cs
    1e81:	8e d8                	mov    ds,ax
    1e83:	67 8b 44 24 20       	mov    ax,WORD PTR [esp+0x20]
    1e88:	8e c0                	mov    es,ax
    1e8a:	67 8b 44 24 14       	mov    ax,WORD PTR [esp+0x14]
    1e8f:	ba 00 00             	mov    dx,0x0
    1e92:	b9 00 02             	mov    cx,0x200
    1e95:	f7 f1                	div    cx
    1e97:	b9 12 00             	mov    cx,0x12
    1e9a:	f7 f1                	div    cx
    1e9c:	88 d1                	mov    cl,dl
    1e9e:	fe c1                	inc    cl
    1ea0:	89 c2                	mov    dx,ax
    1ea2:	d1 e8                	shr    ax,1
    1ea4:	88 c5                	mov    ch,al
    1ea6:	88 d6                	mov    dh,dl
    1ea8:	80 e6 01             	and    dh,0x1
    1eab:	b2 00                	mov    dl,0x0
    1ead:	51                   	push   cx
    1eae:	67 8b 44 24 1a       	mov    ax,WORD PTR [esp+0x1a]
    1eb3:	b9 00 02             	mov    cx,0x200
    1eb6:	ba 00 00             	mov    dx,0x0
    1eb9:	f7 f1                	div    cx
    1ebb:	59                   	pop    cx
    1ebc:	67 8b 5c 24 1c       	mov    bx,WORD PTR [esp+0x1c]
    1ec1:	b4 03                	mov    ah,0x3
    1ec3:	cd 13                	int    0x13
    1ec5:	5b                   	pop    bx
    1ec6:	59                   	pop    cx
    1ec7:	5a                   	pop    dx
    1ec8:	58                   	pop    ax
    1ec9:	1f                   	pop    ds
    1eca:	07                   	pop    es
    1ecb:	66 5d                	pop    ebp
    1ecd:	66 59                	pop    ecx
    1ecf:	ff e1                	jmp    cx
    1ed1:	66 90                	xchg   eax,eax
    1ed3:	66 90                	xchg   eax,eax
    1ed5:	66 90                	xchg   eax,eax
    1ed7:	66 90                	xchg   eax,eax
    1ed9:	66 90                	xchg   eax,eax
    1edb:	66 90                	xchg   eax,eax
    1edd:	66 90                	xchg   eax,eax
    1edf:	90                   	nop

00001ee0 <_countLines>:
countLines():
D:\OneDrive\Study\Operating Systems\实验\project6\codes/./lib/utilsC.c:38
void initialProcessTable();
/////////// inside declarations end ////////////

//////////// IO ////////////////////
int countLines(char * sen)
{
    1ee0:	66 55                	push   ebp
    1ee2:	66 89 e5             	mov    ebp,esp
    1ee5:	66 83 ec 08          	sub    esp,0x8
D:\OneDrive\Study\Operating Systems\实验\project6\codes/./lib/utilsC.c:39
	int lines = 0;
    1ee9:	67 66 c7 45 fc 00 00 	mov    DWORD PTR [ebp-0x4],0x0
    1ef0:	00 00 
D:\OneDrive\Study\Operating Systems\实验\project6\codes/./lib/utilsC.c:40
	for(int i = 0; sen[i]; ++i) {
    1ef2:	67 66 c7 45 f8 00 00 	mov    DWORD PTR [ebp-0x8],0x0
    1ef9:	00 00 
    1efb:	eb 1e                	jmp    1f1b <_countLines+0x3b>
D:\OneDrive\Study\Operating Systems\实验\project6\codes/./lib/utilsC.c:41
		if(sen[i] == '\n') {
    1efd:	67 66 8b 55 f8       	mov    edx,DWORD PTR [ebp-0x8]
    1f02:	67 66 8b 45 08       	mov    eax,DWORD PTR [ebp+0x8]
    1f07:	66 01 d0             	add    eax,edx
    1f0a:	67 8a 00             	mov    al,BYTE PTR [eax]
    1f0d:	3c 0a                	cmp    al,0xa
    1f0f:	75 05                	jne    1f16 <_countLines+0x36>
D:\OneDrive\Study\Operating Systems\实验\project6\codes/./lib/utilsC.c:42
			++lines;
    1f11:	67 66 ff 45 fc       	inc    DWORD PTR [ebp-0x4]
D:\OneDrive\Study\Operating Systems\实验\project6\codes/./lib/utilsC.c:40
	for(int i = 0; sen[i]; ++i) {
    1f16:	67 66 ff 45 f8       	inc    DWORD PTR [ebp-0x8]
    1f1b:	67 66 8b 55 f8       	mov    edx,DWORD PTR [ebp-0x8]
    1f20:	67 66 8b 45 08       	mov    eax,DWORD PTR [ebp+0x8]
    1f25:	66 01 d0             	add    eax,edx
    1f28:	67 8a 00             	mov    al,BYTE PTR [eax]
    1f2b:	84 c0                	test   al,al
    1f2d:	75 ce                	jne    1efd <_countLines+0x1d>
D:\OneDrive\Study\Operating Systems\实验\project6\codes/./lib/utilsC.c:45
		}
	}
	lines += 1;
    1f2f:	67 66 ff 45 fc       	inc    DWORD PTR [ebp-0x4]
D:\OneDrive\Study\Operating Systems\实验\project6\codes/./lib/utilsC.c:46
	return lines;
    1f34:	67 66 8b 45 fc       	mov    eax,DWORD PTR [ebp-0x4]
D:\OneDrive\Study\Operating Systems\实验\project6\codes/./lib/utilsC.c:47
}
    1f39:	66 c9                	leave  
    1f3b:	66 c3                	ret    

00001f3d <_initialScreen>:
initialScreen():
D:\OneDrive\Study\Operating Systems\实验\project6\codes/./lib/utilsC.c:50

void initialScreen(int welcome)
{
    1f3d:	66 55                	push   ebp
    1f3f:	66 89 e5             	mov    ebp,esp
    1f42:	66 83 ec 14          	sub    esp,0x14
D:\OneDrive\Study\Operating Systems\实验\project6\codes/./lib/utilsC.c:51
	clear();
    1f46:	66 e8 d3 00 00 00    	call   201f <_clear>
D:\OneDrive\Study\Operating Systems\实验\project6\codes/./lib/utilsC.c:52
	if(welcome) {
    1f4c:	67 66 83 7d 08 00    	cmp    DWORD PTR [ebp+0x8],0x0
    1f52:	74 63                	je     1fb7 <_initialScreen+0x7a>
D:\OneDrive\Study\Operating Systems\实验\project6\codes/./lib/utilsC.c:53
		printSentence(WelcomeSentence, line, 0, strlen(WelcomeSentence), white);
    1f54:	66 a1 08 5b          	mov    eax,ds:0x5b08
    1f58:	67 66 89 04 24       	mov    DWORD PTR [esp],eax
    1f5d:	66 e8 48 0a 00 00    	call   29ab <_strlen>
    1f63:	66 89 c1             	mov    ecx,eax
    1f66:	66 8b 16 a0 81       	mov    edx,DWORD PTR ds:0x81a0
    1f6b:	66 a1 08 5b          	mov    eax,ds:0x5b08
    1f6f:	67 66 c7 44 24 10 0f 	mov    DWORD PTR [esp+0x10],0xf
    1f76:	00 00 00 
    1f79:	67 66 89 4c 24 0c    	mov    DWORD PTR [esp+0xc],ecx
    1f7f:	67 66 c7 44 24 08 00 	mov    DWORD PTR [esp+0x8],0x0
    1f86:	00 00 00 
    1f89:	67 66 89 54 24 04    	mov    DWORD PTR [esp+0x4],edx
    1f8f:	67 66 89 04 24       	mov    DWORD PTR [esp],eax
    1f94:	66 e8 71 f3 ff ff    	call   130b <_printSentence>
D:\OneDrive\Study\Operating Systems\实验\project6\codes/./lib/utilsC.c:54
		line += countLines(WelcomeSentence);
    1f9a:	66 a1 08 5b          	mov    eax,ds:0x5b08
    1f9e:	67 66 89 04 24       	mov    DWORD PTR [esp],eax
    1fa3:	66 e8 37 ff ff ff    	call   1ee0 <_countLines>
    1fa9:	66 89 c2             	mov    edx,eax
    1fac:	66 a1 a0 81          	mov    eax,ds:0x81a0
    1fb0:	66 01 d0             	add    eax,edx
    1fb3:	66 a3 a0 81          	mov    ds:0x81a0,eax
D:\OneDrive\Study\Operating Systems\实验\project6\codes/./lib/utilsC.c:56
	}
	printSentence(prompt, line, 0, strlen(prompt), white);
    1fb7:	66 a1 0c 5b          	mov    eax,ds:0x5b0c
    1fbb:	67 66 89 04 24       	mov    DWORD PTR [esp],eax
    1fc0:	66 e8 e5 09 00 00    	call   29ab <_strlen>
    1fc6:	66 89 c1             	mov    ecx,eax
    1fc9:	66 8b 16 a0 81       	mov    edx,DWORD PTR ds:0x81a0
    1fce:	66 a1 0c 5b          	mov    eax,ds:0x5b0c
    1fd2:	67 66 c7 44 24 10 0f 	mov    DWORD PTR [esp+0x10],0xf
    1fd9:	00 00 00 
    1fdc:	67 66 89 4c 24 0c    	mov    DWORD PTR [esp+0xc],ecx
    1fe2:	67 66 c7 44 24 08 00 	mov    DWORD PTR [esp+0x8],0x0
    1fe9:	00 00 00 
    1fec:	67 66 89 54 24 04    	mov    DWORD PTR [esp+0x4],edx
    1ff2:	67 66 89 04 24       	mov    DWORD PTR [esp],eax
    1ff7:	66 e8 0e f3 ff ff    	call   130b <_printSentence>
D:\OneDrive\Study\Operating Systems\实验\project6\codes/./lib/utilsC.c:57
	line += countLines(prompt);
    1ffd:	66 a1 0c 5b          	mov    eax,ds:0x5b0c
    2001:	67 66 89 04 24       	mov    DWORD PTR [esp],eax
    2006:	66 e8 d4 fe ff ff    	call   1ee0 <_countLines>
    200c:	66 89 c2             	mov    edx,eax
    200f:	66 a1 a0 81          	mov    eax,ds:0x81a0
    2013:	66 01 d0             	add    eax,edx
    2016:	66 a3 a0 81          	mov    ds:0x81a0,eax
D:\OneDrive\Study\Operating Systems\实验\project6\codes/./lib/utilsC.c:58
}
    201a:	90                   	nop
    201b:	66 c9                	leave  
    201d:	66 c3                	ret    

0000201f <_clear>:
clear():
D:\OneDrive\Study\Operating Systems\实验\project6\codes/./lib/utilsC.c:61

void clear()
{
    201f:	66 55                	push   ebp
    2021:	66 89 e5             	mov    ebp,esp
D:\OneDrive\Study\Operating Systems\实验\project6\codes/./lib/utilsC.c:62
	line = 0;
    2024:	66 c7 06 a0 81 00 00 	mov    DWORD PTR ds:0x81a0,0x0
    202b:	00 00 
D:\OneDrive\Study\Operating Systems\实验\project6\codes/./lib/utilsC.c:63
	ClearScreen();
    202d:	66 e8 03 f3 ff ff    	call   1336 <_ClearScreen>
D:\OneDrive\Study\Operating Systems\实验\project6\codes/./lib/utilsC.c:64
}
    2033:	90                   	nop
    2034:	66 5d                	pop    ebp
    2036:	66 c3                	ret    

00002038 <_date>:
date():
D:\OneDrive\Study\Operating Systems\实验\project6\codes/./lib/utilsC.c:67

void date()
{
    2038:	66 55                	push   ebp
    203a:	66 89 e5             	mov    ebp,esp
    203d:	66 83 ec 18          	sub    esp,0x18
D:\OneDrive\Study\Operating Systems\实验\project6\codes/./lib/utilsC.c:68
	char * dateSen = getDate();
    2041:	66 e8 aa f5 ff ff    	call   15f1 <_getDate>
    2047:	67 66 89 45 fc       	mov    DWORD PTR [ebp-0x4],eax
D:\OneDrive\Study\Operating Systems\实验\project6\codes/./lib/utilsC.c:69
	printSentence(dateSen, line, 30, strlen(dateSen), purple);
    204c:	67 66 8b 45 fc       	mov    eax,DWORD PTR [ebp-0x4]
    2051:	67 66 89 04 24       	mov    DWORD PTR [esp],eax
    2056:	66 e8 4f 09 00 00    	call   29ab <_strlen>
    205c:	66 89 c2             	mov    edx,eax
    205f:	66 a1 a0 81          	mov    eax,ds:0x81a0
    2063:	67 66 c7 44 24 10 0d 	mov    DWORD PTR [esp+0x10],0xd
    206a:	00 00 00 
    206d:	67 66 89 54 24 0c    	mov    DWORD PTR [esp+0xc],edx
    2073:	67 66 c7 44 24 08 1e 	mov    DWORD PTR [esp+0x8],0x1e
    207a:	00 00 00 
    207d:	67 66 89 44 24 04    	mov    DWORD PTR [esp+0x4],eax
    2083:	67 66 8b 45 fc       	mov    eax,DWORD PTR [ebp-0x4]
    2088:	67 66 89 04 24       	mov    DWORD PTR [esp],eax
    208d:	66 e8 78 f2 ff ff    	call   130b <_printSentence>
D:\OneDrive\Study\Operating Systems\实验\project6\codes/./lib/utilsC.c:70
	newline();
    2093:	66 e8 c3 00 00 00    	call   215c <_newline>
D:\OneDrive\Study\Operating Systems\实验\project6\codes/./lib/utilsC.c:71
	line += countLines(dateSen);
    2099:	67 66 8b 45 fc       	mov    eax,DWORD PTR [ebp-0x4]
    209e:	67 66 89 04 24       	mov    DWORD PTR [esp],eax
    20a3:	66 e8 37 fe ff ff    	call   1ee0 <_countLines>
    20a9:	66 89 c2             	mov    edx,eax
    20ac:	66 a1 a0 81          	mov    eax,ds:0x81a0
    20b0:	66 01 d0             	add    eax,edx
    20b3:	66 a3 a0 81          	mov    ds:0x81a0,eax
D:\OneDrive\Study\Operating Systems\实验\project6\codes/./lib/utilsC.c:72
}
    20b7:	90                   	nop
    20b8:	66 c9                	leave  
    20ba:	66 c3                	ret    

000020bc <_man>:
man():
D:\OneDrive\Study\Operating Systems\实验\project6\codes/./lib/utilsC.c:76


void man()
{
    20bc:	66 55                	push   ebp
    20be:	66 89 e5             	mov    ebp,esp
    20c1:	66 83 ec 18          	sub    esp,0x18
D:\OneDrive\Study\Operating Systems\实验\project6\codes/./lib/utilsC.c:77
	char * manual = getRecords(segOfOs, offsetOfManual);
    20c5:	67 66 c7 44 24 04 00 	mov    DWORD PTR [esp+0x4],0xd500
    20cc:	d5 00 00 
    20cf:	67 66 c7 04 24 00 20 	mov    DWORD PTR [esp],0x2000
    20d6:	00 00 
    20d8:	66 e8 13 fd ff ff    	call   1df1 <_getRecords>
    20de:	67 66 89 45 fc       	mov    DWORD PTR [ebp-0x4],eax
D:\OneDrive\Study\Operating Systems\实验\project6\codes/./lib/utilsC.c:78
	line = 0;
    20e3:	66 c7 06 a0 81 00 00 	mov    DWORD PTR ds:0x81a0,0x0
    20ea:	00 00 
D:\OneDrive\Study\Operating Systems\实验\project6\codes/./lib/utilsC.c:79
	ClearScreen();
    20ec:	66 e8 44 f2 ff ff    	call   1336 <_ClearScreen>
D:\OneDrive\Study\Operating Systems\实验\project6\codes/./lib/utilsC.c:80
	printSentence(manual, line, 0, strlen(manual), purple);
    20f2:	67 66 8b 45 fc       	mov    eax,DWORD PTR [ebp-0x4]
    20f7:	67 66 89 04 24       	mov    DWORD PTR [esp],eax
    20fc:	66 e8 a9 08 00 00    	call   29ab <_strlen>
    2102:	66 89 c2             	mov    edx,eax
    2105:	66 a1 a0 81          	mov    eax,ds:0x81a0
    2109:	67 66 c7 44 24 10 0d 	mov    DWORD PTR [esp+0x10],0xd
    2110:	00 00 00 
    2113:	67 66 89 54 24 0c    	mov    DWORD PTR [esp+0xc],edx
    2119:	67 66 c7 44 24 08 00 	mov    DWORD PTR [esp+0x8],0x0
    2120:	00 00 00 
    2123:	67 66 89 44 24 04    	mov    DWORD PTR [esp+0x4],eax
    2129:	67 66 8b 45 fc       	mov    eax,DWORD PTR [ebp-0x4]
    212e:	67 66 89 04 24       	mov    DWORD PTR [esp],eax
    2133:	66 e8 d2 f1 ff ff    	call   130b <_printSentence>
D:\OneDrive\Study\Operating Systems\实验\project6\codes/./lib/utilsC.c:81
	line += countLines(manual);
    2139:	67 66 8b 45 fc       	mov    eax,DWORD PTR [ebp-0x4]
    213e:	67 66 89 04 24       	mov    DWORD PTR [esp],eax
    2143:	66 e8 97 fd ff ff    	call   1ee0 <_countLines>
    2149:	66 89 c2             	mov    edx,eax
    214c:	66 a1 a0 81          	mov    eax,ds:0x81a0
    2150:	66 01 d0             	add    eax,edx
    2153:	66 a3 a0 81          	mov    ds:0x81a0,eax
D:\OneDrive\Study\Operating Systems\实验\project6\codes/./lib/utilsC.c:82
}
    2157:	90                   	nop
    2158:	66 c9                	leave  
    215a:	66 c3                	ret    

0000215c <_newline>:
newline():
D:\OneDrive\Study\Operating Systems\实验\project6\codes/./lib/utilsC.c:85

void newline()
{
    215c:	66 55                	push   ebp
    215e:	66 89 e5             	mov    ebp,esp
    2161:	66 83 ec 14          	sub    esp,0x14
D:\OneDrive\Study\Operating Systems\实验\project6\codes/./lib/utilsC.c:86
	if(line >= 25) {
    2165:	66 a1 a0 81          	mov    eax,ds:0x81a0
    2169:	66 83 f8 18          	cmp    eax,0x18
    216d:	7e 0f                	jle    217e <_newline+0x22>
D:\OneDrive\Study\Operating Systems\实验\project6\codes/./lib/utilsC.c:87
		roll();
    216f:	66 e8 e6 f4 ff ff    	call   165b <_roll>
D:\OneDrive\Study\Operating Systems\实验\project6\codes/./lib/utilsC.c:88
		line = 24;
    2175:	66 c7 06 a0 81 18 00 	mov    DWORD PTR ds:0x81a0,0x18
    217c:	00 00 
D:\OneDrive\Study\Operating Systems\实验\project6\codes/./lib/utilsC.c:90
	}
	printSentence(prompt, line, 0, strlen(prompt), white);
    217e:	66 a1 0c 5b          	mov    eax,ds:0x5b0c
    2182:	67 66 89 04 24       	mov    DWORD PTR [esp],eax
    2187:	66 e8 1e 08 00 00    	call   29ab <_strlen>
    218d:	66 89 c1             	mov    ecx,eax
    2190:	66 8b 16 a0 81       	mov    edx,DWORD PTR ds:0x81a0
    2195:	66 a1 0c 5b          	mov    eax,ds:0x5b0c
    2199:	67 66 c7 44 24 10 0f 	mov    DWORD PTR [esp+0x10],0xf
    21a0:	00 00 00 
    21a3:	67 66 89 4c 24 0c    	mov    DWORD PTR [esp+0xc],ecx
    21a9:	67 66 c7 44 24 08 00 	mov    DWORD PTR [esp+0x8],0x0
    21b0:	00 00 00 
    21b3:	67 66 89 54 24 04    	mov    DWORD PTR [esp+0x4],edx
    21b9:	67 66 89 04 24       	mov    DWORD PTR [esp],eax
    21be:	66 e8 47 f1 ff ff    	call   130b <_printSentence>
D:\OneDrive\Study\Operating Systems\实验\project6\codes/./lib/utilsC.c:91
	line += countLines(prompt);
    21c4:	66 a1 0c 5b          	mov    eax,ds:0x5b0c
    21c8:	67 66 89 04 24       	mov    DWORD PTR [esp],eax
    21cd:	66 e8 0d fd ff ff    	call   1ee0 <_countLines>
    21d3:	66 89 c2             	mov    edx,eax
    21d6:	66 a1 a0 81          	mov    eax,ds:0x81a0
    21da:	66 01 d0             	add    eax,edx
    21dd:	66 a3 a0 81          	mov    ds:0x81a0,eax
D:\OneDrive\Study\Operating Systems\实验\project6\codes/./lib/utilsC.c:92
}
    21e1:	90                   	nop
    21e2:	66 c9                	leave  
    21e4:	66 c3                	ret    

000021e6 <_ls>:
ls():
D:\OneDrive\Study\Operating Systems\实验\project6\codes/./lib/utilsC.c:95

void ls()
{
    21e6:	66 55                	push   ebp
    21e8:	66 89 e5             	mov    ebp,esp
    21eb:	66 57                	push   edi
    21ed:	66 53                	push   ebx
    21ef:	66 83 ec 38          	sub    esp,0x38
D:\OneDrive\Study\Operating Systems\实验\project6\codes/./lib/utilsC.c:96
	char * head = "Name           Size           Lma            Type";
    21f3:	67 66 c7 45 f0 70 60 	mov    DWORD PTR [ebp-0x10],0x6070
    21fa:	00 00 
D:\OneDrive\Study\Operating Systems\实验\project6\codes/./lib/utilsC.c:97
	printSentence(head, line, 10, strlen(head), green);
    21fc:	67 66 8b 45 f0       	mov    eax,DWORD PTR [ebp-0x10]
    2201:	67 66 89 04 24       	mov    DWORD PTR [esp],eax
    2206:	66 e8 9f 07 00 00    	call   29ab <_strlen>
    220c:	66 89 c2             	mov    edx,eax
    220f:	66 a1 a0 81          	mov    eax,ds:0x81a0
    2213:	67 66 c7 44 24 10 0a 	mov    DWORD PTR [esp+0x10],0xa
    221a:	00 00 00 
    221d:	67 66 89 54 24 0c    	mov    DWORD PTR [esp+0xc],edx
    2223:	67 66 c7 44 24 08 0a 	mov    DWORD PTR [esp+0x8],0xa
    222a:	00 00 00 
    222d:	67 66 89 44 24 04    	mov    DWORD PTR [esp+0x4],eax
    2233:	67 66 8b 45 f0       	mov    eax,DWORD PTR [ebp-0x10]
    2238:	67 66 89 04 24       	mov    DWORD PTR [esp],eax
    223d:	66 e8 c8 f0 ff ff    	call   130b <_printSentence>
D:\OneDrive\Study\Operating Systems\实验\project6\codes/./lib/utilsC.c:98
	char typeTable[10][1] = {"N", "D", "E", "F"};
    2243:	67 66 8d 55 e6       	lea    edx,[ebp-0x1a]
    2248:	66 b9 0a 00 00 00    	mov    ecx,0xa
    224e:	b0 00                	mov    al,0x0
    2250:	66 89 d7             	mov    edi,edx
    2253:	f3 aa                	rep stos BYTE PTR es:[di],al
    2255:	67 c6 45 e6 4e       	mov    BYTE PTR [ebp-0x1a],0x4e
    225a:	67 c6 45 e7 44       	mov    BYTE PTR [ebp-0x19],0x44
    225f:	67 c6 45 e8 45       	mov    BYTE PTR [ebp-0x18],0x45
    2264:	67 c6 45 e9 46       	mov    BYTE PTR [ebp-0x17],0x46
D:\OneDrive\Study\Operating Systems\实验\project6\codes/./lib/utilsC.c:99
	line += countLines(head);
    2269:	67 66 8b 45 f0       	mov    eax,DWORD PTR [ebp-0x10]
    226e:	67 66 89 04 24       	mov    DWORD PTR [esp],eax
    2273:	66 e8 67 fc ff ff    	call   1ee0 <_countLines>
    2279:	66 89 c2             	mov    edx,eax
    227c:	66 a1 a0 81          	mov    eax,ds:0x81a0
    2280:	66 01 d0             	add    eax,edx
    2283:	66 a3 a0 81          	mov    ds:0x81a0,eax
D:\OneDrive\Study\Operating Systems\实验\project6\codes/./lib/utilsC.c:101
	char tmp[15];
	for(int i = 0; i < Len; ++i) 
    2287:	67 66 c7 45 f4 00 00 	mov    DWORD PTR [ebp-0xc],0x0
    228e:	00 00 
    2290:	e9 03 03             	jmp    2596 <_ls+0x3b0>
D:\OneDrive\Study\Operating Systems\实验\project6\codes/./lib/utilsC.c:103
	{
		if(information[i].type != null && information[i].deleted != 1) {
    2293:	67 66 8b 55 f4       	mov    edx,DWORD PTR [ebp-0xc]
    2298:	66 89 d0             	mov    eax,edx
    229b:	66 01 c0             	add    eax,eax
    229e:	66 01 d0             	add    eax,edx
    22a1:	66 c1 e0 02          	shl    eax,0x2
    22a5:	66 01 d0             	add    eax,edx
    22a8:	66 c1 e0 02          	shl    eax,0x2
    22ac:	66 05 e0 87 00 00    	add    eax,0x87e0
    22b2:	67 66 8b 00          	mov    eax,DWORD PTR [eax]
    22b6:	66 85 c0             	test   eax,eax
    22b9:	0f 84 d4 02          	je     2591 <_ls+0x3ab>
    22bd:	67 66 8b 55 f4       	mov    edx,DWORD PTR [ebp-0xc]
    22c2:	66 89 d0             	mov    eax,edx
    22c5:	66 01 c0             	add    eax,eax
    22c8:	66 01 d0             	add    eax,edx
    22cb:	66 c1 e0 02          	shl    eax,0x2
    22cf:	66 01 d0             	add    eax,edx
    22d2:	66 c1 e0 02          	shl    eax,0x2
    22d6:	66 05 ec 87 00 00    	add    eax,0x87ec
    22dc:	67 66 8b 00          	mov    eax,DWORD PTR [eax]
    22e0:	66 83 f8 01          	cmp    eax,0x1
    22e4:	0f 84 a9 02          	je     2591 <_ls+0x3ab>
D:\OneDrive\Study\Operating Systems\实验\project6\codes/./lib/utilsC.c:104
			printSentence(information[i].name, line, 10, strlen(information[i].name), purple);
    22e8:	67 66 8b 55 f4       	mov    edx,DWORD PTR [ebp-0xc]
    22ed:	66 89 d0             	mov    eax,edx
    22f0:	66 01 c0             	add    eax,eax
    22f3:	66 01 d0             	add    eax,edx
    22f6:	66 c1 e0 02          	shl    eax,0x2
    22fa:	66 01 d0             	add    eax,edx
    22fd:	66 c1 e0 02          	shl    eax,0x2
    2301:	66 05 c0 87 00 00    	add    eax,0x87c0
    2307:	67 66 89 04 24       	mov    DWORD PTR [esp],eax
    230c:	66 e8 99 06 00 00    	call   29ab <_strlen>
    2312:	66 89 c3             	mov    ebx,eax
    2315:	66 8b 0e a0 81       	mov    ecx,DWORD PTR ds:0x81a0
    231a:	67 66 8b 55 f4       	mov    edx,DWORD PTR [ebp-0xc]
    231f:	66 89 d0             	mov    eax,edx
    2322:	66 01 c0             	add    eax,eax
    2325:	66 01 d0             	add    eax,edx
    2328:	66 c1 e0 02          	shl    eax,0x2
    232c:	66 01 d0             	add    eax,edx
    232f:	66 c1 e0 02          	shl    eax,0x2
    2333:	66 05 c0 87 00 00    	add    eax,0x87c0
    2339:	67 66 c7 44 24 10 0d 	mov    DWORD PTR [esp+0x10],0xd
    2340:	00 00 00 
    2343:	67 66 89 5c 24 0c    	mov    DWORD PTR [esp+0xc],ebx
    2349:	67 66 c7 44 24 08 0a 	mov    DWORD PTR [esp+0x8],0xa
    2350:	00 00 00 
    2353:	67 66 89 4c 24 04    	mov    DWORD PTR [esp+0x4],ecx
    2359:	67 66 89 04 24       	mov    DWORD PTR [esp],eax
    235e:	66 e8 a7 ef ff ff    	call   130b <_printSentence>
D:\OneDrive\Study\Operating Systems\实验\project6\codes/./lib/utilsC.c:105
			if(information[i].size == 0){
    2364:	67 66 8b 55 f4       	mov    edx,DWORD PTR [ebp-0xc]
    2369:	66 89 d0             	mov    eax,edx
    236c:	66 01 c0             	add    eax,eax
    236f:	66 01 d0             	add    eax,edx
    2372:	66 c1 e0 02          	shl    eax,0x2
    2376:	66 01 d0             	add    eax,edx
    2379:	66 c1 e0 02          	shl    eax,0x2
    237d:	66 05 e8 87 00 00    	add    eax,0x87e8
    2383:	67 66 8b 00          	mov    eax,DWORD PTR [eax]
    2387:	66 85 c0             	test   eax,eax
    238a:	75 3a                	jne    23c6 <_ls+0x1e0>
D:\OneDrive\Study\Operating Systems\实验\project6\codes/./lib/utilsC.c:106
				printSentence("--", line, 25, 2, purple);
    238c:	66 a1 a0 81          	mov    eax,ds:0x81a0
    2390:	67 66 c7 44 24 10 0d 	mov    DWORD PTR [esp+0x10],0xd
    2397:	00 00 00 
    239a:	67 66 c7 44 24 0c 02 	mov    DWORD PTR [esp+0xc],0x2
    23a1:	00 00 00 
    23a4:	67 66 c7 44 24 08 19 	mov    DWORD PTR [esp+0x8],0x19
    23ab:	00 00 00 
    23ae:	67 66 89 44 24 04    	mov    DWORD PTR [esp+0x4],eax
    23b4:	67 66 c7 04 24 a2 60 	mov    DWORD PTR [esp],0x60a2
    23bb:	00 00 
    23bd:	66 e8 48 ef ff ff    	call   130b <_printSentence>
    23c3:	e9 80 00             	jmp    2446 <_ls+0x260>
D:\OneDrive\Study\Operating Systems\实验\project6\codes/./lib/utilsC.c:108
			} else {
				int2str(information[i].size, tmp);
    23c6:	67 66 8b 55 f4       	mov    edx,DWORD PTR [ebp-0xc]
    23cb:	66 89 d0             	mov    eax,edx
    23ce:	66 01 c0             	add    eax,eax
    23d1:	66 01 d0             	add    eax,edx
    23d4:	66 c1 e0 02          	shl    eax,0x2
    23d8:	66 01 d0             	add    eax,edx
    23db:	66 c1 e0 02          	shl    eax,0x2
    23df:	66 05 e8 87 00 00    	add    eax,0x87e8
    23e5:	67 66 8b 00          	mov    eax,DWORD PTR [eax]
    23e9:	67 66 8d 55 d7       	lea    edx,[ebp-0x29]
    23ee:	67 66 89 54 24 04    	mov    DWORD PTR [esp+0x4],edx
    23f4:	67 66 89 04 24       	mov    DWORD PTR [esp],eax
    23f9:	66 e8 01 08 00 00    	call   2c00 <_int2str>
D:\OneDrive\Study\Operating Systems\实验\project6\codes/./lib/utilsC.c:109
				printSentence(tmp, line, 25, strlen(tmp), purple);
    23ff:	67 66 8d 45 d7       	lea    eax,[ebp-0x29]
    2404:	67 66 89 04 24       	mov    DWORD PTR [esp],eax
    2409:	66 e8 9c 05 00 00    	call   29ab <_strlen>
    240f:	66 89 c2             	mov    edx,eax
    2412:	66 a1 a0 81          	mov    eax,ds:0x81a0
    2416:	67 66 c7 44 24 10 0d 	mov    DWORD PTR [esp+0x10],0xd
    241d:	00 00 00 
    2420:	67 66 89 54 24 0c    	mov    DWORD PTR [esp+0xc],edx
    2426:	67 66 c7 44 24 08 19 	mov    DWORD PTR [esp+0x8],0x19
    242d:	00 00 00 
    2430:	67 66 89 44 24 04    	mov    DWORD PTR [esp+0x4],eax
    2436:	67 66 8d 45 d7       	lea    eax,[ebp-0x29]
    243b:	67 66 89 04 24       	mov    DWORD PTR [esp],eax
    2440:	66 e8 c5 ee ff ff    	call   130b <_printSentence>
D:\OneDrive\Study\Operating Systems\实验\project6\codes/./lib/utilsC.c:111
			}
			if(information[i].lmaddress == 0){
    2446:	67 66 8b 55 f4       	mov    edx,DWORD PTR [ebp-0xc]
    244b:	66 89 d0             	mov    eax,edx
    244e:	66 01 c0             	add    eax,eax
    2451:	66 01 d0             	add    eax,edx
    2454:	66 c1 e0 02          	shl    eax,0x2
    2458:	66 01 d0             	add    eax,edx
    245b:	66 c1 e0 02          	shl    eax,0x2
    245f:	66 05 e4 87 00 00    	add    eax,0x87e4
    2465:	67 66 8b 00          	mov    eax,DWORD PTR [eax]
    2469:	66 85 c0             	test   eax,eax
    246c:	75 3a                	jne    24a8 <_ls+0x2c2>
D:\OneDrive\Study\Operating Systems\实验\project6\codes/./lib/utilsC.c:112
				printSentence("--", line, 40, 2, purple);
    246e:	66 a1 a0 81          	mov    eax,ds:0x81a0
    2472:	67 66 c7 44 24 10 0d 	mov    DWORD PTR [esp+0x10],0xd
    2479:	00 00 00 
    247c:	67 66 c7 44 24 0c 02 	mov    DWORD PTR [esp+0xc],0x2
    2483:	00 00 00 
    2486:	67 66 c7 44 24 08 28 	mov    DWORD PTR [esp+0x8],0x28
    248d:	00 00 00 
    2490:	67 66 89 44 24 04    	mov    DWORD PTR [esp+0x4],eax
    2496:	67 66 c7 04 24 a2 60 	mov    DWORD PTR [esp],0x60a2
    249d:	00 00 
    249f:	66 e8 66 ee ff ff    	call   130b <_printSentence>
    24a5:	e9 80 00             	jmp    2528 <_ls+0x342>
D:\OneDrive\Study\Operating Systems\实验\project6\codes/./lib/utilsC.c:114
			} else {
				int2str(information[i].lmaddress, tmp);
    24a8:	67 66 8b 55 f4       	mov    edx,DWORD PTR [ebp-0xc]
    24ad:	66 89 d0             	mov    eax,edx
    24b0:	66 01 c0             	add    eax,eax
    24b3:	66 01 d0             	add    eax,edx
    24b6:	66 c1 e0 02          	shl    eax,0x2
    24ba:	66 01 d0             	add    eax,edx
    24bd:	66 c1 e0 02          	shl    eax,0x2
    24c1:	66 05 e4 87 00 00    	add    eax,0x87e4
    24c7:	67 66 8b 00          	mov    eax,DWORD PTR [eax]
    24cb:	67 66 8d 55 d7       	lea    edx,[ebp-0x29]
    24d0:	67 66 89 54 24 04    	mov    DWORD PTR [esp+0x4],edx
    24d6:	67 66 89 04 24       	mov    DWORD PTR [esp],eax
    24db:	66 e8 1f 07 00 00    	call   2c00 <_int2str>
D:\OneDrive\Study\Operating Systems\实验\project6\codes/./lib/utilsC.c:115
				printSentence(tmp, line, 40, strlen(tmp), purple);
    24e1:	67 66 8d 45 d7       	lea    eax,[ebp-0x29]
    24e6:	67 66 89 04 24       	mov    DWORD PTR [esp],eax
    24eb:	66 e8 ba 04 00 00    	call   29ab <_strlen>
    24f1:	66 89 c2             	mov    edx,eax
    24f4:	66 a1 a0 81          	mov    eax,ds:0x81a0
    24f8:	67 66 c7 44 24 10 0d 	mov    DWORD PTR [esp+0x10],0xd
    24ff:	00 00 00 
    2502:	67 66 89 54 24 0c    	mov    DWORD PTR [esp+0xc],edx
    2508:	67 66 c7 44 24 08 28 	mov    DWORD PTR [esp+0x8],0x28
    250f:	00 00 00 
    2512:	67 66 89 44 24 04    	mov    DWORD PTR [esp+0x4],eax
    2518:	67 66 8d 45 d7       	lea    eax,[ebp-0x29]
    251d:	67 66 89 04 24       	mov    DWORD PTR [esp],eax
    2522:	66 e8 e3 ed ff ff    	call   130b <_printSentence>
D:\OneDrive\Study\Operating Systems\实验\project6\codes/./lib/utilsC.c:117
			}
			printSentence(typeTable[information[i].type], line, 55, 1, purple);
    2528:	66 8b 0e a0 81       	mov    ecx,DWORD PTR ds:0x81a0
    252d:	67 66 8b 55 f4       	mov    edx,DWORD PTR [ebp-0xc]
    2532:	66 89 d0             	mov    eax,edx
    2535:	66 01 c0             	add    eax,eax
    2538:	66 01 d0             	add    eax,edx
    253b:	66 c1 e0 02          	shl    eax,0x2
    253f:	66 01 d0             	add    eax,edx
    2542:	66 c1 e0 02          	shl    eax,0x2
    2546:	66 05 e0 87 00 00    	add    eax,0x87e0
    254c:	67 66 8b 00          	mov    eax,DWORD PTR [eax]
    2550:	67 66 8d 55 e6       	lea    edx,[ebp-0x1a]
    2555:	66 01 d0             	add    eax,edx
    2558:	67 66 c7 44 24 10 0d 	mov    DWORD PTR [esp+0x10],0xd
    255f:	00 00 00 
    2562:	67 66 c7 44 24 0c 01 	mov    DWORD PTR [esp+0xc],0x1
    2569:	00 00 00 
    256c:	67 66 c7 44 24 08 37 	mov    DWORD PTR [esp+0x8],0x37
    2573:	00 00 00 
    2576:	67 66 89 4c 24 04    	mov    DWORD PTR [esp+0x4],ecx
    257c:	67 66 89 04 24       	mov    DWORD PTR [esp],eax
    2581:	66 e8 84 ed ff ff    	call   130b <_printSentence>
D:\OneDrive\Study\Operating Systems\实验\project6\codes/./lib/utilsC.c:118
			line += 1;
    2587:	66 a1 a0 81          	mov    eax,ds:0x81a0
    258b:	66 40                	inc    eax
    258d:	66 a3 a0 81          	mov    ds:0x81a0,eax
D:\OneDrive\Study\Operating Systems\实验\project6\codes/./lib/utilsC.c:101
	for(int i = 0; i < Len; ++i) 
    2591:	67 66 ff 45 f4       	inc    DWORD PTR [ebp-0xc]
    2596:	67 66 83 7d f4 31    	cmp    DWORD PTR [ebp-0xc],0x31
    259c:	0f 8e f3 fc          	jle    2293 <_ls+0xad>
D:\OneDrive\Study\Operating Systems\实验\project6\codes/./lib/utilsC.c:121
		}
	}
}
    25a0:	90                   	nop
    25a1:	66 83 c4 38          	add    esp,0x38
    25a5:	66 5b                	pop    ebx
    25a7:	66 5f                	pop    edi
    25a9:	66 5d                	pop    ebp
    25ab:	66 c3                	ret    

000025ad <_ps>:
ps():
D:\OneDrive\Study\Operating Systems\实验\project6\codes/./lib/utilsC.c:124

void ps()
{
    25ad:	66 55                	push   ebp
    25af:	66 89 e5             	mov    ebp,esp
    25b2:	66 57                	push   edi
    25b4:	66 56                	push   esi
    25b6:	66 53                	push   ebx
    25b8:	66 83 ec 7c          	sub    esp,0x7c
D:\OneDrive\Study\Operating Systems\实验\project6\codes/./lib/utilsC.c:125
	char * head = "Id  ProcessName       Status\n";
    25bc:	67 66 c7 45 ec a5 60 	mov    DWORD PTR [ebp-0x14],0x60a5
    25c3:	00 00 
D:\OneDrive\Study\Operating Systems\实验\project6\codes/./lib/utilsC.c:126
	char status[6][10] = {"Origin", "ready", "running", "blocked", "suspend", "exit"};
    25c5:	67 66 8d 45 ac       	lea    eax,[ebp-0x54]
    25ca:	66 bb 20 5b 00 00    	mov    ebx,0x5b20
    25d0:	66 ba 0f 00 00 00    	mov    edx,0xf
    25d6:	66 89 c7             	mov    edi,eax
    25d9:	66 89 de             	mov    esi,ebx
    25dc:	66 89 d1             	mov    ecx,edx
    25df:	66 f3 a5             	rep movs DWORD PTR es:[di],DWORD PTR ds:[si]
D:\OneDrive\Study\Operating Systems\实验\project6\codes/./lib/utilsC.c:127
	int begin = 20;
    25e2:	67 66 c7 45 e8 14 00 	mov    DWORD PTR [ebp-0x18],0x14
    25e9:	00 00 
D:\OneDrive\Study\Operating Systems\实验\project6\codes/./lib/utilsC.c:128
	printSentence(head, line++, begin, strlen(head), purple);
    25eb:	67 66 8b 45 ec       	mov    eax,DWORD PTR [ebp-0x14]
    25f0:	67 66 89 04 24       	mov    DWORD PTR [esp],eax
    25f5:	66 e8 b0 03 00 00    	call   29ab <_strlen>
    25fb:	66 89 c2             	mov    edx,eax
    25fe:	66 a1 a0 81          	mov    eax,ds:0x81a0
    2602:	67 66 8d 48 01       	lea    ecx,[eax+0x1]
    2607:	66 89 0e a0 81       	mov    DWORD PTR ds:0x81a0,ecx
    260c:	67 66 c7 44 24 10 0d 	mov    DWORD PTR [esp+0x10],0xd
    2613:	00 00 00 
    2616:	67 66 89 54 24 0c    	mov    DWORD PTR [esp+0xc],edx
    261c:	67 66 8b 55 e8       	mov    edx,DWORD PTR [ebp-0x18]
    2621:	67 66 89 54 24 08    	mov    DWORD PTR [esp+0x8],edx
    2627:	67 66 89 44 24 04    	mov    DWORD PTR [esp+0x4],eax
    262d:	67 66 8b 45 ec       	mov    eax,DWORD PTR [ebp-0x14]
    2632:	67 66 89 04 24       	mov    DWORD PTR [esp],eax
    2637:	66 e8 ce ec ff ff    	call   130b <_printSentence>
D:\OneDrive\Study\Operating Systems\实验\project6\codes/./lib/utilsC.c:130
	char str[30];
	for (int i = 0; i < Len; ++i)
    263d:	67 66 c7 45 f0 00 00 	mov    DWORD PTR [ebp-0x10],0x0
    2644:	00 00 
    2646:	e9 2f 02             	jmp    2878 <_ps+0x2cb>
D:\OneDrive\Study\Operating Systems\实验\project6\codes/./lib/utilsC.c:132
	{
		if(processTable[i].id != -1 && processTable[i].status != Origin)
    2649:	67 66 8b 55 f0       	mov    edx,DWORD PTR [ebp-0x10]
    264e:	66 89 d0             	mov    eax,edx
    2651:	66 01 c0             	add    eax,eax
    2654:	66 01 d0             	add    eax,edx
    2657:	66 c1 e0 02          	shl    eax,0x2
    265b:	66 01 d0             	add    eax,edx
    265e:	66 c1 e0 03          	shl    eax,0x3
    2662:	66 05 04 93 00 00    	add    eax,0x9304
    2668:	67 66 8b 00          	mov    eax,DWORD PTR [eax]
    266c:	66 83 f8 ff          	cmp    eax,0xffffffff
    2670:	0f 84 ff 01          	je     2873 <_ps+0x2c6>
    2674:	67 66 8b 55 f0       	mov    edx,DWORD PTR [ebp-0x10]
    2679:	66 89 d0             	mov    eax,edx
    267c:	66 01 c0             	add    eax,eax
    267f:	66 01 d0             	add    eax,edx
    2682:	66 c1 e0 02          	shl    eax,0x2
    2686:	66 01 d0             	add    eax,edx
    2689:	66 c1 e0 03          	shl    eax,0x3
    268d:	66 05 44 93 00 00    	add    eax,0x9344
    2693:	67 66 8b 00          	mov    eax,DWORD PTR [eax]
    2697:	66 85 c0             	test   eax,eax
    269a:	0f 84 d5 01          	je     2873 <_ps+0x2c6>
D:\OneDrive\Study\Operating Systems\实验\project6\codes/./lib/utilsC.c:134
		{
			int2str(processTable[i].id, str);
    269e:	67 66 8b 55 f0       	mov    edx,DWORD PTR [ebp-0x10]
    26a3:	66 89 d0             	mov    eax,edx
    26a6:	66 01 c0             	add    eax,eax
    26a9:	66 01 d0             	add    eax,edx
    26ac:	66 c1 e0 02          	shl    eax,0x2
    26b0:	66 01 d0             	add    eax,edx
    26b3:	66 c1 e0 03          	shl    eax,0x3
    26b7:	66 05 04 93 00 00    	add    eax,0x9304
    26bd:	67 66 8b 00          	mov    eax,DWORD PTR [eax]
    26c1:	67 66 8d 55 8e       	lea    edx,[ebp-0x72]
    26c6:	67 66 89 54 24 04    	mov    DWORD PTR [esp+0x4],edx
    26cc:	67 66 89 04 24       	mov    DWORD PTR [esp],eax
    26d1:	66 e8 29 05 00 00    	call   2c00 <_int2str>
D:\OneDrive\Study\Operating Systems\实验\project6\codes/./lib/utilsC.c:135
			printSentence(str, line, begin+1, strlen(str), purple);
    26d7:	67 66 8d 45 8e       	lea    eax,[ebp-0x72]
    26dc:	67 66 89 04 24       	mov    DWORD PTR [esp],eax
    26e1:	66 e8 c4 02 00 00    	call   29ab <_strlen>
    26e7:	66 89 c2             	mov    edx,eax
    26ea:	67 66 8b 45 e8       	mov    eax,DWORD PTR [ebp-0x18]
    26ef:	67 66 8d 48 01       	lea    ecx,[eax+0x1]
    26f4:	66 a1 a0 81          	mov    eax,ds:0x81a0
    26f8:	67 66 c7 44 24 10 0d 	mov    DWORD PTR [esp+0x10],0xd
    26ff:	00 00 00 
    2702:	67 66 89 54 24 0c    	mov    DWORD PTR [esp+0xc],edx
    2708:	67 66 89 4c 24 08    	mov    DWORD PTR [esp+0x8],ecx
    270e:	67 66 89 44 24 04    	mov    DWORD PTR [esp+0x4],eax
    2714:	67 66 8d 45 8e       	lea    eax,[ebp-0x72]
    2719:	67 66 89 04 24       	mov    DWORD PTR [esp],eax
    271e:	66 e8 e7 eb ff ff    	call   130b <_printSentence>
D:\OneDrive\Study\Operating Systems\实验\project6\codes/./lib/utilsC.c:136
			printSentence(processTable[i].name, line, begin+5, strlen(processTable[i].name), purple);
    2724:	67 66 8b 55 f0       	mov    edx,DWORD PTR [ebp-0x10]
    2729:	66 89 d0             	mov    eax,edx
    272c:	66 01 c0             	add    eax,eax
    272f:	66 01 d0             	add    eax,edx
    2732:	66 c1 e0 02          	shl    eax,0x2
    2736:	66 01 d0             	add    eax,edx
    2739:	66 c1 e0 03          	shl    eax,0x3
    273d:	66 83 c0 30          	add    eax,0x30
    2741:	66 05 e0 92 00 00    	add    eax,0x92e0
    2747:	66 83 c0 04          	add    eax,0x4
    274b:	67 66 89 04 24       	mov    DWORD PTR [esp],eax
    2750:	66 e8 55 02 00 00    	call   29ab <_strlen>
    2756:	66 89 c3             	mov    ebx,eax
    2759:	67 66 8b 45 e8       	mov    eax,DWORD PTR [ebp-0x18]
    275e:	67 66 8d 70 05       	lea    esi,[eax+0x5]
    2763:	66 8b 0e a0 81       	mov    ecx,DWORD PTR ds:0x81a0
    2768:	67 66 8b 55 f0       	mov    edx,DWORD PTR [ebp-0x10]
    276d:	66 89 d0             	mov    eax,edx
    2770:	66 01 c0             	add    eax,eax
    2773:	66 01 d0             	add    eax,edx
    2776:	66 c1 e0 02          	shl    eax,0x2
    277a:	66 01 d0             	add    eax,edx
    277d:	66 c1 e0 03          	shl    eax,0x3
    2781:	66 83 c0 30          	add    eax,0x30
    2785:	66 05 e0 92 00 00    	add    eax,0x92e0
    278b:	66 83 c0 04          	add    eax,0x4
    278f:	67 66 c7 44 24 10 0d 	mov    DWORD PTR [esp+0x10],0xd
    2796:	00 00 00 
    2799:	67 66 89 5c 24 0c    	mov    DWORD PTR [esp+0xc],ebx
    279f:	67 66 89 74 24 08    	mov    DWORD PTR [esp+0x8],esi
    27a5:	67 66 89 4c 24 04    	mov    DWORD PTR [esp+0x4],ecx
    27ab:	67 66 89 04 24       	mov    DWORD PTR [esp],eax
    27b0:	66 e8 55 eb ff ff    	call   130b <_printSentence>
D:\OneDrive\Study\Operating Systems\实验\project6\codes/./lib/utilsC.c:137
			printSentence(status[processTable[i].status], line++, begin+23, strlen(status[processTable[i].status]), purple);
    27b6:	67 66 8b 55 f0       	mov    edx,DWORD PTR [ebp-0x10]
    27bb:	66 89 d0             	mov    eax,edx
    27be:	66 01 c0             	add    eax,eax
    27c1:	66 01 d0             	add    eax,edx
    27c4:	66 c1 e0 02          	shl    eax,0x2
    27c8:	66 01 d0             	add    eax,edx
    27cb:	66 c1 e0 03          	shl    eax,0x3
    27cf:	66 05 44 93 00 00    	add    eax,0x9344
    27d5:	67 66 8b 10          	mov    edx,DWORD PTR [eax]
    27d9:	67 66 8d 4d ac       	lea    ecx,[ebp-0x54]
    27de:	66 89 d0             	mov    eax,edx
    27e1:	66 c1 e0 02          	shl    eax,0x2
    27e5:	66 01 d0             	add    eax,edx
    27e8:	66 01 c0             	add    eax,eax
    27eb:	66 01 c8             	add    eax,ecx
    27ee:	67 66 89 04 24       	mov    DWORD PTR [esp],eax
    27f3:	66 e8 b2 01 00 00    	call   29ab <_strlen>
    27f9:	66 89 c3             	mov    ebx,eax
    27fc:	67 66 8b 45 e8       	mov    eax,DWORD PTR [ebp-0x18]
    2801:	67 66 8d 70 17       	lea    esi,[eax+0x17]
    2806:	66 8b 0e a0 81       	mov    ecx,DWORD PTR ds:0x81a0
    280b:	67 66 8d 41 01       	lea    eax,[ecx+0x1]
    2810:	66 a3 a0 81          	mov    ds:0x81a0,eax
    2814:	67 66 8b 55 f0       	mov    edx,DWORD PTR [ebp-0x10]
    2819:	66 89 d0             	mov    eax,edx
    281c:	66 01 c0             	add    eax,eax
    281f:	66 01 d0             	add    eax,edx
    2822:	66 c1 e0 02          	shl    eax,0x2
    2826:	66 01 d0             	add    eax,edx
    2829:	66 c1 e0 03          	shl    eax,0x3
    282d:	66 05 44 93 00 00    	add    eax,0x9344
    2833:	67 66 8b 10          	mov    edx,DWORD PTR [eax]
    2837:	67 66 8d 7d ac       	lea    edi,[ebp-0x54]
    283c:	66 89 d0             	mov    eax,edx
    283f:	66 c1 e0 02          	shl    eax,0x2
    2843:	66 01 d0             	add    eax,edx
    2846:	66 01 c0             	add    eax,eax
    2849:	66 01 f8             	add    eax,edi
    284c:	67 66 c7 44 24 10 0d 	mov    DWORD PTR [esp+0x10],0xd
    2853:	00 00 00 
    2856:	67 66 89 5c 24 0c    	mov    DWORD PTR [esp+0xc],ebx
    285c:	67 66 89 74 24 08    	mov    DWORD PTR [esp+0x8],esi
    2862:	67 66 89 4c 24 04    	mov    DWORD PTR [esp+0x4],ecx
    2868:	67 66 89 04 24       	mov    DWORD PTR [esp],eax
    286d:	66 e8 98 ea ff ff    	call   130b <_printSentence>
D:\OneDrive\Study\Operating Systems\实验\project6\codes/./lib/utilsC.c:130
	for (int i = 0; i < Len; ++i)
    2873:	67 66 ff 45 f0       	inc    DWORD PTR [ebp-0x10]
    2878:	67 66 83 7d f0 31    	cmp    DWORD PTR [ebp-0x10],0x31
    287e:	0f 8e c7 fd          	jle    2649 <_ps+0x9c>
D:\OneDrive\Study\Operating Systems\实验\project6\codes/./lib/utilsC.c:140
		}
	}
}
    2882:	90                   	nop
    2883:	66 83 c4 7c          	add    esp,0x7c
    2887:	66 5b                	pop    ebx
    2889:	66 5e                	pop    esi
    288b:	66 5f                	pop    edi
    288d:	66 5d                	pop    ebp
    288f:	66 c3                	ret    

00002891 <_kill>:
kill():
D:\OneDrive\Study\Operating Systems\实验\project6\codes/./lib/utilsC.c:143

void kill(int id)
{
    2891:	66 55                	push   ebp
    2893:	66 89 e5             	mov    ebp,esp
    2896:	66 83 ec 08          	sub    esp,0x8
D:\OneDrive\Study\Operating Systems\实验\project6\codes/./lib/utilsC.c:144
	if(id != 0){
    289a:	67 66 83 7d 08 00    	cmp    DWORD PTR [ebp+0x8],0x0
    28a0:	0f 84 d3 00          	je     2977 <_kill+0xe6>
D:\OneDrive\Study\Operating Systems\实验\project6\codes/./lib/utilsC.c:145
		processTable[id].status = exit;
    28a4:	67 66 8b 55 08       	mov    edx,DWORD PTR [ebp+0x8]
    28a9:	66 89 d0             	mov    eax,edx
    28ac:	66 01 c0             	add    eax,eax
    28af:	66 01 d0             	add    eax,edx
    28b2:	66 c1 e0 02          	shl    eax,0x2
    28b6:	66 01 d0             	add    eax,edx
    28b9:	66 c1 e0 03          	shl    eax,0x3
    28bd:	66 05 44 93 00 00    	add    eax,0x9344
    28c3:	67 66 c7 00 05 00 00 	mov    DWORD PTR [eax],0x5
    28ca:	00 
D:\OneDrive\Study\Operating Systems\实验\project6\codes/./lib/utilsC.c:146
		processTable[id].id = -1;
    28cb:	67 66 8b 55 08       	mov    edx,DWORD PTR [ebp+0x8]
    28d0:	66 89 d0             	mov    eax,edx
    28d3:	66 01 c0             	add    eax,eax
    28d6:	66 01 d0             	add    eax,edx
    28d9:	66 c1 e0 02          	shl    eax,0x2
    28dd:	66 01 d0             	add    eax,edx
    28e0:	66 c1 e0 03          	shl    eax,0x3
    28e4:	66 05 04 93 00 00    	add    eax,0x9304
    28ea:	67 66 c7 00 ff ff ff 	mov    DWORD PTR [eax],0xffffffff
    28f1:	ff 
D:\OneDrive\Study\Operating Systems\实验\project6\codes/./lib/utilsC.c:147
		release(memoryTable[processTable[id].blockNum].beginAddr, memoryTable[processTable[id].blockNum].endAddr);
    28f2:	67 66 8b 55 08       	mov    edx,DWORD PTR [ebp+0x8]
    28f7:	66 89 d0             	mov    eax,edx
    28fa:	66 01 c0             	add    eax,eax
    28fd:	66 01 d0             	add    eax,edx
    2900:	66 c1 e0 02          	shl    eax,0x2
    2904:	66 01 d0             	add    eax,edx
    2907:	66 c1 e0 03          	shl    eax,0x3
    290b:	66 05 08 93 00 00    	add    eax,0x9308
    2911:	67 66 8b 10          	mov    edx,DWORD PTR [eax]
    2915:	66 89 d0             	mov    eax,edx
    2918:	66 01 c0             	add    eax,eax
    291b:	66 01 d0             	add    eax,edx
    291e:	66 c1 e0 03          	shl    eax,0x3
    2922:	66 05 e4 81 00 00    	add    eax,0x81e4
    2928:	67 66 8b 08          	mov    ecx,DWORD PTR [eax]
    292c:	67 66 8b 55 08       	mov    edx,DWORD PTR [ebp+0x8]
    2931:	66 89 d0             	mov    eax,edx
    2934:	66 01 c0             	add    eax,eax
    2937:	66 01 d0             	add    eax,edx
    293a:	66 c1 e0 02          	shl    eax,0x2
    293e:	66 01 d0             	add    eax,edx
    2941:	66 c1 e0 03          	shl    eax,0x3
    2945:	66 05 08 93 00 00    	add    eax,0x9308
    294b:	67 66 8b 10          	mov    edx,DWORD PTR [eax]
    294f:	66 89 d0             	mov    eax,edx
    2952:	66 01 c0             	add    eax,eax
    2955:	66 01 d0             	add    eax,edx
    2958:	66 c1 e0 03          	shl    eax,0x3
    295c:	66 05 e0 81 00 00    	add    eax,0x81e0
    2962:	67 66 8b 00          	mov    eax,DWORD PTR [eax]
    2966:	67 66 89 4c 24 04    	mov    DWORD PTR [esp+0x4],ecx
    296c:	67 66 89 04 24       	mov    DWORD PTR [esp],eax
    2971:	66 e8 f9 2c 00 00    	call   5670 <_release>
D:\OneDrive\Study\Operating Systems\实验\project6\codes/./lib/utilsC.c:149
	}
}
    2977:	90                   	nop
    2978:	66 c9                	leave  
    297a:	66 c3                	ret    

0000297c <_initial>:
initial():
D:\OneDrive\Study\Operating Systems\实验\project6\codes/./lib/utilsC.c:152

void initial()
{
    297c:	66 55                	push   ebp
    297e:	66 89 e5             	mov    ebp,esp
    2981:	66 83 ec 04          	sub    esp,0x4
D:\OneDrive\Study\Operating Systems\实验\project6\codes/./lib/utilsC.c:153
	initialFile();
    2985:	66 e8 59 06 00 00    	call   2fe4 <_initialFile>
D:\OneDrive\Study\Operating Systems\实验\project6\codes/./lib/utilsC.c:154
	initialScreen(1);
    298b:	67 66 c7 04 24 01 00 	mov    DWORD PTR [esp],0x1
    2992:	00 00 
    2994:	66 e8 a3 f5 ff ff    	call   1f3d <_initialScreen>
D:\OneDrive\Study\Operating Systems\实验\project6\codes/./lib/utilsC.c:155
	initialProcessTable();
    299a:	66 e8 b4 0a 00 00    	call   3454 <_initialProcessTable>
D:\OneDrive\Study\Operating Systems\实验\project6\codes/./lib/utilsC.c:156
	initialMemoryTable();
    29a0:	66 e8 9b 1f 00 00    	call   4941 <_initialMemoryTable>
D:\OneDrive\Study\Operating Systems\实验\project6\codes/./lib/utilsC.c:157
}
    29a6:	90                   	nop
    29a7:	66 c9                	leave  
    29a9:	66 c3                	ret    

000029ab <_strlen>:
strlen():
D:\OneDrive\Study\Operating Systems\实验\project6\codes/./lib/utilsC.c:164


//////////// string /////////////////
// 垄芒路没麓庐陋'0'陆谩虏隆拢
int strlen(char * sen)
{
    29ab:	66 55                	push   ebp
    29ad:	66 89 e5             	mov    ebp,esp
    29b0:	66 83 ec 04          	sub    esp,0x4
D:\OneDrive\Study\Operating Systems\实验\project6\codes/./lib/utilsC.c:165
	int i = 0;
    29b4:	67 66 c7 45 fc 00 00 	mov    DWORD PTR [ebp-0x4],0x0
    29bb:	00 00 
D:\OneDrive\Study\Operating Systems\实验\project6\codes/./lib/utilsC.c:166
	while(sen[i]) { ++i; }
    29bd:	eb 05                	jmp    29c4 <_strlen+0x19>
    29bf:	67 66 ff 45 fc       	inc    DWORD PTR [ebp-0x4]
    29c4:	67 66 8b 55 fc       	mov    edx,DWORD PTR [ebp-0x4]
    29c9:	67 66 8b 45 08       	mov    eax,DWORD PTR [ebp+0x8]
    29ce:	66 01 d0             	add    eax,edx
    29d1:	67 8a 00             	mov    al,BYTE PTR [eax]
    29d4:	84 c0                	test   al,al
    29d6:	75 e7                	jne    29bf <_strlen+0x14>
D:\OneDrive\Study\Operating Systems\实验\project6\codes/./lib/utilsC.c:167
	return i;
    29d8:	67 66 8b 45 fc       	mov    eax,DWORD PTR [ebp-0x4]
D:\OneDrive\Study\Operating Systems\实验\project6\codes/./lib/utilsC.c:168
}
    29dd:	66 c9                	leave  
    29df:	66 c3                	ret    

000029e1 <_concate>:
concate():
D:\OneDrive\Study\Operating Systems\实验\project6\codes/./lib/utilsC.c:172


void concate(char * sour, char * append)
{
    29e1:	66 55                	push   ebp
    29e3:	66 89 e5             	mov    ebp,esp
    29e6:	66 83 ec 10          	sub    esp,0x10
D:\OneDrive\Study\Operating Systems\实验\project6\codes/./lib/utilsC.c:173
	int lenOfAppend = strlen(append);
    29ea:	67 66 8b 45 0c       	mov    eax,DWORD PTR [ebp+0xc]
    29ef:	67 66 89 04 24       	mov    DWORD PTR [esp],eax
    29f4:	66 e8 b1 ff ff ff    	call   29ab <_strlen>
    29fa:	67 66 89 45 f8       	mov    DWORD PTR [ebp-0x8],eax
D:\OneDrive\Study\Operating Systems\实验\project6\codes/./lib/utilsC.c:174
	int lenOfSour = strlen(sour);
    29ff:	67 66 8b 45 08       	mov    eax,DWORD PTR [ebp+0x8]
    2a04:	67 66 89 04 24       	mov    DWORD PTR [esp],eax
    2a09:	66 e8 9c ff ff ff    	call   29ab <_strlen>
    2a0f:	67 66 89 45 f4       	mov    DWORD PTR [ebp-0xc],eax
D:\OneDrive\Study\Operating Systems\实验\project6\codes/./lib/utilsC.c:175
	for(int i = 0; i < lenOfAppend; ++i)
    2a14:	67 66 c7 45 fc 00 00 	mov    DWORD PTR [ebp-0x4],0x0
    2a1b:	00 00 
    2a1d:	eb 30                	jmp    2a4f <_concate+0x6e>
D:\OneDrive\Study\Operating Systems\实验\project6\codes/./lib/utilsC.c:177
	{
		sour[i+lenOfSour] = append[i];
    2a1f:	67 66 8b 55 fc       	mov    edx,DWORD PTR [ebp-0x4]
    2a24:	67 66 8b 45 f4       	mov    eax,DWORD PTR [ebp-0xc]
    2a29:	66 01 d0             	add    eax,edx
    2a2c:	66 89 c2             	mov    edx,eax
    2a2f:	67 66 8b 45 08       	mov    eax,DWORD PTR [ebp+0x8]
    2a34:	66 01 c2             	add    edx,eax
    2a37:	67 66 8b 4d fc       	mov    ecx,DWORD PTR [ebp-0x4]
    2a3c:	67 66 8b 45 0c       	mov    eax,DWORD PTR [ebp+0xc]
    2a41:	66 01 c8             	add    eax,ecx
    2a44:	67 8a 00             	mov    al,BYTE PTR [eax]
    2a47:	67 88 02             	mov    BYTE PTR [edx],al
D:\OneDrive\Study\Operating Systems\实验\project6\codes/./lib/utilsC.c:175
	for(int i = 0; i < lenOfAppend; ++i)
    2a4a:	67 66 ff 45 fc       	inc    DWORD PTR [ebp-0x4]
    2a4f:	67 66 8b 45 fc       	mov    eax,DWORD PTR [ebp-0x4]
    2a54:	67 66 3b 45 f8       	cmp    eax,DWORD PTR [ebp-0x8]
    2a59:	7c c4                	jl     2a1f <_concate+0x3e>
D:\OneDrive\Study\Operating Systems\实验\project6\codes/./lib/utilsC.c:179
	}
	sour[lenOfAppend+lenOfSour] = '\0';
    2a5b:	67 66 8b 55 f8       	mov    edx,DWORD PTR [ebp-0x8]
    2a60:	67 66 8b 45 f4       	mov    eax,DWORD PTR [ebp-0xc]
    2a65:	66 01 d0             	add    eax,edx
    2a68:	66 89 c2             	mov    edx,eax
    2a6b:	67 66 8b 45 08       	mov    eax,DWORD PTR [ebp+0x8]
    2a70:	66 01 d0             	add    eax,edx
    2a73:	67 c6 00 00          	mov    BYTE PTR [eax],0x0
D:\OneDrive\Study\Operating Systems\实验\project6\codes/./lib/utilsC.c:180
}
    2a77:	90                   	nop
    2a78:	66 c9                	leave  
    2a7a:	66 c3                	ret    

00002a7c <_strcmp>:
strcmp():
D:\OneDrive\Study\Operating Systems\实验\project6\codes/./lib/utilsC.c:183

int strcmp(char * l, char * r)
{
    2a7c:	66 55                	push   ebp
    2a7e:	66 89 e5             	mov    ebp,esp
    2a81:	66 83 ec 08          	sub    esp,0x8
D:\OneDrive\Study\Operating Systems\实验\project6\codes/./lib/utilsC.c:184
	int i=0, j=0;
    2a85:	67 66 c7 45 fc 00 00 	mov    DWORD PTR [ebp-0x4],0x0
    2a8c:	00 00 
    2a8e:	67 66 c7 45 f8 00 00 	mov    DWORD PTR [ebp-0x8],0x0
    2a95:	00 00 
D:\OneDrive\Study\Operating Systems\实验\project6\codes/./lib/utilsC.c:185
	for(; l[i] && r[i]; ++i, ++j)
    2a97:	eb 64                	jmp    2afd <_strcmp+0x81>
D:\OneDrive\Study\Operating Systems\实验\project6\codes/./lib/utilsC.c:187
	{
		if(l[i] < r[j]) {
    2a99:	67 66 8b 55 fc       	mov    edx,DWORD PTR [ebp-0x4]
    2a9e:	67 66 8b 45 08       	mov    eax,DWORD PTR [ebp+0x8]
    2aa3:	66 01 d0             	add    eax,edx
    2aa6:	67 8a 10             	mov    dl,BYTE PTR [eax]
    2aa9:	67 66 8b 4d f8       	mov    ecx,DWORD PTR [ebp-0x8]
    2aae:	67 66 8b 45 0c       	mov    eax,DWORD PTR [ebp+0xc]
    2ab3:	66 01 c8             	add    eax,ecx
    2ab6:	67 8a 00             	mov    al,BYTE PTR [eax]
    2ab9:	38 c2                	cmp    dl,al
    2abb:	7d 09                	jge    2ac6 <_strcmp+0x4a>
D:\OneDrive\Study\Operating Systems\实验\project6\codes/./lib/utilsC.c:188
			return -1;
    2abd:	66 b8 ff ff ff ff    	mov    eax,0xffffffff
    2ac3:	e9 c7 00             	jmp    2b8d <_strcmp+0x111>
D:\OneDrive\Study\Operating Systems\实验\project6\codes/./lib/utilsC.c:189
		} else if(l[i] > r[j]) {
    2ac6:	67 66 8b 55 fc       	mov    edx,DWORD PTR [ebp-0x4]
    2acb:	67 66 8b 45 08       	mov    eax,DWORD PTR [ebp+0x8]
    2ad0:	66 01 d0             	add    eax,edx
    2ad3:	67 8a 10             	mov    dl,BYTE PTR [eax]
    2ad6:	67 66 8b 4d f8       	mov    ecx,DWORD PTR [ebp-0x8]
    2adb:	67 66 8b 45 0c       	mov    eax,DWORD PTR [ebp+0xc]
    2ae0:	66 01 c8             	add    eax,ecx
    2ae3:	67 8a 00             	mov    al,BYTE PTR [eax]
    2ae6:	38 c2                	cmp    dl,al
    2ae8:	7e 09                	jle    2af3 <_strcmp+0x77>
D:\OneDrive\Study\Operating Systems\实验\project6\codes/./lib/utilsC.c:190
			return 1;
    2aea:	66 b8 01 00 00 00    	mov    eax,0x1
    2af0:	e9 9a 00             	jmp    2b8d <_strcmp+0x111>
D:\OneDrive\Study\Operating Systems\实验\project6\codes/./lib/utilsC.c:185
	for(; l[i] && r[i]; ++i, ++j)
    2af3:	67 66 ff 45 fc       	inc    DWORD PTR [ebp-0x4]
    2af8:	67 66 ff 45 f8       	inc    DWORD PTR [ebp-0x8]
    2afd:	67 66 8b 55 fc       	mov    edx,DWORD PTR [ebp-0x4]
    2b02:	67 66 8b 45 08       	mov    eax,DWORD PTR [ebp+0x8]
    2b07:	66 01 d0             	add    eax,edx
    2b0a:	67 8a 00             	mov    al,BYTE PTR [eax]
    2b0d:	84 c0                	test   al,al
    2b0f:	74 16                	je     2b27 <_strcmp+0xab>
    2b11:	67 66 8b 55 fc       	mov    edx,DWORD PTR [ebp-0x4]
    2b16:	67 66 8b 45 0c       	mov    eax,DWORD PTR [ebp+0xc]
    2b1b:	66 01 d0             	add    eax,edx
    2b1e:	67 8a 00             	mov    al,BYTE PTR [eax]
    2b21:	84 c0                	test   al,al
    2b23:	0f 85 72 ff          	jne    2a99 <_strcmp+0x1d>
D:\OneDrive\Study\Operating Systems\实验\project6\codes/./lib/utilsC.c:193
		} 
	}
	if(!l[i] && r[j]) {
    2b27:	67 66 8b 55 fc       	mov    edx,DWORD PTR [ebp-0x4]
    2b2c:	67 66 8b 45 08       	mov    eax,DWORD PTR [ebp+0x8]
    2b31:	66 01 d0             	add    eax,edx
    2b34:	67 8a 00             	mov    al,BYTE PTR [eax]
    2b37:	84 c0                	test   al,al
    2b39:	75 1c                	jne    2b57 <_strcmp+0xdb>
    2b3b:	67 66 8b 55 f8       	mov    edx,DWORD PTR [ebp-0x8]
    2b40:	67 66 8b 45 0c       	mov    eax,DWORD PTR [ebp+0xc]
    2b45:	66 01 d0             	add    eax,edx
    2b48:	67 8a 00             	mov    al,BYTE PTR [eax]
    2b4b:	84 c0                	test   al,al
    2b4d:	74 08                	je     2b57 <_strcmp+0xdb>
D:\OneDrive\Study\Operating Systems\实验\project6\codes/./lib/utilsC.c:194
		return -1;
    2b4f:	66 b8 ff ff ff ff    	mov    eax,0xffffffff
    2b55:	eb 36                	jmp    2b8d <_strcmp+0x111>
D:\OneDrive\Study\Operating Systems\实验\project6\codes/./lib/utilsC.c:195
	} else if(l[i] && !r[j]) {
    2b57:	67 66 8b 55 fc       	mov    edx,DWORD PTR [ebp-0x4]
    2b5c:	67 66 8b 45 08       	mov    eax,DWORD PTR [ebp+0x8]
    2b61:	66 01 d0             	add    eax,edx
    2b64:	67 8a 00             	mov    al,BYTE PTR [eax]
    2b67:	84 c0                	test   al,al
    2b69:	74 1c                	je     2b87 <_strcmp+0x10b>
    2b6b:	67 66 8b 55 f8       	mov    edx,DWORD PTR [ebp-0x8]
    2b70:	67 66 8b 45 0c       	mov    eax,DWORD PTR [ebp+0xc]
    2b75:	66 01 d0             	add    eax,edx
    2b78:	67 8a 00             	mov    al,BYTE PTR [eax]
    2b7b:	84 c0                	test   al,al
    2b7d:	75 08                	jne    2b87 <_strcmp+0x10b>
D:\OneDrive\Study\Operating Systems\实验\project6\codes/./lib/utilsC.c:196
		return 1;
    2b7f:	66 b8 01 00 00 00    	mov    eax,0x1
    2b85:	eb 06                	jmp    2b8d <_strcmp+0x111>
D:\OneDrive\Study\Operating Systems\实验\project6\codes/./lib/utilsC.c:198
	} else {
		return 0;
    2b87:	66 b8 00 00 00 00    	mov    eax,0x0
D:\OneDrive\Study\Operating Systems\实验\project6\codes/./lib/utilsC.c:200
	}
}
    2b8d:	66 c9                	leave  
    2b8f:	66 c3                	ret    

00002b91 <_strncpy>:
strncpy():
D:\OneDrive\Study\Operating Systems\实验\project6\codes/./lib/utilsC.c:203

void strncpy(char * sour, char * des, int len)
{
    2b91:	66 55                	push   ebp
    2b93:	66 89 e5             	mov    ebp,esp
    2b96:	66 83 ec 04          	sub    esp,0x4
D:\OneDrive\Study\Operating Systems\实验\project6\codes/./lib/utilsC.c:204
	int i = 0;
    2b9a:	67 66 c7 45 fc 00 00 	mov    DWORD PTR [ebp-0x4],0x0
    2ba1:	00 00 
D:\OneDrive\Study\Operating Systems\实验\project6\codes/./lib/utilsC.c:205
	while(sour[i] && i < len){
    2ba3:	eb 25                	jmp    2bca <_strncpy+0x39>
D:\OneDrive\Study\Operating Systems\实验\project6\codes/./lib/utilsC.c:206
		des[i] = sour[i];
    2ba5:	67 66 8b 55 fc       	mov    edx,DWORD PTR [ebp-0x4]
    2baa:	67 66 8b 45 0c       	mov    eax,DWORD PTR [ebp+0xc]
    2baf:	66 01 c2             	add    edx,eax
    2bb2:	67 66 8b 4d fc       	mov    ecx,DWORD PTR [ebp-0x4]
    2bb7:	67 66 8b 45 08       	mov    eax,DWORD PTR [ebp+0x8]
    2bbc:	66 01 c8             	add    eax,ecx
    2bbf:	67 8a 00             	mov    al,BYTE PTR [eax]
    2bc2:	67 88 02             	mov    BYTE PTR [edx],al
D:\OneDrive\Study\Operating Systems\实验\project6\codes/./lib/utilsC.c:207
		++i;
    2bc5:	67 66 ff 45 fc       	inc    DWORD PTR [ebp-0x4]
D:\OneDrive\Study\Operating Systems\实验\project6\codes/./lib/utilsC.c:205
	while(sour[i] && i < len){
    2bca:	67 66 8b 55 fc       	mov    edx,DWORD PTR [ebp-0x4]
    2bcf:	67 66 8b 45 08       	mov    eax,DWORD PTR [ebp+0x8]
    2bd4:	66 01 d0             	add    eax,edx
    2bd7:	67 8a 00             	mov    al,BYTE PTR [eax]
    2bda:	84 c0                	test   al,al
    2bdc:	74 0c                	je     2bea <_strncpy+0x59>
    2bde:	67 66 8b 45 fc       	mov    eax,DWORD PTR [ebp-0x4]
    2be3:	67 66 3b 45 10       	cmp    eax,DWORD PTR [ebp+0x10]
    2be8:	7c bb                	jl     2ba5 <_strncpy+0x14>
D:\OneDrive\Study\Operating Systems\实验\project6\codes/./lib/utilsC.c:209
	}
	des[i] = '\0';
    2bea:	67 66 8b 55 fc       	mov    edx,DWORD PTR [ebp-0x4]
    2bef:	67 66 8b 45 0c       	mov    eax,DWORD PTR [ebp+0xc]
    2bf4:	66 01 d0             	add    eax,edx
    2bf7:	67 c6 00 00          	mov    BYTE PTR [eax],0x0
D:\OneDrive\Study\Operating Systems\实验\project6\codes/./lib/utilsC.c:210
}
    2bfb:	90                   	nop
    2bfc:	66 c9                	leave  
    2bfe:	66 c3                	ret    

00002c00 <_int2str>:
int2str():
D:\OneDrive\Study\Operating Systems\实验\project6\codes/./lib/utilsC.c:213

void int2str(int org, char * str)
{
    2c00:	66 55                	push   ebp
    2c02:	66 89 e5             	mov    ebp,esp
    2c05:	66 53                	push   ebx
    2c07:	66 83 ec 0c          	sub    esp,0xc
D:\OneDrive\Study\Operating Systems\实验\project6\codes/./lib/utilsC.c:214
	int num = 0;
    2c0b:	67 66 c7 45 f8 00 00 	mov    DWORD PTR [ebp-0x8],0x0
    2c12:	00 00 
D:\OneDrive\Study\Operating Systems\实验\project6\codes/./lib/utilsC.c:215
	int cp = org;
    2c14:	67 66 8b 45 08       	mov    eax,DWORD PTR [ebp+0x8]
    2c19:	67 66 89 45 f4       	mov    DWORD PTR [ebp-0xc],eax
D:\OneDrive\Study\Operating Systems\实验\project6\codes/./lib/utilsC.c:216
	while(cp != 0)
    2c1e:	eb 29                	jmp    2c49 <_int2str+0x49>
D:\OneDrive\Study\Operating Systems\实验\project6\codes/./lib/utilsC.c:218
	{
		cp /= 10;
    2c20:	67 66 8b 4d f4       	mov    ecx,DWORD PTR [ebp-0xc]
    2c25:	66 b8 67 66 66 66    	mov    eax,0x66666667
    2c2b:	66 f7 e9             	imul   ecx
    2c2e:	66 c1 fa 02          	sar    edx,0x2
    2c32:	66 89 c8             	mov    eax,ecx
    2c35:	66 c1 f8 1f          	sar    eax,0x1f
    2c39:	66 29 c2             	sub    edx,eax
    2c3c:	66 89 d0             	mov    eax,edx
    2c3f:	67 66 89 45 f4       	mov    DWORD PTR [ebp-0xc],eax
D:\OneDrive\Study\Operating Systems\实验\project6\codes/./lib/utilsC.c:219
		++num;
    2c44:	67 66 ff 45 f8       	inc    DWORD PTR [ebp-0x8]
D:\OneDrive\Study\Operating Systems\实验\project6\codes/./lib/utilsC.c:216
	while(cp != 0)
    2c49:	67 66 83 7d f4 00    	cmp    DWORD PTR [ebp-0xc],0x0
    2c4f:	75 cf                	jne    2c20 <_int2str+0x20>
D:\OneDrive\Study\Operating Systems\实验\project6\codes/./lib/utilsC.c:221
	}
	if(org == 0)
    2c51:	67 66 83 7d 08 00    	cmp    DWORD PTR [ebp+0x8],0x0
    2c57:	75 09                	jne    2c62 <_int2str+0x62>
D:\OneDrive\Study\Operating Systems\实验\project6\codes/./lib/utilsC.c:222
		num = 1;
    2c59:	67 66 c7 45 f8 01 00 	mov    DWORD PTR [ebp-0x8],0x1
    2c60:	00 00 
D:\OneDrive\Study\Operating Systems\实验\project6\codes/./lib/utilsC.c:223
	str[num--] = '\0';
    2c62:	67 66 8b 45 f8       	mov    eax,DWORD PTR [ebp-0x8]
    2c67:	67 66 8d 50 ff       	lea    edx,[eax-0x1]
    2c6c:	67 66 89 55 f8       	mov    DWORD PTR [ebp-0x8],edx
    2c71:	66 89 c2             	mov    edx,eax
    2c74:	67 66 8b 45 0c       	mov    eax,DWORD PTR [ebp+0xc]
    2c79:	66 01 d0             	add    eax,edx
    2c7c:	67 c6 00 00          	mov    BYTE PTR [eax],0x0
D:\OneDrive\Study\Operating Systems\实验\project6\codes/./lib/utilsC.c:224
	for(int i = num; i >= 0; --i)
    2c80:	67 66 8b 45 f8       	mov    eax,DWORD PTR [ebp-0x8]
    2c85:	67 66 89 45 f0       	mov    DWORD PTR [ebp-0x10],eax
    2c8a:	eb 70                	jmp    2cfc <_int2str+0xfc>
D:\OneDrive\Study\Operating Systems\实验\project6\codes/./lib/utilsC.c:226
	{
		str[i] = org % 10 + 48;
    2c8c:	67 66 8b 55 f0       	mov    edx,DWORD PTR [ebp-0x10]
    2c91:	67 66 8b 45 0c       	mov    eax,DWORD PTR [ebp+0xc]
    2c96:	67 66 8d 1c 02       	lea    ebx,[edx+eax*1]
    2c9b:	67 66 8b 4d 08       	mov    ecx,DWORD PTR [ebp+0x8]
    2ca0:	66 b8 67 66 66 66    	mov    eax,0x66666667
    2ca6:	66 f7 e9             	imul   ecx
    2ca9:	66 c1 fa 02          	sar    edx,0x2
    2cad:	66 89 c8             	mov    eax,ecx
    2cb0:	66 c1 f8 1f          	sar    eax,0x1f
    2cb4:	66 29 c2             	sub    edx,eax
    2cb7:	66 89 d0             	mov    eax,edx
    2cba:	66 c1 e0 02          	shl    eax,0x2
    2cbe:	66 01 d0             	add    eax,edx
    2cc1:	66 01 c0             	add    eax,eax
    2cc4:	66 29 c1             	sub    ecx,eax
    2cc7:	66 89 ca             	mov    edx,ecx
    2cca:	88 d0                	mov    al,dl
    2ccc:	66 83 c0 30          	add    eax,0x30
    2cd0:	67 88 03             	mov    BYTE PTR [ebx],al
D:\OneDrive\Study\Operating Systems\实验\project6\codes/./lib/utilsC.c:227
		org /= 10;
    2cd3:	67 66 8b 4d 08       	mov    ecx,DWORD PTR [ebp+0x8]
    2cd8:	66 b8 67 66 66 66    	mov    eax,0x66666667
    2cde:	66 f7 e9             	imul   ecx
    2ce1:	66 c1 fa 02          	sar    edx,0x2
    2ce5:	66 89 c8             	mov    eax,ecx
    2ce8:	66 c1 f8 1f          	sar    eax,0x1f
    2cec:	66 29 c2             	sub    edx,eax
    2cef:	66 89 d0             	mov    eax,edx
    2cf2:	67 66 89 45 08       	mov    DWORD PTR [ebp+0x8],eax
D:\OneDrive\Study\Operating Systems\实验\project6\codes/./lib/utilsC.c:224
	for(int i = num; i >= 0; --i)
    2cf7:	67 66 ff 4d f0       	dec    DWORD PTR [ebp-0x10]
    2cfc:	67 66 83 7d f0 00    	cmp    DWORD PTR [ebp-0x10],0x0
    2d02:	79 88                	jns    2c8c <_int2str+0x8c>
D:\OneDrive\Study\Operating Systems\实验\project6\codes/./lib/utilsC.c:229
	}
}
    2d04:	90                   	nop
    2d05:	66 83 c4 0c          	add    esp,0xc
    2d09:	66 5b                	pop    ebx
    2d0b:	66 5d                	pop    ebp
    2d0d:	66 c3                	ret    

00002d0f <_hashfun>:
hashfun():
D:\OneDrive\Study\Operating Systems\实验\project6\codes/./lib/utilsC.c:238

////////////// File ////////////////



int hashfun(char * key){
    2d0f:	66 55                	push   ebp
    2d11:	66 89 e5             	mov    ebp,esp
    2d14:	66 83 ec 0c          	sub    esp,0xc
D:\OneDrive\Study\Operating Systems\实验\project6\codes/./lib/utilsC.c:239
	int weight = 29;
    2d18:	67 66 c7 45 f4 1d 00 	mov    DWORD PTR [ebp-0xc],0x1d
    2d1f:	00 00 
D:\OneDrive\Study\Operating Systems\实验\project6\codes/./lib/utilsC.c:240
	int i = 0;
    2d21:	67 66 c7 45 fc 00 00 	mov    DWORD PTR [ebp-0x4],0x0
    2d28:	00 00 
D:\OneDrive\Study\Operating Systems\实验\project6\codes/./lib/utilsC.c:241
	int ret = 0;
    2d2a:	67 66 c7 45 f8 00 00 	mov    DWORD PTR [ebp-0x8],0x0
    2d31:	00 00 
D:\OneDrive\Study\Operating Systems\实验\project6\codes/./lib/utilsC.c:242
	while(key[i]){
    2d33:	eb 3a                	jmp    2d6f <_hashfun+0x60>
D:\OneDrive\Study\Operating Systems\实验\project6\codes/./lib/utilsC.c:243
		ret = (ret + key[i]*weight) % Len;
    2d35:	67 66 8b 55 fc       	mov    edx,DWORD PTR [ebp-0x4]
    2d3a:	67 66 8b 45 08       	mov    eax,DWORD PTR [ebp+0x8]
    2d3f:	66 01 d0             	add    eax,edx
    2d42:	67 8a 00             	mov    al,BYTE PTR [eax]
    2d45:	66 0f be c0          	movsx  eax,al
    2d49:	67 66 0f af 45 f4    	imul   eax,DWORD PTR [ebp-0xc]
    2d4f:	66 89 c2             	mov    edx,eax
    2d52:	67 66 8b 45 f8       	mov    eax,DWORD PTR [ebp-0x8]
    2d57:	66 01 d0             	add    eax,edx
    2d5a:	66 b9 32 00 00 00    	mov    ecx,0x32
    2d60:	66 99                	cdq    
    2d62:	66 f7 f9             	idiv   ecx
    2d65:	67 66 89 55 f8       	mov    DWORD PTR [ebp-0x8],edx
D:\OneDrive\Study\Operating Systems\实验\project6\codes/./lib/utilsC.c:244
		++i;
    2d6a:	67 66 ff 45 fc       	inc    DWORD PTR [ebp-0x4]
D:\OneDrive\Study\Operating Systems\实验\project6\codes/./lib/utilsC.c:242
	while(key[i]){
    2d6f:	67 66 8b 55 fc       	mov    edx,DWORD PTR [ebp-0x4]
    2d74:	67 66 8b 45 08       	mov    eax,DWORD PTR [ebp+0x8]
    2d79:	66 01 d0             	add    eax,edx
    2d7c:	67 8a 00             	mov    al,BYTE PTR [eax]
    2d7f:	84 c0                	test   al,al
    2d81:	75 b2                	jne    2d35 <_hashfun+0x26>
D:\OneDrive\Study\Operating Systems\实验\project6\codes/./lib/utilsC.c:246
	}
	return ret;
    2d83:	67 66 8b 45 f8       	mov    eax,DWORD PTR [ebp-0x8]
D:\OneDrive\Study\Operating Systems\实验\project6\codes/./lib/utilsC.c:247
}
    2d88:	66 c9                	leave  
    2d8a:	66 c3                	ret    

00002d8c <_hash>:
hash():
D:\OneDrive\Study\Operating Systems\实验\project6\codes/./lib/utilsC.c:250

int hash(char * key, struct info record)
{
    2d8c:	66 55                	push   ebp
    2d8e:	66 89 e5             	mov    ebp,esp
    2d91:	66 83 ec 18          	sub    esp,0x18
D:\OneDrive\Study\Operating Systems\实验\project6\codes/./lib/utilsC.c:251
	int inicode = hashfun(key);
    2d95:	67 66 8b 45 08       	mov    eax,DWORD PTR [ebp+0x8]
    2d9a:	67 66 89 04 24       	mov    DWORD PTR [esp],eax
    2d9f:	66 e8 6a ff ff ff    	call   2d0f <_hashfun>
    2da5:	67 66 89 45 f4       	mov    DWORD PTR [ebp-0xc],eax
D:\OneDrive\Study\Operating Systems\实验\project6\codes/./lib/utilsC.c:252
	int code = inicode, i = 1;
    2daa:	67 66 8b 45 f4       	mov    eax,DWORD PTR [ebp-0xc]
    2daf:	67 66 89 45 fc       	mov    DWORD PTR [ebp-0x4],eax
    2db4:	67 66 c7 45 f8 01 00 	mov    DWORD PTR [ebp-0x8],0x1
    2dbb:	00 00 
D:\OneDrive\Study\Operating Systems\实验\project6\codes/./lib/utilsC.c:253
	while(information[code].type!=null){
    2dbd:	eb 2b                	jmp    2dea <_hash+0x5e>
D:\OneDrive\Study\Operating Systems\实验\project6\codes/./lib/utilsC.c:254
		code = (inicode + i * i) % Len;
    2dbf:	67 66 8b 45 f8       	mov    eax,DWORD PTR [ebp-0x8]
    2dc4:	67 66 0f af 45 f8    	imul   eax,DWORD PTR [ebp-0x8]
    2dca:	66 89 c2             	mov    edx,eax
    2dcd:	67 66 8b 45 f4       	mov    eax,DWORD PTR [ebp-0xc]
    2dd2:	66 01 d0             	add    eax,edx
    2dd5:	66 b9 32 00 00 00    	mov    ecx,0x32
    2ddb:	66 99                	cdq    
    2ddd:	66 f7 f9             	idiv   ecx
    2de0:	67 66 89 55 fc       	mov    DWORD PTR [ebp-0x4],edx
D:\OneDrive\Study\Operating Systems\实验\project6\codes/./lib/utilsC.c:255
		++i;
    2de5:	67 66 ff 45 f8       	inc    DWORD PTR [ebp-0x8]
D:\OneDrive\Study\Operating Systems\实验\project6\codes/./lib/utilsC.c:253
	while(information[code].type!=null){
    2dea:	67 66 8b 55 fc       	mov    edx,DWORD PTR [ebp-0x4]
    2def:	66 89 d0             	mov    eax,edx
    2df2:	66 01 c0             	add    eax,eax
    2df5:	66 01 d0             	add    eax,edx
    2df8:	66 c1 e0 02          	shl    eax,0x2
    2dfc:	66 01 d0             	add    eax,edx
    2dff:	66 c1 e0 02          	shl    eax,0x2
    2e03:	66 05 e0 87 00 00    	add    eax,0x87e0
    2e09:	67 66 8b 00          	mov    eax,DWORD PTR [eax]
    2e0d:	66 85 c0             	test   eax,eax
    2e10:	75 ad                	jne    2dbf <_hash+0x33>
D:\OneDrive\Study\Operating Systems\实验\project6\codes/./lib/utilsC.c:259
	}


	information[code].type = record.type;
    2e12:	67 66 8b 4d 2c       	mov    ecx,DWORD PTR [ebp+0x2c]
    2e17:	67 66 8b 55 fc       	mov    edx,DWORD PTR [ebp-0x4]
    2e1c:	66 89 d0             	mov    eax,edx
    2e1f:	66 01 c0             	add    eax,eax
    2e22:	66 01 d0             	add    eax,edx
    2e25:	66 c1 e0 02          	shl    eax,0x2
    2e29:	66 01 d0             	add    eax,edx
    2e2c:	66 c1 e0 02          	shl    eax,0x2
    2e30:	66 05 e0 87 00 00    	add    eax,0x87e0
    2e36:	67 66 89 08          	mov    DWORD PTR [eax],ecx
D:\OneDrive\Study\Operating Systems\实验\project6\codes/./lib/utilsC.c:260
	strncpy(record.name, information[code].name, strlen(record.name));
    2e3a:	67 66 8d 45 0c       	lea    eax,[ebp+0xc]
    2e3f:	67 66 89 04 24       	mov    DWORD PTR [esp],eax
    2e44:	66 e8 61 fb ff ff    	call   29ab <_strlen>
    2e4a:	66 89 c1             	mov    ecx,eax
    2e4d:	67 66 8b 55 fc       	mov    edx,DWORD PTR [ebp-0x4]
    2e52:	66 89 d0             	mov    eax,edx
    2e55:	66 01 c0             	add    eax,eax
    2e58:	66 01 d0             	add    eax,edx
    2e5b:	66 c1 e0 02          	shl    eax,0x2
    2e5f:	66 01 d0             	add    eax,edx
    2e62:	66 c1 e0 02          	shl    eax,0x2
    2e66:	66 05 c0 87 00 00    	add    eax,0x87c0
    2e6c:	67 66 89 4c 24 08    	mov    DWORD PTR [esp+0x8],ecx
    2e72:	67 66 89 44 24 04    	mov    DWORD PTR [esp+0x4],eax
    2e78:	67 66 8d 45 0c       	lea    eax,[ebp+0xc]
    2e7d:	67 66 89 04 24       	mov    DWORD PTR [esp],eax
    2e82:	66 e8 09 fd ff ff    	call   2b91 <_strncpy>
D:\OneDrive\Study\Operating Systems\实验\project6\codes/./lib/utilsC.c:261
	information[code].size = record.size;
    2e88:	67 66 8b 4d 34       	mov    ecx,DWORD PTR [ebp+0x34]
    2e8d:	67 66 8b 55 fc       	mov    edx,DWORD PTR [ebp-0x4]
    2e92:	66 89 d0             	mov    eax,edx
    2e95:	66 01 c0             	add    eax,eax
    2e98:	66 01 d0             	add    eax,edx
    2e9b:	66 c1 e0 02          	shl    eax,0x2
    2e9f:	66 01 d0             	add    eax,edx
    2ea2:	66 c1 e0 02          	shl    eax,0x2
    2ea6:	66 05 e8 87 00 00    	add    eax,0x87e8
    2eac:	67 66 89 08          	mov    DWORD PTR [eax],ecx
D:\OneDrive\Study\Operating Systems\实验\project6\codes/./lib/utilsC.c:262
	information[code].lmaddress = record.lmaddress;
    2eb0:	67 66 8b 4d 30       	mov    ecx,DWORD PTR [ebp+0x30]
    2eb5:	67 66 8b 55 fc       	mov    edx,DWORD PTR [ebp-0x4]
    2eba:	66 89 d0             	mov    eax,edx
    2ebd:	66 01 c0             	add    eax,eax
    2ec0:	66 01 d0             	add    eax,edx
    2ec3:	66 c1 e0 02          	shl    eax,0x2
    2ec7:	66 01 d0             	add    eax,edx
    2eca:	66 c1 e0 02          	shl    eax,0x2
    2ece:	66 05 e4 87 00 00    	add    eax,0x87e4
    2ed4:	67 66 89 08          	mov    DWORD PTR [eax],ecx
D:\OneDrive\Study\Operating Systems\实验\project6\codes/./lib/utilsC.c:263
	information[code].deleted = record.deleted;
    2ed8:	67 66 8b 4d 38       	mov    ecx,DWORD PTR [ebp+0x38]
    2edd:	67 66 8b 55 fc       	mov    edx,DWORD PTR [ebp-0x4]
    2ee2:	66 89 d0             	mov    eax,edx
    2ee5:	66 01 c0             	add    eax,eax
    2ee8:	66 01 d0             	add    eax,edx
    2eeb:	66 c1 e0 02          	shl    eax,0x2
    2eef:	66 01 d0             	add    eax,edx
    2ef2:	66 c1 e0 02          	shl    eax,0x2
    2ef6:	66 05 ec 87 00 00    	add    eax,0x87ec
    2efc:	67 66 89 08          	mov    DWORD PTR [eax],ecx
D:\OneDrive\Study\Operating Systems\实验\project6\codes/./lib/utilsC.c:264
	return code;
    2f00:	67 66 8b 45 fc       	mov    eax,DWORD PTR [ebp-0x4]
D:\OneDrive\Study\Operating Systems\实验\project6\codes/./lib/utilsC.c:265
}
    2f05:	66 c9                	leave  
    2f07:	66 c3                	ret    

00002f09 <_find>:
find():
D:\OneDrive\Study\Operating Systems\实验\project6\codes/./lib/utilsC.c:268

int find(char * key)
{
    2f09:	66 55                	push   ebp
    2f0b:	66 89 e5             	mov    ebp,esp
    2f0e:	66 83 ec 14          	sub    esp,0x14
D:\OneDrive\Study\Operating Systems\实验\project6\codes/./lib/utilsC.c:269
	int inicode = hashfun(key);
    2f12:	67 66 8b 45 08       	mov    eax,DWORD PTR [ebp+0x8]
    2f17:	67 66 89 04 24       	mov    DWORD PTR [esp],eax
    2f1c:	66 e8 ed fd ff ff    	call   2d0f <_hashfun>
    2f22:	67 66 89 45 f4       	mov    DWORD PTR [ebp-0xc],eax
D:\OneDrive\Study\Operating Systems\实验\project6\codes/./lib/utilsC.c:270
	int code = inicode, i = 1;
    2f27:	67 66 8b 45 f4       	mov    eax,DWORD PTR [ebp-0xc]
    2f2c:	67 66 89 45 fc       	mov    DWORD PTR [ebp-0x4],eax
    2f31:	67 66 c7 45 f8 01 00 	mov    DWORD PTR [ebp-0x8],0x1
    2f38:	00 00 
D:\OneDrive\Study\Operating Systems\实验\project6\codes/./lib/utilsC.c:271
	while(information[code].type == null || strcmp(key, information[code].name) != 0){
    2f3a:	eb 3b                	jmp    2f77 <_find+0x6e>
D:\OneDrive\Study\Operating Systems\实验\project6\codes/./lib/utilsC.c:272
		code = (inicode + i * i) % Len;
    2f3c:	67 66 8b 45 f8       	mov    eax,DWORD PTR [ebp-0x8]
    2f41:	67 66 0f af 45 f8    	imul   eax,DWORD PTR [ebp-0x8]
    2f47:	66 89 c2             	mov    edx,eax
    2f4a:	67 66 8b 45 f4       	mov    eax,DWORD PTR [ebp-0xc]
    2f4f:	66 01 d0             	add    eax,edx
    2f52:	66 b9 32 00 00 00    	mov    ecx,0x32
    2f58:	66 99                	cdq    
    2f5a:	66 f7 f9             	idiv   ecx
    2f5d:	67 66 89 55 fc       	mov    DWORD PTR [ebp-0x4],edx
D:\OneDrive\Study\Operating Systems\实验\project6\codes/./lib/utilsC.c:273
		++i;
    2f62:	67 66 ff 45 f8       	inc    DWORD PTR [ebp-0x8]
D:\OneDrive\Study\Operating Systems\实验\project6\codes/./lib/utilsC.c:274
		if(i > Len)
    2f67:	67 66 83 7d f8 32    	cmp    DWORD PTR [ebp-0x8],0x32
    2f6d:	7e 08                	jle    2f77 <_find+0x6e>
D:\OneDrive\Study\Operating Systems\实验\project6\codes/./lib/utilsC.c:275
			return -1;
    2f6f:	66 b8 ff ff ff ff    	mov    eax,0xffffffff
    2f75:	eb 69                	jmp    2fe0 <_find+0xd7>
D:\OneDrive\Study\Operating Systems\实验\project6\codes/./lib/utilsC.c:271
	while(information[code].type == null || strcmp(key, information[code].name) != 0){
    2f77:	67 66 8b 55 fc       	mov    edx,DWORD PTR [ebp-0x4]
    2f7c:	66 89 d0             	mov    eax,edx
    2f7f:	66 01 c0             	add    eax,eax
    2f82:	66 01 d0             	add    eax,edx
    2f85:	66 c1 e0 02          	shl    eax,0x2
    2f89:	66 01 d0             	add    eax,edx
    2f8c:	66 c1 e0 02          	shl    eax,0x2
    2f90:	66 05 e0 87 00 00    	add    eax,0x87e0
    2f96:	67 66 8b 00          	mov    eax,DWORD PTR [eax]
    2f9a:	66 85 c0             	test   eax,eax
    2f9d:	74 9d                	je     2f3c <_find+0x33>
    2f9f:	67 66 8b 55 fc       	mov    edx,DWORD PTR [ebp-0x4]
    2fa4:	66 89 d0             	mov    eax,edx
    2fa7:	66 01 c0             	add    eax,eax
    2faa:	66 01 d0             	add    eax,edx
    2fad:	66 c1 e0 02          	shl    eax,0x2
    2fb1:	66 01 d0             	add    eax,edx
    2fb4:	66 c1 e0 02          	shl    eax,0x2
    2fb8:	66 05 c0 87 00 00    	add    eax,0x87c0
    2fbe:	67 66 89 44 24 04    	mov    DWORD PTR [esp+0x4],eax
    2fc4:	67 66 8b 45 08       	mov    eax,DWORD PTR [ebp+0x8]
    2fc9:	67 66 89 04 24       	mov    DWORD PTR [esp],eax
    2fce:	66 e8 a8 fa ff ff    	call   2a7c <_strcmp>
    2fd4:	66 85 c0             	test   eax,eax
    2fd7:	0f 85 61 ff          	jne    2f3c <_find+0x33>
D:\OneDrive\Study\Operating Systems\实验\project6\codes/./lib/utilsC.c:277
	}
	return code;
    2fdb:	67 66 8b 45 fc       	mov    eax,DWORD PTR [ebp-0x4]
D:\OneDrive\Study\Operating Systems\实验\project6\codes/./lib/utilsC.c:278
}
    2fe0:	66 c9                	leave  
    2fe2:	66 c3                	ret    

00002fe4 <_initialFile>:
initialFile():
D:\OneDrive\Study\Operating Systems\实验\project6\codes/./lib/utilsC.c:281

void initialFile()
{
    2fe4:	66 55                	push   ebp
    2fe6:	66 89 e5             	mov    ebp,esp
    2fe9:	66 83 ec 10          	sub    esp,0x10
D:\OneDrive\Study\Operating Systems\实验\project6\codes/./lib/utilsC.c:282
	FAT = (short*)getRecords(segOfOs, offsetOfFat);
    2fed:	67 66 c7 44 24 04 00 	mov    DWORD PTR [esp+0x4],0xe000
    2ff4:	e0 00 00 
    2ff7:	67 66 c7 04 24 00 20 	mov    DWORD PTR [esp],0x2000
    2ffe:	00 00 
    3000:	66 e8 eb ed ff ff    	call   1df1 <_getRecords>
    3006:	66 a3 78 87          	mov    ds:0x8778,eax
D:\OneDrive\Study\Operating Systems\实验\project6\codes/./lib/utilsC.c:283
	for(int i = 0; i < Len; ++i){
    300a:	67 66 c7 45 fc 00 00 	mov    DWORD PTR [ebp-0x4],0x0
    3011:	00 00 
    3013:	eb 2c                	jmp    3041 <_initialFile+0x5d>
D:\OneDrive\Study\Operating Systems\实验\project6\codes/./lib/utilsC.c:284
		information[i].type=null;
    3015:	67 66 8b 55 fc       	mov    edx,DWORD PTR [ebp-0x4]
    301a:	66 89 d0             	mov    eax,edx
    301d:	66 01 c0             	add    eax,eax
    3020:	66 01 d0             	add    eax,edx
    3023:	66 c1 e0 02          	shl    eax,0x2
    3027:	66 01 d0             	add    eax,edx
    302a:	66 c1 e0 02          	shl    eax,0x2
    302e:	66 05 e0 87 00 00    	add    eax,0x87e0
    3034:	67 66 c7 00 00 00 00 	mov    DWORD PTR [eax],0x0
    303b:	00 
D:\OneDrive\Study\Operating Systems\实验\project6\codes/./lib/utilsC.c:283
	for(int i = 0; i < Len; ++i){
    303c:	67 66 ff 45 fc       	inc    DWORD PTR [ebp-0x4]
    3041:	67 66 83 7d fc 31    	cmp    DWORD PTR [ebp-0x4],0x31
    3047:	7e cc                	jle    3015 <_initialFile+0x31>
D:\OneDrive\Study\Operating Systems\实验\project6\codes/./lib/utilsC.c:286
	}
	no.lmaddress = 0;
    3049:	66 c7 06 a4 87 00 00 	mov    DWORD PTR ds:0x87a4,0x0
    3050:	00 00 
D:\OneDrive\Study\Operating Systems\实验\project6\codes/./lib/utilsC.c:287
	no.size = 0;
    3052:	66 c7 06 a8 87 00 00 	mov    DWORD PTR ds:0x87a8,0x0
    3059:	00 00 
D:\OneDrive\Study\Operating Systems\实验\project6\codes/./lib/utilsC.c:288
	no.type = null;
    305b:	66 c7 06 a0 87 00 00 	mov    DWORD PTR ds:0x87a0,0x0
    3062:	00 00 
D:\OneDrive\Study\Operating Systems\实验\project6\codes/./lib/utilsC.c:289
	strncpy("", no.name, 0);
    3064:	67 66 c7 44 24 08 00 	mov    DWORD PTR [esp+0x8],0x0
    306b:	00 00 00 
    306e:	67 66 c7 44 24 04 80 	mov    DWORD PTR [esp+0x4],0x8780
    3075:	87 00 00 
    3078:	67 66 c7 04 24 c3 60 	mov    DWORD PTR [esp],0x60c3
    307f:	00 00 
    3081:	66 e8 0a fb ff ff    	call   2b91 <_strncpy>
D:\OneDrive\Study\Operating Systems\实验\project6\codes/./lib/utilsC.c:290
	loadFiles();
    3087:	66 e8 05 00 00 00    	call   3092 <_loadFiles>
D:\OneDrive\Study\Operating Systems\实验\project6\codes/./lib/utilsC.c:291
}
    308d:	90                   	nop
    308e:	66 c9                	leave  
    3090:	66 c3                	ret    

00003092 <_loadFiles>:
loadFiles():
D:\OneDrive\Study\Operating Systems\实验\project6\codes/./lib/utilsC.c:295


void loadFiles()
{
    3092:	66 55                	push   ebp
    3094:	66 89 e5             	mov    ebp,esp
    3097:	66 57                	push   edi
    3099:	66 56                	push   esi
    309b:	66 81 ec a4 00 00 00 	sub    esp,0xa4
D:\OneDrive\Study\Operating Systems\实验\project6\codes/./lib/utilsC.c:296
	char * rawRecords = getRecords(segOfOs, offsetOfRecord);
    30a2:	67 66 c7 44 24 04 00 	mov    DWORD PTR [esp+0x4],0xd000
    30a9:	d0 00 00 
    30ac:	67 66 c7 04 24 00 20 	mov    DWORD PTR [esp],0x2000
    30b3:	00 00 
    30b5:	66 e8 36 ed ff ff    	call   1df1 <_getRecords>
    30bb:	67 66 89 45 e4       	mov    DWORD PTR [ebp-0x1c],eax
D:\OneDrive\Study\Operating Systems\实验\project6\codes/./lib/utilsC.c:297
	int i = 0;
    30c0:	67 66 c7 45 f4 00 00 	mov    DWORD PTR [ebp-0xc],0x0
    30c7:	00 00 
D:\OneDrive\Study\Operating Systems\实验\project6\codes/./lib/utilsC.c:298
	int l = 0;
    30c9:	67 66 c7 45 f0 00 00 	mov    DWORD PTR [ebp-0x10],0x0
    30d0:	00 00 
D:\OneDrive\Study\Operating Systems\实验\project6\codes/./lib/utilsC.c:299
	int size = 0;
    30d2:	67 66 c7 45 ec 00 00 	mov    DWORD PTR [ebp-0x14],0x0
    30d9:	00 00 
D:\OneDrive\Study\Operating Systems\实验\project6\codes/./lib/utilsC.c:300
	int place = 0;
    30db:	67 66 c7 45 e8 00 00 	mov    DWORD PTR [ebp-0x18],0x0
    30e2:	00 00 
D:\OneDrive\Study\Operating Systems\实验\project6\codes/./lib/utilsC.c:302
	char name[30];
	enum fileType t = null;
    30e4:	67 66 c7 45 e0 00 00 	mov    DWORD PTR [ebp-0x20],0x0
    30eb:	00 00 
D:\OneDrive\Study\Operating Systems\实验\project6\codes/./lib/utilsC.c:304
	struct info tmp;
	while(rawRecords[i] != '\n')
    30ed:	e9 17 02             	jmp    3307 <_loadFiles+0x275>
D:\OneDrive\Study\Operating Systems\实验\project6\codes/./lib/utilsC.c:306
	{
		size = 0;
    30f0:	67 66 c7 45 ec 00 00 	mov    DWORD PTR [ebp-0x14],0x0
    30f7:	00 00 
D:\OneDrive\Study\Operating Systems\实验\project6\codes/./lib/utilsC.c:307
		place = 0;
    30f9:	67 66 c7 45 e8 00 00 	mov    DWORD PTR [ebp-0x18],0x0
    3100:	00 00 
D:\OneDrive\Study\Operating Systems\实验\project6\codes/./lib/utilsC.c:309
		// name
		++i;
    3102:	67 66 ff 45 f4       	inc    DWORD PTR [ebp-0xc]
D:\OneDrive\Study\Operating Systems\实验\project6\codes/./lib/utilsC.c:310
		l = 0;
    3107:	67 66 c7 45 f0 00 00 	mov    DWORD PTR [ebp-0x10],0x0
    310e:	00 00 
D:\OneDrive\Study\Operating Systems\实验\project6\codes/./lib/utilsC.c:311
		while(rawRecords[i]!='|'){
    3110:	eb 0a                	jmp    311c <_loadFiles+0x8a>
D:\OneDrive\Study\Operating Systems\实验\project6\codes/./lib/utilsC.c:312
			++i;
    3112:	67 66 ff 45 f4       	inc    DWORD PTR [ebp-0xc]
D:\OneDrive\Study\Operating Systems\实验\project6\codes/./lib/utilsC.c:313
			++l;
    3117:	67 66 ff 45 f0       	inc    DWORD PTR [ebp-0x10]
D:\OneDrive\Study\Operating Systems\实验\project6\codes/./lib/utilsC.c:311
		while(rawRecords[i]!='|'){
    311c:	67 66 8b 55 f4       	mov    edx,DWORD PTR [ebp-0xc]
    3121:	67 66 8b 45 e4       	mov    eax,DWORD PTR [ebp-0x1c]
    3126:	66 01 d0             	add    eax,edx
    3129:	67 8a 00             	mov    al,BYTE PTR [eax]
    312c:	3c 7c                	cmp    al,0x7c
    312e:	75 e2                	jne    3112 <_loadFiles+0x80>
D:\OneDrive\Study\Operating Systems\实验\project6\codes/./lib/utilsC.c:315
		}
		++i;
    3130:	67 66 ff 45 f4       	inc    DWORD PTR [ebp-0xc]
D:\OneDrive\Study\Operating Systems\实验\project6\codes/./lib/utilsC.c:316
		strncpy(rawRecords+i-l-1, name, l);
    3135:	67 66 8b 55 f4       	mov    edx,DWORD PTR [ebp-0xc]
    313a:	67 66 8b 45 f0       	mov    eax,DWORD PTR [ebp-0x10]
    313f:	66 29 c2             	sub    edx,eax
    3142:	66 89 d0             	mov    eax,edx
    3145:	67 66 8d 50 ff       	lea    edx,[eax-0x1]
    314a:	67 66 8b 45 e4       	mov    eax,DWORD PTR [ebp-0x1c]
    314f:	66 01 c2             	add    edx,eax
    3152:	67 66 8b 45 f0       	mov    eax,DWORD PTR [ebp-0x10]
    3157:	67 66 89 44 24 08    	mov    DWORD PTR [esp+0x8],eax
    315d:	67 66 8d 45 c2       	lea    eax,[ebp-0x3e]
    3162:	67 66 89 44 24 04    	mov    DWORD PTR [esp+0x4],eax
    3168:	67 66 89 14 24       	mov    DWORD PTR [esp],edx
    316d:	66 e8 1e fa ff ff    	call   2b91 <_strncpy>
D:\OneDrive\Study\Operating Systems\实验\project6\codes/./lib/utilsC.c:317
		name[l] = '\0';
    3173:	67 66 8d 55 c2       	lea    edx,[ebp-0x3e]
    3178:	67 66 8b 45 f0       	mov    eax,DWORD PTR [ebp-0x10]
    317d:	66 01 d0             	add    eax,edx
    3180:	67 c6 00 00          	mov    BYTE PTR [eax],0x0
D:\OneDrive\Study\Operating Systems\实验\project6\codes/./lib/utilsC.c:319
		// size
		while(rawRecords[i]!='|'){
    3184:	eb 3a                	jmp    31c0 <_loadFiles+0x12e>
D:\OneDrive\Study\Operating Systems\实验\project6\codes/./lib/utilsC.c:320
			size = size * 10 + rawRecords[i]-'0';
    3186:	67 66 8b 55 ec       	mov    edx,DWORD PTR [ebp-0x14]
    318b:	66 89 d0             	mov    eax,edx
    318e:	66 c1 e0 02          	shl    eax,0x2
    3192:	66 01 d0             	add    eax,edx
    3195:	66 01 c0             	add    eax,eax
    3198:	66 89 c1             	mov    ecx,eax
    319b:	67 66 8b 55 f4       	mov    edx,DWORD PTR [ebp-0xc]
    31a0:	67 66 8b 45 e4       	mov    eax,DWORD PTR [ebp-0x1c]
    31a5:	66 01 d0             	add    eax,edx
    31a8:	67 8a 00             	mov    al,BYTE PTR [eax]
    31ab:	66 0f be c0          	movsx  eax,al
    31af:	66 01 c8             	add    eax,ecx
    31b2:	66 83 e8 30          	sub    eax,0x30
    31b6:	67 66 89 45 ec       	mov    DWORD PTR [ebp-0x14],eax
D:\OneDrive\Study\Operating Systems\实验\project6\codes/./lib/utilsC.c:321
			++i;
    31bb:	67 66 ff 45 f4       	inc    DWORD PTR [ebp-0xc]
D:\OneDrive\Study\Operating Systems\实验\project6\codes/./lib/utilsC.c:319
		while(rawRecords[i]!='|'){
    31c0:	67 66 8b 55 f4       	mov    edx,DWORD PTR [ebp-0xc]
    31c5:	67 66 8b 45 e4       	mov    eax,DWORD PTR [ebp-0x1c]
    31ca:	66 01 d0             	add    eax,edx
    31cd:	67 8a 00             	mov    al,BYTE PTR [eax]
    31d0:	3c 7c                	cmp    al,0x7c
    31d2:	75 b2                	jne    3186 <_loadFiles+0xf4>
D:\OneDrive\Study\Operating Systems\实验\project6\codes/./lib/utilsC.c:323
		}		
		++i;
    31d4:	67 66 ff 45 f4       	inc    DWORD PTR [ebp-0xc]
D:\OneDrive\Study\Operating Systems\实验\project6\codes/./lib/utilsC.c:325
		// place
		while(rawRecords[i]!='|'){
    31d9:	eb 3a                	jmp    3215 <_loadFiles+0x183>
D:\OneDrive\Study\Operating Systems\实验\project6\codes/./lib/utilsC.c:326
			place = place * 10 + rawRecords[i]-'0';
    31db:	67 66 8b 55 e8       	mov    edx,DWORD PTR [ebp-0x18]
    31e0:	66 89 d0             	mov    eax,edx
    31e3:	66 c1 e0 02          	shl    eax,0x2
    31e7:	66 01 d0             	add    eax,edx
    31ea:	66 01 c0             	add    eax,eax
    31ed:	66 89 c1             	mov    ecx,eax
    31f0:	67 66 8b 55 f4       	mov    edx,DWORD PTR [ebp-0xc]
    31f5:	67 66 8b 45 e4       	mov    eax,DWORD PTR [ebp-0x1c]
    31fa:	66 01 d0             	add    eax,edx
    31fd:	67 8a 00             	mov    al,BYTE PTR [eax]
    3200:	66 0f be c0          	movsx  eax,al
    3204:	66 01 c8             	add    eax,ecx
    3207:	66 83 e8 30          	sub    eax,0x30
    320b:	67 66 89 45 e8       	mov    DWORD PTR [ebp-0x18],eax
D:\OneDrive\Study\Operating Systems\实验\project6\codes/./lib/utilsC.c:327
			++i;
    3210:	67 66 ff 45 f4       	inc    DWORD PTR [ebp-0xc]
D:\OneDrive\Study\Operating Systems\实验\project6\codes/./lib/utilsC.c:325
		while(rawRecords[i]!='|'){
    3215:	67 66 8b 55 f4       	mov    edx,DWORD PTR [ebp-0xc]
    321a:	67 66 8b 45 e4       	mov    eax,DWORD PTR [ebp-0x1c]
    321f:	66 01 d0             	add    eax,edx
    3222:	67 8a 00             	mov    al,BYTE PTR [eax]
    3225:	3c 7c                	cmp    al,0x7c
    3227:	75 b2                	jne    31db <_loadFiles+0x149>
D:\OneDrive\Study\Operating Systems\实验\project6\codes/./lib/utilsC.c:329
		}		
		++i;
    3229:	67 66 ff 45 f4       	inc    DWORD PTR [ebp-0xc]
D:\OneDrive\Study\Operating Systems\实验\project6\codes/./lib/utilsC.c:331
		//type
		t = rawRecords[i]-'0';
    322e:	67 66 8b 55 f4       	mov    edx,DWORD PTR [ebp-0xc]
    3233:	67 66 8b 45 e4       	mov    eax,DWORD PTR [ebp-0x1c]
    3238:	66 01 d0             	add    eax,edx
    323b:	67 8a 00             	mov    al,BYTE PTR [eax]
    323e:	66 0f be c0          	movsx  eax,al
    3242:	66 83 e8 30          	sub    eax,0x30
    3246:	67 66 89 45 e0       	mov    DWORD PTR [ebp-0x20],eax
D:\OneDrive\Study\Operating Systems\实验\project6\codes/./lib/utilsC.c:332
		i+=3;
    324b:	67 66 83 45 f4 03    	add    DWORD PTR [ebp-0xc],0x3
D:\OneDrive\Study\Operating Systems\实验\project6\codes/./lib/utilsC.c:333
		tmp.size = size;
    3251:	67 66 8b 45 ec       	mov    eax,DWORD PTR [ebp-0x14]
    3256:	67 66 89 45 b4       	mov    DWORD PTR [ebp-0x4c],eax
D:\OneDrive\Study\Operating Systems\实验\project6\codes/./lib/utilsC.c:334
		tmp.type = t;
    325b:	67 66 8b 45 e0       	mov    eax,DWORD PTR [ebp-0x20]
    3260:	67 66 89 45 ac       	mov    DWORD PTR [ebp-0x54],eax
D:\OneDrive\Study\Operating Systems\实验\project6\codes/./lib/utilsC.c:335
		tmp.lmaddress = place;
    3265:	67 66 8b 45 e8       	mov    eax,DWORD PTR [ebp-0x18]
    326a:	67 66 89 45 b0       	mov    DWORD PTR [ebp-0x50],eax
D:\OneDrive\Study\Operating Systems\实验\project6\codes/./lib/utilsC.c:336
		tmp.deleted = 0;
    326f:	67 66 c7 45 b8 00 00 	mov    DWORD PTR [ebp-0x48],0x0
    3276:	00 00 
D:\OneDrive\Study\Operating Systems\实验\project6\codes/./lib/utilsC.c:337
		tmp.start = place / Cluster;
    3278:	67 66 8b 45 e8       	mov    eax,DWORD PTR [ebp-0x18]
    327d:	66 85 c0             	test   eax,eax
    3280:	79 06                	jns    3288 <_loadFiles+0x1f6>
    3282:	66 05 ff 01 00 00    	add    eax,0x1ff
    3288:	66 c1 f8 09          	sar    eax,0x9
    328c:	67 66 89 45 bc       	mov    DWORD PTR [ebp-0x44],eax
D:\OneDrive\Study\Operating Systems\实验\project6\codes/./lib/utilsC.c:338
		setFAT(place, size);
    3291:	67 66 8b 45 ec       	mov    eax,DWORD PTR [ebp-0x14]
    3296:	67 66 89 44 24 04    	mov    DWORD PTR [esp+0x4],eax
    329c:	67 66 8b 45 e8       	mov    eax,DWORD PTR [ebp-0x18]
    32a1:	67 66 89 04 24       	mov    DWORD PTR [esp],eax
    32a6:	66 e8 81 00 00 00    	call   332d <_setFAT>
D:\OneDrive\Study\Operating Systems\实验\project6\codes/./lib/utilsC.c:339
		strncpy(name, tmp.name, strlen(name));
    32ac:	67 66 8d 45 c2       	lea    eax,[ebp-0x3e]
    32b1:	67 66 89 04 24       	mov    DWORD PTR [esp],eax
    32b6:	66 e8 ef f6 ff ff    	call   29ab <_strlen>
    32bc:	67 66 89 44 24 08    	mov    DWORD PTR [esp+0x8],eax
    32c2:	67 66 8d 45 8c       	lea    eax,[ebp-0x74]
    32c7:	67 66 89 44 24 04    	mov    DWORD PTR [esp+0x4],eax
    32cd:	67 66 8d 45 c2       	lea    eax,[ebp-0x3e]
    32d2:	67 66 89 04 24       	mov    DWORD PTR [esp],eax
    32d7:	66 e8 b4 f8 ff ff    	call   2b91 <_strncpy>
D:\OneDrive\Study\Operating Systems\实验\project6\codes/./lib/utilsC.c:340
		hash(name, tmp);
    32dd:	67 66 8d 44 24 04    	lea    eax,[esp+0x4]
    32e3:	67 66 8d 55 8c       	lea    edx,[ebp-0x74]
    32e8:	66 b9 0d 00 00 00    	mov    ecx,0xd
    32ee:	66 89 c7             	mov    edi,eax
    32f1:	66 89 d6             	mov    esi,edx
    32f4:	66 f3 a5             	rep movs DWORD PTR es:[di],DWORD PTR ds:[si]
    32f7:	67 66 8d 45 c2       	lea    eax,[ebp-0x3e]
    32fc:	67 66 89 04 24       	mov    DWORD PTR [esp],eax
    3301:	66 e8 85 fa ff ff    	call   2d8c <_hash>
D:\OneDrive\Study\Operating Systems\实验\project6\codes/./lib/utilsC.c:304
	while(rawRecords[i] != '\n')
    3307:	67 66 8b 55 f4       	mov    edx,DWORD PTR [ebp-0xc]
    330c:	67 66 8b 45 e4       	mov    eax,DWORD PTR [ebp-0x1c]
    3311:	66 01 d0             	add    eax,edx
    3314:	67 8a 00             	mov    al,BYTE PTR [eax]
    3317:	3c 0a                	cmp    al,0xa
    3319:	0f 85 d3 fd          	jne    30f0 <_loadFiles+0x5e>
D:\OneDrive\Study\Operating Systems\实验\project6\codes/./lib/utilsC.c:342
	}
}
    331d:	90                   	nop
    331e:	66 81 c4 a4 00 00 00 	add    esp,0xa4
    3325:	66 5e                	pop    esi
    3327:	66 5f                	pop    edi
    3329:	66 5d                	pop    ebp
    332b:	66 c3                	ret    

0000332d <_setFAT>:
setFAT():
D:\OneDrive\Study\Operating Systems\实验\project6\codes/./lib/utilsC.c:345
// 娉ㄦFAT浠0寮濮
void setFAT(int lmaddress, int size)
{
    332d:	66 55                	push   ebp
    332f:	66 89 e5             	mov    ebp,esp
    3332:	66 83 ec 0c          	sub    esp,0xc
D:\OneDrive\Study\Operating Systems\实验\project6\codes/./lib/utilsC.c:346
	int begin = lmaddress/Cluster;
    3336:	67 66 8b 45 08       	mov    eax,DWORD PTR [ebp+0x8]
    333b:	66 85 c0             	test   eax,eax
    333e:	79 06                	jns    3346 <_setFAT+0x19>
    3340:	66 05 ff 01 00 00    	add    eax,0x1ff
    3346:	66 c1 f8 09          	sar    eax,0x9
    334a:	67 66 89 45 f8       	mov    DWORD PTR [ebp-0x8],eax
D:\OneDrive\Study\Operating Systems\实验\project6\codes/./lib/utilsC.c:347
	int num = size/Cluster;
    334f:	67 66 8b 45 0c       	mov    eax,DWORD PTR [ebp+0xc]
    3354:	66 85 c0             	test   eax,eax
    3357:	79 06                	jns    335f <_setFAT+0x32>
    3359:	66 05 ff 01 00 00    	add    eax,0x1ff
    335f:	66 c1 f8 09          	sar    eax,0x9
    3363:	67 66 89 45 f4       	mov    DWORD PTR [ebp-0xc],eax
D:\OneDrive\Study\Operating Systems\实验\project6\codes/./lib/utilsC.c:348
	for(int i = 0; i < num-1; ++i)
    3368:	67 66 c7 45 fc 00 00 	mov    DWORD PTR [ebp-0x4],0x0
    336f:	00 00 
    3371:	eb 33                	jmp    33a6 <_setFAT+0x79>
D:\OneDrive\Study\Operating Systems\实验\project6\codes/./lib/utilsC.c:350
	{
		FAT[i+begin] = i+begin+1;
    3373:	66 a1 78 87          	mov    eax,ds:0x8778
    3377:	67 66 8b 4d fc       	mov    ecx,DWORD PTR [ebp-0x4]
    337c:	67 66 8b 55 f8       	mov    edx,DWORD PTR [ebp-0x8]
    3381:	66 01 ca             	add    edx,ecx
    3384:	66 01 d2             	add    edx,edx
    3387:	67 66 8d 0c 10       	lea    ecx,[eax+edx*1]
    338c:	67 66 8b 45 fc       	mov    eax,DWORD PTR [ebp-0x4]
    3391:	66 89 c2             	mov    edx,eax
    3394:	67 66 8b 45 f8       	mov    eax,DWORD PTR [ebp-0x8]
    3399:	66 01 d0             	add    eax,edx
    339c:	66 40                	inc    eax
    339e:	67 89 01             	mov    WORD PTR [ecx],ax
D:\OneDrive\Study\Operating Systems\实验\project6\codes/./lib/utilsC.c:348
	for(int i = 0; i < num-1; ++i)
    33a1:	67 66 ff 45 fc       	inc    DWORD PTR [ebp-0x4]
    33a6:	67 66 8b 45 f4       	mov    eax,DWORD PTR [ebp-0xc]
    33ab:	66 48                	dec    eax
    33ad:	67 66 3b 45 fc       	cmp    eax,DWORD PTR [ebp-0x4]
    33b2:	7f bf                	jg     3373 <_setFAT+0x46>
D:\OneDrive\Study\Operating Systems\实验\project6\codes/./lib/utilsC.c:352
	}
	FAT[num+begin-1] = 0xffff;
    33b4:	66 a1 78 87          	mov    eax,ds:0x8778
    33b8:	67 66 8b 4d f4       	mov    ecx,DWORD PTR [ebp-0xc]
    33bd:	67 66 8b 55 f8       	mov    edx,DWORD PTR [ebp-0x8]
    33c2:	66 01 ca             	add    edx,ecx
    33c5:	66 81 c2 ff ff ff 7f 	add    edx,0x7fffffff
    33cc:	66 01 d2             	add    edx,edx
    33cf:	66 01 d0             	add    eax,edx
    33d2:	67 c7 00 ff ff       	mov    WORD PTR [eax],0xffff
D:\OneDrive\Study\Operating Systems\实验\project6\codes/./lib/utilsC.c:353
}
    33d7:	90                   	nop
    33d8:	66 c9                	leave  
    33da:	66 c3                	ret    

000033dc <_resetFAT>:
resetFAT():
D:\OneDrive\Study\Operating Systems\实验\project6\codes/./lib/utilsC.c:356

void resetFAT(int lmaddress, int size)
{
    33dc:	66 55                	push   ebp
    33de:	66 89 e5             	mov    ebp,esp
    33e1:	66 83 ec 0c          	sub    esp,0xc
D:\OneDrive\Study\Operating Systems\实验\project6\codes/./lib/utilsC.c:357
	int begin = lmaddress/Cluster;
    33e5:	67 66 8b 45 08       	mov    eax,DWORD PTR [ebp+0x8]
    33ea:	66 85 c0             	test   eax,eax
    33ed:	79 06                	jns    33f5 <_resetFAT+0x19>
    33ef:	66 05 ff 01 00 00    	add    eax,0x1ff
    33f5:	66 c1 f8 09          	sar    eax,0x9
    33f9:	67 66 89 45 f8       	mov    DWORD PTR [ebp-0x8],eax
D:\OneDrive\Study\Operating Systems\实验\project6\codes/./lib/utilsC.c:358
	int num = size/Cluster;
    33fe:	67 66 8b 45 0c       	mov    eax,DWORD PTR [ebp+0xc]
    3403:	66 85 c0             	test   eax,eax
    3406:	79 06                	jns    340e <_resetFAT+0x32>
    3408:	66 05 ff 01 00 00    	add    eax,0x1ff
    340e:	66 c1 f8 09          	sar    eax,0x9
    3412:	67 66 89 45 f4       	mov    DWORD PTR [ebp-0xc],eax
D:\OneDrive\Study\Operating Systems\实验\project6\codes/./lib/utilsC.c:359
	for(int i = 0; i < num; ++i)
    3417:	67 66 c7 45 fc 00 00 	mov    DWORD PTR [ebp-0x4],0x0
    341e:	00 00 
    3420:	eb 21                	jmp    3443 <_resetFAT+0x67>
D:\OneDrive\Study\Operating Systems\实验\project6\codes/./lib/utilsC.c:361
	{
		FAT[i+begin] = 0;
    3422:	66 a1 78 87          	mov    eax,ds:0x8778
    3426:	67 66 8b 4d fc       	mov    ecx,DWORD PTR [ebp-0x4]
    342b:	67 66 8b 55 f8       	mov    edx,DWORD PTR [ebp-0x8]
    3430:	66 01 ca             	add    edx,ecx
    3433:	66 01 d2             	add    edx,edx
    3436:	66 01 d0             	add    eax,edx
    3439:	67 c7 00 00 00       	mov    WORD PTR [eax],0x0
D:\OneDrive\Study\Operating Systems\实验\project6\codes/./lib/utilsC.c:359
	for(int i = 0; i < num; ++i)
    343e:	67 66 ff 45 fc       	inc    DWORD PTR [ebp-0x4]
    3443:	67 66 8b 45 fc       	mov    eax,DWORD PTR [ebp-0x4]
    3448:	67 66 3b 45 f4       	cmp    eax,DWORD PTR [ebp-0xc]
    344d:	7c d3                	jl     3422 <_resetFAT+0x46>
D:\OneDrive\Study\Operating Systems\实验\project6\codes/./lib/utilsC.c:363
	}
}
    344f:	90                   	nop
    3450:	66 c9                	leave  
    3452:	66 c3                	ret    

00003454 <_initialProcessTable>:
initialProcessTable():
D:\OneDrive\Study\Operating Systems\实验\project6\codes/./lib/utilsC.c:371



///////////// process ////////////////
void initialProcessTable()
{
    3454:	66 55                	push   ebp
    3456:	66 89 e5             	mov    ebp,esp
    3459:	66 83 ec 10          	sub    esp,0x10
D:\OneDrive\Study\Operating Systems\实验\project6\codes/./lib/utilsC.c:372
	for (int i = 0; i < Len; ++i)
    345d:	67 66 c7 45 fc 00 00 	mov    DWORD PTR [ebp-0x4],0x0
    3464:	00 00 
    3466:	e9 c8 00             	jmp    3531 <_initialProcessTable+0xdd>
D:\OneDrive\Study\Operating Systems\实验\project6\codes/./lib/utilsC.c:374
	{
		processTable[i].id = -1;
    3469:	67 66 8b 55 fc       	mov    edx,DWORD PTR [ebp-0x4]
    346e:	66 89 d0             	mov    eax,edx
    3471:	66 01 c0             	add    eax,eax
    3474:	66 01 d0             	add    eax,edx
    3477:	66 c1 e0 02          	shl    eax,0x2
    347b:	66 01 d0             	add    eax,edx
    347e:	66 c1 e0 03          	shl    eax,0x3
    3482:	66 05 04 93 00 00    	add    eax,0x9304
    3488:	67 66 c7 00 ff ff ff 	mov    DWORD PTR [eax],0xffffffff
    348f:	ff 
D:\OneDrive\Study\Operating Systems\实验\project6\codes/./lib/utilsC.c:375
		processTable[i].status = Origin;
    3490:	67 66 8b 55 fc       	mov    edx,DWORD PTR [ebp-0x4]
    3495:	66 89 d0             	mov    eax,edx
    3498:	66 01 c0             	add    eax,eax
    349b:	66 01 d0             	add    eax,edx
    349e:	66 c1 e0 02          	shl    eax,0x2
    34a2:	66 01 d0             	add    eax,edx
    34a5:	66 c1 e0 03          	shl    eax,0x3
    34a9:	66 05 44 93 00 00    	add    eax,0x9344
    34af:	67 66 c7 00 00 00 00 	mov    DWORD PTR [eax],0x0
    34b6:	00 
D:\OneDrive\Study\Operating Systems\实验\project6\codes/./lib/utilsC.c:376
		processTable[i].fatherID = -1;
    34b7:	67 66 8b 55 fc       	mov    edx,DWORD PTR [ebp-0x4]
    34bc:	66 89 d0             	mov    eax,edx
    34bf:	66 01 c0             	add    eax,eax
    34c2:	66 01 d0             	add    eax,edx
    34c5:	66 c1 e0 02          	shl    eax,0x2
    34c9:	66 01 d0             	add    eax,edx
    34cc:	66 c1 e0 03          	shl    eax,0x3
    34d0:	66 05 38 93 00 00    	add    eax,0x9338
    34d6:	67 66 c7 00 ff ff ff 	mov    DWORD PTR [eax],0xffffffff
    34dd:	ff 
D:\OneDrive\Study\Operating Systems\实验\project6\codes/./lib/utilsC.c:377
		processTable[i].sonID = -1;
    34de:	67 66 8b 55 fc       	mov    edx,DWORD PTR [ebp-0x4]
    34e3:	66 89 d0             	mov    eax,edx
    34e6:	66 01 c0             	add    eax,eax
    34e9:	66 01 d0             	add    eax,edx
    34ec:	66 c1 e0 02          	shl    eax,0x2
    34f0:	66 01 d0             	add    eax,edx
    34f3:	66 c1 e0 03          	shl    eax,0x3
    34f7:	66 05 40 93 00 00    	add    eax,0x9340
    34fd:	67 66 c7 00 ff ff ff 	mov    DWORD PTR [eax],0xffffffff
    3504:	ff 
D:\OneDrive\Study\Operating Systems\实验\project6\codes/./lib/utilsC.c:378
		processTable[i].waitProcess = -1;
    3505:	67 66 8b 55 fc       	mov    edx,DWORD PTR [ebp-0x4]
    350a:	66 89 d0             	mov    eax,edx
    350d:	66 01 c0             	add    eax,eax
    3510:	66 01 d0             	add    eax,edx
    3513:	66 c1 e0 02          	shl    eax,0x2
    3517:	66 01 d0             	add    eax,edx
    351a:	66 c1 e0 03          	shl    eax,0x3
    351e:	66 05 3c 93 00 00    	add    eax,0x933c
    3524:	67 66 c7 00 ff ff ff 	mov    DWORD PTR [eax],0xffffffff
    352b:	ff 
D:\OneDrive\Study\Operating Systems\实验\project6\codes/./lib/utilsC.c:372
	for (int i = 0; i < Len; ++i)
    352c:	67 66 ff 45 fc       	inc    DWORD PTR [ebp-0x4]
    3531:	67 66 83 7d fc 31    	cmp    DWORD PTR [ebp-0x4],0x31
    3537:	0f 8e 2e ff          	jle    3469 <_initialProcessTable+0x15>
D:\OneDrive\Study\Operating Systems\实验\project6\codes/./lib/utilsC.c:382

	}
	
	processTable[0].status = running;
    353b:	66 c7 06 44 93 02 00 	mov    DWORD PTR ds:0x9344,0x2
    3542:	00 00 
D:\OneDrive\Study\Operating Systems\实验\project6\codes/./lib/utilsC.c:383
	strncpy("kernel", processTable[0].name, 6); 
    3544:	67 66 c7 44 24 08 06 	mov    DWORD PTR [esp+0x8],0x6
    354b:	00 00 00 
    354e:	67 66 c7 44 24 04 14 	mov    DWORD PTR [esp+0x4],0x9314
    3555:	93 00 00 
    3558:	67 66 c7 04 24 c4 60 	mov    DWORD PTR [esp],0x60c4
    355f:	00 00 
    3561:	66 e8 2a f6 ff ff    	call   2b91 <_strncpy>
D:\OneDrive\Study\Operating Systems\实验\project6\codes/./lib/utilsC.c:384
	processTable[0].id = 0;
    3567:	66 c7 06 04 93 00 00 	mov    DWORD PTR ds:0x9304,0x0
    356e:	00 00 
D:\OneDrive\Study\Operating Systems\实验\project6\codes/./lib/utilsC.c:385
	processTable[0].pcb.cs = 0x2000;
    3570:	c7 06 fa 92 00 20    	mov    WORD PTR ds:0x92fa,0x2000
D:\OneDrive\Study\Operating Systems\实验\project6\codes/./lib/utilsC.c:386
	processTable[0].pcb.ip = 0x0;
    3576:	c7 06 f8 92 00 00    	mov    WORD PTR ds:0x92f8,0x0
D:\OneDrive\Study\Operating Systems\实验\project6\codes/./lib/utilsC.c:387
	processTable[0].pcb.ss_now = 0x2000;
    357c:	c7 06 00 93 00 20    	mov    WORD PTR ds:0x9300,0x2000
D:\OneDrive\Study\Operating Systems\实验\project6\codes/./lib/utilsC.c:388
	processTable[0].pcb.sp_now = 0xffff;
    3582:	c7 06 fe 92 ff ff    	mov    WORD PTR ds:0x92fe,0xffff
D:\OneDrive\Study\Operating Systems\实验\project6\codes/./lib/utilsC.c:390
	// curProcessId = 1;
}
    3588:	90                   	nop
    3589:	66 c9                	leave  
    358b:	66 c3                	ret    

0000358d <_createProcess>:
createProcess():
D:\OneDrive\Study\Operating Systems\实验\project6\codes/./lib/utilsC.c:395


//size瑕澶у
void createProcess(int id, char * name, int size, int cs, int ip, int ss, int sp, int blockNum)
{
    358d:	66 55                	push   ebp
    358f:	66 89 e5             	mov    ebp,esp
    3592:	66 83 ec 0c          	sub    esp,0xc
D:\OneDrive\Study\Operating Systems\实验\project6\codes/./lib/utilsC.c:396
	processTable[id].id = id;
    3596:	67 66 8b 55 08       	mov    edx,DWORD PTR [ebp+0x8]
    359b:	66 89 d0             	mov    eax,edx
    359e:	66 01 c0             	add    eax,eax
    35a1:	66 01 d0             	add    eax,edx
    35a4:	66 c1 e0 02          	shl    eax,0x2
    35a8:	66 01 d0             	add    eax,edx
    35ab:	66 c1 e0 03          	shl    eax,0x3
    35af:	67 66 8d 90 04 93 00 	lea    edx,[eax+0x9304]
    35b6:	00 
    35b7:	67 66 8b 45 08       	mov    eax,DWORD PTR [ebp+0x8]
    35bc:	67 66 89 02          	mov    DWORD PTR [edx],eax
D:\OneDrive\Study\Operating Systems\实验\project6\codes/./lib/utilsC.c:397
	processTable[id].status = ready;
    35c0:	67 66 8b 55 08       	mov    edx,DWORD PTR [ebp+0x8]
    35c5:	66 89 d0             	mov    eax,edx
    35c8:	66 01 c0             	add    eax,eax
    35cb:	66 01 d0             	add    eax,edx
    35ce:	66 c1 e0 02          	shl    eax,0x2
    35d2:	66 01 d0             	add    eax,edx
    35d5:	66 c1 e0 03          	shl    eax,0x3
    35d9:	66 05 44 93 00 00    	add    eax,0x9344
    35df:	67 66 c7 00 01 00 00 	mov    DWORD PTR [eax],0x1
    35e6:	00 
D:\OneDrive\Study\Operating Systems\实验\project6\codes/./lib/utilsC.c:400
	// int blockNum = findEnoughBlock(size);
	// blockNum = require(size, blockNum);
	processTable[id].blockNum = blockNum;
    35e7:	67 66 8b 55 08       	mov    edx,DWORD PTR [ebp+0x8]
    35ec:	66 89 d0             	mov    eax,edx
    35ef:	66 01 c0             	add    eax,eax
    35f2:	66 01 d0             	add    eax,edx
    35f5:	66 c1 e0 02          	shl    eax,0x2
    35f9:	66 01 d0             	add    eax,edx
    35fc:	66 c1 e0 03          	shl    eax,0x3
    3600:	67 66 8d 90 08 93 00 	lea    edx,[eax+0x9308]
    3607:	00 
    3608:	67 66 8b 45 24       	mov    eax,DWORD PTR [ebp+0x24]
    360d:	67 66 89 02          	mov    DWORD PTR [edx],eax
D:\OneDrive\Study\Operating Systems\实验\project6\codes/./lib/utilsC.c:401
	strncpy(name, processTable[id].name, strlen(name));
    3611:	67 66 8b 45 0c       	mov    eax,DWORD PTR [ebp+0xc]
    3616:	67 66 89 04 24       	mov    DWORD PTR [esp],eax
    361b:	66 e8 8a f3 ff ff    	call   29ab <_strlen>
    3621:	66 89 c1             	mov    ecx,eax
    3624:	67 66 8b 55 08       	mov    edx,DWORD PTR [ebp+0x8]
    3629:	66 89 d0             	mov    eax,edx
    362c:	66 01 c0             	add    eax,eax
    362f:	66 01 d0             	add    eax,edx
    3632:	66 c1 e0 02          	shl    eax,0x2
    3636:	66 01 d0             	add    eax,edx
    3639:	66 c1 e0 03          	shl    eax,0x3
    363d:	66 83 c0 30          	add    eax,0x30
    3641:	66 05 e0 92 00 00    	add    eax,0x92e0
    3647:	66 83 c0 04          	add    eax,0x4
    364b:	67 66 89 4c 24 08    	mov    DWORD PTR [esp+0x8],ecx
    3651:	67 66 89 44 24 04    	mov    DWORD PTR [esp+0x4],eax
    3657:	67 66 8b 45 0c       	mov    eax,DWORD PTR [ebp+0xc]
    365c:	67 66 89 04 24       	mov    DWORD PTR [esp],eax
    3661:	66 e8 2a f5 ff ff    	call   2b91 <_strncpy>
D:\OneDrive\Study\Operating Systems\实验\project6\codes/./lib/utilsC.c:413
	//浠ヤㄥ浠ｇ宸э规存ユ瑰csss娈碉涓绉婚崇Щ4浣硷浠ヤ娇寰绋搴锛org 0h锛涓瑕org绉婚 
	// processTable[id].pcb.cs = segOfPrg + (offsetOfPrg >> 4);
	// processTable[id].pcb.ip = 0;
	// processTable[id].pcb.ss_now = segOfPrg + (offsetOfPrg >> 4);
	// processTable[id].pcb.sp_now = size-1;
	processTable[id].pcb.cs = cs;
    3667:	67 66 8b 45 14       	mov    eax,DWORD PTR [ebp+0x14]
    366c:	66 89 c1             	mov    ecx,eax
    366f:	67 66 8b 55 08       	mov    edx,DWORD PTR [ebp+0x8]
    3674:	66 89 d0             	mov    eax,edx
    3677:	66 01 c0             	add    eax,eax
    367a:	66 01 d0             	add    eax,edx
    367d:	66 c1 e0 02          	shl    eax,0x2
    3681:	66 01 d0             	add    eax,edx
    3684:	66 c1 e0 03          	shl    eax,0x3
    3688:	66 05 fa 92 00 00    	add    eax,0x92fa
    368e:	67 89 08             	mov    WORD PTR [eax],cx
D:\OneDrive\Study\Operating Systems\实验\project6\codes/./lib/utilsC.c:414
	processTable[id].pcb.ip = ip;
    3691:	67 66 8b 45 18       	mov    eax,DWORD PTR [ebp+0x18]
    3696:	66 89 c1             	mov    ecx,eax
    3699:	67 66 8b 55 08       	mov    edx,DWORD PTR [ebp+0x8]
    369e:	66 89 d0             	mov    eax,edx
    36a1:	66 01 c0             	add    eax,eax
    36a4:	66 01 d0             	add    eax,edx
    36a7:	66 c1 e0 02          	shl    eax,0x2
    36ab:	66 01 d0             	add    eax,edx
    36ae:	66 c1 e0 03          	shl    eax,0x3
    36b2:	66 05 f8 92 00 00    	add    eax,0x92f8
    36b8:	67 89 08             	mov    WORD PTR [eax],cx
D:\OneDrive\Study\Operating Systems\实验\project6\codes/./lib/utilsC.c:415
	processTable[id].pcb.ss_now = ss;
    36bb:	67 66 8b 45 1c       	mov    eax,DWORD PTR [ebp+0x1c]
    36c0:	66 89 c1             	mov    ecx,eax
    36c3:	67 66 8b 55 08       	mov    edx,DWORD PTR [ebp+0x8]
    36c8:	66 89 d0             	mov    eax,edx
    36cb:	66 01 c0             	add    eax,eax
    36ce:	66 01 d0             	add    eax,edx
    36d1:	66 c1 e0 02          	shl    eax,0x2
    36d5:	66 01 d0             	add    eax,edx
    36d8:	66 c1 e0 03          	shl    eax,0x3
    36dc:	66 05 00 93 00 00    	add    eax,0x9300
    36e2:	67 89 08             	mov    WORD PTR [eax],cx
D:\OneDrive\Study\Operating Systems\实验\project6\codes/./lib/utilsC.c:416
	processTable[id].pcb.sp_now = sp;
    36e5:	67 66 8b 45 20       	mov    eax,DWORD PTR [ebp+0x20]
    36ea:	66 89 c1             	mov    ecx,eax
    36ed:	67 66 8b 55 08       	mov    edx,DWORD PTR [ebp+0x8]
    36f2:	66 89 d0             	mov    eax,edx
    36f5:	66 01 c0             	add    eax,eax
    36f8:	66 01 d0             	add    eax,edx
    36fb:	66 c1 e0 02          	shl    eax,0x2
    36ff:	66 01 d0             	add    eax,edx
    3702:	66 c1 e0 03          	shl    eax,0x3
    3706:	66 05 fe 92 00 00    	add    eax,0x92fe
    370c:	67 89 08             	mov    WORD PTR [eax],cx
D:\OneDrive\Study\Operating Systems\实验\project6\codes/./lib/utilsC.c:417
	processTable[id].size = size;
    370f:	67 66 8b 55 08       	mov    edx,DWORD PTR [ebp+0x8]
    3714:	66 89 d0             	mov    eax,edx
    3717:	66 01 c0             	add    eax,eax
    371a:	66 01 d0             	add    eax,edx
    371d:	66 c1 e0 02          	shl    eax,0x2
    3721:	66 01 d0             	add    eax,edx
    3724:	66 c1 e0 03          	shl    eax,0x3
    3728:	67 66 8d 90 10 93 00 	lea    edx,[eax+0x9310]
    372f:	00 
    3730:	67 66 8b 45 10       	mov    eax,DWORD PTR [ebp+0x10]
    3735:	67 66 89 02          	mov    DWORD PTR [edx],eax
D:\OneDrive\Study\Operating Systems\实验\project6\codes/./lib/utilsC.c:419
	// loadReal(lmaddress, fileSize, offsetOfPrg, segOfPrg);
}
    3739:	90                   	nop
    373a:	66 c9                	leave  
    373c:	66 c3                	ret    

0000373e <_block>:
block():
D:\OneDrive\Study\Operating Systems\实验\project6\codes/./lib/utilsC.c:424

// 琚搁诲 waitProcess = -1
int quesize, tmp;
void block(int id)
{
    373e:	66 55                	push   ebp
    3740:	66 89 e5             	mov    ebp,esp
    3743:	66 83 ec 0c          	sub    esp,0xc
D:\OneDrive\Study\Operating Systems\实验\project6\codes/./lib/utilsC.c:425
	__asm__("cli\n");
    3747:	fa                   	cli    
D:\OneDrive\Study\Operating Systems\实验\project6\codes/./lib/utilsC.c:426
	processTable[id].status = blocked;
    3748:	67 66 8b 55 08       	mov    edx,DWORD PTR [ebp+0x8]
    374d:	66 89 d0             	mov    eax,edx
    3750:	66 01 c0             	add    eax,eax
    3753:	66 01 d0             	add    eax,edx
    3756:	66 c1 e0 02          	shl    eax,0x2
    375a:	66 01 d0             	add    eax,edx
    375d:	66 c1 e0 03          	shl    eax,0x3
    3761:	66 05 44 93 00 00    	add    eax,0x9344
    3767:	67 66 c7 00 03 00 00 	mov    DWORD PTR [eax],0x3
    376e:	00 
D:\OneDrive\Study\Operating Systems\实验\project6\codes/./lib/utilsC.c:427
	enqueue(&BlockedQue, id);
    376f:	67 66 8b 45 08       	mov    eax,DWORD PTR [ebp+0x8]
    3774:	67 66 89 44 24 04    	mov    DWORD PTR [esp+0x4],eax
    377a:	67 66 c7 04 24 a0 86 	mov    DWORD PTR [esp],0x86a0
    3781:	00 00 
    3783:	66 e8 8f 0f 00 00    	call   4718 <_enqueue>
D:\OneDrive\Study\Operating Systems\实验\project6\codes/./lib/utilsC.c:428
	quesize = size(&ReadyQue);
    3789:	67 66 c7 04 24 40 a7 	mov    DWORD PTR [esp],0xa740
    3790:	00 00 
    3792:	66 e8 3a 0f 00 00    	call   46d2 <_size>
    3798:	66 a3 20 a8          	mov    ds:0xa820,eax
D:\OneDrive\Study\Operating Systems\实验\project6\codes/./lib/utilsC.c:429
	for (int i = 0; i < quesize; ++i)
    379c:	67 66 c7 45 fc 00 00 	mov    DWORD PTR [ebp-0x4],0x0
    37a3:	00 00 
    37a5:	eb 42                	jmp    37e9 <_block+0xab>
D:\OneDrive\Study\Operating Systems\实验\project6\codes/./lib/utilsC.c:431
	{
		dequeue(&ReadyQue, &tmp);
    37a7:	67 66 c7 44 24 04 24 	mov    DWORD PTR [esp+0x4],0xa824
    37ae:	a8 00 00 
    37b1:	67 66 c7 04 24 40 a7 	mov    DWORD PTR [esp],0xa740
    37b8:	00 00 
    37ba:	66 e8 c5 0f 00 00    	call   4785 <_dequeue>
D:\OneDrive\Study\Operating Systems\实验\project6\codes/./lib/utilsC.c:432
		if(id != tmp)
    37c0:	66 a1 24 a8          	mov    eax,ds:0xa824
    37c4:	67 66 39 45 08       	cmp    DWORD PTR [ebp+0x8],eax
    37c9:	74 19                	je     37e4 <_block+0xa6>
D:\OneDrive\Study\Operating Systems\实验\project6\codes/./lib/utilsC.c:433
			enqueue(&ReadyQue, tmp);
    37cb:	66 a1 24 a8          	mov    eax,ds:0xa824
    37cf:	67 66 89 44 24 04    	mov    DWORD PTR [esp+0x4],eax
    37d5:	67 66 c7 04 24 40 a7 	mov    DWORD PTR [esp],0xa740
    37dc:	00 00 
    37de:	66 e8 34 0f 00 00    	call   4718 <_enqueue>
D:\OneDrive\Study\Operating Systems\实验\project6\codes/./lib/utilsC.c:429
	for (int i = 0; i < quesize; ++i)
    37e4:	67 66 ff 45 fc       	inc    DWORD PTR [ebp-0x4]
    37e9:	66 a1 20 a8          	mov    eax,ds:0xa820
    37ed:	67 66 39 45 fc       	cmp    DWORD PTR [ebp-0x4],eax
    37f2:	7c b3                	jl     37a7 <_block+0x69>
D:\OneDrive\Study\Operating Systems\实验\project6\codes/./lib/utilsC.c:435
	}
	__asm__("sti\n");
    37f4:	fb                   	sti    
D:\OneDrive\Study\Operating Systems\实验\project6\codes/./lib/utilsC.c:436
}
    37f5:	90                   	nop
    37f6:	66 c9                	leave  
    37f8:	66 c3                	ret    

000037fa <_wakeup>:
wakeup():
D:\OneDrive\Study\Operating Systems\实验\project6\codes/./lib/utilsC.c:439

void wakeup(int id)
{
    37fa:	66 55                	push   ebp
    37fc:	66 89 e5             	mov    ebp,esp
    37ff:	66 83 ec 0c          	sub    esp,0xc
D:\OneDrive\Study\Operating Systems\实验\project6\codes/./lib/utilsC.c:440
	__asm__("cli\n");
    3803:	fa                   	cli    
D:\OneDrive\Study\Operating Systems\实验\project6\codes/./lib/utilsC.c:441
	processTable[id].status = ready;
    3804:	67 66 8b 55 08       	mov    edx,DWORD PTR [ebp+0x8]
    3809:	66 89 d0             	mov    eax,edx
    380c:	66 01 c0             	add    eax,eax
    380f:	66 01 d0             	add    eax,edx
    3812:	66 c1 e0 02          	shl    eax,0x2
    3816:	66 01 d0             	add    eax,edx
    3819:	66 c1 e0 03          	shl    eax,0x3
    381d:	66 05 44 93 00 00    	add    eax,0x9344
    3823:	67 66 c7 00 01 00 00 	mov    DWORD PTR [eax],0x1
    382a:	00 
D:\OneDrive\Study\Operating Systems\实验\project6\codes/./lib/utilsC.c:442
	enqueue(&ReadyQue, id);
    382b:	67 66 8b 45 08       	mov    eax,DWORD PTR [ebp+0x8]
    3830:	67 66 89 44 24 04    	mov    DWORD PTR [esp+0x4],eax
    3836:	67 66 c7 04 24 40 a7 	mov    DWORD PTR [esp],0xa740
    383d:	00 00 
    383f:	66 e8 d3 0e 00 00    	call   4718 <_enqueue>
D:\OneDrive\Study\Operating Systems\实验\project6\codes/./lib/utilsC.c:443
	quesize = size(&BlockedQue);
    3845:	67 66 c7 04 24 a0 86 	mov    DWORD PTR [esp],0x86a0
    384c:	00 00 
    384e:	66 e8 7e 0e 00 00    	call   46d2 <_size>
    3854:	66 a3 20 a8          	mov    ds:0xa820,eax
D:\OneDrive\Study\Operating Systems\实验\project6\codes/./lib/utilsC.c:444
	for (int i = 0; i < quesize; ++i)
    3858:	67 66 c7 45 fc 00 00 	mov    DWORD PTR [ebp-0x4],0x0
    385f:	00 00 
    3861:	eb 42                	jmp    38a5 <_wakeup+0xab>
D:\OneDrive\Study\Operating Systems\实验\project6\codes/./lib/utilsC.c:446
	{
		dequeue(&BlockedQue, &tmp);
    3863:	67 66 c7 44 24 04 24 	mov    DWORD PTR [esp+0x4],0xa824
    386a:	a8 00 00 
    386d:	67 66 c7 04 24 a0 86 	mov    DWORD PTR [esp],0x86a0
    3874:	00 00 
    3876:	66 e8 09 0f 00 00    	call   4785 <_dequeue>
D:\OneDrive\Study\Operating Systems\实验\project6\codes/./lib/utilsC.c:447
		if(id != tmp)
    387c:	66 a1 24 a8          	mov    eax,ds:0xa824
    3880:	67 66 39 45 08       	cmp    DWORD PTR [ebp+0x8],eax
    3885:	74 19                	je     38a0 <_wakeup+0xa6>
D:\OneDrive\Study\Operating Systems\实验\project6\codes/./lib/utilsC.c:448
			enqueue(&BlockedQue, tmp);
    3887:	66 a1 24 a8          	mov    eax,ds:0xa824
    388b:	67 66 89 44 24 04    	mov    DWORD PTR [esp+0x4],eax
    3891:	67 66 c7 04 24 a0 86 	mov    DWORD PTR [esp],0x86a0
    3898:	00 00 
    389a:	66 e8 78 0e 00 00    	call   4718 <_enqueue>
D:\OneDrive\Study\Operating Systems\实验\project6\codes/./lib/utilsC.c:444
	for (int i = 0; i < quesize; ++i)
    38a0:	67 66 ff 45 fc       	inc    DWORD PTR [ebp-0x4]
    38a5:	66 a1 20 a8          	mov    eax,ds:0xa820
    38a9:	67 66 39 45 fc       	cmp    DWORD PTR [ebp-0x4],eax
    38ae:	7c b3                	jl     3863 <_wakeup+0x69>
D:\OneDrive\Study\Operating Systems\实验\project6\codes/./lib/utilsC.c:450
	}
	__asm__("sti\n");
    38b0:	fb                   	sti    
D:\OneDrive\Study\Operating Systems\实验\project6\codes/./lib/utilsC.c:451
}
    38b1:	90                   	nop
    38b2:	66 c9                	leave  
    38b4:	66 c3                	ret    

000038b6 <_schedule>:
schedule():
D:\OneDrive\Study\Operating Systems\实验\project6\codes/./lib/utilsC.c:457

// 娉ㄦ褰舵锛诲洪撅
// 褰舵芥runningblocked
int next;
void schedule()
{
    38b6:	66 55                	push   ebp
    38b8:	66 89 e5             	mov    ebp,esp
    38bb:	66 83 ec 08          	sub    esp,0x8
D:\OneDrive\Study\Operating Systems\实验\project6\codes/./lib/utilsC.c:458
	if(runSub == 1 && size(&ReadyQue) > 1)
    38bf:	66 a1 c0 81          	mov    eax,ds:0x81c0
    38c3:	66 83 f8 01          	cmp    eax,0x1
    38c7:	0f 85 f6 00          	jne    39c1 <_schedule+0x10b>
    38cb:	67 66 c7 04 24 40 a7 	mov    DWORD PTR [esp],0xa740
    38d2:	00 00 
    38d4:	66 e8 f8 0d 00 00    	call   46d2 <_size>
    38da:	66 83 f8 01          	cmp    eax,0x1
    38de:	0f 8e df 00          	jle    39c1 <_schedule+0x10b>
D:\OneDrive\Study\Operating Systems\实验\project6\codes/./lib/utilsC.c:462
	{
		// 娉ㄦ哄舵
		do{
			dequeue(&ReadyQue, &next);
    38e2:	67 66 c7 44 24 04 68 	mov    DWORD PTR [esp+0x4],0xa868
    38e9:	a8 00 00 
    38ec:	67 66 c7 04 24 40 a7 	mov    DWORD PTR [esp],0xa740
    38f3:	00 00 
    38f5:	66 e8 8a 0e 00 00    	call   4785 <_dequeue>
D:\OneDrive\Study\Operating Systems\实验\project6\codes/./lib/utilsC.c:463
			if(next == 0){
    38fb:	66 a1 68 a8          	mov    eax,ds:0xa868
    38ff:	66 85 c0             	test   eax,eax
    3902:	75 19                	jne    391d <_schedule+0x67>
D:\OneDrive\Study\Operating Systems\实验\project6\codes/./lib/utilsC.c:464
				enqueue(&ReadyQue, next);
    3904:	66 a1 68 a8          	mov    eax,ds:0xa868
    3908:	67 66 89 44 24 04    	mov    DWORD PTR [esp+0x4],eax
    390e:	67 66 c7 04 24 40 a7 	mov    DWORD PTR [esp],0xa740
    3915:	00 00 
    3917:	66 e8 fb 0d 00 00    	call   4718 <_enqueue>
D:\OneDrive\Study\Operating Systems\实验\project6\codes/./lib/utilsC.c:466
			}
		}while(next == 0);
    391d:	66 a1 68 a8          	mov    eax,ds:0xa868
    3921:	66 85 c0             	test   eax,eax
    3924:	74 bc                	je     38e2 <_schedule+0x2c>
D:\OneDrive\Study\Operating Systems\实验\project6\codes/./lib/utilsC.c:467
		processTable[next].status = running;
    3926:	66 8b 16 68 a8       	mov    edx,DWORD PTR ds:0xa868
    392b:	66 89 d0             	mov    eax,edx
    392e:	66 01 c0             	add    eax,eax
    3931:	66 01 d0             	add    eax,edx
    3934:	66 c1 e0 02          	shl    eax,0x2
    3938:	66 01 d0             	add    eax,edx
    393b:	66 c1 e0 03          	shl    eax,0x3
    393f:	66 05 44 93 00 00    	add    eax,0x9344
    3945:	67 66 c7 00 02 00 00 	mov    DWORD PTR [eax],0x2
    394c:	00 
D:\OneDrive\Study\Operating Systems\实验\project6\codes/./lib/utilsC.c:468
		if(processTable[curProcessId].status == running){
    394d:	66 8b 16 30 a7       	mov    edx,DWORD PTR ds:0xa730
    3952:	66 89 d0             	mov    eax,edx
    3955:	66 01 c0             	add    eax,eax
    3958:	66 01 d0             	add    eax,edx
    395b:	66 c1 e0 02          	shl    eax,0x2
    395f:	66 01 d0             	add    eax,edx
    3962:	66 c1 e0 03          	shl    eax,0x3
    3966:	66 05 44 93 00 00    	add    eax,0x9344
    396c:	67 66 8b 00          	mov    eax,DWORD PTR [eax]
    3970:	66 83 f8 02          	cmp    eax,0x2
    3974:	75 40                	jne    39b6 <_schedule+0x100>
D:\OneDrive\Study\Operating Systems\实验\project6\codes/./lib/utilsC.c:469
			processTable[curProcessId].status = ready;
    3976:	66 8b 16 30 a7       	mov    edx,DWORD PTR ds:0xa730
    397b:	66 89 d0             	mov    eax,edx
    397e:	66 01 c0             	add    eax,eax
    3981:	66 01 d0             	add    eax,edx
    3984:	66 c1 e0 02          	shl    eax,0x2
    3988:	66 01 d0             	add    eax,edx
    398b:	66 c1 e0 03          	shl    eax,0x3
    398f:	66 05 44 93 00 00    	add    eax,0x9344
    3995:	67 66 c7 00 01 00 00 	mov    DWORD PTR [eax],0x1
    399c:	00 
D:\OneDrive\Study\Operating Systems\实验\project6\codes/./lib/utilsC.c:470
			enqueue(&ReadyQue, curProcessId);
    399d:	66 a1 30 a7          	mov    eax,ds:0xa730
    39a1:	67 66 89 44 24 04    	mov    DWORD PTR [esp+0x4],eax
    39a7:	67 66 c7 04 24 40 a7 	mov    DWORD PTR [esp],0xa740
    39ae:	00 00 
    39b0:	66 e8 62 0d 00 00    	call   4718 <_enqueue>
D:\OneDrive\Study\Operating Systems\实验\project6\codes/./lib/utilsC.c:472
		}
		curProcessId = next;
    39b6:	66 a1 68 a8          	mov    eax,ds:0xa868
    39ba:	66 a3 30 a7          	mov    ds:0xa730,eax
    39be:	e9 36 01             	jmp    3af7 <_schedule+0x241>
D:\OneDrive\Study\Operating Systems\实验\project6\codes/./lib/utilsC.c:474
	}
	else if(runSub == 1 && size(&ReadyQue) == 1)
    39c1:	66 a1 c0 81          	mov    eax,ds:0x81c0
    39c5:	66 83 f8 01          	cmp    eax,0x1
    39c9:	0f 85 fa 00          	jne    3ac7 <_schedule+0x211>
    39cd:	67 66 c7 04 24 40 a7 	mov    DWORD PTR [esp],0xa740
    39d4:	00 00 
    39d6:	66 e8 f6 0c 00 00    	call   46d2 <_size>
    39dc:	66 83 f8 01          	cmp    eax,0x1
    39e0:	0f 85 e3 00          	jne    3ac7 <_schedule+0x211>
D:\OneDrive\Study\Operating Systems\实验\project6\codes/./lib/utilsC.c:477
	{
		// 浠ring0ring1锛浠ring1ring0涓
		dequeue(&ReadyQue, &next);
    39e4:	67 66 c7 44 24 04 68 	mov    DWORD PTR [esp+0x4],0xa868
    39eb:	a8 00 00 
    39ee:	67 66 c7 04 24 40 a7 	mov    DWORD PTR [esp],0xa740
    39f5:	00 00 
    39f7:	66 e8 88 0d 00 00    	call   4785 <_dequeue>
D:\OneDrive\Study\Operating Systems\实验\project6\codes/./lib/utilsC.c:478
		if(next != 0){
    39fd:	66 a1 68 a8          	mov    eax,ds:0xa868
    3a01:	66 85 c0             	test   eax,eax
    3a04:	74 4b                	je     3a51 <_schedule+0x19b>
D:\OneDrive\Study\Operating Systems\实验\project6\codes/./lib/utilsC.c:479
			processTable[next].status = running;
    3a06:	66 8b 16 68 a8       	mov    edx,DWORD PTR ds:0xa868
    3a0b:	66 89 d0             	mov    eax,edx
    3a0e:	66 01 c0             	add    eax,eax
    3a11:	66 01 d0             	add    eax,edx
    3a14:	66 c1 e0 02          	shl    eax,0x2
    3a18:	66 01 d0             	add    eax,edx
    3a1b:	66 c1 e0 03          	shl    eax,0x3
    3a1f:	66 05 44 93 00 00    	add    eax,0x9344
    3a25:	67 66 c7 00 02 00 00 	mov    DWORD PTR [eax],0x2
    3a2c:	00 
D:\OneDrive\Study\Operating Systems\实验\project6\codes/./lib/utilsC.c:480
			enqueue(&ReadyQue, curProcessId);
    3a2d:	66 a1 30 a7          	mov    eax,ds:0xa730
    3a31:	67 66 89 44 24 04    	mov    DWORD PTR [esp+0x4],eax
    3a37:	67 66 c7 04 24 40 a7 	mov    DWORD PTR [esp],0xa740
    3a3e:	00 00 
    3a40:	66 e8 d2 0c 00 00    	call   4718 <_enqueue>
D:\OneDrive\Study\Operating Systems\实验\project6\codes/./lib/utilsC.c:481
			curProcessId = next;
    3a46:	66 a1 68 a8          	mov    eax,ds:0xa868
    3a4a:	66 a3 30 a7          	mov    ds:0xa730,eax
D:\OneDrive\Study\Operating Systems\实验\project6\codes/./lib/utilsC.c:478
		if(next != 0){
    3a4e:	e9 a6 00             	jmp    3af7 <_schedule+0x241>
D:\OneDrive\Study\Operating Systems\实验\project6\codes/./lib/utilsC.c:482
		} else if(processTable[curProcessId].status == running) {
    3a51:	66 8b 16 30 a7       	mov    edx,DWORD PTR ds:0xa730
    3a56:	66 89 d0             	mov    eax,edx
    3a59:	66 01 c0             	add    eax,eax
    3a5c:	66 01 d0             	add    eax,edx
    3a5f:	66 c1 e0 02          	shl    eax,0x2
    3a63:	66 01 d0             	add    eax,edx
    3a66:	66 c1 e0 03          	shl    eax,0x3
    3a6a:	66 05 44 93 00 00    	add    eax,0x9344
    3a70:	67 66 8b 00          	mov    eax,DWORD PTR [eax]
    3a74:	66 83 f8 02          	cmp    eax,0x2
    3a78:	75 1b                	jne    3a95 <_schedule+0x1df>
D:\OneDrive\Study\Operating Systems\实验\project6\codes/./lib/utilsC.c:483
			enqueue(&ReadyQue, next);
    3a7a:	66 a1 68 a8          	mov    eax,ds:0xa868
    3a7e:	67 66 89 44 24 04    	mov    DWORD PTR [esp+0x4],eax
    3a84:	67 66 c7 04 24 40 a7 	mov    DWORD PTR [esp],0xa740
    3a8b:	00 00 
    3a8d:	66 e8 85 0c 00 00    	call   4718 <_enqueue>
D:\OneDrive\Study\Operating Systems\实验\project6\codes/./lib/utilsC.c:478
		if(next != 0){
    3a93:	eb 62                	jmp    3af7 <_schedule+0x241>
D:\OneDrive\Study\Operating Systems\实验\project6\codes/./lib/utilsC.c:485
		} else {
			curProcessId = 0;
    3a95:	66 c7 06 30 a7 00 00 	mov    DWORD PTR ds:0xa730,0x0
    3a9c:	00 00 
D:\OneDrive\Study\Operating Systems\实验\project6\codes/./lib/utilsC.c:486
			processTable[curProcessId].status = running;
    3a9e:	66 8b 16 30 a7       	mov    edx,DWORD PTR ds:0xa730
    3aa3:	66 89 d0             	mov    eax,edx
    3aa6:	66 01 c0             	add    eax,eax
    3aa9:	66 01 d0             	add    eax,edx
    3aac:	66 c1 e0 02          	shl    eax,0x2
    3ab0:	66 01 d0             	add    eax,edx
    3ab3:	66 c1 e0 03          	shl    eax,0x3
    3ab7:	66 05 44 93 00 00    	add    eax,0x9344
    3abd:	67 66 c7 00 02 00 00 	mov    DWORD PTR [eax],0x2
    3ac4:	00 
D:\OneDrive\Study\Operating Systems\实验\project6\codes/./lib/utilsC.c:478
		if(next != 0){
    3ac5:	eb 30                	jmp    3af7 <_schedule+0x241>
D:\OneDrive\Study\Operating Systems\实验\project6\codes/./lib/utilsC.c:491
		}
	}
	else
	{
		curProcessId = 0;
    3ac7:	66 c7 06 30 a7 00 00 	mov    DWORD PTR ds:0xa730,0x0
    3ace:	00 00 
D:\OneDrive\Study\Operating Systems\实验\project6\codes/./lib/utilsC.c:492
		processTable[curProcessId].status = running;
    3ad0:	66 8b 16 30 a7       	mov    edx,DWORD PTR ds:0xa730
    3ad5:	66 89 d0             	mov    eax,edx
    3ad8:	66 01 c0             	add    eax,eax
    3adb:	66 01 d0             	add    eax,edx
    3ade:	66 c1 e0 02          	shl    eax,0x2
    3ae2:	66 01 d0             	add    eax,edx
    3ae5:	66 c1 e0 03          	shl    eax,0x3
    3ae9:	66 05 44 93 00 00    	add    eax,0x9344
    3aef:	67 66 c7 00 02 00 00 	mov    DWORD PTR [eax],0x2
    3af6:	00 
D:\OneDrive\Study\Operating Systems\实验\project6\codes/./lib/utilsC.c:494
	}
}
    3af7:	90                   	nop
    3af8:	66 c9                	leave  
    3afa:	66 c3                	ret    

00003afc <_do_fork>:
do_fork():
D:\OneDrive\Study\Operating Systems\实验\project6\codes/./lib/utilsC.c:501

//璁板充腑
//杩ヤ宸茬save宸憋哄讳restart板澶杩绋
char name[40];
void do_fork()
{
    3afc:	66 55                	push   ebp
    3afe:	66 89 e5             	mov    ebp,esp
    3b01:	66 83 ec 44          	sub    esp,0x44
D:\OneDrive\Study\Operating Systems\实验\project6\codes/./lib/utilsC.c:502
	strncpy(processTable[curProcessId].name, name, strlen(processTable[curProcessId].name)); 
    3b05:	66 8b 16 30 a7       	mov    edx,DWORD PTR ds:0xa730
    3b0a:	66 89 d0             	mov    eax,edx
    3b0d:	66 01 c0             	add    eax,eax
    3b10:	66 01 d0             	add    eax,edx
    3b13:	66 c1 e0 02          	shl    eax,0x2
    3b17:	66 01 d0             	add    eax,edx
    3b1a:	66 c1 e0 03          	shl    eax,0x3
    3b1e:	66 83 c0 30          	add    eax,0x30
    3b22:	66 05 e0 92 00 00    	add    eax,0x92e0
    3b28:	66 83 c0 04          	add    eax,0x4
    3b2c:	67 66 89 04 24       	mov    DWORD PTR [esp],eax
    3b31:	66 e8 74 ee ff ff    	call   29ab <_strlen>
    3b37:	66 89 c1             	mov    ecx,eax
    3b3a:	66 8b 16 30 a7       	mov    edx,DWORD PTR ds:0xa730
    3b3f:	66 89 d0             	mov    eax,edx
    3b42:	66 01 c0             	add    eax,eax
    3b45:	66 01 d0             	add    eax,edx
    3b48:	66 c1 e0 02          	shl    eax,0x2
    3b4c:	66 01 d0             	add    eax,edx
    3b4f:	66 c1 e0 03          	shl    eax,0x3
    3b53:	66 83 c0 30          	add    eax,0x30
    3b57:	66 05 e0 92 00 00    	add    eax,0x92e0
    3b5d:	66 83 c0 04          	add    eax,0x4
    3b61:	67 66 89 4c 24 08    	mov    DWORD PTR [esp+0x8],ecx
    3b67:	67 66 c7 44 24 04 40 	mov    DWORD PTR [esp+0x4],0xa840
    3b6e:	a8 00 00 
    3b71:	67 66 89 04 24       	mov    DWORD PTR [esp],eax
    3b76:	66 e8 15 f0 ff ff    	call   2b91 <_strncpy>
D:\OneDrive\Study\Operating Systems\实验\project6\codes/./lib/utilsC.c:503
	concate(name, "SubPrg");
    3b7c:	67 66 c7 44 24 04 cb 	mov    DWORD PTR [esp+0x4],0x60cb
    3b83:	60 00 00 
    3b86:	67 66 c7 04 24 40 a8 	mov    DWORD PTR [esp],0xa840
    3b8d:	00 00 
    3b8f:	66 e8 4c ee ff ff    	call   29e1 <_concate>
D:\OneDrive\Study\Operating Systems\实验\project6\codes/./lib/utilsC.c:504
	int blockNum = findEnoughBlock(1024);
    3b95:	67 66 c7 04 24 00 04 	mov    DWORD PTR [esp],0x400
    3b9c:	00 00 
    3b9e:	66 e8 1f 1b 00 00    	call   56c3 <_findEnoughBlock>
    3ba4:	67 66 89 45 fc       	mov    DWORD PTR [ebp-0x4],eax
D:\OneDrive\Study\Operating Systems\实验\project6\codes/./lib/utilsC.c:505
	blockNum = require(1024, blockNum);
    3ba9:	67 66 8b 45 fc       	mov    eax,DWORD PTR [ebp-0x4]
    3bae:	67 66 89 44 24 04    	mov    DWORD PTR [esp+0x4],eax
    3bb4:	67 66 c7 04 24 00 04 	mov    DWORD PTR [esp],0x400
    3bbb:	00 00 
    3bbd:	66 e8 a9 1b 00 00    	call   576c <_require>
    3bc3:	67 66 89 45 fc       	mov    DWORD PTR [ebp-0x4],eax
D:\OneDrive\Study\Operating Systems\实验\project6\codes/./lib/utilsC.c:507
	int segOfSour, segOfDes;
	int segMask = 0xf0000;
    3bc8:	67 66 c7 45 f8 00 00 	mov    DWORD PTR [ebp-0x8],0xf0000
    3bcf:	0f 00 
D:\OneDrive\Study\Operating Systems\实验\project6\codes/./lib/utilsC.c:508
	int offsetMask = 0x0000ffff;
    3bd1:	67 66 c7 45 f4 ff ff 	mov    DWORD PTR [ebp-0xc],0xffff
    3bd8:	00 00 
D:\OneDrive\Study\Operating Systems\实验\project6\codes/./lib/utilsC.c:509
	segOfDes = (memoryTable[blockNum].beginAddr & segMask) >> 4;
    3bda:	67 66 8b 55 fc       	mov    edx,DWORD PTR [ebp-0x4]
    3bdf:	66 89 d0             	mov    eax,edx
    3be2:	66 01 c0             	add    eax,eax
    3be5:	66 01 d0             	add    eax,edx
    3be8:	66 c1 e0 03          	shl    eax,0x3
    3bec:	66 05 e0 81 00 00    	add    eax,0x81e0
    3bf2:	67 66 8b 00          	mov    eax,DWORD PTR [eax]
    3bf6:	67 66 23 45 f8       	and    eax,DWORD PTR [ebp-0x8]
    3bfb:	66 c1 f8 04          	sar    eax,0x4
    3bff:	67 66 89 45 f0       	mov    DWORD PTR [ebp-0x10],eax
D:\OneDrive\Study\Operating Systems\实验\project6\codes/./lib/utilsC.c:510
	segOfSour = ((memoryTable[processTable[curProcessId].blockNum].endAddr-1024+1) & segMask) >> 4;
    3c04:	66 8b 16 30 a7       	mov    edx,DWORD PTR ds:0xa730
    3c09:	66 89 d0             	mov    eax,edx
    3c0c:	66 01 c0             	add    eax,eax
    3c0f:	66 01 d0             	add    eax,edx
    3c12:	66 c1 e0 02          	shl    eax,0x2
    3c16:	66 01 d0             	add    eax,edx
    3c19:	66 c1 e0 03          	shl    eax,0x3
    3c1d:	66 05 08 93 00 00    	add    eax,0x9308
    3c23:	67 66 8b 10          	mov    edx,DWORD PTR [eax]
    3c27:	66 89 d0             	mov    eax,edx
    3c2a:	66 01 c0             	add    eax,eax
    3c2d:	66 01 d0             	add    eax,edx
    3c30:	66 c1 e0 03          	shl    eax,0x3
    3c34:	66 05 e4 81 00 00    	add    eax,0x81e4
    3c3a:	67 66 8b 00          	mov    eax,DWORD PTR [eax]
    3c3e:	66 2d ff 03 00 00    	sub    eax,0x3ff
    3c44:	67 66 23 45 f8       	and    eax,DWORD PTR [ebp-0x8]
    3c49:	66 c1 f8 04          	sar    eax,0x4
    3c4d:	67 66 89 45 ec       	mov    DWORD PTR [ebp-0x14],eax
D:\OneDrive\Study\Operating Systems\实验\project6\codes/./lib/utilsC.c:511
	int cs = processTable[curProcessId].pcb.cs, ip = processTable[curProcessId].pcb.ip;
    3c52:	66 8b 16 30 a7       	mov    edx,DWORD PTR ds:0xa730
    3c57:	66 89 d0             	mov    eax,edx
    3c5a:	66 01 c0             	add    eax,eax
    3c5d:	66 01 d0             	add    eax,edx
    3c60:	66 c1 e0 02          	shl    eax,0x2
    3c64:	66 01 d0             	add    eax,edx
    3c67:	66 c1 e0 03          	shl    eax,0x3
    3c6b:	66 05 fa 92 00 00    	add    eax,0x92fa
    3c71:	67 8b 00             	mov    ax,WORD PTR [eax]
    3c74:	66 98                	cwde   
    3c76:	67 66 89 45 e8       	mov    DWORD PTR [ebp-0x18],eax
    3c7b:	66 8b 16 30 a7       	mov    edx,DWORD PTR ds:0xa730
    3c80:	66 89 d0             	mov    eax,edx
    3c83:	66 01 c0             	add    eax,eax
    3c86:	66 01 d0             	add    eax,edx
    3c89:	66 c1 e0 02          	shl    eax,0x2
    3c8d:	66 01 d0             	add    eax,edx
    3c90:	66 c1 e0 03          	shl    eax,0x3
    3c94:	66 05 f8 92 00 00    	add    eax,0x92f8
    3c9a:	67 66 8b 00          	mov    eax,DWORD PTR [eax]
    3c9e:	66 98                	cwde   
    3ca0:	67 66 89 45 e4       	mov    DWORD PTR [ebp-0x1c],eax
D:\OneDrive\Study\Operating Systems\实验\project6\codes/./lib/utilsC.c:512
	int ss = segOfDes, 
    3ca5:	67 66 8b 45 f0       	mov    eax,DWORD PTR [ebp-0x10]
    3caa:	67 66 89 45 e0       	mov    DWORD PTR [ebp-0x20],eax
D:\OneDrive\Study\Operating Systems\实验\project6\codes/./lib/utilsC.c:513
		sp = ((memoryTable[blockNum].beginAddr)&offsetMask) + processTable[curProcessId].pcb.sp_now - ((memoryTable[processTable[curProcessId].blockNum].endAddr-1024+1)&offsetMask);
    3caf:	67 66 8b 55 fc       	mov    edx,DWORD PTR [ebp-0x4]
    3cb4:	66 89 d0             	mov    eax,edx
    3cb7:	66 01 c0             	add    eax,eax
    3cba:	66 01 d0             	add    eax,edx
    3cbd:	66 c1 e0 03          	shl    eax,0x3
    3cc1:	66 05 e0 81 00 00    	add    eax,0x81e0
    3cc7:	67 66 8b 00          	mov    eax,DWORD PTR [eax]
    3ccb:	67 66 23 45 f4       	and    eax,DWORD PTR [ebp-0xc]
    3cd0:	66 89 c1             	mov    ecx,eax
    3cd3:	66 8b 16 30 a7       	mov    edx,DWORD PTR ds:0xa730
    3cd8:	66 89 d0             	mov    eax,edx
    3cdb:	66 01 c0             	add    eax,eax
    3cde:	66 01 d0             	add    eax,edx
    3ce1:	66 c1 e0 02          	shl    eax,0x2
    3ce5:	66 01 d0             	add    eax,edx
    3ce8:	66 c1 e0 03          	shl    eax,0x3
    3cec:	66 05 fe 92 00 00    	add    eax,0x92fe
    3cf2:	67 8b 00             	mov    ax,WORD PTR [eax]
    3cf5:	66 98                	cwde   
    3cf7:	66 01 c1             	add    ecx,eax
    3cfa:	66 8b 16 30 a7       	mov    edx,DWORD PTR ds:0xa730
    3cff:	66 89 d0             	mov    eax,edx
    3d02:	66 01 c0             	add    eax,eax
    3d05:	66 01 d0             	add    eax,edx
    3d08:	66 c1 e0 02          	shl    eax,0x2
    3d0c:	66 01 d0             	add    eax,edx
    3d0f:	66 c1 e0 03          	shl    eax,0x3
    3d13:	66 05 08 93 00 00    	add    eax,0x9308
    3d19:	67 66 8b 10          	mov    edx,DWORD PTR [eax]
    3d1d:	66 89 d0             	mov    eax,edx
    3d20:	66 01 c0             	add    eax,eax
    3d23:	66 01 d0             	add    eax,edx
    3d26:	66 c1 e0 03          	shl    eax,0x3
    3d2a:	66 05 e4 81 00 00    	add    eax,0x81e4
    3d30:	67 66 8b 00          	mov    eax,DWORD PTR [eax]
    3d34:	66 2d ff 03 00 00    	sub    eax,0x3ff
    3d3a:	67 66 23 45 f4       	and    eax,DWORD PTR [ebp-0xc]
    3d3f:	66 29 c1             	sub    ecx,eax
    3d42:	66 89 c8             	mov    eax,ecx
    3d45:	67 66 89 45 dc       	mov    DWORD PTR [ebp-0x24],eax
D:\OneDrive\Study\Operating Systems\实验\project6\codes/./lib/utilsC.c:514
	memcpy(segOfOs, (int)&processTable[curProcessId].pcb, segOfOs, (int)&processTable[ProcessSize].pcb, sizeof(struct PCB));
    3d4a:	66 8b 16 74 87       	mov    edx,DWORD PTR ds:0x8774
    3d4f:	66 89 d0             	mov    eax,edx
    3d52:	66 01 c0             	add    eax,eax
    3d55:	66 01 d0             	add    eax,edx
    3d58:	66 c1 e0 02          	shl    eax,0x2
    3d5c:	66 01 d0             	add    eax,edx
    3d5f:	66 c1 e0 03          	shl    eax,0x3
    3d63:	66 05 e0 92 00 00    	add    eax,0x92e0
    3d69:	66 89 c1             	mov    ecx,eax
    3d6c:	66 8b 16 30 a7       	mov    edx,DWORD PTR ds:0xa730
    3d71:	66 89 d0             	mov    eax,edx
    3d74:	66 01 c0             	add    eax,eax
    3d77:	66 01 d0             	add    eax,edx
    3d7a:	66 c1 e0 02          	shl    eax,0x2
    3d7e:	66 01 d0             	add    eax,edx
    3d81:	66 c1 e0 03          	shl    eax,0x3
    3d85:	66 05 e0 92 00 00    	add    eax,0x92e0
    3d8b:	67 66 c7 44 24 10 22 	mov    DWORD PTR [esp+0x10],0x22
    3d92:	00 00 00 
    3d95:	67 66 89 4c 24 0c    	mov    DWORD PTR [esp+0xc],ecx
    3d9b:	67 66 c7 44 24 08 00 	mov    DWORD PTR [esp+0x8],0x2000
    3da2:	20 00 00 
    3da5:	67 66 89 44 24 04    	mov    DWORD PTR [esp+0x4],eax
    3dab:	67 66 c7 04 24 00 20 	mov    DWORD PTR [esp],0x2000
    3db2:	00 00 
    3db4:	66 e8 8a e0 ff ff    	call   1e44 <_memcpy>
D:\OneDrive\Study\Operating Systems\实验\project6\codes/./lib/utilsC.c:515
	memcpy(segOfSour, (memoryTable[processTable[curProcessId].blockNum].endAddr-1024+1)&offsetMask, segOfDes, (memoryTable[blockNum].beginAddr)&offsetMask, 1024);
    3dba:	67 66 8b 55 fc       	mov    edx,DWORD PTR [ebp-0x4]
    3dbf:	66 89 d0             	mov    eax,edx
    3dc2:	66 01 c0             	add    eax,eax
    3dc5:	66 01 d0             	add    eax,edx
    3dc8:	66 c1 e0 03          	shl    eax,0x3
    3dcc:	66 05 e0 81 00 00    	add    eax,0x81e0
    3dd2:	67 66 8b 00          	mov    eax,DWORD PTR [eax]
    3dd6:	67 66 23 45 f4       	and    eax,DWORD PTR [ebp-0xc]
    3ddb:	66 89 c1             	mov    ecx,eax
    3dde:	66 8b 16 30 a7       	mov    edx,DWORD PTR ds:0xa730
    3de3:	66 89 d0             	mov    eax,edx
    3de6:	66 01 c0             	add    eax,eax
    3de9:	66 01 d0             	add    eax,edx
    3dec:	66 c1 e0 02          	shl    eax,0x2
    3df0:	66 01 d0             	add    eax,edx
    3df3:	66 c1 e0 03          	shl    eax,0x3
    3df7:	66 05 08 93 00 00    	add    eax,0x9308
    3dfd:	67 66 8b 10          	mov    edx,DWORD PTR [eax]
    3e01:	66 89 d0             	mov    eax,edx
    3e04:	66 01 c0             	add    eax,eax
    3e07:	66 01 d0             	add    eax,edx
    3e0a:	66 c1 e0 03          	shl    eax,0x3
    3e0e:	66 05 e4 81 00 00    	add    eax,0x81e4
    3e14:	67 66 8b 00          	mov    eax,DWORD PTR [eax]
    3e18:	66 2d ff 03 00 00    	sub    eax,0x3ff
    3e1e:	67 66 23 45 f4       	and    eax,DWORD PTR [ebp-0xc]
    3e23:	67 66 c7 44 24 10 00 	mov    DWORD PTR [esp+0x10],0x400
    3e2a:	04 00 00 
    3e2d:	67 66 89 4c 24 0c    	mov    DWORD PTR [esp+0xc],ecx
    3e33:	67 66 8b 55 f0       	mov    edx,DWORD PTR [ebp-0x10]
    3e38:	67 66 89 54 24 08    	mov    DWORD PTR [esp+0x8],edx
    3e3e:	67 66 89 44 24 04    	mov    DWORD PTR [esp+0x4],eax
    3e44:	67 66 8b 45 ec       	mov    eax,DWORD PTR [ebp-0x14]
    3e49:	67 66 89 04 24       	mov    DWORD PTR [esp],eax
    3e4e:	66 e8 f0 df ff ff    	call   1e44 <_memcpy>
D:\OneDrive\Study\Operating Systems\实验\project6\codes/./lib/utilsC.c:516
	createProcess(ProcessSize++, name, 1024, cs, ip, ss, sp, blockNum);
    3e54:	66 a1 74 87          	mov    eax,ds:0x8774
    3e58:	67 66 8d 50 01       	lea    edx,[eax+0x1]
    3e5d:	66 89 16 74 87       	mov    DWORD PTR ds:0x8774,edx
    3e62:	67 66 8b 55 fc       	mov    edx,DWORD PTR [ebp-0x4]
    3e67:	67 66 89 54 24 1c    	mov    DWORD PTR [esp+0x1c],edx
    3e6d:	67 66 8b 55 dc       	mov    edx,DWORD PTR [ebp-0x24]
    3e72:	67 66 89 54 24 18    	mov    DWORD PTR [esp+0x18],edx
    3e78:	67 66 8b 55 e0       	mov    edx,DWORD PTR [ebp-0x20]
    3e7d:	67 66 89 54 24 14    	mov    DWORD PTR [esp+0x14],edx
    3e83:	67 66 8b 55 e4       	mov    edx,DWORD PTR [ebp-0x1c]
    3e88:	67 66 89 54 24 10    	mov    DWORD PTR [esp+0x10],edx
    3e8e:	67 66 8b 55 e8       	mov    edx,DWORD PTR [ebp-0x18]
    3e93:	67 66 89 54 24 0c    	mov    DWORD PTR [esp+0xc],edx
    3e99:	67 66 c7 44 24 08 00 	mov    DWORD PTR [esp+0x8],0x400
    3ea0:	04 00 00 
    3ea3:	67 66 c7 44 24 04 40 	mov    DWORD PTR [esp+0x4],0xa840
    3eaa:	a8 00 00 
    3ead:	67 66 89 04 24       	mov    DWORD PTR [esp],eax
    3eb2:	66 e8 d5 f6 ff ff    	call   358d <_createProcess>
D:\OneDrive\Study\Operating Systems\实验\project6\codes/./lib/utilsC.c:517
	enqueue(&ReadyQue, ProcessSize-1);
    3eb8:	66 a1 74 87          	mov    eax,ds:0x8774
    3ebc:	66 48                	dec    eax
    3ebe:	67 66 89 44 24 04    	mov    DWORD PTR [esp+0x4],eax
    3ec4:	67 66 c7 04 24 40 a7 	mov    DWORD PTR [esp],0xa740
    3ecb:	00 00 
    3ecd:	66 e8 45 08 00 00    	call   4718 <_enqueue>
D:\OneDrive\Study\Operating Systems\实验\project6\codes/./lib/utilsC.c:518
	processTable[ProcessSize-1].fatherID = curProcessId;
    3ed3:	66 a1 74 87          	mov    eax,ds:0x8774
    3ed7:	67 66 8d 50 ff       	lea    edx,[eax-0x1]
    3edc:	66 8b 0e 30 a7       	mov    ecx,DWORD PTR ds:0xa730
    3ee1:	66 89 d0             	mov    eax,edx
    3ee4:	66 01 c0             	add    eax,eax
    3ee7:	66 01 d0             	add    eax,edx
    3eea:	66 c1 e0 02          	shl    eax,0x2
    3eee:	66 01 d0             	add    eax,edx
    3ef1:	66 c1 e0 03          	shl    eax,0x3
    3ef5:	66 05 38 93 00 00    	add    eax,0x9338
    3efb:	67 66 89 08          	mov    DWORD PTR [eax],ecx
D:\OneDrive\Study\Operating Systems\实验\project6\codes/./lib/utilsC.c:519
	processTable[curProcessId].sonID = ProcessSize - 1;
    3eff:	66 8b 16 30 a7       	mov    edx,DWORD PTR ds:0xa730
    3f04:	66 a1 74 87          	mov    eax,ds:0x8774
    3f08:	67 66 8d 48 ff       	lea    ecx,[eax-0x1]
    3f0d:	66 89 d0             	mov    eax,edx
    3f10:	66 01 c0             	add    eax,eax
    3f13:	66 01 d0             	add    eax,edx
    3f16:	66 c1 e0 02          	shl    eax,0x2
    3f1a:	66 01 d0             	add    eax,edx
    3f1d:	66 c1 e0 03          	shl    eax,0x3
    3f21:	66 05 40 93 00 00    	add    eax,0x9340
    3f27:	67 66 89 08          	mov    DWORD PTR [eax],ecx
D:\OneDrive\Study\Operating Systems\实验\project6\codes/./lib/utilsC.c:520
	processTable[curProcessId].pcb.ax = ProcessSize - 1;
    3f2b:	66 8b 16 30 a7       	mov    edx,DWORD PTR ds:0xa730
    3f30:	66 a1 74 87          	mov    eax,ds:0x8774
    3f34:	66 48                	dec    eax
    3f36:	66 89 c1             	mov    ecx,eax
    3f39:	66 89 d0             	mov    eax,edx
    3f3c:	66 01 c0             	add    eax,eax
    3f3f:	66 01 d0             	add    eax,edx
    3f42:	66 c1 e0 02          	shl    eax,0x2
    3f46:	66 01 d0             	add    eax,edx
    3f49:	66 c1 e0 03          	shl    eax,0x3
    3f4d:	66 05 f6 92 00 00    	add    eax,0x92f6
    3f53:	67 89 08             	mov    WORD PTR [eax],cx
D:\OneDrive\Study\Operating Systems\实验\project6\codes/./lib/utilsC.c:521
	processTable[ProcessSize-1].pcb.ax = 0;
    3f56:	66 a1 74 87          	mov    eax,ds:0x8774
    3f5a:	67 66 8d 50 ff       	lea    edx,[eax-0x1]
    3f5f:	66 89 d0             	mov    eax,edx
    3f62:	66 01 c0             	add    eax,eax
    3f65:	66 01 d0             	add    eax,edx
    3f68:	66 c1 e0 02          	shl    eax,0x2
    3f6c:	66 01 d0             	add    eax,edx
    3f6f:	66 c1 e0 03          	shl    eax,0x3
    3f73:	66 05 f6 92 00 00    	add    eax,0x92f6
    3f79:	67 c7 00 00 00       	mov    WORD PTR [eax],0x0
D:\OneDrive\Study\Operating Systems\实验\project6\codes/./lib/utilsC.c:522
}
    3f7e:	90                   	nop
    3f7f:	66 c9                	leave  
    3f81:	66 c3                	ret    

00003f83 <_do_exit>:
do_exit():
D:\OneDrive\Study\Operating Systems\实验\project6\codes/./lib/utilsC.c:525

void do_exit(int exit_value)
{		
    3f83:	66 55                	push   ebp
    3f85:	66 89 e5             	mov    ebp,esp
    3f88:	66 83 ec 0c          	sub    esp,0xc
D:\OneDrive\Study\Operating Systems\实验\project6\codes/./lib/utilsC.c:526
	quesize	= size(&BlockedQue);
    3f8c:	67 66 c7 04 24 a0 86 	mov    DWORD PTR [esp],0x86a0
    3f93:	00 00 
    3f95:	66 e8 37 07 00 00    	call   46d2 <_size>
    3f9b:	66 a3 20 a8          	mov    ds:0xa820,eax
D:\OneDrive\Study\Operating Systems\实验\project6\codes/./lib/utilsC.c:527
	for (int i = 0; i < quesize; ++i)
    3f9f:	67 66 c7 45 fc 00 00 	mov    DWORD PTR [ebp-0x4],0x0
    3fa6:	00 00 
    3fa8:	eb 6a                	jmp    4014 <_do_exit+0x91>
D:\OneDrive\Study\Operating Systems\实验\project6\codes/./lib/utilsC.c:529
	{
		dequeue(&BlockedQue, &tmp);
    3faa:	67 66 c7 44 24 04 24 	mov    DWORD PTR [esp+0x4],0xa824
    3fb1:	a8 00 00 
    3fb4:	67 66 c7 04 24 a0 86 	mov    DWORD PTR [esp],0x86a0
    3fbb:	00 00 
    3fbd:	66 e8 c2 07 00 00    	call   4785 <_dequeue>
D:\OneDrive\Study\Operating Systems\实验\project6\codes/./lib/utilsC.c:530
		if(processTable[tmp].waitProcess == curProcessId)
    3fc3:	66 8b 16 24 a8       	mov    edx,DWORD PTR ds:0xa824
    3fc8:	66 89 d0             	mov    eax,edx
    3fcb:	66 01 c0             	add    eax,eax
    3fce:	66 01 d0             	add    eax,edx
    3fd1:	66 c1 e0 02          	shl    eax,0x2
    3fd5:	66 01 d0             	add    eax,edx
    3fd8:	66 c1 e0 03          	shl    eax,0x3
    3fdc:	66 05 3c 93 00 00    	add    eax,0x933c
    3fe2:	67 66 8b 10          	mov    edx,DWORD PTR [eax]
    3fe6:	66 a1 30 a7          	mov    eax,ds:0xa730
    3fea:	66 39 c2             	cmp    edx,eax
    3fed:	75 11                	jne    4000 <_do_exit+0x7d>
D:\OneDrive\Study\Operating Systems\实验\project6\codes/./lib/utilsC.c:532
		{
			wakeup(tmp);
    3fef:	66 a1 24 a8          	mov    eax,ds:0xa824
    3ff3:	67 66 89 04 24       	mov    DWORD PTR [esp],eax
    3ff8:	66 e8 fc f7 ff ff    	call   37fa <_wakeup>
    3ffe:	eb 0f                	jmp    400f <_do_exit+0x8c>
D:\OneDrive\Study\Operating Systems\实验\project6\codes/./lib/utilsC.c:535
		}
		else {
			block(tmp);
    4000:	66 a1 24 a8          	mov    eax,ds:0xa824
    4004:	67 66 89 04 24       	mov    DWORD PTR [esp],eax
    4009:	66 e8 2f f7 ff ff    	call   373e <_block>
D:\OneDrive\Study\Operating Systems\实验\project6\codes/./lib/utilsC.c:527
	for (int i = 0; i < quesize; ++i)
    400f:	67 66 ff 45 fc       	inc    DWORD PTR [ebp-0x4]
    4014:	66 a1 20 a8          	mov    eax,ds:0xa820
    4018:	67 66 39 45 fc       	cmp    DWORD PTR [ebp-0x4],eax
    401d:	7c 8b                	jl     3faa <_do_exit+0x27>
D:\OneDrive\Study\Operating Systems\实验\project6\codes/./lib/utilsC.c:538
		}
	}
	processTable[curProcessId].retValue = exit_value; 
    401f:	66 8b 16 30 a7       	mov    edx,DWORD PTR ds:0xa730
    4024:	66 89 d0             	mov    eax,edx
    4027:	66 01 c0             	add    eax,eax
    402a:	66 01 d0             	add    eax,edx
    402d:	66 c1 e0 02          	shl    eax,0x2
    4031:	66 01 d0             	add    eax,edx
    4034:	66 c1 e0 03          	shl    eax,0x3
    4038:	67 66 8d 90 34 93 00 	lea    edx,[eax+0x9334]
    403f:	00 
    4040:	67 66 8b 45 08       	mov    eax,DWORD PTR [ebp+0x8]
    4045:	67 66 89 02          	mov    DWORD PTR [edx],eax
D:\OneDrive\Study\Operating Systems\实验\project6\codes/./lib/utilsC.c:539
	kill(curProcessId);
    4049:	66 a1 30 a7          	mov    eax,ds:0xa730
    404d:	67 66 89 04 24       	mov    DWORD PTR [esp],eax
    4052:	66 e8 39 e8 ff ff    	call   2891 <_kill>
D:\OneDrive\Study\Operating Systems\实验\project6\codes/./lib/utilsC.c:540
	__asm__("int $0x8\n");
    4058:	cd 08                	int    0x8
D:\OneDrive\Study\Operating Systems\实验\project6\codes/./lib/utilsC.c:541
}
    405a:	90                   	nop
    405b:	66 c9                	leave  
    405d:	66 c3                	ret    

0000405f <_do_wait>:
do_wait():
D:\OneDrive\Study\Operating Systems\实验\project6\codes/./lib/utilsC.c:544

int do_wait()
{
    405f:	66 55                	push   ebp
    4061:	66 89 e5             	mov    ebp,esp
    4064:	66 83 ec 08          	sub    esp,0x8
D:\OneDrive\Study\Operating Systems\实验\project6\codes/./lib/utilsC.c:545
	processTable[curProcessId].waitProcess = processTable[curProcessId].sonID;
    4068:	66 8b 16 30 a7       	mov    edx,DWORD PTR ds:0xa730
    406d:	66 8b 0e 30 a7       	mov    ecx,DWORD PTR ds:0xa730
    4072:	66 89 c8             	mov    eax,ecx
    4075:	66 01 c0             	add    eax,eax
    4078:	66 01 c8             	add    eax,ecx
    407b:	66 c1 e0 02          	shl    eax,0x2
    407f:	66 01 c8             	add    eax,ecx
    4082:	66 c1 e0 03          	shl    eax,0x3
    4086:	66 05 40 93 00 00    	add    eax,0x9340
    408c:	67 66 8b 08          	mov    ecx,DWORD PTR [eax]
    4090:	66 89 d0             	mov    eax,edx
    4093:	66 01 c0             	add    eax,eax
    4096:	66 01 d0             	add    eax,edx
    4099:	66 c1 e0 02          	shl    eax,0x2
    409d:	66 01 d0             	add    eax,edx
    40a0:	66 c1 e0 03          	shl    eax,0x3
    40a4:	66 05 3c 93 00 00    	add    eax,0x933c
    40aa:	67 66 89 08          	mov    DWORD PTR [eax],ecx
D:\OneDrive\Study\Operating Systems\实验\project6\codes/./lib/utilsC.c:546
	block(curProcessId);
    40ae:	66 a1 30 a7          	mov    eax,ds:0xa730
    40b2:	67 66 89 04 24       	mov    DWORD PTR [esp],eax
    40b7:	66 e8 81 f6 ff ff    	call   373e <_block>
D:\OneDrive\Study\Operating Systems\实验\project6\codes/./lib/utilsC.c:547
	__asm__("int $0x8\n");
    40bd:	cd 08                	int    0x8
D:\OneDrive\Study\Operating Systems\实验\project6\codes/./lib/utilsC.c:548
	int ret = processTable[processTable[curProcessId].sonID].retValue;
    40bf:	66 8b 16 30 a7       	mov    edx,DWORD PTR ds:0xa730
    40c4:	66 89 d0             	mov    eax,edx
    40c7:	66 01 c0             	add    eax,eax
    40ca:	66 01 d0             	add    eax,edx
    40cd:	66 c1 e0 02          	shl    eax,0x2
    40d1:	66 01 d0             	add    eax,edx
    40d4:	66 c1 e0 03          	shl    eax,0x3
    40d8:	66 05 40 93 00 00    	add    eax,0x9340
    40de:	67 66 8b 10          	mov    edx,DWORD PTR [eax]
    40e2:	66 89 d0             	mov    eax,edx
    40e5:	66 01 c0             	add    eax,eax
    40e8:	66 01 d0             	add    eax,edx
    40eb:	66 c1 e0 02          	shl    eax,0x2
    40ef:	66 01 d0             	add    eax,edx
    40f2:	66 c1 e0 03          	shl    eax,0x3
    40f6:	66 05 34 93 00 00    	add    eax,0x9334
    40fc:	67 66 8b 00          	mov    eax,DWORD PTR [eax]
    4100:	67 66 89 45 fc       	mov    DWORD PTR [ebp-0x4],eax
D:\OneDrive\Study\Operating Systems\实验\project6\codes/./lib/utilsC.c:549
	processTable[curProcessId].sonID = -1;
    4105:	66 8b 16 30 a7       	mov    edx,DWORD PTR ds:0xa730
    410a:	66 89 d0             	mov    eax,edx
    410d:	66 01 c0             	add    eax,eax
    4110:	66 01 d0             	add    eax,edx
    4113:	66 c1 e0 02          	shl    eax,0x2
    4117:	66 01 d0             	add    eax,edx
    411a:	66 c1 e0 03          	shl    eax,0x3
    411e:	66 05 40 93 00 00    	add    eax,0x9340
    4124:	67 66 c7 00 ff ff ff 	mov    DWORD PTR [eax],0xffffffff
    412b:	ff 
D:\OneDrive\Study\Operating Systems\实验\project6\codes/./lib/utilsC.c:550
	return ret;
    412c:	67 66 8b 45 fc       	mov    eax,DWORD PTR [ebp-0x4]
D:\OneDrive\Study\Operating Systems\实验\project6\codes/./lib/utilsC.c:551
}
    4131:	66 c9                	leave  
    4133:	66 c3                	ret    

00004135 <_Tosuspend>:
Tosuspend():
D:\OneDrive\Study\Operating Systems\实验\project6\codes/./lib/utilsC.c:554

void Tosuspend(int processID)
{
    4135:	66 55                	push   ebp
    4137:	66 89 e5             	mov    ebp,esp
    413a:	66 83 ec 28          	sub    esp,0x28
D:\OneDrive\Study\Operating Systems\实验\project6\codes/./lib/utilsC.c:555
	int Size = memoryTable[processTable[processID].blockNum].endAddr - memoryTable[processTable[processID].blockNum].beginAddr + 1;
    413e:	67 66 8b 55 08       	mov    edx,DWORD PTR [ebp+0x8]
    4143:	66 89 d0             	mov    eax,edx
    4146:	66 01 c0             	add    eax,eax
    4149:	66 01 d0             	add    eax,edx
    414c:	66 c1 e0 02          	shl    eax,0x2
    4150:	66 01 d0             	add    eax,edx
    4153:	66 c1 e0 03          	shl    eax,0x3
    4157:	66 05 08 93 00 00    	add    eax,0x9308
    415d:	67 66 8b 10          	mov    edx,DWORD PTR [eax]
    4161:	66 89 d0             	mov    eax,edx
    4164:	66 01 c0             	add    eax,eax
    4167:	66 01 d0             	add    eax,edx
    416a:	66 c1 e0 03          	shl    eax,0x3
    416e:	66 05 e4 81 00 00    	add    eax,0x81e4
    4174:	67 66 8b 08          	mov    ecx,DWORD PTR [eax]
    4178:	67 66 8b 55 08       	mov    edx,DWORD PTR [ebp+0x8]
    417d:	66 89 d0             	mov    eax,edx
    4180:	66 01 c0             	add    eax,eax
    4183:	66 01 d0             	add    eax,edx
    4186:	66 c1 e0 02          	shl    eax,0x2
    418a:	66 01 d0             	add    eax,edx
    418d:	66 c1 e0 03          	shl    eax,0x3
    4191:	66 05 08 93 00 00    	add    eax,0x9308
    4197:	67 66 8b 10          	mov    edx,DWORD PTR [eax]
    419b:	66 89 d0             	mov    eax,edx
    419e:	66 01 c0             	add    eax,eax
    41a1:	66 01 d0             	add    eax,edx
    41a4:	66 c1 e0 03          	shl    eax,0x3
    41a8:	66 05 e0 81 00 00    	add    eax,0x81e0
    41ae:	67 66 8b 00          	mov    eax,DWORD PTR [eax]
    41b2:	66 29 c1             	sub    ecx,eax
    41b5:	66 89 c8             	mov    eax,ecx
    41b8:	66 40                	inc    eax
    41ba:	67 66 89 45 e8       	mov    DWORD PTR [ebp-0x18],eax
D:\OneDrive\Study\Operating Systems\实验\project6\codes/./lib/utilsC.c:556
	int count = 0;
    41bf:	67 66 c7 45 fc 00 00 	mov    DWORD PTR [ebp-0x4],0x0
    41c6:	00 00 
D:\OneDrive\Study\Operating Systems\实验\project6\codes/./lib/utilsC.c:557
	int begin = 0;
    41c8:	67 66 c7 45 f8 00 00 	mov    DWORD PTR [ebp-0x8],0x0
    41cf:	00 00 
D:\OneDrive\Study\Operating Systems\实验\project6\codes/./lib/utilsC.c:558
	for (int i = 0; i < LenOfFat; ++i)
    41d1:	67 66 c7 45 f4 00 00 	mov    DWORD PTR [ebp-0xc],0x0
    41d8:	00 00 
    41da:	eb 48                	jmp    4224 <_Tosuspend+0xef>
D:\OneDrive\Study\Operating Systems\实验\project6\codes/./lib/utilsC.c:560
	{	
		if(FAT[begin] == 0)
    41dc:	66 8b 16 78 87       	mov    edx,DWORD PTR ds:0x8778
    41e1:	67 66 8b 45 f8       	mov    eax,DWORD PTR [ebp-0x8]
    41e6:	66 01 c0             	add    eax,eax
    41e9:	66 01 d0             	add    eax,edx
    41ec:	67 8b 00             	mov    ax,WORD PTR [eax]
    41ef:	85 c0                	test   ax,ax
    41f1:	75 07                	jne    41fa <_Tosuspend+0xc5>
D:\OneDrive\Study\Operating Systems\实验\project6\codes/./lib/utilsC.c:562
		{
			++count;
    41f3:	67 66 ff 45 fc       	inc    DWORD PTR [ebp-0x4]
    41f8:	eb 15                	jmp    420f <_Tosuspend+0xda>
D:\OneDrive\Study\Operating Systems\实验\project6\codes/./lib/utilsC.c:565
		}
		else {
			begin = i+1;
    41fa:	67 66 8b 45 f4       	mov    eax,DWORD PTR [ebp-0xc]
    41ff:	66 40                	inc    eax
    4201:	67 66 89 45 f8       	mov    DWORD PTR [ebp-0x8],eax
D:\OneDrive\Study\Operating Systems\实验\project6\codes/./lib/utilsC.c:566
			count = 0;
    4206:	67 66 c7 45 fc 00 00 	mov    DWORD PTR [ebp-0x4],0x0
    420d:	00 00 
D:\OneDrive\Study\Operating Systems\实验\project6\codes/./lib/utilsC.c:568
		}
		if(count*Cluster >= Size)
    420f:	67 66 8b 45 fc       	mov    eax,DWORD PTR [ebp-0x4]
    4214:	66 c1 e0 09          	shl    eax,0x9
    4218:	67 66 3b 45 e8       	cmp    eax,DWORD PTR [ebp-0x18]
    421d:	7d 12                	jge    4231 <_Tosuspend+0xfc>
D:\OneDrive\Study\Operating Systems\实验\project6\codes/./lib/utilsC.c:558
	for (int i = 0; i < LenOfFat; ++i)
    421f:	67 66 ff 45 f4       	inc    DWORD PTR [ebp-0xc]
    4224:	67 66 81 7d f4 c7 00 	cmp    DWORD PTR [ebp-0xc],0xc7
    422b:	00 00 
    422d:	7e ad                	jle    41dc <_Tosuspend+0xa7>
    422f:	eb 01                	jmp    4232 <_Tosuspend+0xfd>
D:\OneDrive\Study\Operating Systems\实验\project6\codes/./lib/utilsC.c:570
		{
			break;
    4231:	90                   	nop
D:\OneDrive\Study\Operating Systems\实验\project6\codes/./lib/utilsC.c:573
		}
	}
	write(begin*Cluster, Size, (memoryTable[processTable[processID].blockNum].beginAddr&0x0000ffff), (memoryTable[processTable[processID].blockNum].beginAddr&0xf0000)>>4);
    4232:	67 66 8b 55 08       	mov    edx,DWORD PTR [ebp+0x8]
    4237:	66 89 d0             	mov    eax,edx
    423a:	66 01 c0             	add    eax,eax
    423d:	66 01 d0             	add    eax,edx
    4240:	66 c1 e0 02          	shl    eax,0x2
    4244:	66 01 d0             	add    eax,edx
    4247:	66 c1 e0 03          	shl    eax,0x3
    424b:	66 05 08 93 00 00    	add    eax,0x9308
    4251:	67 66 8b 10          	mov    edx,DWORD PTR [eax]
    4255:	66 89 d0             	mov    eax,edx
    4258:	66 01 c0             	add    eax,eax
    425b:	66 01 d0             	add    eax,edx
    425e:	66 c1 e0 03          	shl    eax,0x3
    4262:	66 05 e0 81 00 00    	add    eax,0x81e0
    4268:	67 66 8b 00          	mov    eax,DWORD PTR [eax]
    426c:	66 c1 f8 04          	sar    eax,0x4
    4270:	66 25 00 f0 00 00    	and    eax,0xf000
    4276:	66 89 c1             	mov    ecx,eax
    4279:	67 66 8b 55 08       	mov    edx,DWORD PTR [ebp+0x8]
    427e:	66 89 d0             	mov    eax,edx
    4281:	66 01 c0             	add    eax,eax
    4284:	66 01 d0             	add    eax,edx
    4287:	66 c1 e0 02          	shl    eax,0x2
    428b:	66 01 d0             	add    eax,edx
    428e:	66 c1 e0 03          	shl    eax,0x3
    4292:	66 05 08 93 00 00    	add    eax,0x9308
    4298:	67 66 8b 10          	mov    edx,DWORD PTR [eax]
    429c:	66 89 d0             	mov    eax,edx
    429f:	66 01 c0             	add    eax,eax
    42a2:	66 01 d0             	add    eax,edx
    42a5:	66 c1 e0 03          	shl    eax,0x3
    42a9:	66 05 e0 81 00 00    	add    eax,0x81e0
    42af:	67 66 8b 00          	mov    eax,DWORD PTR [eax]
    42b3:	66 0f b7 c0          	movzx  eax,ax
    42b7:	67 66 8b 55 f8       	mov    edx,DWORD PTR [ebp-0x8]
    42bc:	66 c1 e2 09          	shl    edx,0x9
    42c0:	67 66 89 4c 24 0c    	mov    DWORD PTR [esp+0xc],ecx
    42c6:	67 66 89 44 24 08    	mov    DWORD PTR [esp+0x8],eax
    42cc:	67 66 8b 45 e8       	mov    eax,DWORD PTR [ebp-0x18]
    42d1:	67 66 89 44 24 04    	mov    DWORD PTR [esp+0x4],eax
    42d7:	67 66 89 14 24       	mov    DWORD PTR [esp],edx
    42dc:	66 e8 95 db ff ff    	call   1e77 <_write>
D:\OneDrive\Study\Operating Systems\实验\project6\codes/./lib/utilsC.c:574
	processTable[processID].lmaddress = begin*Cluster;
    42e2:	67 66 8b 45 f8       	mov    eax,DWORD PTR [ebp-0x8]
    42e7:	66 c1 e0 09          	shl    eax,0x9
    42eb:	66 89 c1             	mov    ecx,eax
    42ee:	67 66 8b 55 08       	mov    edx,DWORD PTR [ebp+0x8]
    42f3:	66 89 d0             	mov    eax,edx
    42f6:	66 01 c0             	add    eax,eax
    42f9:	66 01 d0             	add    eax,edx
    42fc:	66 c1 e0 02          	shl    eax,0x2
    4300:	66 01 d0             	add    eax,edx
    4303:	66 c1 e0 03          	shl    eax,0x3
    4307:	66 05 0c 93 00 00    	add    eax,0x930c
    430d:	67 66 89 08          	mov    DWORD PTR [eax],ecx
D:\OneDrive\Study\Operating Systems\实验\project6\codes/./lib/utilsC.c:575
	enqueue(&SuspendQue, processID);
    4311:	67 66 8b 45 08       	mov    eax,DWORD PTR [ebp+0x8]
    4316:	67 66 89 44 24 04    	mov    DWORD PTR [esp+0x4],eax
    431c:	67 66 c7 04 24 00 92 	mov    DWORD PTR [esp],0x9200
    4323:	00 00 
    4325:	66 e8 ed 03 00 00    	call   4718 <_enqueue>
D:\OneDrive\Study\Operating Systems\实验\project6\codes/./lib/utilsC.c:577
	///////////////////////////
	if(processTable[processID].status == ready)
    432b:	67 66 8b 55 08       	mov    edx,DWORD PTR [ebp+0x8]
    4330:	66 89 d0             	mov    eax,edx
    4333:	66 01 c0             	add    eax,eax
    4336:	66 01 d0             	add    eax,edx
    4339:	66 c1 e0 02          	shl    eax,0x2
    433d:	66 01 d0             	add    eax,edx
    4340:	66 c1 e0 03          	shl    eax,0x3
    4344:	66 05 44 93 00 00    	add    eax,0x9344
    434a:	67 66 8b 00          	mov    eax,DWORD PTR [eax]
    434e:	66 83 f8 01          	cmp    eax,0x1
    4352:	75 6e                	jne    43c2 <_Tosuspend+0x28d>
D:\OneDrive\Study\Operating Systems\实验\project6\codes/./lib/utilsC.c:580
	////////////////////////////
	{
		quesize = size(&ReadyQue);
    4354:	67 66 c7 04 24 40 a7 	mov    DWORD PTR [esp],0xa740
    435b:	00 00 
    435d:	66 e8 6f 03 00 00    	call   46d2 <_size>
    4363:	66 a3 20 a8          	mov    ds:0xa820,eax
D:\OneDrive\Study\Operating Systems\实验\project6\codes/./lib/utilsC.c:581
		for (int i = 0; i < quesize; ++i)
    4367:	67 66 c7 45 f0 00 00 	mov    DWORD PTR [ebp-0x10],0x0
    436e:	00 00 
    4370:	eb 42                	jmp    43b4 <_Tosuspend+0x27f>
D:\OneDrive\Study\Operating Systems\实验\project6\codes/./lib/utilsC.c:583
		{
			dequeue(&ReadyQue, &tmp);
    4372:	67 66 c7 44 24 04 24 	mov    DWORD PTR [esp+0x4],0xa824
    4379:	a8 00 00 
    437c:	67 66 c7 04 24 40 a7 	mov    DWORD PTR [esp],0xa740
    4383:	00 00 
    4385:	66 e8 fa 03 00 00    	call   4785 <_dequeue>
D:\OneDrive\Study\Operating Systems\实验\project6\codes/./lib/utilsC.c:584
			if(tmp != processID)
    438b:	66 a1 24 a8          	mov    eax,ds:0xa824
    438f:	67 66 3b 45 08       	cmp    eax,DWORD PTR [ebp+0x8]
    4394:	74 19                	je     43af <_Tosuspend+0x27a>
D:\OneDrive\Study\Operating Systems\实验\project6\codes/./lib/utilsC.c:586
			{
				enqueue(&ReadyQue, tmp);
    4396:	66 a1 24 a8          	mov    eax,ds:0xa824
    439a:	67 66 89 44 24 04    	mov    DWORD PTR [esp+0x4],eax
    43a0:	67 66 c7 04 24 40 a7 	mov    DWORD PTR [esp],0xa740
    43a7:	00 00 
    43a9:	66 e8 69 03 00 00    	call   4718 <_enqueue>
D:\OneDrive\Study\Operating Systems\实验\project6\codes/./lib/utilsC.c:581
		for (int i = 0; i < quesize; ++i)
    43af:	67 66 ff 45 f0       	inc    DWORD PTR [ebp-0x10]
    43b4:	66 a1 20 a8          	mov    eax,ds:0xa820
    43b8:	67 66 39 45 f0       	cmp    DWORD PTR [ebp-0x10],eax
    43bd:	7c b3                	jl     4372 <_Tosuspend+0x23d>
    43bf:	e9 94 00             	jmp    4456 <_Tosuspend+0x321>
D:\OneDrive\Study\Operating Systems\实验\project6\codes/./lib/utilsC.c:591
			}
		}	
	}
	///////////////////////////
	else if(processTable[processID].status == blocked)
    43c2:	67 66 8b 55 08       	mov    edx,DWORD PTR [ebp+0x8]
    43c7:	66 89 d0             	mov    eax,edx
    43ca:	66 01 c0             	add    eax,eax
    43cd:	66 01 d0             	add    eax,edx
    43d0:	66 c1 e0 02          	shl    eax,0x2
    43d4:	66 01 d0             	add    eax,edx
    43d7:	66 c1 e0 03          	shl    eax,0x3
    43db:	66 05 44 93 00 00    	add    eax,0x9344
    43e1:	67 66 8b 00          	mov    eax,DWORD PTR [eax]
    43e5:	66 83 f8 03          	cmp    eax,0x3
    43e9:	75 6b                	jne    4456 <_Tosuspend+0x321>
D:\OneDrive\Study\Operating Systems\实验\project6\codes/./lib/utilsC.c:594
	////////////////////////////
	{
		quesize = size(&BlockedQue);
    43eb:	67 66 c7 04 24 a0 86 	mov    DWORD PTR [esp],0x86a0
    43f2:	00 00 
    43f4:	66 e8 d8 02 00 00    	call   46d2 <_size>
    43fa:	66 a3 20 a8          	mov    ds:0xa820,eax
D:\OneDrive\Study\Operating Systems\实验\project6\codes/./lib/utilsC.c:595
		for (int i = 0; i < quesize; ++i)
    43fe:	67 66 c7 45 ec 00 00 	mov    DWORD PTR [ebp-0x14],0x0
    4405:	00 00 
    4407:	eb 42                	jmp    444b <_Tosuspend+0x316>
D:\OneDrive\Study\Operating Systems\实验\project6\codes/./lib/utilsC.c:597
		{
			dequeue(&BlockedQue, &tmp);
    4409:	67 66 c7 44 24 04 24 	mov    DWORD PTR [esp+0x4],0xa824
    4410:	a8 00 00 
    4413:	67 66 c7 04 24 a0 86 	mov    DWORD PTR [esp],0x86a0
    441a:	00 00 
    441c:	66 e8 63 03 00 00    	call   4785 <_dequeue>
D:\OneDrive\Study\Operating Systems\实验\project6\codes/./lib/utilsC.c:598
			if(tmp != processID)
    4422:	66 a1 24 a8          	mov    eax,ds:0xa824
    4426:	67 66 3b 45 08       	cmp    eax,DWORD PTR [ebp+0x8]
    442b:	74 19                	je     4446 <_Tosuspend+0x311>
D:\OneDrive\Study\Operating Systems\实验\project6\codes/./lib/utilsC.c:600
			{
				enqueue(&BlockedQue, tmp);
    442d:	66 a1 24 a8          	mov    eax,ds:0xa824
    4431:	67 66 89 44 24 04    	mov    DWORD PTR [esp+0x4],eax
    4437:	67 66 c7 04 24 a0 86 	mov    DWORD PTR [esp],0x86a0
    443e:	00 00 
    4440:	66 e8 d2 02 00 00    	call   4718 <_enqueue>
D:\OneDrive\Study\Operating Systems\实验\project6\codes/./lib/utilsC.c:595
		for (int i = 0; i < quesize; ++i)
    4446:	67 66 ff 45 ec       	inc    DWORD PTR [ebp-0x14]
    444b:	66 a1 20 a8          	mov    eax,ds:0xa820
    444f:	67 66 39 45 ec       	cmp    DWORD PTR [ebp-0x14],eax
    4454:	7c b3                	jl     4409 <_Tosuspend+0x2d4>
D:\OneDrive\Study\Operating Systems\实验\project6\codes/./lib/utilsC.c:604
			}
		}	
	}
	processTable[processID].status = suspend;
    4456:	67 66 8b 55 08       	mov    edx,DWORD PTR [ebp+0x8]
    445b:	66 89 d0             	mov    eax,edx
    445e:	66 01 c0             	add    eax,eax
    4461:	66 01 d0             	add    eax,edx
    4464:	66 c1 e0 02          	shl    eax,0x2
    4468:	66 01 d0             	add    eax,edx
    446b:	66 c1 e0 03          	shl    eax,0x3
    446f:	66 05 44 93 00 00    	add    eax,0x9344
    4475:	67 66 c7 00 04 00 00 	mov    DWORD PTR [eax],0x4
    447c:	00 
D:\OneDrive\Study\Operating Systems\实验\project6\codes/./lib/utilsC.c:605
	release(memoryTable[processTable[processID].blockNum].beginAddr, memoryTable[processTable[processID].blockNum].endAddr);
    447d:	67 66 8b 55 08       	mov    edx,DWORD PTR [ebp+0x8]
    4482:	66 89 d0             	mov    eax,edx
    4485:	66 01 c0             	add    eax,eax
    4488:	66 01 d0             	add    eax,edx
    448b:	66 c1 e0 02          	shl    eax,0x2
    448f:	66 01 d0             	add    eax,edx
    4492:	66 c1 e0 03          	shl    eax,0x3
    4496:	66 05 08 93 00 00    	add    eax,0x9308
    449c:	67 66 8b 10          	mov    edx,DWORD PTR [eax]
    44a0:	66 89 d0             	mov    eax,edx
    44a3:	66 01 c0             	add    eax,eax
    44a6:	66 01 d0             	add    eax,edx
    44a9:	66 c1 e0 03          	shl    eax,0x3
    44ad:	66 05 e4 81 00 00    	add    eax,0x81e4
    44b3:	67 66 8b 08          	mov    ecx,DWORD PTR [eax]
    44b7:	67 66 8b 55 08       	mov    edx,DWORD PTR [ebp+0x8]
    44bc:	66 89 d0             	mov    eax,edx
    44bf:	66 01 c0             	add    eax,eax
    44c2:	66 01 d0             	add    eax,edx
    44c5:	66 c1 e0 02          	shl    eax,0x2
    44c9:	66 01 d0             	add    eax,edx
    44cc:	66 c1 e0 03          	shl    eax,0x3
    44d0:	66 05 08 93 00 00    	add    eax,0x9308
    44d6:	67 66 8b 10          	mov    edx,DWORD PTR [eax]
    44da:	66 89 d0             	mov    eax,edx
    44dd:	66 01 c0             	add    eax,eax
    44e0:	66 01 d0             	add    eax,edx
    44e3:	66 c1 e0 03          	shl    eax,0x3
    44e7:	66 05 e0 81 00 00    	add    eax,0x81e0
    44ed:	67 66 8b 00          	mov    eax,DWORD PTR [eax]
    44f1:	67 66 89 4c 24 04    	mov    DWORD PTR [esp+0x4],ecx
    44f7:	67 66 89 04 24       	mov    DWORD PTR [esp],eax
    44fc:	66 e8 6e 11 00 00    	call   5670 <_release>
D:\OneDrive\Study\Operating Systems\实验\project6\codes/./lib/utilsC.c:606
}
    4502:	90                   	nop
    4503:	66 c9                	leave  
    4505:	66 c3                	ret    

00004507 <_activate>:
activate():
D:\OneDrive\Study\Operating Systems\实验\project6\codes/./lib/utilsC.c:608
void activate(int processID)
{
    4507:	66 55                	push   ebp
    4509:	66 89 e5             	mov    ebp,esp
    450c:	66 56                	push   esi
    450e:	66 53                	push   ebx
    4510:	66 83 ec 14          	sub    esp,0x14
D:\OneDrive\Study\Operating Systems\实验\project6\codes/./lib/utilsC.c:609
	loadReal(processTable[processID].lmaddress, processTable[processID].size, (memoryTable[processTable[processID].blockNum].beginAddr&0x0000ffff), (memoryTable[processTable[processID].blockNum].beginAddr&0xf0000)>>4);
    4514:	67 66 8b 55 08       	mov    edx,DWORD PTR [ebp+0x8]
    4519:	66 89 d0             	mov    eax,edx
    451c:	66 01 c0             	add    eax,eax
    451f:	66 01 d0             	add    eax,edx
    4522:	66 c1 e0 02          	shl    eax,0x2
    4526:	66 01 d0             	add    eax,edx
    4529:	66 c1 e0 03          	shl    eax,0x3
    452d:	66 05 08 93 00 00    	add    eax,0x9308
    4533:	67 66 8b 10          	mov    edx,DWORD PTR [eax]
    4537:	66 89 d0             	mov    eax,edx
    453a:	66 01 c0             	add    eax,eax
    453d:	66 01 d0             	add    eax,edx
    4540:	66 c1 e0 03          	shl    eax,0x3
    4544:	66 05 e0 81 00 00    	add    eax,0x81e0
    454a:	67 66 8b 00          	mov    eax,DWORD PTR [eax]
    454e:	66 c1 f8 04          	sar    eax,0x4
    4552:	66 25 00 f0 00 00    	and    eax,0xf000
    4558:	66 89 c6             	mov    esi,eax
    455b:	67 66 8b 55 08       	mov    edx,DWORD PTR [ebp+0x8]
    4560:	66 89 d0             	mov    eax,edx
    4563:	66 01 c0             	add    eax,eax
    4566:	66 01 d0             	add    eax,edx
    4569:	66 c1 e0 02          	shl    eax,0x2
    456d:	66 01 d0             	add    eax,edx
    4570:	66 c1 e0 03          	shl    eax,0x3
    4574:	66 05 08 93 00 00    	add    eax,0x9308
    457a:	67 66 8b 10          	mov    edx,DWORD PTR [eax]
    457e:	66 89 d0             	mov    eax,edx
    4581:	66 01 c0             	add    eax,eax
    4584:	66 01 d0             	add    eax,edx
    4587:	66 c1 e0 03          	shl    eax,0x3
    458b:	66 05 e0 81 00 00    	add    eax,0x81e0
    4591:	67 66 8b 00          	mov    eax,DWORD PTR [eax]
    4595:	66 0f b7 d8          	movzx  ebx,ax
    4599:	67 66 8b 55 08       	mov    edx,DWORD PTR [ebp+0x8]
    459e:	66 89 d0             	mov    eax,edx
    45a1:	66 01 c0             	add    eax,eax
    45a4:	66 01 d0             	add    eax,edx
    45a7:	66 c1 e0 02          	shl    eax,0x2
    45ab:	66 01 d0             	add    eax,edx
    45ae:	66 c1 e0 03          	shl    eax,0x3
    45b2:	66 05 10 93 00 00    	add    eax,0x9310
    45b8:	67 66 8b 08          	mov    ecx,DWORD PTR [eax]
    45bc:	67 66 8b 55 08       	mov    edx,DWORD PTR [ebp+0x8]
    45c1:	66 89 d0             	mov    eax,edx
    45c4:	66 01 c0             	add    eax,eax
    45c7:	66 01 d0             	add    eax,edx
    45ca:	66 c1 e0 02          	shl    eax,0x2
    45ce:	66 01 d0             	add    eax,edx
    45d1:	66 c1 e0 03          	shl    eax,0x3
    45d5:	66 05 0c 93 00 00    	add    eax,0x930c
    45db:	67 66 8b 00          	mov    eax,DWORD PTR [eax]
    45df:	67 66 89 74 24 0c    	mov    DWORD PTR [esp+0xc],esi
    45e5:	67 66 89 5c 24 08    	mov    DWORD PTR [esp+0x8],ebx
    45eb:	67 66 89 4c 24 04    	mov    DWORD PTR [esp+0x4],ecx
    45f1:	67 66 89 04 24       	mov    DWORD PTR [esp],eax
    45f6:	66 e8 b1 ce ff ff    	call   14ad <_loadReal>
D:\OneDrive\Study\Operating Systems\实验\project6\codes/./lib/utilsC.c:610
	quesize = size(&SuspendQue);
    45fc:	67 66 c7 04 24 00 92 	mov    DWORD PTR [esp],0x9200
    4603:	00 00 
    4605:	66 e8 c7 00 00 00    	call   46d2 <_size>
    460b:	66 a3 20 a8          	mov    ds:0xa820,eax
D:\OneDrive\Study\Operating Systems\实验\project6\codes/./lib/utilsC.c:611
	for (int i = 0; i < quesize; ++i)
    460f:	67 66 c7 45 f4 00 00 	mov    DWORD PTR [ebp-0xc],0x0
    4616:	00 00 
    4618:	eb 42                	jmp    465c <_activate+0x155>
D:\OneDrive\Study\Operating Systems\实验\project6\codes/./lib/utilsC.c:613
	{
		dequeue(&SuspendQue, &tmp);
    461a:	67 66 c7 44 24 04 24 	mov    DWORD PTR [esp+0x4],0xa824
    4621:	a8 00 00 
    4624:	67 66 c7 04 24 00 92 	mov    DWORD PTR [esp],0x9200
    462b:	00 00 
    462d:	66 e8 52 01 00 00    	call   4785 <_dequeue>
D:\OneDrive\Study\Operating Systems\实验\project6\codes/./lib/utilsC.c:614
		if(tmp != processID)
    4633:	66 a1 24 a8          	mov    eax,ds:0xa824
    4637:	67 66 3b 45 08       	cmp    eax,DWORD PTR [ebp+0x8]
    463c:	74 19                	je     4657 <_activate+0x150>
D:\OneDrive\Study\Operating Systems\实验\project6\codes/./lib/utilsC.c:616
		{
			enqueue(&SuspendQue, tmp);
    463e:	66 a1 24 a8          	mov    eax,ds:0xa824
    4642:	67 66 89 44 24 04    	mov    DWORD PTR [esp+0x4],eax
    4648:	67 66 c7 04 24 00 92 	mov    DWORD PTR [esp],0x9200
    464f:	00 00 
    4651:	66 e8 c1 00 00 00    	call   4718 <_enqueue>
D:\OneDrive\Study\Operating Systems\实验\project6\codes/./lib/utilsC.c:611
	for (int i = 0; i < quesize; ++i)
    4657:	67 66 ff 45 f4       	inc    DWORD PTR [ebp-0xc]
    465c:	66 a1 20 a8          	mov    eax,ds:0xa820
    4660:	67 66 39 45 f4       	cmp    DWORD PTR [ebp-0xc],eax
    4665:	7c b3                	jl     461a <_activate+0x113>
D:\OneDrive\Study\Operating Systems\实验\project6\codes/./lib/utilsC.c:619
		}
	}
	processTable[processID].status = ready;
    4667:	67 66 8b 55 08       	mov    edx,DWORD PTR [ebp+0x8]
    466c:	66 89 d0             	mov    eax,edx
    466f:	66 01 c0             	add    eax,eax
    4672:	66 01 d0             	add    eax,edx
    4675:	66 c1 e0 02          	shl    eax,0x2
    4679:	66 01 d0             	add    eax,edx
    467c:	66 c1 e0 03          	shl    eax,0x3
    4680:	66 05 44 93 00 00    	add    eax,0x9344
    4686:	67 66 c7 00 01 00 00 	mov    DWORD PTR [eax],0x1
    468d:	00 
D:\OneDrive\Study\Operating Systems\实验\project6\codes/./lib/utilsC.c:620
	enqueue(&ReadyQue, processID);
    468e:	67 66 8b 45 08       	mov    eax,DWORD PTR [ebp+0x8]
    4693:	67 66 89 44 24 04    	mov    DWORD PTR [esp+0x4],eax
    4699:	67 66 c7 04 24 40 a7 	mov    DWORD PTR [esp],0xa740
    46a0:	00 00 
    46a2:	66 e8 70 00 00 00    	call   4718 <_enqueue>
D:\OneDrive\Study\Operating Systems\实验\project6\codes/./lib/utilsC.c:621
}
    46a8:	90                   	nop
    46a9:	66 83 c4 14          	add    esp,0x14
    46ad:	66 5b                	pop    ebx
    46af:	66 5e                	pop    esi
    46b1:	66 5d                	pop    ebp
    46b3:	66 c3                	ret    

000046b5 <_empty>:
empty():
D:\OneDrive\Study\Operating Systems\实验\project6\codes/./lib/utilsC.c:624

int empty(struct Queue * que)
{
    46b5:	66 55                	push   ebp
    46b7:	66 89 e5             	mov    ebp,esp
D:\OneDrive\Study\Operating Systems\实验\project6\codes/./lib/utilsC.c:625
	return que->size == 0;
    46ba:	67 66 8b 45 08       	mov    eax,DWORD PTR [ebp+0x8]
    46bf:	67 66 8b 40 08       	mov    eax,DWORD PTR [eax+0x8]
    46c4:	66 85 c0             	test   eax,eax
    46c7:	0f 94 c0             	sete   al
    46ca:	66 0f b6 c0          	movzx  eax,al
D:\OneDrive\Study\Operating Systems\实验\project6\codes/./lib/utilsC.c:626
}
    46ce:	66 5d                	pop    ebp
    46d0:	66 c3                	ret    

000046d2 <_size>:
size():
D:\OneDrive\Study\Operating Systems\实验\project6\codes/./lib/utilsC.c:629

int size(struct Queue * que)
{
    46d2:	66 55                	push   ebp
    46d4:	66 89 e5             	mov    ebp,esp
D:\OneDrive\Study\Operating Systems\实验\project6\codes/./lib/utilsC.c:630
	return que->size;
    46d7:	67 66 8b 45 08       	mov    eax,DWORD PTR [ebp+0x8]
    46dc:	67 66 8b 40 08       	mov    eax,DWORD PTR [eax+0x8]
D:\OneDrive\Study\Operating Systems\实验\project6\codes/./lib/utilsC.c:631
}
    46e1:	66 5d                	pop    ebp
    46e3:	66 c3                	ret    

000046e5 <_init>:
init():
D:\OneDrive\Study\Operating Systems\实验\project6\codes/./lib/utilsC.c:634

void init(struct Queue * que)
{
    46e5:	66 55                	push   ebp
    46e7:	66 89 e5             	mov    ebp,esp
D:\OneDrive\Study\Operating Systems\实验\project6\codes/./lib/utilsC.c:635
	que->tail = Len - 1;
    46ea:	67 66 8b 45 08       	mov    eax,DWORD PTR [ebp+0x8]
    46ef:	67 66 c7 00 31 00 00 	mov    DWORD PTR [eax],0x31
    46f6:	00 
D:\OneDrive\Study\Operating Systems\实验\project6\codes/./lib/utilsC.c:636
	que->head = 0;
    46f7:	67 66 8b 45 08       	mov    eax,DWORD PTR [ebp+0x8]
    46fc:	67 66 c7 40 04 00 00 	mov    DWORD PTR [eax+0x4],0x0
    4703:	00 00 
D:\OneDrive\Study\Operating Systems\实验\project6\codes/./lib/utilsC.c:637
	que->size = 0;
    4705:	67 66 8b 45 08       	mov    eax,DWORD PTR [ebp+0x8]
    470a:	67 66 c7 40 08 00 00 	mov    DWORD PTR [eax+0x8],0x0
    4711:	00 00 
D:\OneDrive\Study\Operating Systems\实验\project6\codes/./lib/utilsC.c:638
}
    4713:	90                   	nop
    4714:	66 5d                	pop    ebp
    4716:	66 c3                	ret    

00004718 <_enqueue>:
enqueue():
D:\OneDrive\Study\Operating Systems\实验\project6\codes/./lib/utilsC.c:641

void enqueue(struct Queue * que, int ele)
{
    4718:	66 55                	push   ebp
    471a:	66 89 e5             	mov    ebp,esp
D:\OneDrive\Study\Operating Systems\实验\project6\codes/./lib/utilsC.c:642
	if(que->size >= Len)
    471d:	67 66 8b 45 08       	mov    eax,DWORD PTR [ebp+0x8]
    4722:	67 66 8b 40 08       	mov    eax,DWORD PTR [eax+0x8]
    4727:	66 83 f8 31          	cmp    eax,0x31
    472b:	7f 53                	jg     4780 <_enqueue+0x68>
D:\OneDrive\Study\Operating Systems\实验\project6\codes/./lib/utilsC.c:644
		return ;
	que->size++;
    472d:	67 66 8b 45 08       	mov    eax,DWORD PTR [ebp+0x8]
    4732:	67 66 8b 40 08       	mov    eax,DWORD PTR [eax+0x8]
    4737:	67 66 8d 50 01       	lea    edx,[eax+0x1]
    473c:	67 66 8b 45 08       	mov    eax,DWORD PTR [ebp+0x8]
    4741:	67 66 89 50 08       	mov    DWORD PTR [eax+0x8],edx
D:\OneDrive\Study\Operating Systems\实验\project6\codes/./lib/utilsC.c:645
	que->tail = (que->tail+1)%Len;
    4746:	67 66 8b 45 08       	mov    eax,DWORD PTR [ebp+0x8]
    474b:	67 66 8b 00          	mov    eax,DWORD PTR [eax]
    474f:	66 40                	inc    eax
    4751:	66 b9 32 00 00 00    	mov    ecx,0x32
    4757:	66 99                	cdq    
    4759:	66 f7 f9             	idiv   ecx
    475c:	67 66 8b 45 08       	mov    eax,DWORD PTR [ebp+0x8]
    4761:	67 66 89 10          	mov    DWORD PTR [eax],edx
D:\OneDrive\Study\Operating Systems\实验\project6\codes/./lib/utilsC.c:646
	que->array[que->tail] = ele;
    4765:	67 66 8b 45 08       	mov    eax,DWORD PTR [ebp+0x8]
    476a:	67 66 8b 10          	mov    edx,DWORD PTR [eax]
    476e:	67 66 8b 45 08       	mov    eax,DWORD PTR [ebp+0x8]
    4773:	67 66 8b 4d 0c       	mov    ecx,DWORD PTR [ebp+0xc]
    4778:	67 66 89 4c 90 0c    	mov    DWORD PTR [eax+edx*4+0xc],ecx
    477e:	eb 01                	jmp    4781 <_enqueue+0x69>
D:\OneDrive\Study\Operating Systems\实验\project6\codes/./lib/utilsC.c:643
		return ;
    4780:	90                   	nop
D:\OneDrive\Study\Operating Systems\实验\project6\codes/./lib/utilsC.c:647
}
    4781:	66 5d                	pop    ebp
    4783:	66 c3                	ret    

00004785 <_dequeue>:
dequeue():
D:\OneDrive\Study\Operating Systems\实验\project6\codes/./lib/utilsC.c:650

void dequeue(struct Queue * que, int * ele)
{
    4785:	66 55                	push   ebp
    4787:	66 89 e5             	mov    ebp,esp
D:\OneDrive\Study\Operating Systems\实验\project6\codes/./lib/utilsC.c:651
	if(que->size <= 0)
    478a:	67 66 8b 45 08       	mov    eax,DWORD PTR [ebp+0x8]
    478f:	67 66 8b 40 08       	mov    eax,DWORD PTR [eax+0x8]
    4794:	66 85 c0             	test   eax,eax
    4797:	7e 5a                	jle    47f3 <_dequeue+0x6e>
D:\OneDrive\Study\Operating Systems\实验\project6\codes/./lib/utilsC.c:653
		return ;
	que->size--;
    4799:	67 66 8b 45 08       	mov    eax,DWORD PTR [ebp+0x8]
    479e:	67 66 8b 40 08       	mov    eax,DWORD PTR [eax+0x8]
    47a3:	67 66 8d 50 ff       	lea    edx,[eax-0x1]
    47a8:	67 66 8b 45 08       	mov    eax,DWORD PTR [ebp+0x8]
    47ad:	67 66 89 50 08       	mov    DWORD PTR [eax+0x8],edx
D:\OneDrive\Study\Operating Systems\实验\project6\codes/./lib/utilsC.c:654
	*ele = que->array[que->head];
    47b2:	67 66 8b 45 08       	mov    eax,DWORD PTR [ebp+0x8]
    47b7:	67 66 8b 50 04       	mov    edx,DWORD PTR [eax+0x4]
    47bc:	67 66 8b 45 08       	mov    eax,DWORD PTR [ebp+0x8]
    47c1:	67 66 8b 54 90 0c    	mov    edx,DWORD PTR [eax+edx*4+0xc]
    47c7:	67 66 8b 45 0c       	mov    eax,DWORD PTR [ebp+0xc]
    47cc:	67 66 89 10          	mov    DWORD PTR [eax],edx
D:\OneDrive\Study\Operating Systems\实验\project6\codes/./lib/utilsC.c:655
	que->head = (que->head+1)%Len;
    47d0:	67 66 8b 45 08       	mov    eax,DWORD PTR [ebp+0x8]
    47d5:	67 66 8b 40 04       	mov    eax,DWORD PTR [eax+0x4]
    47da:	66 40                	inc    eax
    47dc:	66 b9 32 00 00 00    	mov    ecx,0x32
    47e2:	66 99                	cdq    
    47e4:	66 f7 f9             	idiv   ecx
    47e7:	67 66 8b 45 08       	mov    eax,DWORD PTR [ebp+0x8]
    47ec:	67 66 89 50 04       	mov    DWORD PTR [eax+0x4],edx
    47f1:	eb 01                	jmp    47f4 <_dequeue+0x6f>
D:\OneDrive\Study\Operating Systems\实验\project6\codes/./lib/utilsC.c:652
		return ;
    47f3:	90                   	nop
D:\OneDrive\Study\Operating Systems\实验\project6\codes/./lib/utilsC.c:656
}
    47f4:	66 5d                	pop    ebp
    47f6:	66 c3                	ret    

000047f8 <_malloc>:
malloc():
D:\OneDrive\Study\Operating Systems\实验\project6\codes/./lib/utilsC.c:662
///////////// process ends //////////


//////////// memory /////////////
void * malloc(int size)
{
    47f8:	66 55                	push   ebp
    47fa:	66 89 e5             	mov    ebp,esp
    47fd:	66 83 ec 20          	sub    esp,0x20
D:\OneDrive\Study\Operating Systems\实验\project6\codes/./lib/utilsC.c:664
	int ds;
	__asm__("mov %gs, %eax\n");
    4801:	66 8c e8             	mov    eax,gs
D:\OneDrive\Study\Operating Systems\实验\project6\codes/./lib/utilsC.c:665
	__asm__("pushl %eax");
    4804:	66 50                	push   eax
D:\OneDrive\Study\Operating Systems\实验\project6\codes/./lib/utilsC.c:666
	__asm__("popl %0":"=m"(ds));
    4806:	67 66 8f 45 f4       	pop    DWORD PTR [ebp-0xc]
D:\OneDrive\Study\Operating Systems\实验\project6\codes/./lib/utilsC.c:671
	//ds板ㄦgs(ds)瀵瀛ㄧ笺
	char tmpstr[10];
	// int2str(ds, tmpstr);
	// printSentence(tmpstr, 12, 0, 5, white);
	size = size + (16 - size % 16);
    480b:	67 66 8b 45 08       	mov    eax,DWORD PTR [ebp+0x8]
    4810:	66 25 0f 00 00 80    	and    eax,0x8000000f
    4816:	66 85 c0             	test   eax,eax
    4819:	79 08                	jns    4823 <_malloc+0x2b>
    481b:	66 48                	dec    eax
    481d:	66 83 c8 f0          	or     eax,0xfffffff0
    4821:	66 40                	inc    eax
    4823:	66 ba 10 00 00 00    	mov    edx,0x10
    4829:	66 29 c2             	sub    edx,eax
    482c:	66 89 d0             	mov    eax,edx
    482f:	67 66 01 45 08       	add    DWORD PTR [ebp+0x8],eax
D:\OneDrive\Study\Operating Systems\实验\project6\codes/./lib/utilsC.c:672
	int blockNum = findLaterBlock(ds<<4, size);
    4834:	67 66 8b 45 f4       	mov    eax,DWORD PTR [ebp-0xc]
    4839:	66 c1 e0 04          	shl    eax,0x4
    483d:	66 89 c2             	mov    edx,eax
    4840:	67 66 8b 45 08       	mov    eax,DWORD PTR [ebp+0x8]
    4845:	67 66 89 44 24 04    	mov    DWORD PTR [esp+0x4],eax
    484b:	67 66 89 14 24       	mov    DWORD PTR [esp],edx
    4850:	66 e8 76 0b 00 00    	call   53cc <_findLaterBlock>
    4856:	67 66 89 45 fc       	mov    DWORD PTR [ebp-0x4],eax
D:\OneDrive\Study\Operating Systems\实验\project6\codes/./lib/utilsC.c:673
	int endDs = ((memoryTable[blockNum].beginAddr + size)&0xf0000) >> 4;
    485b:	67 66 8b 55 fc       	mov    edx,DWORD PTR [ebp-0x4]
    4860:	66 89 d0             	mov    eax,edx
    4863:	66 01 c0             	add    eax,eax
    4866:	66 01 d0             	add    eax,edx
    4869:	66 c1 e0 03          	shl    eax,0x3
    486d:	66 05 e0 81 00 00    	add    eax,0x81e0
    4873:	67 66 8b 10          	mov    edx,DWORD PTR [eax]
    4877:	67 66 8b 45 08       	mov    eax,DWORD PTR [ebp+0x8]
    487c:	66 01 d0             	add    eax,edx
    487f:	66 c1 f8 04          	sar    eax,0x4
    4883:	66 25 00 f0 00 00    	and    eax,0xf000
    4889:	67 66 89 45 f8       	mov    DWORD PTR [ebp-0x8],eax
D:\OneDrive\Study\Operating Systems\实验\project6\codes/./lib/utilsC.c:674
	if(endDs > ds){
    488e:	67 66 8b 45 f4       	mov    eax,DWORD PTR [ebp-0xc]
    4893:	67 66 39 45 f8       	cmp    DWORD PTR [ebp-0x8],eax
    4898:	7e 08                	jle    48a2 <_malloc+0xaa>
D:\OneDrive\Study\Operating Systems\实验\project6\codes/./lib/utilsC.c:675
		return 0;
    489a:	66 b8 00 00 00 00    	mov    eax,0x0
    48a0:	eb 48                	jmp    48ea <_malloc+0xf2>
D:\OneDrive\Study\Operating Systems\实验\project6\codes/./lib/utilsC.c:677
	} else {
		blockNum = require(size, blockNum);
    48a2:	67 66 8b 45 fc       	mov    eax,DWORD PTR [ebp-0x4]
    48a7:	67 66 89 44 24 04    	mov    DWORD PTR [esp+0x4],eax
    48ad:	67 66 8b 45 08       	mov    eax,DWORD PTR [ebp+0x8]
    48b2:	67 66 89 04 24       	mov    DWORD PTR [esp],eax
    48b7:	66 e8 af 0e 00 00    	call   576c <_require>
    48bd:	67 66 89 45 fc       	mov    DWORD PTR [ebp-0x4],eax
D:\OneDrive\Study\Operating Systems\实验\project6\codes/./lib/utilsC.c:678
		return (void*)((memoryTable[blockNum].beginAddr) - (ds << 4));
    48c2:	67 66 8b 55 fc       	mov    edx,DWORD PTR [ebp-0x4]
    48c7:	66 89 d0             	mov    eax,edx
    48ca:	66 01 c0             	add    eax,eax
    48cd:	66 01 d0             	add    eax,edx
    48d0:	66 c1 e0 03          	shl    eax,0x3
    48d4:	66 05 e0 81 00 00    	add    eax,0x81e0
    48da:	67 66 8b 00          	mov    eax,DWORD PTR [eax]
    48de:	67 66 8b 55 f4       	mov    edx,DWORD PTR [ebp-0xc]
    48e3:	66 c1 e2 04          	shl    edx,0x4
    48e7:	66 29 d0             	sub    eax,edx
D:\OneDrive\Study\Operating Systems\实验\project6\codes/./lib/utilsC.c:680
	}
}
    48ea:	66 c9                	leave  
    48ec:	66 c3                	ret    

000048ee <_nextUnusedItem>:
nextUnusedItem():
D:\OneDrive\Study\Operating Systems\实验\project6\codes/./lib/utilsC.c:685



int nextUnusedItem()
{
    48ee:	66 55                	push   ebp
    48f0:	66 89 e5             	mov    ebp,esp
    48f3:	66 83 ec 04          	sub    esp,0x4
D:\OneDrive\Study\Operating Systems\实验\project6\codes/./lib/utilsC.c:686
	for (int i = 0; i < MemLen; ++i)
    48f7:	67 66 c7 45 fc 00 00 	mov    DWORD PTR [ebp-0x4],0x0
    48fe:	00 00 
    4900:	eb 2d                	jmp    492f <_nextUnusedItem+0x41>
D:\OneDrive\Study\Operating Systems\实验\project6\codes/./lib/utilsC.c:688
	{
		if(memoryTable[i].used == 0)
    4902:	67 66 8b 55 fc       	mov    edx,DWORD PTR [ebp-0x4]
    4907:	66 89 d0             	mov    eax,edx
    490a:	66 01 c0             	add    eax,eax
    490d:	66 01 d0             	add    eax,edx
    4910:	66 c1 e0 03          	shl    eax,0x3
    4914:	66 05 f0 81 00 00    	add    eax,0x81f0
    491a:	67 66 8b 00          	mov    eax,DWORD PTR [eax]
    491e:	66 85 c0             	test   eax,eax
    4921:	75 07                	jne    492a <_nextUnusedItem+0x3c>
D:\OneDrive\Study\Operating Systems\实验\project6\codes/./lib/utilsC.c:689
			return i;
    4923:	67 66 8b 45 fc       	mov    eax,DWORD PTR [ebp-0x4]
    4928:	eb 13                	jmp    493d <_nextUnusedItem+0x4f>
D:\OneDrive\Study\Operating Systems\实验\project6\codes/./lib/utilsC.c:686
	for (int i = 0; i < MemLen; ++i)
    492a:	67 66 ff 45 fc       	inc    DWORD PTR [ebp-0x4]
    492f:	67 66 83 7d fc 31    	cmp    DWORD PTR [ebp-0x4],0x31
    4935:	7e cb                	jle    4902 <_nextUnusedItem+0x14>
D:\OneDrive\Study\Operating Systems\实验\project6\codes/./lib/utilsC.c:691
	}
	return -1;
    4937:	66 b8 ff ff ff ff    	mov    eax,0xffffffff
D:\OneDrive\Study\Operating Systems\实验\project6\codes/./lib/utilsC.c:692
}
    493d:	66 c9                	leave  
    493f:	66 c3                	ret    

00004941 <_initialMemoryTable>:
initialMemoryTable():
D:\OneDrive\Study\Operating Systems\实验\project6\codes/./lib/utilsC.c:695

void initialMemoryTable()
{
    4941:	66 55                	push   ebp
    4943:	66 89 e5             	mov    ebp,esp
    4946:	66 83 ec 08          	sub    esp,0x8
D:\OneDrive\Study\Operating Systems\实验\project6\codes/./lib/utilsC.c:697
	int next;
	for (int i = 0; i < MemLen; ++i)
    494a:	67 66 c7 45 fc 00 00 	mov    DWORD PTR [ebp-0x4],0x0
    4951:	00 00 
    4953:	e9 85 00             	jmp    49db <_initialMemoryTable+0x9a>
D:\OneDrive\Study\Operating Systems\实验\project6\codes/./lib/utilsC.c:699
	{
		memoryTable[i].used = 0;
    4956:	67 66 8b 55 fc       	mov    edx,DWORD PTR [ebp-0x4]
    495b:	66 89 d0             	mov    eax,edx
    495e:	66 01 c0             	add    eax,eax
    4961:	66 01 d0             	add    eax,edx
    4964:	66 c1 e0 03          	shl    eax,0x3
    4968:	66 05 f0 81 00 00    	add    eax,0x81f0
    496e:	67 66 c7 00 00 00 00 	mov    DWORD PTR [eax],0x0
    4975:	00 
D:\OneDrive\Study\Operating Systems\实验\project6\codes/./lib/utilsC.c:700
		memoryTable[i].next = -1;
    4976:	67 66 8b 55 fc       	mov    edx,DWORD PTR [ebp-0x4]
    497b:	66 89 d0             	mov    eax,edx
    497e:	66 01 c0             	add    eax,eax
    4981:	66 01 d0             	add    eax,edx
    4984:	66 c1 e0 03          	shl    eax,0x3
    4988:	66 05 ec 81 00 00    	add    eax,0x81ec
    498e:	67 66 c7 00 ff ff ff 	mov    DWORD PTR [eax],0xffffffff
    4995:	ff 
D:\OneDrive\Study\Operating Systems\实验\project6\codes/./lib/utilsC.c:701
		memoryTable[i].pre = -1;
    4996:	67 66 8b 55 fc       	mov    edx,DWORD PTR [ebp-0x4]
    499b:	66 89 d0             	mov    eax,edx
    499e:	66 01 c0             	add    eax,eax
    49a1:	66 01 d0             	add    eax,edx
    49a4:	66 c1 e0 03          	shl    eax,0x3
    49a8:	66 05 e8 81 00 00    	add    eax,0x81e8
    49ae:	67 66 c7 00 ff ff ff 	mov    DWORD PTR [eax],0xffffffff
    49b5:	ff 
D:\OneDrive\Study\Operating Systems\实验\project6\codes/./lib/utilsC.c:702
		memoryTable[i].status = unused;
    49b6:	67 66 8b 55 fc       	mov    edx,DWORD PTR [ebp-0x4]
    49bb:	66 89 d0             	mov    eax,edx
    49be:	66 01 c0             	add    eax,eax
    49c1:	66 01 d0             	add    eax,edx
    49c4:	66 c1 e0 03          	shl    eax,0x3
    49c8:	66 05 f4 81 00 00    	add    eax,0x81f4
    49ce:	67 66 c7 00 00 00 00 	mov    DWORD PTR [eax],0x0
    49d5:	00 
D:\OneDrive\Study\Operating Systems\实验\project6\codes/./lib/utilsC.c:697
	for (int i = 0; i < MemLen; ++i)
    49d6:	67 66 ff 45 fc       	inc    DWORD PTR [ebp-0x4]
    49db:	67 66 83 7d fc 31    	cmp    DWORD PTR [ebp-0x4],0x31
    49e1:	0f 8e 71 ff          	jle    4956 <_initialMemoryTable+0x15>
D:\OneDrive\Study\Operating Systems\实验\project6\codes/./lib/utilsC.c:704
	}
	firstUnusedMemoryItem = 0;
    49e5:	66 c7 06 a4 81 00 00 	mov    DWORD PTR ds:0x81a4,0x0
    49ec:	00 00 
D:\OneDrive\Study\Operating Systems\实验\project6\codes/./lib/utilsC.c:705
	memoryTable[firstUnusedMemoryItem].pre = -1;
    49ee:	66 8b 16 a4 81       	mov    edx,DWORD PTR ds:0x81a4
    49f3:	66 89 d0             	mov    eax,edx
    49f6:	66 01 c0             	add    eax,eax
    49f9:	66 01 d0             	add    eax,edx
    49fc:	66 c1 e0 03          	shl    eax,0x3
    4a00:	66 05 e8 81 00 00    	add    eax,0x81e8
    4a06:	67 66 c7 00 ff ff ff 	mov    DWORD PTR [eax],0xffffffff
    4a0d:	ff 
D:\OneDrive\Study\Operating Systems\实验\project6\codes/./lib/utilsC.c:706
	memoryTable[firstUnusedMemoryItem].used = 1;
    4a0e:	66 8b 16 a4 81       	mov    edx,DWORD PTR ds:0x81a4
    4a13:	66 89 d0             	mov    eax,edx
    4a16:	66 01 c0             	add    eax,eax
    4a19:	66 01 d0             	add    eax,edx
    4a1c:	66 c1 e0 03          	shl    eax,0x3
    4a20:	66 05 f0 81 00 00    	add    eax,0x81f0
    4a26:	67 66 c7 00 01 00 00 	mov    DWORD PTR [eax],0x1
    4a2d:	00 
D:\OneDrive\Study\Operating Systems\实验\project6\codes/./lib/utilsC.c:707
	memoryTable[firstUnusedMemoryItem].beginAddr = 0;
    4a2e:	66 8b 16 a4 81       	mov    edx,DWORD PTR ds:0x81a4
    4a33:	66 89 d0             	mov    eax,edx
    4a36:	66 01 c0             	add    eax,eax
    4a39:	66 01 d0             	add    eax,edx
    4a3c:	66 c1 e0 03          	shl    eax,0x3
    4a40:	66 05 e0 81 00 00    	add    eax,0x81e0
    4a46:	67 66 c7 00 00 00 00 	mov    DWORD PTR [eax],0x0
    4a4d:	00 
D:\OneDrive\Study\Operating Systems\实验\project6\codes/./lib/utilsC.c:708
	memoryTable[firstUnusedMemoryItem].endAddr = 0x4ff;
    4a4e:	66 8b 16 a4 81       	mov    edx,DWORD PTR ds:0x81a4
    4a53:	66 89 d0             	mov    eax,edx
    4a56:	66 01 c0             	add    eax,eax
    4a59:	66 01 d0             	add    eax,edx
    4a5c:	66 c1 e0 03          	shl    eax,0x3
    4a60:	66 05 e4 81 00 00    	add    eax,0x81e4
    4a66:	67 66 c7 00 ff 04 00 	mov    DWORD PTR [eax],0x4ff
    4a6d:	00 
D:\OneDrive\Study\Operating Systems\实验\project6\codes/./lib/utilsC.c:709
	memoryTable[firstUnusedMemoryItem].status = used;
    4a6e:	66 8b 16 a4 81       	mov    edx,DWORD PTR ds:0x81a4
    4a73:	66 89 d0             	mov    eax,edx
    4a76:	66 01 c0             	add    eax,eax
    4a79:	66 01 d0             	add    eax,edx
    4a7c:	66 c1 e0 03          	shl    eax,0x3
    4a80:	66 05 f4 81 00 00    	add    eax,0x81f4
    4a86:	67 66 c7 00 01 00 00 	mov    DWORD PTR [eax],0x1
    4a8d:	00 
D:\OneDrive\Study\Operating Systems\实验\project6\codes/./lib/utilsC.c:710
	next = nextUnusedItem();
    4a8e:	66 e8 5a fe ff ff    	call   48ee <_nextUnusedItem>
    4a94:	67 66 89 45 f8       	mov    DWORD PTR [ebp-0x8],eax
D:\OneDrive\Study\Operating Systems\实验\project6\codes/./lib/utilsC.c:711
	memoryTable[next].pre = firstUnusedMemoryItem;
    4a99:	66 8b 16 a4 81       	mov    edx,DWORD PTR ds:0x81a4
    4a9e:	67 66 8b 4d f8       	mov    ecx,DWORD PTR [ebp-0x8]
    4aa3:	66 89 c8             	mov    eax,ecx
    4aa6:	66 01 c0             	add    eax,eax
    4aa9:	66 01 c8             	add    eax,ecx
    4aac:	66 c1 e0 03          	shl    eax,0x3
    4ab0:	66 05 e8 81 00 00    	add    eax,0x81e8
    4ab6:	67 66 89 10          	mov    DWORD PTR [eax],edx
D:\OneDrive\Study\Operating Systems\实验\project6\codes/./lib/utilsC.c:712
	memoryTable[firstUnusedMemoryItem].next = next;
    4aba:	66 8b 16 a4 81       	mov    edx,DWORD PTR ds:0x81a4
    4abf:	66 89 d0             	mov    eax,edx
    4ac2:	66 01 c0             	add    eax,eax
    4ac5:	66 01 d0             	add    eax,edx
    4ac8:	66 c1 e0 03          	shl    eax,0x3
    4acc:	67 66 8d 90 ec 81 00 	lea    edx,[eax+0x81ec]
    4ad3:	00 
    4ad4:	67 66 8b 45 f8       	mov    eax,DWORD PTR [ebp-0x8]
    4ad9:	67 66 89 02          	mov    DWORD PTR [edx],eax
D:\OneDrive\Study\Operating Systems\实验\project6\codes/./lib/utilsC.c:713
	firstUnusedMemoryItem = next;
    4add:	67 66 8b 45 f8       	mov    eax,DWORD PTR [ebp-0x8]
    4ae2:	66 a3 a4 81          	mov    ds:0x81a4,eax
D:\OneDrive\Study\Operating Systems\实验\project6\codes/./lib/utilsC.c:715

	memoryTable[firstUnusedMemoryItem].used = 1;
    4ae6:	66 8b 16 a4 81       	mov    edx,DWORD PTR ds:0x81a4
    4aeb:	66 89 d0             	mov    eax,edx
    4aee:	66 01 c0             	add    eax,eax
    4af1:	66 01 d0             	add    eax,edx
    4af4:	66 c1 e0 03          	shl    eax,0x3
    4af8:	66 05 f0 81 00 00    	add    eax,0x81f0
    4afe:	67 66 c7 00 01 00 00 	mov    DWORD PTR [eax],0x1
    4b05:	00 
D:\OneDrive\Study\Operating Systems\实验\project6\codes/./lib/utilsC.c:716
	memoryTable[firstUnusedMemoryItem].beginAddr = 0x500;
    4b06:	66 8b 16 a4 81       	mov    edx,DWORD PTR ds:0x81a4
    4b0b:	66 89 d0             	mov    eax,edx
    4b0e:	66 01 c0             	add    eax,eax
    4b11:	66 01 d0             	add    eax,edx
    4b14:	66 c1 e0 03          	shl    eax,0x3
    4b18:	66 05 e0 81 00 00    	add    eax,0x81e0
    4b1e:	67 66 c7 00 00 05 00 	mov    DWORD PTR [eax],0x500
    4b25:	00 
D:\OneDrive\Study\Operating Systems\实验\project6\codes/./lib/utilsC.c:717
	memoryTable[firstUnusedMemoryItem].endAddr = 0x7cff;
    4b26:	66 8b 16 a4 81       	mov    edx,DWORD PTR ds:0x81a4
    4b2b:	66 89 d0             	mov    eax,edx
    4b2e:	66 01 c0             	add    eax,eax
    4b31:	66 01 d0             	add    eax,edx
    4b34:	66 c1 e0 03          	shl    eax,0x3
    4b38:	66 05 e4 81 00 00    	add    eax,0x81e4
    4b3e:	67 66 c7 00 ff 7c 00 	mov    DWORD PTR [eax],0x7cff
    4b45:	00 
D:\OneDrive\Study\Operating Systems\实验\project6\codes/./lib/utilsC.c:718
	memoryTable[firstUnusedMemoryItem].status = unused;
    4b46:	66 8b 16 a4 81       	mov    edx,DWORD PTR ds:0x81a4
    4b4b:	66 89 d0             	mov    eax,edx
    4b4e:	66 01 c0             	add    eax,eax
    4b51:	66 01 d0             	add    eax,edx
    4b54:	66 c1 e0 03          	shl    eax,0x3
    4b58:	66 05 f4 81 00 00    	add    eax,0x81f4
    4b5e:	67 66 c7 00 00 00 00 	mov    DWORD PTR [eax],0x0
    4b65:	00 
D:\OneDrive\Study\Operating Systems\实验\project6\codes/./lib/utilsC.c:719
	next = nextUnusedItem();
    4b66:	66 e8 82 fd ff ff    	call   48ee <_nextUnusedItem>
    4b6c:	67 66 89 45 f8       	mov    DWORD PTR [ebp-0x8],eax
D:\OneDrive\Study\Operating Systems\实验\project6\codes/./lib/utilsC.c:720
	memoryTable[next].pre = firstUnusedMemoryItem;
    4b71:	66 8b 16 a4 81       	mov    edx,DWORD PTR ds:0x81a4
    4b76:	67 66 8b 4d f8       	mov    ecx,DWORD PTR [ebp-0x8]
    4b7b:	66 89 c8             	mov    eax,ecx
    4b7e:	66 01 c0             	add    eax,eax
    4b81:	66 01 c8             	add    eax,ecx
    4b84:	66 c1 e0 03          	shl    eax,0x3
    4b88:	66 05 e8 81 00 00    	add    eax,0x81e8
    4b8e:	67 66 89 10          	mov    DWORD PTR [eax],edx
D:\OneDrive\Study\Operating Systems\实验\project6\codes/./lib/utilsC.c:721
	memoryTable[firstUnusedMemoryItem].next = next;
    4b92:	66 8b 16 a4 81       	mov    edx,DWORD PTR ds:0x81a4
    4b97:	66 89 d0             	mov    eax,edx
    4b9a:	66 01 c0             	add    eax,eax
    4b9d:	66 01 d0             	add    eax,edx
    4ba0:	66 c1 e0 03          	shl    eax,0x3
    4ba4:	67 66 8d 90 ec 81 00 	lea    edx,[eax+0x81ec]
    4bab:	00 
    4bac:	67 66 8b 45 f8       	mov    eax,DWORD PTR [ebp-0x8]
    4bb1:	67 66 89 02          	mov    DWORD PTR [edx],eax
D:\OneDrive\Study\Operating Systems\实验\project6\codes/./lib/utilsC.c:722
	firstUnusedMemoryItem = next;
    4bb5:	67 66 8b 45 f8       	mov    eax,DWORD PTR [ebp-0x8]
    4bba:	66 a3 a4 81          	mov    ds:0x81a4,eax
D:\OneDrive\Study\Operating Systems\实验\project6\codes/./lib/utilsC.c:725


	memoryTable[firstUnusedMemoryItem].used = 1;
    4bbe:	66 8b 16 a4 81       	mov    edx,DWORD PTR ds:0x81a4
    4bc3:	66 89 d0             	mov    eax,edx
    4bc6:	66 01 c0             	add    eax,eax
    4bc9:	66 01 d0             	add    eax,edx
    4bcc:	66 c1 e0 03          	shl    eax,0x3
    4bd0:	66 05 f0 81 00 00    	add    eax,0x81f0
    4bd6:	67 66 c7 00 01 00 00 	mov    DWORD PTR [eax],0x1
    4bdd:	00 
D:\OneDrive\Study\Operating Systems\实验\project6\codes/./lib/utilsC.c:726
	memoryTable[firstUnusedMemoryItem].beginAddr = 0x7e00;
    4bde:	66 8b 16 a4 81       	mov    edx,DWORD PTR ds:0x81a4
    4be3:	66 89 d0             	mov    eax,edx
    4be6:	66 01 c0             	add    eax,eax
    4be9:	66 01 d0             	add    eax,edx
    4bec:	66 c1 e0 03          	shl    eax,0x3
    4bf0:	66 05 e0 81 00 00    	add    eax,0x81e0
    4bf6:	67 66 c7 00 00 7e 00 	mov    DWORD PTR [eax],0x7e00
    4bfd:	00 
D:\OneDrive\Study\Operating Systems\实验\project6\codes/./lib/utilsC.c:727
	memoryTable[firstUnusedMemoryItem].endAddr = 0x7dff;
    4bfe:	66 8b 16 a4 81       	mov    edx,DWORD PTR ds:0x81a4
    4c03:	66 89 d0             	mov    eax,edx
    4c06:	66 01 c0             	add    eax,eax
    4c09:	66 01 d0             	add    eax,edx
    4c0c:	66 c1 e0 03          	shl    eax,0x3
    4c10:	66 05 e4 81 00 00    	add    eax,0x81e4
    4c16:	67 66 c7 00 ff 7d 00 	mov    DWORD PTR [eax],0x7dff
    4c1d:	00 
D:\OneDrive\Study\Operating Systems\实验\project6\codes/./lib/utilsC.c:728
	memoryTable[firstUnusedMemoryItem].status = used;
    4c1e:	66 8b 16 a4 81       	mov    edx,DWORD PTR ds:0x81a4
    4c23:	66 89 d0             	mov    eax,edx
    4c26:	66 01 c0             	add    eax,eax
    4c29:	66 01 d0             	add    eax,edx
    4c2c:	66 c1 e0 03          	shl    eax,0x3
    4c30:	66 05 f4 81 00 00    	add    eax,0x81f4
    4c36:	67 66 c7 00 01 00 00 	mov    DWORD PTR [eax],0x1
    4c3d:	00 
D:\OneDrive\Study\Operating Systems\实验\project6\codes/./lib/utilsC.c:729
	next = nextUnusedItem();
    4c3e:	66 e8 aa fc ff ff    	call   48ee <_nextUnusedItem>
    4c44:	67 66 89 45 f8       	mov    DWORD PTR [ebp-0x8],eax
D:\OneDrive\Study\Operating Systems\实验\project6\codes/./lib/utilsC.c:730
	memoryTable[next].pre = firstUnusedMemoryItem;
    4c49:	66 8b 16 a4 81       	mov    edx,DWORD PTR ds:0x81a4
    4c4e:	67 66 8b 4d f8       	mov    ecx,DWORD PTR [ebp-0x8]
    4c53:	66 89 c8             	mov    eax,ecx
    4c56:	66 01 c0             	add    eax,eax
    4c59:	66 01 c8             	add    eax,ecx
    4c5c:	66 c1 e0 03          	shl    eax,0x3
    4c60:	66 05 e8 81 00 00    	add    eax,0x81e8
    4c66:	67 66 89 10          	mov    DWORD PTR [eax],edx
D:\OneDrive\Study\Operating Systems\实验\project6\codes/./lib/utilsC.c:731
	memoryTable[firstUnusedMemoryItem].next = next;
    4c6a:	66 8b 16 a4 81       	mov    edx,DWORD PTR ds:0x81a4
    4c6f:	66 89 d0             	mov    eax,edx
    4c72:	66 01 c0             	add    eax,eax
    4c75:	66 01 d0             	add    eax,edx
    4c78:	66 c1 e0 03          	shl    eax,0x3
    4c7c:	67 66 8d 90 ec 81 00 	lea    edx,[eax+0x81ec]
    4c83:	00 
    4c84:	67 66 8b 45 f8       	mov    eax,DWORD PTR [ebp-0x8]
    4c89:	67 66 89 02          	mov    DWORD PTR [edx],eax
D:\OneDrive\Study\Operating Systems\实验\project6\codes/./lib/utilsC.c:732
	firstUnusedMemoryItem = next;
    4c8d:	67 66 8b 45 f8       	mov    eax,DWORD PTR [ebp-0x8]
    4c92:	66 a3 a4 81          	mov    ds:0x81a4,eax
D:\OneDrive\Study\Operating Systems\实验\project6\codes/./lib/utilsC.c:734

	memoryTable[firstUnusedMemoryItem].used = 1;
    4c96:	66 8b 16 a4 81       	mov    edx,DWORD PTR ds:0x81a4
    4c9b:	66 89 d0             	mov    eax,edx
    4c9e:	66 01 c0             	add    eax,eax
    4ca1:	66 01 d0             	add    eax,edx
    4ca4:	66 c1 e0 03          	shl    eax,0x3
    4ca8:	66 05 f0 81 00 00    	add    eax,0x81f0
    4cae:	67 66 c7 00 01 00 00 	mov    DWORD PTR [eax],0x1
    4cb5:	00 
D:\OneDrive\Study\Operating Systems\实验\project6\codes/./lib/utilsC.c:735
	memoryTable[firstUnusedMemoryItem].beginAddr = 0x7e00;
    4cb6:	66 8b 16 a4 81       	mov    edx,DWORD PTR ds:0x81a4
    4cbb:	66 89 d0             	mov    eax,edx
    4cbe:	66 01 c0             	add    eax,eax
    4cc1:	66 01 d0             	add    eax,edx
    4cc4:	66 c1 e0 03          	shl    eax,0x3
    4cc8:	66 05 e0 81 00 00    	add    eax,0x81e0
    4cce:	67 66 c7 00 00 7e 00 	mov    DWORD PTR [eax],0x7e00
    4cd5:	00 
D:\OneDrive\Study\Operating Systems\实验\project6\codes/./lib/utilsC.c:736
	memoryTable[firstUnusedMemoryItem].endAddr = 0xc1ff;
    4cd6:	66 8b 16 a4 81       	mov    edx,DWORD PTR ds:0x81a4
    4cdb:	66 89 d0             	mov    eax,edx
    4cde:	66 01 c0             	add    eax,eax
    4ce1:	66 01 d0             	add    eax,edx
    4ce4:	66 c1 e0 03          	shl    eax,0x3
    4ce8:	66 05 e4 81 00 00    	add    eax,0x81e4
    4cee:	67 66 c7 00 ff c1 00 	mov    DWORD PTR [eax],0xc1ff
    4cf5:	00 
D:\OneDrive\Study\Operating Systems\实验\project6\codes/./lib/utilsC.c:737
	memoryTable[firstUnusedMemoryItem].status = unused;
    4cf6:	66 8b 16 a4 81       	mov    edx,DWORD PTR ds:0x81a4
    4cfb:	66 89 d0             	mov    eax,edx
    4cfe:	66 01 c0             	add    eax,eax
    4d01:	66 01 d0             	add    eax,edx
    4d04:	66 c1 e0 03          	shl    eax,0x3
    4d08:	66 05 f4 81 00 00    	add    eax,0x81f4
    4d0e:	67 66 c7 00 00 00 00 	mov    DWORD PTR [eax],0x0
    4d15:	00 
D:\OneDrive\Study\Operating Systems\实验\project6\codes/./lib/utilsC.c:738
	next = nextUnusedItem();
    4d16:	66 e8 d2 fb ff ff    	call   48ee <_nextUnusedItem>
    4d1c:	67 66 89 45 f8       	mov    DWORD PTR [ebp-0x8],eax
D:\OneDrive\Study\Operating Systems\实验\project6\codes/./lib/utilsC.c:739
	memoryTable[next].pre = firstUnusedMemoryItem;
    4d21:	66 8b 16 a4 81       	mov    edx,DWORD PTR ds:0x81a4
    4d26:	67 66 8b 4d f8       	mov    ecx,DWORD PTR [ebp-0x8]
    4d2b:	66 89 c8             	mov    eax,ecx
    4d2e:	66 01 c0             	add    eax,eax
    4d31:	66 01 c8             	add    eax,ecx
    4d34:	66 c1 e0 03          	shl    eax,0x3
    4d38:	66 05 e8 81 00 00    	add    eax,0x81e8
    4d3e:	67 66 89 10          	mov    DWORD PTR [eax],edx
D:\OneDrive\Study\Operating Systems\实验\project6\codes/./lib/utilsC.c:740
	memoryTable[firstUnusedMemoryItem].next = next;
    4d42:	66 8b 16 a4 81       	mov    edx,DWORD PTR ds:0x81a4
    4d47:	66 89 d0             	mov    eax,edx
    4d4a:	66 01 c0             	add    eax,eax
    4d4d:	66 01 d0             	add    eax,edx
    4d50:	66 c1 e0 03          	shl    eax,0x3
    4d54:	67 66 8d 90 ec 81 00 	lea    edx,[eax+0x81ec]
    4d5b:	00 
    4d5c:	67 66 8b 45 f8       	mov    eax,DWORD PTR [ebp-0x8]
    4d61:	67 66 89 02          	mov    DWORD PTR [edx],eax
D:\OneDrive\Study\Operating Systems\实验\project6\codes/./lib/utilsC.c:741
	firstUnusedMemoryItem = next;
    4d65:	67 66 8b 45 f8       	mov    eax,DWORD PTR [ebp-0x8]
    4d6a:	66 a3 a4 81          	mov    ds:0x81a4,eax
D:\OneDrive\Study\Operating Systems\实验\project6\codes/./lib/utilsC.c:743

	memoryTable[firstUnusedMemoryItem].used = 1;
    4d6e:	66 8b 16 a4 81       	mov    edx,DWORD PTR ds:0x81a4
    4d73:	66 89 d0             	mov    eax,edx
    4d76:	66 01 c0             	add    eax,eax
    4d79:	66 01 d0             	add    eax,edx
    4d7c:	66 c1 e0 03          	shl    eax,0x3
    4d80:	66 05 f0 81 00 00    	add    eax,0x81f0
    4d86:	67 66 c7 00 01 00 00 	mov    DWORD PTR [eax],0x1
    4d8d:	00 
D:\OneDrive\Study\Operating Systems\实验\project6\codes/./lib/utilsC.c:744
	memoryTable[firstUnusedMemoryItem].beginAddr = 0xc200;
    4d8e:	66 8b 16 a4 81       	mov    edx,DWORD PTR ds:0x81a4
    4d93:	66 89 d0             	mov    eax,edx
    4d96:	66 01 c0             	add    eax,eax
    4d99:	66 01 d0             	add    eax,edx
    4d9c:	66 c1 e0 03          	shl    eax,0x3
    4da0:	66 05 e0 81 00 00    	add    eax,0x81e0
    4da6:	67 66 c7 00 00 c2 00 	mov    DWORD PTR [eax],0xc200
    4dad:	00 
D:\OneDrive\Study\Operating Systems\实验\project6\codes/./lib/utilsC.c:745
	memoryTable[firstUnusedMemoryItem].endAddr = 0xc9ff;
    4dae:	66 8b 16 a4 81       	mov    edx,DWORD PTR ds:0x81a4
    4db3:	66 89 d0             	mov    eax,edx
    4db6:	66 01 c0             	add    eax,eax
    4db9:	66 01 d0             	add    eax,edx
    4dbc:	66 c1 e0 03          	shl    eax,0x3
    4dc0:	66 05 e4 81 00 00    	add    eax,0x81e4
    4dc6:	67 66 c7 00 ff c9 00 	mov    DWORD PTR [eax],0xc9ff
    4dcd:	00 
D:\OneDrive\Study\Operating Systems\实验\project6\codes/./lib/utilsC.c:746
	memoryTable[firstUnusedMemoryItem].status = used;
    4dce:	66 8b 16 a4 81       	mov    edx,DWORD PTR ds:0x81a4
    4dd3:	66 89 d0             	mov    eax,edx
    4dd6:	66 01 c0             	add    eax,eax
    4dd9:	66 01 d0             	add    eax,edx
    4ddc:	66 c1 e0 03          	shl    eax,0x3
    4de0:	66 05 f4 81 00 00    	add    eax,0x81f4
    4de6:	67 66 c7 00 01 00 00 	mov    DWORD PTR [eax],0x1
    4ded:	00 
D:\OneDrive\Study\Operating Systems\实验\project6\codes/./lib/utilsC.c:747
	next = nextUnusedItem();
    4dee:	66 e8 fa fa ff ff    	call   48ee <_nextUnusedItem>
    4df4:	67 66 89 45 f8       	mov    DWORD PTR [ebp-0x8],eax
D:\OneDrive\Study\Operating Systems\实验\project6\codes/./lib/utilsC.c:748
	memoryTable[next].pre = firstUnusedMemoryItem;
    4df9:	66 8b 16 a4 81       	mov    edx,DWORD PTR ds:0x81a4
    4dfe:	67 66 8b 4d f8       	mov    ecx,DWORD PTR [ebp-0x8]
    4e03:	66 89 c8             	mov    eax,ecx
    4e06:	66 01 c0             	add    eax,eax
    4e09:	66 01 c8             	add    eax,ecx
    4e0c:	66 c1 e0 03          	shl    eax,0x3
    4e10:	66 05 e8 81 00 00    	add    eax,0x81e8
    4e16:	67 66 89 10          	mov    DWORD PTR [eax],edx
D:\OneDrive\Study\Operating Systems\实验\project6\codes/./lib/utilsC.c:749
	memoryTable[firstUnusedMemoryItem].next = next;
    4e1a:	66 8b 16 a4 81       	mov    edx,DWORD PTR ds:0x81a4
    4e1f:	66 89 d0             	mov    eax,edx
    4e22:	66 01 c0             	add    eax,eax
    4e25:	66 01 d0             	add    eax,edx
    4e28:	66 c1 e0 03          	shl    eax,0x3
    4e2c:	67 66 8d 90 ec 81 00 	lea    edx,[eax+0x81ec]
    4e33:	00 
    4e34:	67 66 8b 45 f8       	mov    eax,DWORD PTR [ebp-0x8]
    4e39:	67 66 89 02          	mov    DWORD PTR [edx],eax
D:\OneDrive\Study\Operating Systems\实验\project6\codes/./lib/utilsC.c:750
	firstUnusedMemoryItem = next;
    4e3d:	67 66 8b 45 f8       	mov    eax,DWORD PTR [ebp-0x8]
    4e42:	66 a3 a4 81          	mov    ds:0x81a4,eax
D:\OneDrive\Study\Operating Systems\实验\project6\codes/./lib/utilsC.c:752

	memoryTable[firstUnusedMemoryItem].used = 1;
    4e46:	66 8b 16 a4 81       	mov    edx,DWORD PTR ds:0x81a4
    4e4b:	66 89 d0             	mov    eax,edx
    4e4e:	66 01 c0             	add    eax,eax
    4e51:	66 01 d0             	add    eax,edx
    4e54:	66 c1 e0 03          	shl    eax,0x3
    4e58:	66 05 f0 81 00 00    	add    eax,0x81f0
    4e5e:	67 66 c7 00 01 00 00 	mov    DWORD PTR [eax],0x1
    4e65:	00 
D:\OneDrive\Study\Operating Systems\实验\project6\codes/./lib/utilsC.c:753
	memoryTable[firstUnusedMemoryItem].beginAddr = 0xca00;
    4e66:	66 8b 16 a4 81       	mov    edx,DWORD PTR ds:0x81a4
    4e6b:	66 89 d0             	mov    eax,edx
    4e6e:	66 01 c0             	add    eax,eax
    4e71:	66 01 d0             	add    eax,edx
    4e74:	66 c1 e0 03          	shl    eax,0x3
    4e78:	66 05 e0 81 00 00    	add    eax,0x81e0
    4e7e:	67 66 c7 00 00 ca 00 	mov    DWORD PTR [eax],0xca00
    4e85:	00 
D:\OneDrive\Study\Operating Systems\实验\project6\codes/./lib/utilsC.c:754
	memoryTable[firstUnusedMemoryItem].endAddr = 0x1ffff;
    4e86:	66 8b 16 a4 81       	mov    edx,DWORD PTR ds:0x81a4
    4e8b:	66 89 d0             	mov    eax,edx
    4e8e:	66 01 c0             	add    eax,eax
    4e91:	66 01 d0             	add    eax,edx
    4e94:	66 c1 e0 03          	shl    eax,0x3
    4e98:	66 05 e4 81 00 00    	add    eax,0x81e4
    4e9e:	67 66 c7 00 ff ff 01 	mov    DWORD PTR [eax],0x1ffff
    4ea5:	00 
D:\OneDrive\Study\Operating Systems\实验\project6\codes/./lib/utilsC.c:755
	memoryTable[firstUnusedMemoryItem].status = unused;
    4ea6:	66 8b 16 a4 81       	mov    edx,DWORD PTR ds:0x81a4
    4eab:	66 89 d0             	mov    eax,edx
    4eae:	66 01 c0             	add    eax,eax
    4eb1:	66 01 d0             	add    eax,edx
    4eb4:	66 c1 e0 03          	shl    eax,0x3
    4eb8:	66 05 f4 81 00 00    	add    eax,0x81f4
    4ebe:	67 66 c7 00 00 00 00 	mov    DWORD PTR [eax],0x0
    4ec5:	00 
D:\OneDrive\Study\Operating Systems\实验\project6\codes/./lib/utilsC.c:756
	next = nextUnusedItem();
    4ec6:	66 e8 22 fa ff ff    	call   48ee <_nextUnusedItem>
    4ecc:	67 66 89 45 f8       	mov    DWORD PTR [ebp-0x8],eax
D:\OneDrive\Study\Operating Systems\实验\project6\codes/./lib/utilsC.c:757
	memoryTable[next].pre = firstUnusedMemoryItem;
    4ed1:	66 8b 16 a4 81       	mov    edx,DWORD PTR ds:0x81a4
    4ed6:	67 66 8b 4d f8       	mov    ecx,DWORD PTR [ebp-0x8]
    4edb:	66 89 c8             	mov    eax,ecx
    4ede:	66 01 c0             	add    eax,eax
    4ee1:	66 01 c8             	add    eax,ecx
    4ee4:	66 c1 e0 03          	shl    eax,0x3
    4ee8:	66 05 e8 81 00 00    	add    eax,0x81e8
    4eee:	67 66 89 10          	mov    DWORD PTR [eax],edx
D:\OneDrive\Study\Operating Systems\实验\project6\codes/./lib/utilsC.c:758
	memoryTable[firstUnusedMemoryItem].next = next;
    4ef2:	66 8b 16 a4 81       	mov    edx,DWORD PTR ds:0x81a4
    4ef7:	66 89 d0             	mov    eax,edx
    4efa:	66 01 c0             	add    eax,eax
    4efd:	66 01 d0             	add    eax,edx
    4f00:	66 c1 e0 03          	shl    eax,0x3
    4f04:	67 66 8d 90 ec 81 00 	lea    edx,[eax+0x81ec]
    4f0b:	00 
    4f0c:	67 66 8b 45 f8       	mov    eax,DWORD PTR [ebp-0x8]
    4f11:	67 66 89 02          	mov    DWORD PTR [edx],eax
D:\OneDrive\Study\Operating Systems\实验\project6\codes/./lib/utilsC.c:759
	firstUnusedMemoryItem = next;
    4f15:	67 66 8b 45 f8       	mov    eax,DWORD PTR [ebp-0x8]
    4f1a:	66 a3 a4 81          	mov    ds:0x81a4,eax
D:\OneDrive\Study\Operating Systems\实验\project6\codes/./lib/utilsC.c:761

	memoryTable[firstUnusedMemoryItem].used = 1;
    4f1e:	66 8b 16 a4 81       	mov    edx,DWORD PTR ds:0x81a4
    4f23:	66 89 d0             	mov    eax,edx
    4f26:	66 01 c0             	add    eax,eax
    4f29:	66 01 d0             	add    eax,edx
    4f2c:	66 c1 e0 03          	shl    eax,0x3
    4f30:	66 05 f0 81 00 00    	add    eax,0x81f0
    4f36:	67 66 c7 00 01 00 00 	mov    DWORD PTR [eax],0x1
    4f3d:	00 
D:\OneDrive\Study\Operating Systems\实验\project6\codes/./lib/utilsC.c:762
	memoryTable[firstUnusedMemoryItem].beginAddr = 0x20000;
    4f3e:	66 8b 16 a4 81       	mov    edx,DWORD PTR ds:0x81a4
    4f43:	66 89 d0             	mov    eax,edx
    4f46:	66 01 c0             	add    eax,eax
    4f49:	66 01 d0             	add    eax,edx
    4f4c:	66 c1 e0 03          	shl    eax,0x3
    4f50:	66 05 e0 81 00 00    	add    eax,0x81e0
    4f56:	67 66 c7 00 00 00 02 	mov    DWORD PTR [eax],0x20000
    4f5d:	00 
D:\OneDrive\Study\Operating Systems\实验\project6\codes/./lib/utilsC.c:763
	memoryTable[firstUnusedMemoryItem].endAddr = 0x2cfff;
    4f5e:	66 8b 16 a4 81       	mov    edx,DWORD PTR ds:0x81a4
    4f63:	66 89 d0             	mov    eax,edx
    4f66:	66 01 c0             	add    eax,eax
    4f69:	66 01 d0             	add    eax,edx
    4f6c:	66 c1 e0 03          	shl    eax,0x3
    4f70:	66 05 e4 81 00 00    	add    eax,0x81e4
    4f76:	67 66 c7 00 ff cf 02 	mov    DWORD PTR [eax],0x2cfff
    4f7d:	00 
D:\OneDrive\Study\Operating Systems\实验\project6\codes/./lib/utilsC.c:764
	memoryTable[firstUnusedMemoryItem].status = used;
    4f7e:	66 8b 16 a4 81       	mov    edx,DWORD PTR ds:0x81a4
    4f83:	66 89 d0             	mov    eax,edx
    4f86:	66 01 c0             	add    eax,eax
    4f89:	66 01 d0             	add    eax,edx
    4f8c:	66 c1 e0 03          	shl    eax,0x3
    4f90:	66 05 f4 81 00 00    	add    eax,0x81f4
    4f96:	67 66 c7 00 01 00 00 	mov    DWORD PTR [eax],0x1
    4f9d:	00 
D:\OneDrive\Study\Operating Systems\实验\project6\codes/./lib/utilsC.c:765
	next = nextUnusedItem();
    4f9e:	66 e8 4a f9 ff ff    	call   48ee <_nextUnusedItem>
    4fa4:	67 66 89 45 f8       	mov    DWORD PTR [ebp-0x8],eax
D:\OneDrive\Study\Operating Systems\实验\project6\codes/./lib/utilsC.c:766
	memoryTable[next].pre = firstUnusedMemoryItem;
    4fa9:	66 8b 16 a4 81       	mov    edx,DWORD PTR ds:0x81a4
    4fae:	67 66 8b 4d f8       	mov    ecx,DWORD PTR [ebp-0x8]
    4fb3:	66 89 c8             	mov    eax,ecx
    4fb6:	66 01 c0             	add    eax,eax
    4fb9:	66 01 c8             	add    eax,ecx
    4fbc:	66 c1 e0 03          	shl    eax,0x3
    4fc0:	66 05 e8 81 00 00    	add    eax,0x81e8
    4fc6:	67 66 89 10          	mov    DWORD PTR [eax],edx
D:\OneDrive\Study\Operating Systems\实验\project6\codes/./lib/utilsC.c:767
	memoryTable[firstUnusedMemoryItem].next = next;
    4fca:	66 8b 16 a4 81       	mov    edx,DWORD PTR ds:0x81a4
    4fcf:	66 89 d0             	mov    eax,edx
    4fd2:	66 01 c0             	add    eax,eax
    4fd5:	66 01 d0             	add    eax,edx
    4fd8:	66 c1 e0 03          	shl    eax,0x3
    4fdc:	67 66 8d 90 ec 81 00 	lea    edx,[eax+0x81ec]
    4fe3:	00 
    4fe4:	67 66 8b 45 f8       	mov    eax,DWORD PTR [ebp-0x8]
    4fe9:	67 66 89 02          	mov    DWORD PTR [edx],eax
D:\OneDrive\Study\Operating Systems\实验\project6\codes/./lib/utilsC.c:768
	firstUnusedMemoryItem = next;
    4fed:	67 66 8b 45 f8       	mov    eax,DWORD PTR [ebp-0x8]
    4ff2:	66 a3 a4 81          	mov    ds:0x81a4,eax
D:\OneDrive\Study\Operating Systems\实验\project6\codes/./lib/utilsC.c:770
	// blockNum = 7;
	memoryTable[firstUnusedMemoryItem].used = 1;
    4ff6:	66 8b 16 a4 81       	mov    edx,DWORD PTR ds:0x81a4
    4ffb:	66 89 d0             	mov    eax,edx
    4ffe:	66 01 c0             	add    eax,eax
    5001:	66 01 d0             	add    eax,edx
    5004:	66 c1 e0 03          	shl    eax,0x3
    5008:	66 05 f0 81 00 00    	add    eax,0x81f0
    500e:	67 66 c7 00 01 00 00 	mov    DWORD PTR [eax],0x1
    5015:	00 
D:\OneDrive\Study\Operating Systems\实验\project6\codes/./lib/utilsC.c:771
	memoryTable[firstUnusedMemoryItem].beginAddr = 0x2d000;
    5016:	66 8b 16 a4 81       	mov    edx,DWORD PTR ds:0x81a4
    501b:	66 89 d0             	mov    eax,edx
    501e:	66 01 c0             	add    eax,eax
    5021:	66 01 d0             	add    eax,edx
    5024:	66 c1 e0 03          	shl    eax,0x3
    5028:	66 05 e0 81 00 00    	add    eax,0x81e0
    502e:	67 66 c7 00 00 d0 02 	mov    DWORD PTR [eax],0x2d000
    5035:	00 
D:\OneDrive\Study\Operating Systems\实验\project6\codes/./lib/utilsC.c:772
	memoryTable[firstUnusedMemoryItem].endAddr = 0x2ffff;
    5036:	66 8b 16 a4 81       	mov    edx,DWORD PTR ds:0x81a4
    503b:	66 89 d0             	mov    eax,edx
    503e:	66 01 c0             	add    eax,eax
    5041:	66 01 d0             	add    eax,edx
    5044:	66 c1 e0 03          	shl    eax,0x3
    5048:	66 05 e4 81 00 00    	add    eax,0x81e4
    504e:	67 66 c7 00 ff ff 02 	mov    DWORD PTR [eax],0x2ffff
    5055:	00 
D:\OneDrive\Study\Operating Systems\实验\project6\codes/./lib/utilsC.c:773
	memoryTable[firstUnusedMemoryItem].status = used;
    5056:	66 8b 16 a4 81       	mov    edx,DWORD PTR ds:0x81a4
    505b:	66 89 d0             	mov    eax,edx
    505e:	66 01 c0             	add    eax,eax
    5061:	66 01 d0             	add    eax,edx
    5064:	66 c1 e0 03          	shl    eax,0x3
    5068:	66 05 f4 81 00 00    	add    eax,0x81f4
    506e:	67 66 c7 00 01 00 00 	mov    DWORD PTR [eax],0x1
    5075:	00 
D:\OneDrive\Study\Operating Systems\实验\project6\codes/./lib/utilsC.c:774
	next = nextUnusedItem();
    5076:	66 e8 72 f8 ff ff    	call   48ee <_nextUnusedItem>
    507c:	67 66 89 45 f8       	mov    DWORD PTR [ebp-0x8],eax
D:\OneDrive\Study\Operating Systems\实验\project6\codes/./lib/utilsC.c:775
	memoryTable[next].pre = firstUnusedMemoryItem;
    5081:	66 8b 16 a4 81       	mov    edx,DWORD PTR ds:0x81a4
    5086:	67 66 8b 4d f8       	mov    ecx,DWORD PTR [ebp-0x8]
    508b:	66 89 c8             	mov    eax,ecx
    508e:	66 01 c0             	add    eax,eax
    5091:	66 01 c8             	add    eax,ecx
    5094:	66 c1 e0 03          	shl    eax,0x3
    5098:	66 05 e8 81 00 00    	add    eax,0x81e8
    509e:	67 66 89 10          	mov    DWORD PTR [eax],edx
D:\OneDrive\Study\Operating Systems\实验\project6\codes/./lib/utilsC.c:776
	memoryTable[firstUnusedMemoryItem].next = next;
    50a2:	66 8b 16 a4 81       	mov    edx,DWORD PTR ds:0x81a4
    50a7:	66 89 d0             	mov    eax,edx
    50aa:	66 01 c0             	add    eax,eax
    50ad:	66 01 d0             	add    eax,edx
    50b0:	66 c1 e0 03          	shl    eax,0x3
    50b4:	67 66 8d 90 ec 81 00 	lea    edx,[eax+0x81ec]
    50bb:	00 
    50bc:	67 66 8b 45 f8       	mov    eax,DWORD PTR [ebp-0x8]
    50c1:	67 66 89 02          	mov    DWORD PTR [edx],eax
D:\OneDrive\Study\Operating Systems\实验\project6\codes/./lib/utilsC.c:777
	firstUnusedMemoryItem = next;
    50c5:	67 66 8b 45 f8       	mov    eax,DWORD PTR [ebp-0x8]
    50ca:	66 a3 a4 81          	mov    ds:0x81a4,eax
D:\OneDrive\Study\Operating Systems\实验\project6\codes/./lib/utilsC.c:780

	// blockNum = 8;
	memoryTable[firstUnusedMemoryItem].used = 1;
    50ce:	66 8b 16 a4 81       	mov    edx,DWORD PTR ds:0x81a4
    50d3:	66 89 d0             	mov    eax,edx
    50d6:	66 01 c0             	add    eax,eax
    50d9:	66 01 d0             	add    eax,edx
    50dc:	66 c1 e0 03          	shl    eax,0x3
    50e0:	66 05 f0 81 00 00    	add    eax,0x81f0
    50e6:	67 66 c7 00 01 00 00 	mov    DWORD PTR [eax],0x1
    50ed:	00 
D:\OneDrive\Study\Operating Systems\实验\project6\codes/./lib/utilsC.c:781
	memoryTable[firstUnusedMemoryItem].beginAddr = 0x30000;
    50ee:	66 8b 16 a4 81       	mov    edx,DWORD PTR ds:0x81a4
    50f3:	66 89 d0             	mov    eax,edx
    50f6:	66 01 c0             	add    eax,eax
    50f9:	66 01 d0             	add    eax,edx
    50fc:	66 c1 e0 03          	shl    eax,0x3
    5100:	66 05 e0 81 00 00    	add    eax,0x81e0
    5106:	67 66 c7 00 00 00 03 	mov    DWORD PTR [eax],0x30000
    510d:	00 
D:\OneDrive\Study\Operating Systems\实验\project6\codes/./lib/utilsC.c:782
	memoryTable[firstUnusedMemoryItem].endAddr = 0x7ffff;
    510e:	66 8b 16 a4 81       	mov    edx,DWORD PTR ds:0x81a4
    5113:	66 89 d0             	mov    eax,edx
    5116:	66 01 c0             	add    eax,eax
    5119:	66 01 d0             	add    eax,edx
    511c:	66 c1 e0 03          	shl    eax,0x3
    5120:	66 05 e4 81 00 00    	add    eax,0x81e4
    5126:	67 66 c7 00 ff ff 07 	mov    DWORD PTR [eax],0x7ffff
    512d:	00 
D:\OneDrive\Study\Operating Systems\实验\project6\codes/./lib/utilsC.c:783
	memoryTable[firstUnusedMemoryItem].status = unused;
    512e:	66 8b 16 a4 81       	mov    edx,DWORD PTR ds:0x81a4
    5133:	66 89 d0             	mov    eax,edx
    5136:	66 01 c0             	add    eax,eax
    5139:	66 01 d0             	add    eax,edx
    513c:	66 c1 e0 03          	shl    eax,0x3
    5140:	66 05 f4 81 00 00    	add    eax,0x81f4
    5146:	67 66 c7 00 00 00 00 	mov    DWORD PTR [eax],0x0
    514d:	00 
D:\OneDrive\Study\Operating Systems\实验\project6\codes/./lib/utilsC.c:784
	next = nextUnusedItem();
    514e:	66 e8 9a f7 ff ff    	call   48ee <_nextUnusedItem>
    5154:	67 66 89 45 f8       	mov    DWORD PTR [ebp-0x8],eax
D:\OneDrive\Study\Operating Systems\实验\project6\codes/./lib/utilsC.c:785
	memoryTable[next].pre = firstUnusedMemoryItem;
    5159:	66 8b 16 a4 81       	mov    edx,DWORD PTR ds:0x81a4
    515e:	67 66 8b 4d f8       	mov    ecx,DWORD PTR [ebp-0x8]
    5163:	66 89 c8             	mov    eax,ecx
    5166:	66 01 c0             	add    eax,eax
    5169:	66 01 c8             	add    eax,ecx
    516c:	66 c1 e0 03          	shl    eax,0x3
    5170:	66 05 e8 81 00 00    	add    eax,0x81e8
    5176:	67 66 89 10          	mov    DWORD PTR [eax],edx
D:\OneDrive\Study\Operating Systems\实验\project6\codes/./lib/utilsC.c:786
	memoryTable[firstUnusedMemoryItem].next = next;
    517a:	66 8b 16 a4 81       	mov    edx,DWORD PTR ds:0x81a4
    517f:	66 89 d0             	mov    eax,edx
    5182:	66 01 c0             	add    eax,eax
    5185:	66 01 d0             	add    eax,edx
    5188:	66 c1 e0 03          	shl    eax,0x3
    518c:	67 66 8d 90 ec 81 00 	lea    edx,[eax+0x81ec]
    5193:	00 
    5194:	67 66 8b 45 f8       	mov    eax,DWORD PTR [ebp-0x8]
    5199:	67 66 89 02          	mov    DWORD PTR [edx],eax
D:\OneDrive\Study\Operating Systems\实验\project6\codes/./lib/utilsC.c:787
	firstUnusedMemoryItem = next;
    519d:	67 66 8b 45 f8       	mov    eax,DWORD PTR [ebp-0x8]
    51a2:	66 a3 a4 81          	mov    ds:0x81a4,eax
D:\OneDrive\Study\Operating Systems\实验\project6\codes/./lib/utilsC.c:790

	// blockNum = 9;
	memoryTable[firstUnusedMemoryItem].used = 1;
    51a6:	66 8b 16 a4 81       	mov    edx,DWORD PTR ds:0x81a4
    51ab:	66 89 d0             	mov    eax,edx
    51ae:	66 01 c0             	add    eax,eax
    51b1:	66 01 d0             	add    eax,edx
    51b4:	66 c1 e0 03          	shl    eax,0x3
    51b8:	66 05 f0 81 00 00    	add    eax,0x81f0
    51be:	67 66 c7 00 01 00 00 	mov    DWORD PTR [eax],0x1
    51c5:	00 
D:\OneDrive\Study\Operating Systems\实验\project6\codes/./lib/utilsC.c:791
	memoryTable[firstUnusedMemoryItem].beginAddr = 0x80000;
    51c6:	66 8b 16 a4 81       	mov    edx,DWORD PTR ds:0x81a4
    51cb:	66 89 d0             	mov    eax,edx
    51ce:	66 01 c0             	add    eax,eax
    51d1:	66 01 d0             	add    eax,edx
    51d4:	66 c1 e0 03          	shl    eax,0x3
    51d8:	66 05 e0 81 00 00    	add    eax,0x81e0
    51de:	67 66 c7 00 00 00 08 	mov    DWORD PTR [eax],0x80000
    51e5:	00 
D:\OneDrive\Study\Operating Systems\实验\project6\codes/./lib/utilsC.c:792
	memoryTable[firstUnusedMemoryItem].endAddr = 0x84bff;
    51e6:	66 8b 16 a4 81       	mov    edx,DWORD PTR ds:0x81a4
    51eb:	66 89 d0             	mov    eax,edx
    51ee:	66 01 c0             	add    eax,eax
    51f1:	66 01 d0             	add    eax,edx
    51f4:	66 c1 e0 03          	shl    eax,0x3
    51f8:	66 05 e4 81 00 00    	add    eax,0x81e4
    51fe:	67 66 c7 00 ff 4b 08 	mov    DWORD PTR [eax],0x84bff
    5205:	00 
D:\OneDrive\Study\Operating Systems\实验\project6\codes/./lib/utilsC.c:793
	memoryTable[firstUnusedMemoryItem].status = used;
    5206:	66 8b 16 a4 81       	mov    edx,DWORD PTR ds:0x81a4
    520b:	66 89 d0             	mov    eax,edx
    520e:	66 01 c0             	add    eax,eax
    5211:	66 01 d0             	add    eax,edx
    5214:	66 c1 e0 03          	shl    eax,0x3
    5218:	66 05 f4 81 00 00    	add    eax,0x81f4
    521e:	67 66 c7 00 01 00 00 	mov    DWORD PTR [eax],0x1
    5225:	00 
D:\OneDrive\Study\Operating Systems\实验\project6\codes/./lib/utilsC.c:794
	next = nextUnusedItem();
    5226:	66 e8 c2 f6 ff ff    	call   48ee <_nextUnusedItem>
    522c:	67 66 89 45 f8       	mov    DWORD PTR [ebp-0x8],eax
D:\OneDrive\Study\Operating Systems\实验\project6\codes/./lib/utilsC.c:795
	memoryTable[next].pre = firstUnusedMemoryItem;
    5231:	66 8b 16 a4 81       	mov    edx,DWORD PTR ds:0x81a4
    5236:	67 66 8b 4d f8       	mov    ecx,DWORD PTR [ebp-0x8]
    523b:	66 89 c8             	mov    eax,ecx
    523e:	66 01 c0             	add    eax,eax
    5241:	66 01 c8             	add    eax,ecx
    5244:	66 c1 e0 03          	shl    eax,0x3
    5248:	66 05 e8 81 00 00    	add    eax,0x81e8
    524e:	67 66 89 10          	mov    DWORD PTR [eax],edx
D:\OneDrive\Study\Operating Systems\实验\project6\codes/./lib/utilsC.c:796
	memoryTable[firstUnusedMemoryItem].next = next;
    5252:	66 8b 16 a4 81       	mov    edx,DWORD PTR ds:0x81a4
    5257:	66 89 d0             	mov    eax,edx
    525a:	66 01 c0             	add    eax,eax
    525d:	66 01 d0             	add    eax,edx
    5260:	66 c1 e0 03          	shl    eax,0x3
    5264:	67 66 8d 90 ec 81 00 	lea    edx,[eax+0x81ec]
    526b:	00 
    526c:	67 66 8b 45 f8       	mov    eax,DWORD PTR [ebp-0x8]
    5271:	67 66 89 02          	mov    DWORD PTR [edx],eax
D:\OneDrive\Study\Operating Systems\实验\project6\codes/./lib/utilsC.c:797
	firstUnusedMemoryItem = next;
    5275:	67 66 8b 45 f8       	mov    eax,DWORD PTR [ebp-0x8]
    527a:	66 a3 a4 81          	mov    ds:0x81a4,eax
D:\OneDrive\Study\Operating Systems\实验\project6\codes/./lib/utilsC.c:800

	// blockNum = 10;
	memoryTable[firstUnusedMemoryItem].used = 1;
    527e:	66 8b 16 a4 81       	mov    edx,DWORD PTR ds:0x81a4
    5283:	66 89 d0             	mov    eax,edx
    5286:	66 01 c0             	add    eax,eax
    5289:	66 01 d0             	add    eax,edx
    528c:	66 c1 e0 03          	shl    eax,0x3
    5290:	66 05 f0 81 00 00    	add    eax,0x81f0
    5296:	67 66 c7 00 01 00 00 	mov    DWORD PTR [eax],0x1
    529d:	00 
D:\OneDrive\Study\Operating Systems\实验\project6\codes/./lib/utilsC.c:801
	memoryTable[firstUnusedMemoryItem].beginAddr = 0x84c00;
    529e:	66 8b 16 a4 81       	mov    edx,DWORD PTR ds:0x81a4
    52a3:	66 89 d0             	mov    eax,edx
    52a6:	66 01 c0             	add    eax,eax
    52a9:	66 01 d0             	add    eax,edx
    52ac:	66 c1 e0 03          	shl    eax,0x3
    52b0:	66 05 e0 81 00 00    	add    eax,0x81e0
    52b6:	67 66 c7 00 00 4c 08 	mov    DWORD PTR [eax],0x84c00
    52bd:	00 
D:\OneDrive\Study\Operating Systems\实验\project6\codes/./lib/utilsC.c:802
	memoryTable[firstUnusedMemoryItem].endAddr = 0x9ffff;
    52be:	66 8b 16 a4 81       	mov    edx,DWORD PTR ds:0x81a4
    52c3:	66 89 d0             	mov    eax,edx
    52c6:	66 01 c0             	add    eax,eax
    52c9:	66 01 d0             	add    eax,edx
    52cc:	66 c1 e0 03          	shl    eax,0x3
    52d0:	66 05 e4 81 00 00    	add    eax,0x81e4
    52d6:	67 66 c7 00 ff ff 09 	mov    DWORD PTR [eax],0x9ffff
    52dd:	00 
D:\OneDrive\Study\Operating Systems\实验\project6\codes/./lib/utilsC.c:803
	memoryTable[firstUnusedMemoryItem].status = unused;
    52de:	66 8b 16 a4 81       	mov    edx,DWORD PTR ds:0x81a4
    52e3:	66 89 d0             	mov    eax,edx
    52e6:	66 01 c0             	add    eax,eax
    52e9:	66 01 d0             	add    eax,edx
    52ec:	66 c1 e0 03          	shl    eax,0x3
    52f0:	66 05 f4 81 00 00    	add    eax,0x81f4
    52f6:	67 66 c7 00 00 00 00 	mov    DWORD PTR [eax],0x0
    52fd:	00 
D:\OneDrive\Study\Operating Systems\实验\project6\codes/./lib/utilsC.c:804
	next = nextUnusedItem();
    52fe:	66 e8 ea f5 ff ff    	call   48ee <_nextUnusedItem>
    5304:	67 66 89 45 f8       	mov    DWORD PTR [ebp-0x8],eax
D:\OneDrive\Study\Operating Systems\实验\project6\codes/./lib/utilsC.c:805
	memoryTable[next].pre = firstUnusedMemoryItem;
    5309:	66 8b 16 a4 81       	mov    edx,DWORD PTR ds:0x81a4
    530e:	67 66 8b 4d f8       	mov    ecx,DWORD PTR [ebp-0x8]
    5313:	66 89 c8             	mov    eax,ecx
    5316:	66 01 c0             	add    eax,eax
    5319:	66 01 c8             	add    eax,ecx
    531c:	66 c1 e0 03          	shl    eax,0x3
    5320:	66 05 e8 81 00 00    	add    eax,0x81e8
    5326:	67 66 89 10          	mov    DWORD PTR [eax],edx
D:\OneDrive\Study\Operating Systems\实验\project6\codes/./lib/utilsC.c:806
	memoryTable[firstUnusedMemoryItem].next = next;
    532a:	66 8b 16 a4 81       	mov    edx,DWORD PTR ds:0x81a4
    532f:	66 89 d0             	mov    eax,edx
    5332:	66 01 c0             	add    eax,eax
    5335:	66 01 d0             	add    eax,edx
    5338:	66 c1 e0 03          	shl    eax,0x3
    533c:	67 66 8d 90 ec 81 00 	lea    edx,[eax+0x81ec]
    5343:	00 
    5344:	67 66 8b 45 f8       	mov    eax,DWORD PTR [ebp-0x8]
    5349:	67 66 89 02          	mov    DWORD PTR [edx],eax
D:\OneDrive\Study\Operating Systems\实验\project6\codes/./lib/utilsC.c:807
	firstUnusedMemoryItem = next;
    534d:	67 66 8b 45 f8       	mov    eax,DWORD PTR [ebp-0x8]
    5352:	66 a3 a4 81          	mov    ds:0x81a4,eax
D:\OneDrive\Study\Operating Systems\实验\project6\codes/./lib/utilsC.c:808
}
    5356:	90                   	nop
    5357:	66 c9                	leave  
    5359:	66 c3                	ret    

0000535b <_findItem>:
findItem():
D:\OneDrive\Study\Operating Systems\实验\project6\codes/./lib/utilsC.c:812


int findItem(int addr)
{
    535b:	66 55                	push   ebp
    535d:	66 89 e5             	mov    ebp,esp
    5360:	66 83 ec 04          	sub    esp,0x4
D:\OneDrive\Study\Operating Systems\实验\project6\codes/./lib/utilsC.c:813
	int itemId = 0;
    5364:	67 66 c7 45 fc 00 00 	mov    DWORD PTR [ebp-0x4],0x0
    536b:	00 00 
D:\OneDrive\Study\Operating Systems\实验\project6\codes/./lib/utilsC.c:814
	for(; itemId < MemLen; itemId = memoryTable[itemId].next)
    536d:	eb 4b                	jmp    53ba <_findItem+0x5f>
D:\OneDrive\Study\Operating Systems\实验\project6\codes/./lib/utilsC.c:816
	{
		if(memoryTable[itemId].beginAddr < addr)
    536f:	67 66 8b 55 fc       	mov    edx,DWORD PTR [ebp-0x4]
    5374:	66 89 d0             	mov    eax,edx
    5377:	66 01 c0             	add    eax,eax
    537a:	66 01 d0             	add    eax,edx
    537d:	66 c1 e0 03          	shl    eax,0x3
    5381:	66 05 e0 81 00 00    	add    eax,0x81e0
    5387:	67 66 8b 00          	mov    eax,DWORD PTR [eax]
    538b:	67 66 3b 45 08       	cmp    eax,DWORD PTR [ebp+0x8]
    5390:	7d 07                	jge    5399 <_findItem+0x3e>
D:\OneDrive\Study\Operating Systems\实验\project6\codes/./lib/utilsC.c:817
			return itemId;
    5392:	67 66 8b 45 fc       	mov    eax,DWORD PTR [ebp-0x4]
    5397:	eb 2f                	jmp    53c8 <_findItem+0x6d>
D:\OneDrive\Study\Operating Systems\实验\project6\codes/./lib/utilsC.c:814
	for(; itemId < MemLen; itemId = memoryTable[itemId].next)
    5399:	67 66 8b 55 fc       	mov    edx,DWORD PTR [ebp-0x4]
    539e:	66 89 d0             	mov    eax,edx
    53a1:	66 01 c0             	add    eax,eax
    53a4:	66 01 d0             	add    eax,edx
    53a7:	66 c1 e0 03          	shl    eax,0x3
    53ab:	66 05 ec 81 00 00    	add    eax,0x81ec
    53b1:	67 66 8b 00          	mov    eax,DWORD PTR [eax]
    53b5:	67 66 89 45 fc       	mov    DWORD PTR [ebp-0x4],eax
    53ba:	67 66 83 7d fc 31    	cmp    DWORD PTR [ebp-0x4],0x31
    53c0:	7e ad                	jle    536f <_findItem+0x14>
D:\OneDrive\Study\Operating Systems\实验\project6\codes/./lib/utilsC.c:819
	}
	return -1;
    53c2:	66 b8 ff ff ff ff    	mov    eax,0xffffffff
D:\OneDrive\Study\Operating Systems\实验\project6\codes/./lib/utilsC.c:820
}
    53c8:	66 c9                	leave  
    53ca:	66 c3                	ret    

000053cc <_findLaterBlock>:
findLaterBlock():
D:\OneDrive\Study\Operating Systems\实验\project6\codes/./lib/utilsC.c:823

int findLaterBlock(int addr, int size)
{
    53cc:	66 55                	push   ebp
    53ce:	66 89 e5             	mov    ebp,esp
    53d1:	66 83 ec 04          	sub    esp,0x4
D:\OneDrive\Study\Operating Systems\实验\project6\codes/./lib/utilsC.c:824
	int itemId = 0;
    53d5:	67 66 c7 45 fc 00 00 	mov    DWORD PTR [ebp-0x4],0x0
    53dc:	00 00 
D:\OneDrive\Study\Operating Systems\实验\project6\codes/./lib/utilsC.c:825
	for(; itemId < MemLen; itemId = memoryTable[itemId].next)
    53de:	e9 b3 00             	jmp    5494 <_findLaterBlock+0xc8>
D:\OneDrive\Study\Operating Systems\实验\project6\codes/./lib/utilsC.c:827
	{
		if(memoryTable[itemId].beginAddr >= addr && memoryTable[itemId].endAddr - memoryTable[itemId].beginAddr+1 >= size &&memoryTable[itemId].status == unused)
    53e1:	67 66 8b 55 fc       	mov    edx,DWORD PTR [ebp-0x4]
    53e6:	66 89 d0             	mov    eax,edx
    53e9:	66 01 c0             	add    eax,eax
    53ec:	66 01 d0             	add    eax,edx
    53ef:	66 c1 e0 03          	shl    eax,0x3
    53f3:	66 05 e0 81 00 00    	add    eax,0x81e0
    53f9:	67 66 8b 00          	mov    eax,DWORD PTR [eax]
    53fd:	67 66 3b 45 08       	cmp    eax,DWORD PTR [ebp+0x8]
    5402:	7c 6f                	jl     5473 <_findLaterBlock+0xa7>
    5404:	67 66 8b 55 fc       	mov    edx,DWORD PTR [ebp-0x4]
    5409:	66 89 d0             	mov    eax,edx
    540c:	66 01 c0             	add    eax,eax
    540f:	66 01 d0             	add    eax,edx
    5412:	66 c1 e0 03          	shl    eax,0x3
    5416:	66 05 e4 81 00 00    	add    eax,0x81e4
    541c:	67 66 8b 08          	mov    ecx,DWORD PTR [eax]
    5420:	67 66 8b 55 fc       	mov    edx,DWORD PTR [ebp-0x4]
    5425:	66 89 d0             	mov    eax,edx
    5428:	66 01 c0             	add    eax,eax
    542b:	66 01 d0             	add    eax,edx
    542e:	66 c1 e0 03          	shl    eax,0x3
    5432:	66 05 e0 81 00 00    	add    eax,0x81e0
    5438:	67 66 8b 00          	mov    eax,DWORD PTR [eax]
    543c:	66 29 c1             	sub    ecx,eax
    543f:	66 89 c8             	mov    eax,ecx
    5442:	66 40                	inc    eax
    5444:	67 66 3b 45 0c       	cmp    eax,DWORD PTR [ebp+0xc]
    5449:	7c 28                	jl     5473 <_findLaterBlock+0xa7>
    544b:	67 66 8b 55 fc       	mov    edx,DWORD PTR [ebp-0x4]
    5450:	66 89 d0             	mov    eax,edx
    5453:	66 01 c0             	add    eax,eax
    5456:	66 01 d0             	add    eax,edx
    5459:	66 c1 e0 03          	shl    eax,0x3
    545d:	66 05 f4 81 00 00    	add    eax,0x81f4
    5463:	67 66 8b 00          	mov    eax,DWORD PTR [eax]
    5467:	66 85 c0             	test   eax,eax
    546a:	75 07                	jne    5473 <_findLaterBlock+0xa7>
D:\OneDrive\Study\Operating Systems\实验\project6\codes/./lib/utilsC.c:828
			return itemId;
    546c:	67 66 8b 45 fc       	mov    eax,DWORD PTR [ebp-0x4]
    5471:	eb 31                	jmp    54a4 <_findLaterBlock+0xd8>
D:\OneDrive\Study\Operating Systems\实验\project6\codes/./lib/utilsC.c:825
	for(; itemId < MemLen; itemId = memoryTable[itemId].next)
    5473:	67 66 8b 55 fc       	mov    edx,DWORD PTR [ebp-0x4]
    5478:	66 89 d0             	mov    eax,edx
    547b:	66 01 c0             	add    eax,eax
    547e:	66 01 d0             	add    eax,edx
    5481:	66 c1 e0 03          	shl    eax,0x3
    5485:	66 05 ec 81 00 00    	add    eax,0x81ec
    548b:	67 66 8b 00          	mov    eax,DWORD PTR [eax]
    548f:	67 66 89 45 fc       	mov    DWORD PTR [ebp-0x4],eax
    5494:	67 66 83 7d fc 31    	cmp    DWORD PTR [ebp-0x4],0x31
    549a:	0f 8e 43 ff          	jle    53e1 <_findLaterBlock+0x15>
D:\OneDrive\Study\Operating Systems\实验\project6\codes/./lib/utilsC.c:830
	}
	return -1;
    549e:	66 b8 ff ff ff ff    	mov    eax,0xffffffff
D:\OneDrive\Study\Operating Systems\实验\project6\codes/./lib/utilsC.c:831
}
    54a4:	66 c9                	leave  
    54a6:	66 c3                	ret    

000054a8 <_merge>:
merge():
D:\OneDrive\Study\Operating Systems\实验\project6\codes/./lib/utilsC.c:834

void merge(int item)
{
    54a8:	66 55                	push   ebp
    54aa:	66 89 e5             	mov    ebp,esp
    54ad:	66 83 ec 08          	sub    esp,0x8
D:\OneDrive\Study\Operating Systems\实验\project6\codes/./lib/utilsC.c:836
	int first;
	for (first = item; memoryTable[first].pre != -1 &&
    54b1:	67 66 8b 45 08       	mov    eax,DWORD PTR [ebp+0x8]
    54b6:	67 66 89 45 fc       	mov    DWORD PTR [ebp-0x4],eax
    54bb:	eb 21                	jmp    54de <_merge+0x36>
D:\OneDrive\Study\Operating Systems\实验\project6\codes/./lib/utilsC.c:837
	 memoryTable[memoryTable[first].pre].status==unused; first=memoryTable[first].pre)
    54bd:	67 66 8b 55 fc       	mov    edx,DWORD PTR [ebp-0x4]
    54c2:	66 89 d0             	mov    eax,edx
    54c5:	66 01 c0             	add    eax,eax
    54c8:	66 01 d0             	add    eax,edx
    54cb:	66 c1 e0 03          	shl    eax,0x3
    54cf:	66 05 e8 81 00 00    	add    eax,0x81e8
    54d5:	67 66 8b 00          	mov    eax,DWORD PTR [eax]
    54d9:	67 66 89 45 fc       	mov    DWORD PTR [ebp-0x4],eax
D:\OneDrive\Study\Operating Systems\实验\project6\codes/./lib/utilsC.c:836
	for (first = item; memoryTable[first].pre != -1 &&
    54de:	67 66 8b 55 fc       	mov    edx,DWORD PTR [ebp-0x4]
    54e3:	66 89 d0             	mov    eax,edx
    54e6:	66 01 c0             	add    eax,eax
    54e9:	66 01 d0             	add    eax,edx
    54ec:	66 c1 e0 03          	shl    eax,0x3
    54f0:	66 05 e8 81 00 00    	add    eax,0x81e8
    54f6:	67 66 8b 00          	mov    eax,DWORD PTR [eax]
    54fa:	66 83 f8 ff          	cmp    eax,0xffffffff
    54fe:	0f 84 0d 01          	je     560f <_merge+0x167>
D:\OneDrive\Study\Operating Systems\实验\project6\codes/./lib/utilsC.c:837
	 memoryTable[memoryTable[first].pre].status==unused; first=memoryTable[first].pre)
    5502:	67 66 8b 55 fc       	mov    edx,DWORD PTR [ebp-0x4]
    5507:	66 89 d0             	mov    eax,edx
    550a:	66 01 c0             	add    eax,eax
    550d:	66 01 d0             	add    eax,edx
    5510:	66 c1 e0 03          	shl    eax,0x3
    5514:	66 05 e8 81 00 00    	add    eax,0x81e8
    551a:	67 66 8b 10          	mov    edx,DWORD PTR [eax]
    551e:	66 89 d0             	mov    eax,edx
    5521:	66 01 c0             	add    eax,eax
    5524:	66 01 d0             	add    eax,edx
    5527:	66 c1 e0 03          	shl    eax,0x3
    552b:	66 05 f4 81 00 00    	add    eax,0x81f4
    5531:	67 66 8b 00          	mov    eax,DWORD PTR [eax]
D:\OneDrive\Study\Operating Systems\实验\project6\codes/./lib/utilsC.c:836
	for (first = item; memoryTable[first].pre != -1 &&
    5535:	66 85 c0             	test   eax,eax
    5538:	74 83                	je     54bd <_merge+0x15>
D:\OneDrive\Study\Operating Systems\实验\project6\codes/./lib/utilsC.c:839
	{}
	while(memoryTable[first].next != -1 && memoryTable[memoryTable[item].next].status == unused)
    553a:	e9 d2 00             	jmp    560f <_merge+0x167>
D:\OneDrive\Study\Operating Systems\实验\project6\codes/./lib/utilsC.c:841
	{
		int next = memoryTable[first].next;
    553d:	67 66 8b 55 fc       	mov    edx,DWORD PTR [ebp-0x4]
    5542:	66 89 d0             	mov    eax,edx
    5545:	66 01 c0             	add    eax,eax
    5548:	66 01 d0             	add    eax,edx
    554b:	66 c1 e0 03          	shl    eax,0x3
    554f:	66 05 ec 81 00 00    	add    eax,0x81ec
    5555:	67 66 8b 00          	mov    eax,DWORD PTR [eax]
    5559:	67 66 89 45 f8       	mov    DWORD PTR [ebp-0x8],eax
D:\OneDrive\Study\Operating Systems\实验\project6\codes/./lib/utilsC.c:842
		memoryTable[first].endAddr = memoryTable[next].endAddr;
    555e:	67 66 8b 55 f8       	mov    edx,DWORD PTR [ebp-0x8]
    5563:	66 89 d0             	mov    eax,edx
    5566:	66 01 c0             	add    eax,eax
    5569:	66 01 d0             	add    eax,edx
    556c:	66 c1 e0 03          	shl    eax,0x3
    5570:	66 05 e4 81 00 00    	add    eax,0x81e4
    5576:	67 66 8b 10          	mov    edx,DWORD PTR [eax]
    557a:	67 66 8b 4d fc       	mov    ecx,DWORD PTR [ebp-0x4]
    557f:	66 89 c8             	mov    eax,ecx
    5582:	66 01 c0             	add    eax,eax
    5585:	66 01 c8             	add    eax,ecx
    5588:	66 c1 e0 03          	shl    eax,0x3
    558c:	66 05 e4 81 00 00    	add    eax,0x81e4
    5592:	67 66 89 10          	mov    DWORD PTR [eax],edx
D:\OneDrive\Study\Operating Systems\实验\project6\codes/./lib/utilsC.c:843
		memoryTable[first].next = memoryTable[next].next;
    5596:	67 66 8b 55 f8       	mov    edx,DWORD PTR [ebp-0x8]
    559b:	66 89 d0             	mov    eax,edx
    559e:	66 01 c0             	add    eax,eax
    55a1:	66 01 d0             	add    eax,edx
    55a4:	66 c1 e0 03          	shl    eax,0x3
    55a8:	66 05 ec 81 00 00    	add    eax,0x81ec
    55ae:	67 66 8b 10          	mov    edx,DWORD PTR [eax]
    55b2:	67 66 8b 4d fc       	mov    ecx,DWORD PTR [ebp-0x4]
    55b7:	66 89 c8             	mov    eax,ecx
    55ba:	66 01 c0             	add    eax,eax
    55bd:	66 01 c8             	add    eax,ecx
    55c0:	66 c1 e0 03          	shl    eax,0x3
    55c4:	66 05 ec 81 00 00    	add    eax,0x81ec
    55ca:	67 66 89 10          	mov    DWORD PTR [eax],edx
D:\OneDrive\Study\Operating Systems\实验\project6\codes/./lib/utilsC.c:844
		memoryTable[next].used = 0;
    55ce:	67 66 8b 55 f8       	mov    edx,DWORD PTR [ebp-0x8]
    55d3:	66 89 d0             	mov    eax,edx
    55d6:	66 01 c0             	add    eax,eax
    55d9:	66 01 d0             	add    eax,edx
    55dc:	66 c1 e0 03          	shl    eax,0x3
    55e0:	66 05 f0 81 00 00    	add    eax,0x81f0
    55e6:	67 66 c7 00 00 00 00 	mov    DWORD PTR [eax],0x0
    55ed:	00 
D:\OneDrive\Study\Operating Systems\实验\project6\codes/./lib/utilsC.c:845
		next = memoryTable[next].next;
    55ee:	67 66 8b 55 f8       	mov    edx,DWORD PTR [ebp-0x8]
    55f3:	66 89 d0             	mov    eax,edx
    55f6:	66 01 c0             	add    eax,eax
    55f9:	66 01 d0             	add    eax,edx
    55fc:	66 c1 e0 03          	shl    eax,0x3
    5600:	66 05 ec 81 00 00    	add    eax,0x81ec
    5606:	67 66 8b 00          	mov    eax,DWORD PTR [eax]
    560a:	67 66 89 45 f8       	mov    DWORD PTR [ebp-0x8],eax
D:\OneDrive\Study\Operating Systems\实验\project6\codes/./lib/utilsC.c:839
	while(memoryTable[first].next != -1 && memoryTable[memoryTable[item].next].status == unused)
    560f:	67 66 8b 55 fc       	mov    edx,DWORD PTR [ebp-0x4]
    5614:	66 89 d0             	mov    eax,edx
    5617:	66 01 c0             	add    eax,eax
    561a:	66 01 d0             	add    eax,edx
    561d:	66 c1 e0 03          	shl    eax,0x3
    5621:	66 05 ec 81 00 00    	add    eax,0x81ec
    5627:	67 66 8b 00          	mov    eax,DWORD PTR [eax]
    562b:	66 83 f8 ff          	cmp    eax,0xffffffff
    562f:	74 3a                	je     566b <_merge+0x1c3>
    5631:	67 66 8b 55 08       	mov    edx,DWORD PTR [ebp+0x8]
    5636:	66 89 d0             	mov    eax,edx
    5639:	66 01 c0             	add    eax,eax
    563c:	66 01 d0             	add    eax,edx
    563f:	66 c1 e0 03          	shl    eax,0x3
    5643:	66 05 ec 81 00 00    	add    eax,0x81ec
    5649:	67 66 8b 10          	mov    edx,DWORD PTR [eax]
    564d:	66 89 d0             	mov    eax,edx
    5650:	66 01 c0             	add    eax,eax
    5653:	66 01 d0             	add    eax,edx
    5656:	66 c1 e0 03          	shl    eax,0x3
    565a:	66 05 f4 81 00 00    	add    eax,0x81f4
    5660:	67 66 8b 00          	mov    eax,DWORD PTR [eax]
    5664:	66 85 c0             	test   eax,eax
    5667:	0f 84 d2 fe          	je     553d <_merge+0x95>
D:\OneDrive\Study\Operating Systems\实验\project6\codes/./lib/utilsC.c:848
	}

}
    566b:	90                   	nop
    566c:	66 c9                	leave  
    566e:	66 c3                	ret    

00005670 <_release>:
release():
D:\OneDrive\Study\Operating Systems\实验\project6\codes/./lib/utilsC.c:851

void release(int begin, int end)
{
    5670:	66 55                	push   ebp
    5672:	66 89 e5             	mov    ebp,esp
    5675:	66 83 ec 08          	sub    esp,0x8
D:\OneDrive\Study\Operating Systems\实验\project6\codes/./lib/utilsC.c:852
	int item = findItem(begin);
    5679:	67 66 8b 45 08       	mov    eax,DWORD PTR [ebp+0x8]
    567e:	67 66 89 04 24       	mov    DWORD PTR [esp],eax
    5683:	66 e8 d2 fc ff ff    	call   535b <_findItem>
    5689:	67 66 89 45 fc       	mov    DWORD PTR [ebp-0x4],eax
D:\OneDrive\Study\Operating Systems\实验\project6\codes/./lib/utilsC.c:853
	memoryTable[item].status = unused;
    568e:	67 66 8b 55 fc       	mov    edx,DWORD PTR [ebp-0x4]
    5693:	66 89 d0             	mov    eax,edx
    5696:	66 01 c0             	add    eax,eax
    5699:	66 01 d0             	add    eax,edx
    569c:	66 c1 e0 03          	shl    eax,0x3
    56a0:	66 05 f4 81 00 00    	add    eax,0x81f4
    56a6:	67 66 c7 00 00 00 00 	mov    DWORD PTR [eax],0x0
    56ad:	00 
D:\OneDrive\Study\Operating Systems\实验\project6\codes/./lib/utilsC.c:854
	merge(item);
    56ae:	67 66 8b 45 fc       	mov    eax,DWORD PTR [ebp-0x4]
    56b3:	67 66 89 04 24       	mov    DWORD PTR [esp],eax
    56b8:	66 e8 ea fd ff ff    	call   54a8 <_merge>
D:\OneDrive\Study\Operating Systems\实验\project6\codes/./lib/utilsC.c:855
}
    56be:	90                   	nop
    56bf:	66 c9                	leave  
    56c1:	66 c3                	ret    

000056c3 <_findEnoughBlock>:
findEnoughBlock():
D:\OneDrive\Study\Operating Systems\实验\project6\codes/./lib/utilsC.c:858

int findEnoughBlock(int size)
{
    56c3:	66 55                	push   ebp
    56c5:	66 89 e5             	mov    ebp,esp
    56c8:	66 83 ec 04          	sub    esp,0x4
D:\OneDrive\Study\Operating Systems\实验\project6\codes/./lib/utilsC.c:859
	int itemId = 0;
    56cc:	67 66 c7 45 fc 00 00 	mov    DWORD PTR [ebp-0x4],0x0
    56d3:	00 00 
D:\OneDrive\Study\Operating Systems\实验\project6\codes/./lib/utilsC.c:861
	// 涓
	while(memoryTable[itemId].status == used || memoryTable[itemId].endAddr - memoryTable[itemId].beginAddr + 1 < size)
    56d5:	eb 21                	jmp    56f8 <_findEnoughBlock+0x35>
D:\OneDrive\Study\Operating Systems\实验\project6\codes/./lib/utilsC.c:863
	{
		itemId = memoryTable[itemId].next;
    56d7:	67 66 8b 55 fc       	mov    edx,DWORD PTR [ebp-0x4]
    56dc:	66 89 d0             	mov    eax,edx
    56df:	66 01 c0             	add    eax,eax
    56e2:	66 01 d0             	add    eax,edx
    56e5:	66 c1 e0 03          	shl    eax,0x3
    56e9:	66 05 ec 81 00 00    	add    eax,0x81ec
    56ef:	67 66 8b 00          	mov    eax,DWORD PTR [eax]
    56f3:	67 66 89 45 fc       	mov    DWORD PTR [ebp-0x4],eax
D:\OneDrive\Study\Operating Systems\实验\project6\codes/./lib/utilsC.c:861
	while(memoryTable[itemId].status == used || memoryTable[itemId].endAddr - memoryTable[itemId].beginAddr + 1 < size)
    56f8:	67 66 8b 55 fc       	mov    edx,DWORD PTR [ebp-0x4]
    56fd:	66 89 d0             	mov    eax,edx
    5700:	66 01 c0             	add    eax,eax
    5703:	66 01 d0             	add    eax,edx
    5706:	66 c1 e0 03          	shl    eax,0x3
    570a:	66 05 f4 81 00 00    	add    eax,0x81f4
    5710:	67 66 8b 00          	mov    eax,DWORD PTR [eax]
    5714:	66 83 f8 01          	cmp    eax,0x1
    5718:	74 bd                	je     56d7 <_findEnoughBlock+0x14>
    571a:	67 66 8b 55 fc       	mov    edx,DWORD PTR [ebp-0x4]
    571f:	66 89 d0             	mov    eax,edx
    5722:	66 01 c0             	add    eax,eax
    5725:	66 01 d0             	add    eax,edx
    5728:	66 c1 e0 03          	shl    eax,0x3
    572c:	66 05 e4 81 00 00    	add    eax,0x81e4
    5732:	67 66 8b 08          	mov    ecx,DWORD PTR [eax]
    5736:	67 66 8b 55 fc       	mov    edx,DWORD PTR [ebp-0x4]
    573b:	66 89 d0             	mov    eax,edx
    573e:	66 01 c0             	add    eax,eax
    5741:	66 01 d0             	add    eax,edx
    5744:	66 c1 e0 03          	shl    eax,0x3
    5748:	66 05 e0 81 00 00    	add    eax,0x81e0
    574e:	67 66 8b 00          	mov    eax,DWORD PTR [eax]
    5752:	66 29 c1             	sub    ecx,eax
    5755:	66 89 c8             	mov    eax,ecx
    5758:	66 40                	inc    eax
    575a:	67 66 3b 45 08       	cmp    eax,DWORD PTR [ebp+0x8]
    575f:	0f 8c 74 ff          	jl     56d7 <_findEnoughBlock+0x14>
D:\OneDrive\Study\Operating Systems\实验\project6\codes/./lib/utilsC.c:865
	}
	return itemId;
    5763:	67 66 8b 45 fc       	mov    eax,DWORD PTR [ebp-0x4]
D:\OneDrive\Study\Operating Systems\实验\project6\codes/./lib/utilsC.c:866
}
    5768:	66 c9                	leave  
    576a:	66 c3                	ret    

0000576c <_require>:
require():
D:\OneDrive\Study\Operating Systems\实验\project6\codes/./lib/utilsC.c:870


int require(int size, int curId)
{
    576c:	66 55                	push   ebp
    576e:	66 89 e5             	mov    ebp,esp
    5771:	66 83 ec 04          	sub    esp,0x4
D:\OneDrive\Study\Operating Systems\实验\project6\codes/./lib/utilsC.c:871
	memoryTable[firstUnusedMemoryItem].beginAddr = memoryTable[curId].beginAddr;
    5775:	66 8b 0e a4 81       	mov    ecx,DWORD PTR ds:0x81a4
    577a:	67 66 8b 55 0c       	mov    edx,DWORD PTR [ebp+0xc]
    577f:	66 89 d0             	mov    eax,edx
    5782:	66 01 c0             	add    eax,eax
    5785:	66 01 d0             	add    eax,edx
    5788:	66 c1 e0 03          	shl    eax,0x3
    578c:	66 05 e0 81 00 00    	add    eax,0x81e0
    5792:	67 66 8b 10          	mov    edx,DWORD PTR [eax]
    5796:	66 89 c8             	mov    eax,ecx
    5799:	66 01 c0             	add    eax,eax
    579c:	66 01 c8             	add    eax,ecx
    579f:	66 c1 e0 03          	shl    eax,0x3
    57a3:	66 05 e0 81 00 00    	add    eax,0x81e0
    57a9:	67 66 89 10          	mov    DWORD PTR [eax],edx
D:\OneDrive\Study\Operating Systems\实验\project6\codes/./lib/utilsC.c:872
	memoryTable[firstUnusedMemoryItem].endAddr = memoryTable[firstUnusedMemoryItem].beginAddr+size-1;
    57ad:	66 8b 16 a4 81       	mov    edx,DWORD PTR ds:0x81a4
    57b2:	66 8b 0e a4 81       	mov    ecx,DWORD PTR ds:0x81a4
    57b7:	66 89 c8             	mov    eax,ecx
    57ba:	66 01 c0             	add    eax,eax
    57bd:	66 01 c8             	add    eax,ecx
    57c0:	66 c1 e0 03          	shl    eax,0x3
    57c4:	66 05 e0 81 00 00    	add    eax,0x81e0
    57ca:	67 66 8b 08          	mov    ecx,DWORD PTR [eax]
    57ce:	67 66 8b 45 08       	mov    eax,DWORD PTR [ebp+0x8]
    57d3:	66 01 c8             	add    eax,ecx
    57d6:	67 66 8d 48 ff       	lea    ecx,[eax-0x1]
    57db:	66 89 d0             	mov    eax,edx
    57de:	66 01 c0             	add    eax,eax
    57e1:	66 01 d0             	add    eax,edx
    57e4:	66 c1 e0 03          	shl    eax,0x3
    57e8:	66 05 e4 81 00 00    	add    eax,0x81e4
    57ee:	67 66 89 08          	mov    DWORD PTR [eax],ecx
D:\OneDrive\Study\Operating Systems\实验\project6\codes/./lib/utilsC.c:873
	memoryTable[firstUnusedMemoryItem].used = 1;
    57f2:	66 8b 16 a4 81       	mov    edx,DWORD PTR ds:0x81a4
    57f7:	66 89 d0             	mov    eax,edx
    57fa:	66 01 c0             	add    eax,eax
    57fd:	66 01 d0             	add    eax,edx
    5800:	66 c1 e0 03          	shl    eax,0x3
    5804:	66 05 f0 81 00 00    	add    eax,0x81f0
    580a:	67 66 c7 00 01 00 00 	mov    DWORD PTR [eax],0x1
    5811:	00 
D:\OneDrive\Study\Operating Systems\实验\project6\codes/./lib/utilsC.c:874
	memoryTable[firstUnusedMemoryItem].status = used;
    5812:	66 8b 16 a4 81       	mov    edx,DWORD PTR ds:0x81a4
    5817:	66 89 d0             	mov    eax,edx
    581a:	66 01 c0             	add    eax,eax
    581d:	66 01 d0             	add    eax,edx
    5820:	66 c1 e0 03          	shl    eax,0x3
    5824:	66 05 f4 81 00 00    	add    eax,0x81f4
    582a:	67 66 c7 00 01 00 00 	mov    DWORD PTR [eax],0x1
    5831:	00 
D:\OneDrive\Study\Operating Systems\实验\project6\codes/./lib/utilsC.c:875
	memoryTable[firstUnusedMemoryItem].pre = memoryTable[curId].pre;
    5832:	66 8b 0e a4 81       	mov    ecx,DWORD PTR ds:0x81a4
    5837:	67 66 8b 55 0c       	mov    edx,DWORD PTR [ebp+0xc]
    583c:	66 89 d0             	mov    eax,edx
    583f:	66 01 c0             	add    eax,eax
    5842:	66 01 d0             	add    eax,edx
    5845:	66 c1 e0 03          	shl    eax,0x3
    5849:	66 05 e8 81 00 00    	add    eax,0x81e8
    584f:	67 66 8b 10          	mov    edx,DWORD PTR [eax]
    5853:	66 89 c8             	mov    eax,ecx
    5856:	66 01 c0             	add    eax,eax
    5859:	66 01 c8             	add    eax,ecx
    585c:	66 c1 e0 03          	shl    eax,0x3
    5860:	66 05 e8 81 00 00    	add    eax,0x81e8
    5866:	67 66 89 10          	mov    DWORD PTR [eax],edx
D:\OneDrive\Study\Operating Systems\实验\project6\codes/./lib/utilsC.c:876
	memoryTable[firstUnusedMemoryItem].next = curId;
    586a:	66 8b 16 a4 81       	mov    edx,DWORD PTR ds:0x81a4
    586f:	66 89 d0             	mov    eax,edx
    5872:	66 01 c0             	add    eax,eax
    5875:	66 01 d0             	add    eax,edx
    5878:	66 c1 e0 03          	shl    eax,0x3
    587c:	67 66 8d 90 ec 81 00 	lea    edx,[eax+0x81ec]
    5883:	00 
    5884:	67 66 8b 45 0c       	mov    eax,DWORD PTR [ebp+0xc]
    5889:	67 66 89 02          	mov    DWORD PTR [edx],eax
D:\OneDrive\Study\Operating Systems\实验\project6\codes/./lib/utilsC.c:877
	memoryTable[curId].pre = firstUnusedMemoryItem;
    588d:	66 8b 16 a4 81       	mov    edx,DWORD PTR ds:0x81a4
    5892:	67 66 8b 4d 0c       	mov    ecx,DWORD PTR [ebp+0xc]
    5897:	66 89 c8             	mov    eax,ecx
    589a:	66 01 c0             	add    eax,eax
    589d:	66 01 c8             	add    eax,ecx
    58a0:	66 c1 e0 03          	shl    eax,0x3
    58a4:	66 05 e8 81 00 00    	add    eax,0x81e8
    58aa:	67 66 89 10          	mov    DWORD PTR [eax],edx
D:\OneDrive\Study\Operating Systems\实验\project6\codes/./lib/utilsC.c:878
	memoryTable[curId].beginAddr = memoryTable[firstUnusedMemoryItem].endAddr+1;
    58ae:	66 8b 16 a4 81       	mov    edx,DWORD PTR ds:0x81a4
    58b3:	66 89 d0             	mov    eax,edx
    58b6:	66 01 c0             	add    eax,eax
    58b9:	66 01 d0             	add    eax,edx
    58bc:	66 c1 e0 03          	shl    eax,0x3
    58c0:	66 05 e4 81 00 00    	add    eax,0x81e4
    58c6:	67 66 8b 00          	mov    eax,DWORD PTR [eax]
    58ca:	67 66 8d 48 01       	lea    ecx,[eax+0x1]
    58cf:	67 66 8b 55 0c       	mov    edx,DWORD PTR [ebp+0xc]
    58d4:	66 89 d0             	mov    eax,edx
    58d7:	66 01 c0             	add    eax,eax
    58da:	66 01 d0             	add    eax,edx
    58dd:	66 c1 e0 03          	shl    eax,0x3
    58e1:	66 05 e0 81 00 00    	add    eax,0x81e0
    58e7:	67 66 89 08          	mov    DWORD PTR [eax],ecx
D:\OneDrive\Study\Operating Systems\实验\project6\codes/./lib/utilsC.c:879
	if(memoryTable[curId].beginAddr > memoryTable[curId].endAddr)
    58eb:	67 66 8b 55 0c       	mov    edx,DWORD PTR [ebp+0xc]
    58f0:	66 89 d0             	mov    eax,edx
    58f3:	66 01 c0             	add    eax,eax
    58f6:	66 01 d0             	add    eax,edx
    58f9:	66 c1 e0 03          	shl    eax,0x3
    58fd:	66 05 e0 81 00 00    	add    eax,0x81e0
    5903:	67 66 8b 08          	mov    ecx,DWORD PTR [eax]
    5907:	67 66 8b 55 0c       	mov    edx,DWORD PTR [ebp+0xc]
    590c:	66 89 d0             	mov    eax,edx
    590f:	66 01 c0             	add    eax,eax
    5912:	66 01 d0             	add    eax,edx
    5915:	66 c1 e0 03          	shl    eax,0x3
    5919:	66 05 e4 81 00 00    	add    eax,0x81e4
    591f:	67 66 8b 00          	mov    eax,DWORD PTR [eax]
    5923:	66 39 c1             	cmp    ecx,eax
    5926:	7e 58                	jle    5980 <_require+0x214>
D:\OneDrive\Study\Operating Systems\实验\project6\codes/./lib/utilsC.c:881
	{
		memoryTable[firstUnusedMemoryItem].next = memoryTable[curId].next;
    5928:	66 8b 0e a4 81       	mov    ecx,DWORD PTR ds:0x81a4
    592d:	67 66 8b 55 0c       	mov    edx,DWORD PTR [ebp+0xc]
    5932:	66 89 d0             	mov    eax,edx
    5935:	66 01 c0             	add    eax,eax
    5938:	66 01 d0             	add    eax,edx
    593b:	66 c1 e0 03          	shl    eax,0x3
    593f:	66 05 ec 81 00 00    	add    eax,0x81ec
    5945:	67 66 8b 10          	mov    edx,DWORD PTR [eax]
    5949:	66 89 c8             	mov    eax,ecx
    594c:	66 01 c0             	add    eax,eax
    594f:	66 01 c8             	add    eax,ecx
    5952:	66 c1 e0 03          	shl    eax,0x3
    5956:	66 05 ec 81 00 00    	add    eax,0x81ec
    595c:	67 66 89 10          	mov    DWORD PTR [eax],edx
D:\OneDrive\Study\Operating Systems\实验\project6\codes/./lib/utilsC.c:882
		memoryTable[curId].used = 0;
    5960:	67 66 8b 55 0c       	mov    edx,DWORD PTR [ebp+0xc]
    5965:	66 89 d0             	mov    eax,edx
    5968:	66 01 c0             	add    eax,eax
    596b:	66 01 d0             	add    eax,edx
    596e:	66 c1 e0 03          	shl    eax,0x3
    5972:	66 05 f0 81 00 00    	add    eax,0x81f0
    5978:	67 66 c7 00 00 00 00 	mov    DWORD PTR [eax],0x0
    597f:	00 
D:\OneDrive\Study\Operating Systems\实验\project6\codes/./lib/utilsC.c:884
	}
	int ret = firstUnusedMemoryItem;
    5980:	66 a1 a4 81          	mov    eax,ds:0x81a4
    5984:	67 66 89 45 fc       	mov    DWORD PTR [ebp-0x4],eax
D:\OneDrive\Study\Operating Systems\实验\project6\codes/./lib/utilsC.c:885
	firstUnusedMemoryItem = nextUnusedItem();
    5989:	66 e8 5f ef ff ff    	call   48ee <_nextUnusedItem>
    598f:	66 a3 a4 81          	mov    ds:0x81a4,eax
D:\OneDrive\Study\Operating Systems\实验\project6\codes/./lib/utilsC.c:886
	return ret;
    5993:	67 66 8b 45 fc       	mov    eax,DWORD PTR [ebp-0x4]
D:\OneDrive\Study\Operating Systems\实验\project6\codes/./lib/utilsC.c:887
}
    5998:	66 c9                	leave  
    599a:	66 c3                	ret    

0000599c <_int34h>:
int34h():
D:\OneDrive\Study\Operating Systems\实验\project6\codes/./lib/utilsC.c:894
/////////// memory ends /////////////


////////// interruptions //////////
void int34h()
{
    599c:	66 55                	push   ebp
    599e:	66 89 e5             	mov    ebp,esp
    59a1:	66 83 ec 18          	sub    esp,0x18
D:\OneDrive\Study\Operating Systems\实验\project6\codes/./lib/utilsC.c:895
	char * s = "Int 34h Xihuai Wang";
    59a5:	67 66 c7 45 fc d2 60 	mov    DWORD PTR [ebp-0x4],0x60d2
    59ac:	00 00 
D:\OneDrive\Study\Operating Systems\实验\project6\codes/./lib/utilsC.c:896
	printSentence(s, 6, 5, strlen(s), purple);
    59ae:	67 66 8b 45 fc       	mov    eax,DWORD PTR [ebp-0x4]
    59b3:	67 66 89 04 24       	mov    DWORD PTR [esp],eax
    59b8:	66 e8 ed cf ff ff    	call   29ab <_strlen>
    59be:	67 66 c7 44 24 10 0d 	mov    DWORD PTR [esp+0x10],0xd
    59c5:	00 00 00 
    59c8:	67 66 89 44 24 0c    	mov    DWORD PTR [esp+0xc],eax
    59ce:	67 66 c7 44 24 08 05 	mov    DWORD PTR [esp+0x8],0x5
    59d5:	00 00 00 
    59d8:	67 66 c7 44 24 04 06 	mov    DWORD PTR [esp+0x4],0x6
    59df:	00 00 00 
    59e2:	67 66 8b 45 fc       	mov    eax,DWORD PTR [ebp-0x4]
    59e7:	67 66 89 04 24       	mov    DWORD PTR [esp],eax
    59ec:	66 e8 19 b9 ff ff    	call   130b <_printSentence>
D:\OneDrive\Study\Operating Systems\实验\project6\codes/./lib/utilsC.c:897
}
    59f2:	90                   	nop
    59f3:	66 c9                	leave  
    59f5:	66 c3                	ret    

000059f7 <_int35h>:
int35h():
D:\OneDrive\Study\Operating Systems\实验\project6\codes/./lib/utilsC.c:899
void int35h()
{
    59f7:	66 55                	push   ebp
    59f9:	66 89 e5             	mov    ebp,esp
    59fc:	66 83 ec 18          	sub    esp,0x18
D:\OneDrive\Study\Operating Systems\实验\project6\codes/./lib/utilsC.c:900
	char * s = "Int 35h 16337236";
    5a00:	67 66 c7 45 fc e6 60 	mov    DWORD PTR [ebp-0x4],0x60e6
    5a07:	00 00 
D:\OneDrive\Study\Operating Systems\实验\project6\codes/./lib/utilsC.c:901
	printSentence(s, 6, 46, strlen(s), purple);
    5a09:	67 66 8b 45 fc       	mov    eax,DWORD PTR [ebp-0x4]
    5a0e:	67 66 89 04 24       	mov    DWORD PTR [esp],eax
    5a13:	66 e8 92 cf ff ff    	call   29ab <_strlen>
    5a19:	67 66 c7 44 24 10 0d 	mov    DWORD PTR [esp+0x10],0xd
    5a20:	00 00 00 
    5a23:	67 66 89 44 24 0c    	mov    DWORD PTR [esp+0xc],eax
    5a29:	67 66 c7 44 24 08 2e 	mov    DWORD PTR [esp+0x8],0x2e
    5a30:	00 00 00 
    5a33:	67 66 c7 44 24 04 06 	mov    DWORD PTR [esp+0x4],0x6
    5a3a:	00 00 00 
    5a3d:	67 66 8b 45 fc       	mov    eax,DWORD PTR [ebp-0x4]
    5a42:	67 66 89 04 24       	mov    DWORD PTR [esp],eax
    5a47:	66 e8 be b8 ff ff    	call   130b <_printSentence>
D:\OneDrive\Study\Operating Systems\实验\project6\codes/./lib/utilsC.c:902
}
    5a4d:	90                   	nop
    5a4e:	66 c9                	leave  
    5a50:	66 c3                	ret    

00005a52 <_int36h>:
int36h():
D:\OneDrive\Study\Operating Systems\实验\project6\codes/./lib/utilsC.c:904
void int36h()
{
    5a52:	66 55                	push   ebp
    5a54:	66 89 e5             	mov    ebp,esp
    5a57:	66 83 ec 18          	sub    esp,0x18
D:\OneDrive\Study\Operating Systems\实验\project6\codes/./lib/utilsC.c:905
	char * s = "Int 34h Class two";
    5a5b:	67 66 c7 45 fc f7 60 	mov    DWORD PTR [ebp-0x4],0x60f7
    5a62:	00 00 
D:\OneDrive\Study\Operating Systems\实验\project6\codes/./lib/utilsC.c:906
	printSentence(s, 18, 5, strlen(s), purple);
    5a64:	67 66 8b 45 fc       	mov    eax,DWORD PTR [ebp-0x4]
    5a69:	67 66 89 04 24       	mov    DWORD PTR [esp],eax
    5a6e:	66 e8 37 cf ff ff    	call   29ab <_strlen>
    5a74:	67 66 c7 44 24 10 0d 	mov    DWORD PTR [esp+0x10],0xd
    5a7b:	00 00 00 
    5a7e:	67 66 89 44 24 0c    	mov    DWORD PTR [esp+0xc],eax
    5a84:	67 66 c7 44 24 08 05 	mov    DWORD PTR [esp+0x8],0x5
    5a8b:	00 00 00 
    5a8e:	67 66 c7 44 24 04 12 	mov    DWORD PTR [esp+0x4],0x12
    5a95:	00 00 00 
    5a98:	67 66 8b 45 fc       	mov    eax,DWORD PTR [ebp-0x4]
    5a9d:	67 66 89 04 24       	mov    DWORD PTR [esp],eax
    5aa2:	66 e8 63 b8 ff ff    	call   130b <_printSentence>
D:\OneDrive\Study\Operating Systems\实验\project6\codes/./lib/utilsC.c:907
}
    5aa8:	90                   	nop
    5aa9:	66 c9                	leave  
    5aab:	66 c3                	ret    

00005aad <_int37h>:
int37h():
D:\OneDrive\Study\Operating Systems\实验\project6\codes/./lib/utilsC.c:909
void int37h()
{
    5aad:	66 55                	push   ebp
    5aaf:	66 89 e5             	mov    ebp,esp
    5ab2:	66 83 ec 18          	sub    esp,0x18
D:\OneDrive\Study\Operating Systems\实验\project6\codes/./lib/utilsC.c:910
	char * s = "Int 34h Grade 2016";
    5ab6:	67 66 c7 45 fc 09 61 	mov    DWORD PTR [ebp-0x4],0x6109
    5abd:	00 00 
D:\OneDrive\Study\Operating Systems\实验\project6\codes/./lib/utilsC.c:911
	printSentence(s, 18, 46, strlen(s), purple);
    5abf:	67 66 8b 45 fc       	mov    eax,DWORD PTR [ebp-0x4]
    5ac4:	67 66 89 04 24       	mov    DWORD PTR [esp],eax
    5ac9:	66 e8 dc ce ff ff    	call   29ab <_strlen>
    5acf:	67 66 c7 44 24 10 0d 	mov    DWORD PTR [esp+0x10],0xd
    5ad6:	00 00 00 
    5ad9:	67 66 89 44 24 0c    	mov    DWORD PTR [esp+0xc],eax
    5adf:	67 66 c7 44 24 08 2e 	mov    DWORD PTR [esp+0x8],0x2e
    5ae6:	00 00 00 
    5ae9:	67 66 c7 44 24 04 12 	mov    DWORD PTR [esp+0x4],0x12
    5af0:	00 00 00 
    5af3:	67 66 8b 45 fc       	mov    eax,DWORD PTR [ebp-0x4]
    5af8:	67 66 89 04 24       	mov    DWORD PTR [esp],eax
    5afd:	66 e8 08 b8 ff ff    	call   130b <_printSentence>
D:\OneDrive\Study\Operating Systems\实验\project6\codes/./lib/utilsC.c:912
}
    5b03:	90                   	nop
    5b04:	66 c9                	leave  
    5b06:	66 c3                	ret    

00005b08 <_WelcomeSentence>:
    5b08:	2c 60                	sub    al,0x60
	...

00005b0c <_prompt>:
    5b0c:	6b 60 00 00          	imul   sp,WORD PTR [bx+si+0x0],0x0
    5b10:	eb 0e                	jmp    5b20 <_prompt+0x14>
    5b12:	90                   	nop
    5b13:	90                   	nop
    5b14:	90                   	nop
    5b15:	90                   	nop
    5b16:	90                   	nop
    5b17:	90                   	nop
    5b18:	90                   	nop
    5b19:	90                   	nop
    5b1a:	90                   	nop
    5b1b:	90                   	nop
    5b1c:	90                   	nop
    5b1d:	90                   	nop
    5b1e:	90                   	nop
    5b1f:	90                   	nop
    5b20:	4f                   	dec    di
    5b21:	72 69                	jb     5b8c <_prompt+0x80>
    5b23:	67 69 6e 00 00 00    	imul   bp,WORD PTR [esi+0x0],0x0
    5b29:	00 72 65             	add    BYTE PTR [bp+si+0x65],dh
    5b2c:	61                   	popa   
    5b2d:	64 79 00             	fs jns 5b30 <_prompt+0x24>
    5b30:	00 00                	add    BYTE PTR [bx+si],al
    5b32:	00 00                	add    BYTE PTR [bx+si],al
    5b34:	72 75                	jb     5bab <_prompt+0x9f>
    5b36:	6e                   	outs   dx,BYTE PTR ds:[si]
    5b37:	6e                   	outs   dx,BYTE PTR ds:[si]
    5b38:	69 6e 67 00 00       	imul   bp,WORD PTR [bp+0x67],0x0
    5b3d:	00 62 6c             	add    BYTE PTR [bp+si+0x6c],ah
    5b40:	6f                   	outs   dx,WORD PTR ds:[si]
    5b41:	63 6b 65             	arpl   WORD PTR [bp+di+0x65],bp
    5b44:	64 00 00             	add    BYTE PTR fs:[bx+si],al
    5b47:	00 73 75             	add    BYTE PTR [bp+di+0x75],dh
    5b4a:	73 70                	jae    5bbc <_prompt+0xb0>
    5b4c:	65 6e                	outs   dx,BYTE PTR gs:[si]
    5b4e:	64 00 00             	add    BYTE PTR fs:[bx+si],al
    5b51:	00 65 78             	add    BYTE PTR [di+0x78],ah
    5b54:	69 74 00 00 00       	imul   si,WORD PTR [si+0x0],0x0
    5b59:	00 00                	add    BYTE PTR [bx+si],al
    5b5b:	00 00                	add    BYTE PTR [bx+si],al
    5b5d:	00 00                	add    BYTE PTR [bx+si],al
	...
