
..\imgs\boot.tmp:     file format pei-i386


Disassembly of section .text:

00000000 <.text>:
       0:	66 8c c8             	mov    eax,cs
       3:	8e d8                	mov    ds,ax
       5:	8e c0                	mov    es,ax
       7:	8e d0                	mov    ss,ax
       9:	66 e8 ad 06 00 00    	call   6bc <_inisys>
       f:	eb 00                	jmp    11 <__main>

00000011 <__main>:
_main():
D:\OneDrive\Study\Operating Systems\สตั้\project5\codes/./kernel/os.c:26
int ProcessSize;
int runSub;
int SizeOfProcessStruct;
//id ไธบ-1ๆไธบ็ฉบ,processTable[0]ไธบๅๆธ.

int _main() {
      11:	66 55                	push   ebp
      13:	66 89 e5             	mov    ebp,esp
      16:	66 53                	push   ebx
      18:	66 83 ec 20          	sub    esp,0x20
D:\OneDrive\Study\Operating Systems\สตั้\project5\codes/./kernel/os.c:27
	runSub = 0;
      1c:	66 c7 06 20 61 00 00 	mov    DWORD PTR ds:0x6120,0x0
      23:	00 00 
D:\OneDrive\Study\Operating Systems\สตั้\project5\codes/./kernel/os.c:28
	curProcessId = 0;
      25:	66 c7 06 a0 70 00 00 	mov    DWORD PTR ds:0x70a0,0x0
      2c:	00 00 
D:\OneDrive\Study\Operating Systems\สตั้\project5\codes/./kernel/os.c:29
	ProcessSize = 1;
      2e:	66 c7 06 f0 65 01 00 	mov    DWORD PTR ds:0x65f0,0x1
      35:	00 00 
D:\OneDrive\Study\Operating Systems\สตั้\project5\codes/./kernel/os.c:30
	SizeOfProcessStruct = sizeof(struct Process);
      37:	66 c7 06 f8 65 50 00 	mov    DWORD PTR ds:0x65f8,0x50
      3e:	00 00 
D:\OneDrive\Study\Operating Systems\สตั้\project5\codes/./kernel/os.c:31
	initial();
      40:	66 e8 7d 39 00 00    	call   39c3 <_initial>
D:\OneDrive\Study\Operating Systems\สตั้\project5\codes/./kernel/os.c:34
	char * in;
	char * str;
	int tmp = -1;
      46:	67 66 c7 45 f8 ff ff 	mov    DWORD PTR [ebp-0x8],0xffffffff
      4d:	ff ff 
D:\OneDrive\Study\Operating Systems\สตั้\project5\codes/./kernel/os.c:41
	// __asm__("mov $0x0, %ah\n");
	// test();


	do {
		in = getInput();
      4f:	66 e8 a8 0a 00 00    	call   afd <_getInput>
      55:	67 66 89 45 f4       	mov    DWORD PTR [ebp-0xc],eax
D:\OneDrive\Study\Operating Systems\สตั้\project5\codes/./kernel/os.c:42
		if(in[0] == 'r' && in[1] == 'u' && in[2] == 'n')
      5a:	67 66 8b 45 f4       	mov    eax,DWORD PTR [ebp-0xc]
      5f:	67 8a 00             	mov    al,BYTE PTR [eax]
      62:	3c 72                	cmp    al,0x72
      64:	0f 85 c5 01          	jne    22d <__file_alignment__+0x2d>
      68:	67 66 8b 45 f4       	mov    eax,DWORD PTR [ebp-0xc]
      6d:	66 40                	inc    eax
      6f:	67 8a 00             	mov    al,BYTE PTR [eax]
      72:	3c 75                	cmp    al,0x75
      74:	0f 85 b5 01          	jne    22d <__file_alignment__+0x2d>
      78:	67 66 8b 45 f4       	mov    eax,DWORD PTR [ebp-0xc]
      7d:	66 83 c0 02          	add    eax,0x2
      81:	67 8a 00             	mov    al,BYTE PTR [eax]
      84:	3c 6e                	cmp    al,0x6e
      86:	0f 85 a3 01          	jne    22d <__file_alignment__+0x2d>
D:\OneDrive\Study\Operating Systems\สตั้\project5\codes/./kernel/os.c:44
		{
			printSentence("\n", line++, 0, strlen("\n"), white);
      8a:	67 66 c7 04 24 00 40 	mov    DWORD PTR [esp],0x4000
      91:	00 00 
      93:	66 e8 27 15 00 00    	call   15c0 <_strlen>
      99:	66 89 c2             	mov    edx,eax
      9c:	66 a1 00 61          	mov    eax,ds:0x6100
      a0:	67 66 8d 48 01       	lea    ecx,[eax+0x1]
      a5:	66 89 0e 00 61       	mov    DWORD PTR ds:0x6100,ecx
      aa:	67 66 c7 44 24 10 0f 	mov    DWORD PTR [esp+0x10],0xf
      b1:	00 00 00 
      b4:	67 66 89 54 24 0c    	mov    DWORD PTR [esp+0xc],edx
      ba:	67 66 c7 44 24 08 00 	mov    DWORD PTR [esp+0x8],0x0
      c1:	00 00 00 
      c4:	67 66 89 44 24 04    	mov    DWORD PTR [esp+0x4],eax
      ca:	67 66 c7 04 24 00 40 	mov    DWORD PTR [esp],0x4000
      d1:	00 00 
      d3:	66 e8 df 09 00 00    	call   ab8 <_printSentence>
D:\OneDrive\Study\Operating Systems\สตั้\project5\codes/./kernel/os.c:46
			do{
				str = getInput();
      d9:	66 e8 1e 0a 00 00    	call   afd <_getInput>
      df:	67 66 89 45 f0       	mov    DWORD PTR [ebp-0x10],eax
D:\OneDrive\Study\Operating Systems\สตั้\project5\codes/./kernel/os.c:47
				printSentence("\n", line++, 0, strlen("\n"), white);
      e4:	67 66 c7 04 24 00 40 	mov    DWORD PTR [esp],0x4000
      eb:	00 00 
      ed:	66 e8 cd 14 00 00    	call   15c0 <_strlen>
      f3:	66 89 c2             	mov    edx,eax
      f6:	66 a1 00 61          	mov    eax,ds:0x6100
      fa:	67 66 8d 48 01       	lea    ecx,[eax+0x1]
      ff:	66 89 0e 00 61       	mov    DWORD PTR ds:0x6100,ecx
     104:	67 66 c7 44 24 10 0f 	mov    DWORD PTR [esp+0x10],0xf
     10b:	00 00 00 
     10e:	67 66 89 54 24 0c    	mov    DWORD PTR [esp+0xc],edx
     114:	67 66 c7 44 24 08 00 	mov    DWORD PTR [esp+0x8],0x0
     11b:	00 00 00 
     11e:	67 66 89 44 24 04    	mov    DWORD PTR [esp+0x4],eax
     124:	67 66 c7 04 24 00 40 	mov    DWORD PTR [esp],0x4000
     12b:	00 00 
     12d:	66 e8 85 09 00 00    	call   ab8 <_printSentence>
D:\OneDrive\Study\Operating Systems\สตั้\project5\codes/./kernel/os.c:48
				if(str[0]){	
     133:	67 66 8b 45 f0       	mov    eax,DWORD PTR [ebp-0x10]
     138:	67 8a 00             	mov    al,BYTE PTR [eax]
     13b:	84 c0                	test   al,al
     13d:	0f 84 c4 00          	je     205 <__file_alignment__+0x5>
D:\OneDrive\Study\Operating Systems\สตั้\project5\codes/./kernel/os.c:49
					tmp = find(str);
     141:	67 66 8b 45 f0       	mov    eax,DWORD PTR [ebp-0x10]
     146:	67 66 89 04 24       	mov    DWORD PTR [esp],eax
     14b:	66 e8 29 1b 00 00    	call   1c7a <_find>
     151:	67 66 89 45 f8       	mov    DWORD PTR [ebp-0x8],eax
D:\OneDrive\Study\Operating Systems\สตั้\project5\codes/./kernel/os.c:50
					if(tmp != -1 && information[tmp].deleted != 1){
     156:	67 66 83 7d f8 ff    	cmp    DWORD PTR [ebp-0x8],0xffffffff
     15c:	0f 84 a5 00          	je     205 <__file_alignment__+0x5>
     160:	67 66 8b 55 f8       	mov    edx,DWORD PTR [ebp-0x8]
     165:	66 89 d0             	mov    eax,edx
     168:	66 01 c0             	add    eax,eax
     16b:	66 01 d0             	add    eax,edx
     16e:	66 c1 e0 02          	shl    eax,0x2
     172:	66 01 d0             	add    eax,edx
     175:	66 c1 e0 02          	shl    eax,0x2
     179:	66 05 6c 66 00 00    	add    eax,0x666c
     17f:	67 66 8b 00          	mov    eax,DWORD PTR [eax]
     183:	66 83 f8 01          	cmp    eax,0x1
     187:	74 7c                	je     205 <__file_alignment__+0x5>
D:\OneDrive\Study\Operating Systems\สตั้\project5\codes/./kernel/os.c:51
						createProcess(ProcessSize++, information[tmp].name, information[tmp].size+1024, tmp);
     189:	67 66 8b 55 f8       	mov    edx,DWORD PTR [ebp-0x8]
     18e:	66 89 d0             	mov    eax,edx
     191:	66 01 c0             	add    eax,eax
     194:	66 01 d0             	add    eax,edx
     197:	66 c1 e0 02          	shl    eax,0x2
     19b:	66 01 d0             	add    eax,edx
     19e:	66 c1 e0 02          	shl    eax,0x2
     1a2:	66 05 68 66 00 00    	add    eax,0x6668
     1a8:	67 66 8b 00          	mov    eax,DWORD PTR [eax]
     1ac:	67 66 8d 98 00 04 00 	lea    ebx,[eax+0x400]
     1b3:	00 
     1b4:	67 66 8b 55 f8       	mov    edx,DWORD PTR [ebp-0x8]
     1b9:	66 89 d0             	mov    eax,edx
     1bc:	66 01 c0             	add    eax,eax
     1bf:	66 01 d0             	add    eax,edx
     1c2:	66 c1 e0 02          	shl    eax,0x2
     1c6:	66 01 d0             	add    eax,edx
     1c9:	66 c1 e0 02          	shl    eax,0x2
     1cd:	67 66 8d 88 40 66 00 	lea    ecx,[eax+0x6640]
     1d4:	00 
     1d5:	66 a1 f0 65          	mov    eax,ds:0x65f0
     1d9:	67 66 8d 50 01       	lea    edx,[eax+0x1]
     1de:	66 89 16 f0 65       	mov    DWORD PTR ds:0x65f0,edx
     1e3:	67 66 8b 55 f8       	mov    edx,DWORD PTR [ebp-0x8]
     1e8:	67 66 89 54 24 0c    	mov    DWORD PTR [esp+0xc],edx
     1ee:	67 66 89 5c 24 08    	mov    DWORD PTR [esp+0x8],ebx
     1f4:	67 66 89 4c 24 04    	mov    DWORD PTR [esp+0x4],ecx
     1fa:	67 66 89 04 24       	mov    DWORD PTR [esp],eax
     1ff:	66 e8 0c 33 00 00    	call   3511 <_createProcess>
D:\OneDrive\Study\Operating Systems\สตั้\project5\codes/./kernel/os.c:54
					}
				}
			}while(str[0] != '\0');
     205:	67 66 8b 45 f0       	mov    eax,DWORD PTR [ebp-0x10]
     20a:	67 8a 00             	mov    al,BYTE PTR [eax]
     20d:	84 c0                	test   al,al
     20f:	0f 85 c6 fe          	jne    d9 <.debug_abbrev+0x2d>
D:\OneDrive\Study\Operating Systems\สตั้\project5\codes/./kernel/os.c:56

			runSub = 1;
     213:	66 c7 06 20 61 01 00 	mov    DWORD PTR ds:0x6120,0x1
     21a:	00 00 
D:\OneDrive\Study\Operating Systems\สตั้\project5\codes/./kernel/os.c:57
			wakeUp();
     21c:	66 e8 0d 39 00 00    	call   3b2f <_wakeUp>
D:\OneDrive\Study\Operating Systems\สตั้\project5\codes/./kernel/os.c:58
			__asm__("int $0x8\n");
     222:	cd 08                	int    0x8
D:\OneDrive\Study\Operating Systems\สตั้\project5\codes/./kernel/os.c:60
			// runSub = 0;
			clear();
     224:	66 e8 0b 15 00 00    	call   1735 <_clear>
     22a:	e9 79 04             	jmp    6a6 <.debug_info+0x17d>
D:\OneDrive\Study\Operating Systems\สตั้\project5\codes/./kernel/os.c:62
		}
		else if(in[0] == '.' && in[1] == '/')
     22d:	67 66 8b 45 f4       	mov    eax,DWORD PTR [ebp-0xc]
     232:	67 8a 00             	mov    al,BYTE PTR [eax]
     235:	3c 2e                	cmp    al,0x2e
     237:	0f 85 ee 00          	jne    329 <__file_alignment__+0x129>
     23b:	67 66 8b 45 f4       	mov    eax,DWORD PTR [ebp-0xc]
     240:	66 40                	inc    eax
     242:	67 8a 00             	mov    al,BYTE PTR [eax]
     245:	3c 2f                	cmp    al,0x2f
     247:	0f 85 de 00          	jne    329 <__file_alignment__+0x129>
D:\OneDrive\Study\Operating Systems\สตั้\project5\codes/./kernel/os.c:64
		{
			tmp = find(in+2);
     24b:	67 66 8b 45 f4       	mov    eax,DWORD PTR [ebp-0xc]
     250:	66 83 c0 02          	add    eax,0x2
     254:	67 66 89 04 24       	mov    DWORD PTR [esp],eax
     259:	66 e8 1b 1a 00 00    	call   1c7a <_find>
     25f:	67 66 89 45 f8       	mov    DWORD PTR [ebp-0x8],eax
D:\OneDrive\Study\Operating Systems\สตั้\project5\codes/./kernel/os.c:65
			if(tmp != -1 && information[tmp].deleted != 1){
     264:	67 66 83 7d f8 ff    	cmp    DWORD PTR [ebp-0x8],0xffffffff
     26a:	0f 84 31 04          	je     69f <.debug_info+0x176>
     26e:	67 66 8b 55 f8       	mov    edx,DWORD PTR [ebp-0x8]
     273:	66 89 d0             	mov    eax,edx
     276:	66 01 c0             	add    eax,eax
     279:	66 01 d0             	add    eax,edx
     27c:	66 c1 e0 02          	shl    eax,0x2
     280:	66 01 d0             	add    eax,edx
     283:	66 c1 e0 02          	shl    eax,0x2
     287:	66 05 6c 66 00 00    	add    eax,0x666c
     28d:	67 66 8b 00          	mov    eax,DWORD PTR [eax]
     291:	66 83 f8 01          	cmp    eax,0x1
     295:	0f 84 06 04          	je     69f <.debug_info+0x176>
D:\OneDrive\Study\Operating Systems\สตั้\project5\codes/./kernel/os.c:66
				createProcess(ProcessSize++, information[tmp].name, information[tmp].size+1024, tmp);
     299:	67 66 8b 55 f8       	mov    edx,DWORD PTR [ebp-0x8]
     29e:	66 89 d0             	mov    eax,edx
     2a1:	66 01 c0             	add    eax,eax
     2a4:	66 01 d0             	add    eax,edx
     2a7:	66 c1 e0 02          	shl    eax,0x2
     2ab:	66 01 d0             	add    eax,edx
     2ae:	66 c1 e0 02          	shl    eax,0x2
     2b2:	66 05 68 66 00 00    	add    eax,0x6668
     2b8:	67 66 8b 00          	mov    eax,DWORD PTR [eax]
     2bc:	67 66 8d 98 00 04 00 	lea    ebx,[eax+0x400]
     2c3:	00 
     2c4:	67 66 8b 55 f8       	mov    edx,DWORD PTR [ebp-0x8]
     2c9:	66 89 d0             	mov    eax,edx
     2cc:	66 01 c0             	add    eax,eax
     2cf:	66 01 d0             	add    eax,edx
     2d2:	66 c1 e0 02          	shl    eax,0x2
     2d6:	66 01 d0             	add    eax,edx
     2d9:	66 c1 e0 02          	shl    eax,0x2
     2dd:	67 66 8d 88 40 66 00 	lea    ecx,[eax+0x6640]
     2e4:	00 
     2e5:	66 a1 f0 65          	mov    eax,ds:0x65f0
     2e9:	67 66 8d 50 01       	lea    edx,[eax+0x1]
     2ee:	66 89 16 f0 65       	mov    DWORD PTR ds:0x65f0,edx
     2f3:	67 66 8b 55 f8       	mov    edx,DWORD PTR [ebp-0x8]
     2f8:	67 66 89 54 24 0c    	mov    DWORD PTR [esp+0xc],edx
     2fe:	67 66 89 5c 24 08    	mov    DWORD PTR [esp+0x8],ebx
     304:	67 66 89 4c 24 04    	mov    DWORD PTR [esp+0x4],ecx
     30a:	67 66 89 04 24       	mov    DWORD PTR [esp],eax
     30f:	66 e8 fc 31 00 00    	call   3511 <_createProcess>
D:\OneDrive\Study\Operating Systems\สตั้\project5\codes/./kernel/os.c:68
				// dispatch(&(processTable[0]), &(processTable[curProcessId]));
				runSub = 1;
     315:	66 c7 06 20 61 01 00 	mov    DWORD PTR ds:0x6120,0x1
     31c:	00 00 
D:\OneDrive\Study\Operating Systems\สตั้\project5\codes/./kernel/os.c:69
				__asm__("int $0x8\n");
     31e:	cd 08                	int    0x8
D:\OneDrive\Study\Operating Systems\สตั้\project5\codes/./kernel/os.c:71
				// runSub = 0;
				clear();
     320:	66 e8 0f 14 00 00    	call   1735 <_clear>
D:\OneDrive\Study\Operating Systems\สตั้\project5\codes/./kernel/os.c:65
			if(tmp != -1 && information[tmp].deleted != 1){
     326:	e9 76 03             	jmp    69f <.debug_info+0x176>
D:\OneDrive\Study\Operating Systems\สตั้\project5\codes/./kernel/os.c:74
			}
		}
		else if(in[0] == 't' && in[1] == 'y' &&
     329:	67 66 8b 45 f4       	mov    eax,DWORD PTR [ebp-0xc]
     32e:	67 8a 00             	mov    al,BYTE PTR [eax]
     331:	3c 74                	cmp    al,0x74
     333:	0f 85 73 01          	jne    4aa <__file_alignment__+0x2aa>
     337:	67 66 8b 45 f4       	mov    eax,DWORD PTR [ebp-0xc]
     33c:	66 40                	inc    eax
     33e:	67 8a 00             	mov    al,BYTE PTR [eax]
     341:	3c 79                	cmp    al,0x79
     343:	0f 85 63 01          	jne    4aa <__file_alignment__+0x2aa>
D:\OneDrive\Study\Operating Systems\สตั้\project5\codes/./kernel/os.c:75
			in[2] == 'p' &&in[3] == 'e'){
     347:	67 66 8b 45 f4       	mov    eax,DWORD PTR [ebp-0xc]
     34c:	66 83 c0 02          	add    eax,0x2
     350:	67 8a 00             	mov    al,BYTE PTR [eax]
D:\OneDrive\Study\Operating Systems\สตั้\project5\codes/./kernel/os.c:74
		else if(in[0] == 't' && in[1] == 'y' &&
     353:	3c 70                	cmp    al,0x70
     355:	0f 85 51 01          	jne    4aa <__file_alignment__+0x2aa>
D:\OneDrive\Study\Operating Systems\สตั้\project5\codes/./kernel/os.c:75
			in[2] == 'p' &&in[3] == 'e'){
     359:	67 66 8b 45 f4       	mov    eax,DWORD PTR [ebp-0xc]
     35e:	66 83 c0 03          	add    eax,0x3
     362:	67 8a 00             	mov    al,BYTE PTR [eax]
     365:	3c 65                	cmp    al,0x65
     367:	0f 85 3f 01          	jne    4aa <__file_alignment__+0x2aa>
D:\OneDrive\Study\Operating Systems\สตั้\project5\codes/./kernel/os.c:76
			tmp = find(in+5);
     36b:	67 66 8b 45 f4       	mov    eax,DWORD PTR [ebp-0xc]
     370:	66 83 c0 05          	add    eax,0x5
     374:	67 66 89 04 24       	mov    DWORD PTR [esp],eax
     379:	66 e8 fb 18 00 00    	call   1c7a <_find>
     37f:	67 66 89 45 f8       	mov    DWORD PTR [ebp-0x8],eax
D:\OneDrive\Study\Operating Systems\สตั้\project5\codes/./kernel/os.c:77
			if(tmp != -1 && information[tmp].deleted != 1){
     384:	67 66 83 7d f8 ff    	cmp    DWORD PTR [ebp-0x8],0xffffffff
     38a:	0f 84 14 03          	je     6a2 <.debug_info+0x179>
     38e:	67 66 8b 55 f8       	mov    edx,DWORD PTR [ebp-0x8]
     393:	66 89 d0             	mov    eax,edx
     396:	66 01 c0             	add    eax,eax
     399:	66 01 d0             	add    eax,edx
     39c:	66 c1 e0 02          	shl    eax,0x2
     3a0:	66 01 d0             	add    eax,edx
     3a3:	66 c1 e0 02          	shl    eax,0x2
     3a7:	66 05 6c 66 00 00    	add    eax,0x666c
     3ad:	67 66 8b 00          	mov    eax,DWORD PTR [eax]
     3b1:	66 83 f8 01          	cmp    eax,0x1
     3b5:	0f 84 e9 02          	je     6a2 <.debug_info+0x179>
D:\OneDrive\Study\Operating Systems\สตั้\project5\codes/./kernel/os.c:78
				loadReal(information[tmp].lmaddress, information[tmp].size, offsetOfUserPrg, segOfOs);
     3b9:	67 66 8b 55 f8       	mov    edx,DWORD PTR [ebp-0x8]
     3be:	66 89 d0             	mov    eax,edx
     3c1:	66 01 c0             	add    eax,eax
     3c4:	66 01 d0             	add    eax,edx
     3c7:	66 c1 e0 02          	shl    eax,0x2
     3cb:	66 01 d0             	add    eax,edx
     3ce:	66 c1 e0 02          	shl    eax,0x2
     3d2:	66 05 68 66 00 00    	add    eax,0x6668
     3d8:	67 66 8b 08          	mov    ecx,DWORD PTR [eax]
     3dc:	67 66 8b 55 f8       	mov    edx,DWORD PTR [ebp-0x8]
     3e1:	66 89 d0             	mov    eax,edx
     3e4:	66 01 c0             	add    eax,eax
     3e7:	66 01 d0             	add    eax,edx
     3ea:	66 c1 e0 02          	shl    eax,0x2
     3ee:	66 01 d0             	add    eax,edx
     3f1:	66 c1 e0 02          	shl    eax,0x2
     3f5:	66 05 64 66 00 00    	add    eax,0x6664
     3fb:	67 66 8b 00          	mov    eax,DWORD PTR [eax]
     3ff:	67 66 c7 44 24 0c 00 	mov    DWORD PTR [esp+0xc],0x2000
     406:	20 00 00 
     409:	67 66 c7 44 24 08 00 	mov    DWORD PTR [esp+0x8],0xe000
     410:	e0 00 00 
     413:	67 66 89 4c 24 04    	mov    DWORD PTR [esp+0x4],ecx
     419:	67 66 89 04 24       	mov    DWORD PTR [esp],eax
     41e:	66 e8 3a 08 00 00    	call   c5e <_loadReal>
D:\OneDrive\Study\Operating Systems\สตั้\project5\codes/./kernel/os.c:79
				str = getRecords(segOfUser, offsetOfUserPrg);
     424:	67 66 c7 44 24 04 00 	mov    DWORD PTR [esp+0x4],0xe000
     42b:	e0 00 00 
     42e:	67 66 c7 04 24 00 00 	mov    DWORD PTR [esp],0x0
     435:	00 00 
     437:	66 e8 53 11 00 00    	call   1590 <_getRecords>
     43d:	67 66 89 45 f0       	mov    DWORD PTR [ebp-0x10],eax
D:\OneDrive\Study\Operating Systems\สตั้\project5\codes/./kernel/os.c:80
				printSentence(str, line, 0, strlen(str), purple);
     442:	67 66 8b 45 f0       	mov    eax,DWORD PTR [ebp-0x10]
     447:	67 66 89 04 24       	mov    DWORD PTR [esp],eax
     44c:	66 e8 6e 11 00 00    	call   15c0 <_strlen>
     452:	66 89 c2             	mov    edx,eax
     455:	66 a1 00 61          	mov    eax,ds:0x6100
     459:	67 66 c7 44 24 10 0d 	mov    DWORD PTR [esp+0x10],0xd
     460:	00 00 00 
     463:	67 66 89 54 24 0c    	mov    DWORD PTR [esp+0xc],edx
     469:	67 66 c7 44 24 08 00 	mov    DWORD PTR [esp+0x8],0x0
     470:	00 00 00 
     473:	67 66 89 44 24 04    	mov    DWORD PTR [esp+0x4],eax
     479:	67 66 8b 45 f0       	mov    eax,DWORD PTR [ebp-0x10]
     47e:	67 66 89 04 24       	mov    DWORD PTR [esp],eax
     483:	66 e8 2f 06 00 00    	call   ab8 <_printSentence>
D:\OneDrive\Study\Operating Systems\สตั้\project5\codes/./kernel/os.c:81
				line += countLines(str);
     489:	67 66 8b 45 f0       	mov    eax,DWORD PTR [ebp-0x10]
     48e:	67 66 89 04 24       	mov    DWORD PTR [esp],eax
     493:	66 e8 5d 11 00 00    	call   15f6 <_countLines>
     499:	66 89 c2             	mov    edx,eax
     49c:	66 a1 00 61          	mov    eax,ds:0x6100
     4a0:	66 01 d0             	add    eax,edx
     4a3:	66 a3 00 61          	mov    ds:0x6100,eax
D:\OneDrive\Study\Operating Systems\สตั้\project5\codes/./kernel/os.c:77
			if(tmp != -1 && information[tmp].deleted != 1){
     4a7:	e9 f8 01             	jmp    6a2 <.debug_info+0x179>
D:\OneDrive\Study\Operating Systems\สตั้\project5\codes/./kernel/os.c:84
			}
		}
		else if(in[0] == 'r' && in[1] == 'm'){
     4aa:	67 66 8b 45 f4       	mov    eax,DWORD PTR [ebp-0xc]
     4af:	67 8a 00             	mov    al,BYTE PTR [eax]
     4b2:	3c 72                	cmp    al,0x72
     4b4:	0f 85 86 00          	jne    53e <.debug_info+0x15>
     4b8:	67 66 8b 45 f4       	mov    eax,DWORD PTR [ebp-0xc]
     4bd:	66 40                	inc    eax
     4bf:	67 8a 00             	mov    al,BYTE PTR [eax]
     4c2:	3c 6d                	cmp    al,0x6d
     4c4:	75 78                	jne    53e <.debug_info+0x15>
D:\OneDrive\Study\Operating Systems\สตั้\project5\codes/./kernel/os.c:85
			tmp = find(in+3);
     4c6:	67 66 8b 45 f4       	mov    eax,DWORD PTR [ebp-0xc]
     4cb:	66 83 c0 03          	add    eax,0x3
     4cf:	67 66 89 04 24       	mov    DWORD PTR [esp],eax
     4d4:	66 e8 a0 17 00 00    	call   1c7a <_find>
     4da:	67 66 89 45 f8       	mov    DWORD PTR [ebp-0x8],eax
D:\OneDrive\Study\Operating Systems\สตั้\project5\codes/./kernel/os.c:86
			if(tmp != -1 && information[tmp].deleted != 1){
     4df:	67 66 83 7d f8 ff    	cmp    DWORD PTR [ebp-0x8],0xffffffff
     4e5:	0f 84 bc 01          	je     6a5 <.debug_info+0x17c>
     4e9:	67 66 8b 55 f8       	mov    edx,DWORD PTR [ebp-0x8]
     4ee:	66 89 d0             	mov    eax,edx
     4f1:	66 01 c0             	add    eax,eax
     4f4:	66 01 d0             	add    eax,edx
     4f7:	66 c1 e0 02          	shl    eax,0x2
     4fb:	66 01 d0             	add    eax,edx
     4fe:	66 c1 e0 02          	shl    eax,0x2
     502:	66 05 6c 66 00 00    	add    eax,0x666c
     508:	67 66 8b 00          	mov    eax,DWORD PTR [eax]
     50c:	66 83 f8 01          	cmp    eax,0x1
     510:	0f 84 91 01          	je     6a5 <.debug_info+0x17c>
D:\OneDrive\Study\Operating Systems\สตั้\project5\codes/./kernel/os.c:87
				information[tmp].deleted = 1;
     514:	67 66 8b 55 f8       	mov    edx,DWORD PTR [ebp-0x8]
     519:	66 89 d0             	mov    eax,edx
     51c:	66 01 c0             	add    eax,eax
     51f:	66 01 d0             	add    eax,edx
     522:	66 c1 e0 02          	shl    eax,0x2
     526:	66 01 d0             	add    eax,edx
     529:	66 c1 e0 02          	shl    eax,0x2
     52d:	66 05 6c 66 00 00    	add    eax,0x666c
     533:	67 66 c7 00 01 00 00 	mov    DWORD PTR [eax],0x1
     53a:	00 
D:\OneDrive\Study\Operating Systems\สตั้\project5\codes/./kernel/os.c:86
			if(tmp != -1 && information[tmp].deleted != 1){
     53b:	e9 67 01             	jmp    6a5 <.debug_info+0x17c>
D:\OneDrive\Study\Operating Systems\สตั้\project5\codes/./kernel/os.c:90
			}
		}
		else if(in[0] == 'k' && in[1] == 'i' &&
     53e:	67 66 8b 45 f4       	mov    eax,DWORD PTR [ebp-0xc]
     543:	67 8a 00             	mov    al,BYTE PTR [eax]
     546:	3c 6b                	cmp    al,0x6b
     548:	75 50                	jne    59a <.debug_info+0x71>
     54a:	67 66 8b 45 f4       	mov    eax,DWORD PTR [ebp-0xc]
     54f:	66 40                	inc    eax
     551:	67 8a 00             	mov    al,BYTE PTR [eax]
     554:	3c 69                	cmp    al,0x69
     556:	75 42                	jne    59a <.debug_info+0x71>
D:\OneDrive\Study\Operating Systems\สตั้\project5\codes/./kernel/os.c:91
			in[2] == 'l' && in[3] == 'l'){
     558:	67 66 8b 45 f4       	mov    eax,DWORD PTR [ebp-0xc]
     55d:	66 83 c0 02          	add    eax,0x2
     561:	67 8a 00             	mov    al,BYTE PTR [eax]
D:\OneDrive\Study\Operating Systems\สตั้\project5\codes/./kernel/os.c:90
		else if(in[0] == 'k' && in[1] == 'i' &&
     564:	3c 6c                	cmp    al,0x6c
     566:	75 32                	jne    59a <.debug_info+0x71>
D:\OneDrive\Study\Operating Systems\สตั้\project5\codes/./kernel/os.c:91
			in[2] == 'l' && in[3] == 'l'){
     568:	67 66 8b 45 f4       	mov    eax,DWORD PTR [ebp-0xc]
     56d:	66 83 c0 03          	add    eax,0x3
     571:	67 8a 00             	mov    al,BYTE PTR [eax]
     574:	3c 6c                	cmp    al,0x6c
     576:	75 22                	jne    59a <.debug_info+0x71>
D:\OneDrive\Study\Operating Systems\สตั้\project5\codes/./kernel/os.c:92
			kill(in[5]-'0');
     578:	67 66 8b 45 f4       	mov    eax,DWORD PTR [ebp-0xc]
     57d:	66 83 c0 05          	add    eax,0x5
     581:	67 8a 00             	mov    al,BYTE PTR [eax]
     584:	66 0f be c0          	movsx  eax,al
     588:	66 83 e8 30          	sub    eax,0x30
     58c:	67 66 89 04 24       	mov    DWORD PTR [esp],eax
     591:	66 e8 ef 31 00 00    	call   3786 <_kill>
     597:	e9 0c 01             	jmp    6a6 <.debug_info+0x17d>
D:\OneDrive\Study\Operating Systems\สตั้\project5\codes/./kernel/os.c:95
		}
		else {
			if(strcmp(in, "reboot") == 0)
     59a:	67 66 c7 44 24 04 02 	mov    DWORD PTR [esp+0x4],0x4002
     5a1:	40 00 00 
     5a4:	67 66 8b 45 f4       	mov    eax,DWORD PTR [ebp-0xc]
     5a9:	67 66 89 04 24       	mov    DWORD PTR [esp],eax
     5ae:	66 e8 9a 11 00 00    	call   174e <_strcmp>
     5b4:	66 85 c0             	test   eax,eax
     5b7:	75 06                	jne    5bf <.debug_info+0x96>
D:\OneDrive\Study\Operating Systems\สตั้\project5\codes/./kernel/os.c:96
				reboot();
     5b9:	66 e8 cf 07 00 00    	call   d8e <_reboot>
D:\OneDrive\Study\Operating Systems\สตั้\project5\codes/./kernel/os.c:97
			if(strcmp(in, "clear") == 0)
     5bf:	67 66 c7 44 24 04 09 	mov    DWORD PTR [esp+0x4],0x4009
     5c6:	40 00 00 
     5c9:	67 66 8b 45 f4       	mov    eax,DWORD PTR [ebp-0xc]
     5ce:	67 66 89 04 24       	mov    DWORD PTR [esp],eax
     5d3:	66 e8 75 11 00 00    	call   174e <_strcmp>
     5d9:	66 85 c0             	test   eax,eax
     5dc:	75 06                	jne    5e4 <.debug_info+0xbb>
D:\OneDrive\Study\Operating Systems\สตั้\project5\codes/./kernel/os.c:98
				clear();
     5de:	66 e8 51 11 00 00    	call   1735 <_clear>
D:\OneDrive\Study\Operating Systems\สตั้\project5\codes/./kernel/os.c:99
			if(strcmp(in, "date") == 0)
     5e4:	67 66 c7 44 24 04 0f 	mov    DWORD PTR [esp+0x4],0x400f
     5eb:	40 00 00 
     5ee:	67 66 8b 45 f4       	mov    eax,DWORD PTR [ebp-0xc]
     5f3:	67 66 89 04 24       	mov    DWORD PTR [esp],eax
     5f8:	66 e8 50 11 00 00    	call   174e <_strcmp>
     5fe:	66 85 c0             	test   eax,eax
     601:	75 06                	jne    609 <.debug_info+0xe0>
D:\OneDrive\Study\Operating Systems\สตั้\project5\codes/./kernel/os.c:100
				date();
     603:	66 e8 5a 12 00 00    	call   1863 <_date>
D:\OneDrive\Study\Operating Systems\สตั้\project5\codes/./kernel/os.c:101
			if(strcmp(in, "man") == 0)
     609:	67 66 c7 44 24 04 14 	mov    DWORD PTR [esp+0x4],0x4014
     610:	40 00 00 
     613:	67 66 8b 45 f4       	mov    eax,DWORD PTR [ebp-0xc]
     618:	67 66 89 04 24       	mov    DWORD PTR [esp],eax
     61d:	66 e8 2b 11 00 00    	call   174e <_strcmp>
     623:	66 85 c0             	test   eax,eax
     626:	75 06                	jne    62e <.debug_info+0x105>
D:\OneDrive\Study\Operating Systems\สตั้\project5\codes/./kernel/os.c:102
				man();
     628:	66 e8 b9 12 00 00    	call   18e7 <_man>
D:\OneDrive\Study\Operating Systems\สตั้\project5\codes/./kernel/os.c:103
			if(strcmp(in, "ls") == 0)
     62e:	67 66 c7 44 24 04 18 	mov    DWORD PTR [esp+0x4],0x4018
     635:	40 00 00 
     638:	67 66 8b 45 f4       	mov    eax,DWORD PTR [ebp-0xc]
     63d:	67 66 89 04 24       	mov    DWORD PTR [esp],eax
     642:	66 e8 06 11 00 00    	call   174e <_strcmp>
     648:	66 85 c0             	test   eax,eax
     64b:	75 06                	jne    653 <.debug_info+0x12a>
D:\OneDrive\Study\Operating Systems\สตั้\project5\codes/./kernel/os.c:104
				ls();
     64d:	66 e8 02 17 00 00    	call   1d55 <_ls>
D:\OneDrive\Study\Operating Systems\สตั้\project5\codes/./kernel/os.c:105
			if(strcmp(in, "exit") == 0)
     653:	67 66 c7 44 24 04 1b 	mov    DWORD PTR [esp+0x4],0x401b
     65a:	40 00 00 
     65d:	67 66 8b 45 f4       	mov    eax,DWORD PTR [ebp-0xc]
     662:	67 66 89 04 24       	mov    DWORD PTR [esp],eax
     667:	66 e8 e1 10 00 00    	call   174e <_strcmp>
     66d:	66 85 c0             	test   eax,eax
     670:	75 06                	jne    678 <.debug_info+0x14f>
D:\OneDrive\Study\Operating Systems\สตั้\project5\codes/./kernel/os.c:106
				shutdown();
     672:	66 e8 c7 05 00 00    	call   c3f <_shutdown>
D:\OneDrive\Study\Operating Systems\สตั้\project5\codes/./kernel/os.c:107
			if(strcmp(in, "ps") == 0)
     678:	67 66 c7 44 24 04 20 	mov    DWORD PTR [esp+0x4],0x4020
     67f:	40 00 00 
     682:	67 66 8b 45 f4       	mov    eax,DWORD PTR [ebp-0xc]
     687:	67 66 89 04 24       	mov    DWORD PTR [esp],eax
     68c:	66 e8 bc 10 00 00    	call   174e <_strcmp>
     692:	66 85 c0             	test   eax,eax
     695:	75 0f                	jne    6a6 <.debug_info+0x17d>
D:\OneDrive\Study\Operating Systems\สตั้\project5\codes/./kernel/os.c:108
				ps();
     697:	66 e8 94 1e 00 00    	call   2531 <_ps>
     69d:	eb 07                	jmp    6a6 <.debug_info+0x17d>
D:\OneDrive\Study\Operating Systems\สตั้\project5\codes/./kernel/os.c:65
			if(tmp != -1 && information[tmp].deleted != 1){
     69f:	90                   	nop
     6a0:	eb 04                	jmp    6a6 <.debug_info+0x17d>
D:\OneDrive\Study\Operating Systems\สตั้\project5\codes/./kernel/os.c:77
			if(tmp != -1 && information[tmp].deleted != 1){
     6a2:	90                   	nop
     6a3:	eb 01                	jmp    6a6 <.debug_info+0x17d>
D:\OneDrive\Study\Operating Systems\สตั้\project5\codes/./kernel/os.c:86
			if(tmp != -1 && information[tmp].deleted != 1){
     6a5:	90                   	nop
D:\OneDrive\Study\Operating Systems\สตั้\project5\codes/./kernel/os.c:110
		}
		newline();
     6a6:	66 e8 db 12 00 00    	call   1987 <_newline>
D:\OneDrive\Study\Operating Systems\สตั้\project5\codes/./kernel/os.c:41
		in = getInput();
     6ac:	e9 a0 f9             	jmp    4f <delay+0x27>
	...

000006b0 <_test>:
     6b0:	cd 34                	int    0x34
     6b2:	cd 35                	int    0x35
     6b4:	cd 36                	int    0x36
     6b6:	cd 37                	int    0x37
     6b8:	66 59                	pop    ecx
     6ba:	ff e1                	jmp    cx

000006bc <_inisys>:
     6bc:	60                   	pusha  
     6bd:	e8 2b 02             	call   8eb <installInt8h>
     6c0:	e8 c2 01             	call   885 <installInt9h>
     6c3:	e8 73 01             	call   839 <installInt2Bh>
     6c6:	e8 05 00             	call   6ce <installInt21h>
     6c9:	e8 72 03             	call   a3e <installInt34_37h>
     6cc:	61                   	popa   
     6cd:	c3                   	ret    

000006ce <installInt21h>:
     6ce:	50                   	push   ax
     6cf:	06                   	push   es
     6d0:	b8 00 00             	mov    ax,0x0
     6d3:	8e c0                	mov    es,ax
     6d5:	26 c7 06 84 00 e4 06 	mov    WORD PTR es:0x84,0x6e4
     6dc:	26 8c 0e 86 00       	mov    WORD PTR es:0x86,cs
     6e1:	07                   	pop    es
     6e2:	58                   	pop    ax
     6e3:	c3                   	ret    

000006e4 <int21h>:
     6e4:	60                   	pusha  
     6e5:	1e                   	push   ds
     6e6:	0e                   	push   cs
     6e7:	1f                   	pop    ds
     6e8:	bb 00 00             	mov    bx,0x0
     6eb:	50                   	push   ax
     6ec:	88 e0                	mov    al,ah
     6ee:	b3 02                	mov    bl,0x2
     6f0:	f6 e3                	mul    bl
     6f2:	88 c3                	mov    bl,al
     6f4:	58                   	pop    ax
     6f5:	2e ff 97 fd 06       	call   WORD PTR cs:[bx+0x6fd]

000006fa <int21hre>:
     6fa:	1f                   	pop    ds
     6fb:	61                   	popa   
     6fc:	cf                   	iret   

000006fd <int21hTable>:
     6fd:	97                   	xchg   di,ax
     6fe:	07                   	pop    es
     6ff:	a5                   	movs   WORD PTR es:[di],WORD PTR ds:[si]
     700:	07                   	pop    es
     701:	ee                   	out    dx,al
     702:	07                   	pop    es
     703:	c3                   	ret    
     704:	07                   	pop    es
     705:	ce                   	into   
     706:	07                   	pop    es
     707:	22 08                	and    cl,BYTE PTR [bx+si]
	...
     795:	e0 07                	loopne 79e <int21hps+0x7>

00000797 <int21hps>:
     797:	66 50                	push   eax
     799:	66 31 c0             	xor    eax,eax
     79c:	b8 31 25             	mov    ax,0x2531
     79f:	66 ff d0             	call   eax
     7a2:	66 58                	pop    eax
     7a4:	c3                   	ret    

000007a5 <int21hkill>:
     7a5:	66 50                	push   eax
     7a7:	66 53                	push   ebx
     7a9:	66 bb 00 00 00 00    	mov    ebx,0x0
     7af:	88 c3                	mov    bl,al
     7b1:	66 53                	push   ebx
     7b3:	66 31 c0             	xor    eax,eax
     7b6:	b8 86 37             	mov    ax,0x3786
     7b9:	66 ff d0             	call   eax
     7bc:	66 5b                	pop    ebx
     7be:	66 5b                	pop    ebx
     7c0:	66 58                	pop    eax
     7c2:	c3                   	ret    

000007c3 <int21hshowDate>:
     7c3:	fb                   	sti    
     7c4:	66 31 c0             	xor    eax,eax
     7c7:	b8 63 18             	mov    ax,0x1863
     7ca:	66 ff d0             	call   eax
     7cd:	c3                   	ret    

000007ce <int21hClear>:
     7ce:	66 50                	push   eax
     7d0:	66 31 c0             	xor    eax,eax
     7d3:	66 50                	push   eax
     7d5:	b8 53 16             	mov    ax,0x1653
     7d8:	66 ff d0             	call   eax
     7db:	66 58                	pop    eax
     7dd:	66 58                	pop    eax
     7df:	c3                   	ret    

000007e0 <int21hexit>:
     7e0:	66 50                	push   eax
     7e2:	66 31 c0             	xor    eax,eax
     7e5:	b8 3f 0c             	mov    ax,0xc3f
     7e8:	66 ff d0             	call   eax
     7eb:	66 58                	pop    eax
     7ed:	c3                   	ret    

000007ee <int21hPrintString>:
     7ee:	60                   	pusha  
     7ef:	1e                   	push   ds
     7f0:	66 50                	push   eax
     7f2:	8c e8                	mov    ax,gs
     7f4:	8e d8                	mov    ds,ax
     7f6:	66 53                	push   ebx
     7f8:	66 51                	push   ecx
     7fa:	66 b8 00 00 00 00    	mov    eax,0x0
     800:	88 d0                	mov    al,dl
     802:	66 50                	push   eax
     804:	88 f0                	mov    al,dh
     806:	66 50                	push   eax
     808:	66 57                	push   edi
     80a:	66 31 c0             	xor    eax,eax
     80d:	b8 b8 0a             	mov    ax,0xab8
     810:	66 ff d0             	call   eax
     813:	66 5f                	pop    edi
     815:	66 58                	pop    eax
     817:	66 58                	pop    eax
     819:	66 59                	pop    ecx
     81b:	66 5b                	pop    ebx
     81d:	66 58                	pop    eax
     81f:	1f                   	pop    ds
     820:	61                   	popa   
     821:	c3                   	ret    

00000822 <int21hint2str>:
     822:	60                   	pusha  
     823:	1e                   	push   ds
     824:	8c e8                	mov    ax,gs
     826:	8e d8                	mov    ds,ax
     828:	66 57                	push   edi
     82a:	66 53                	push   ebx
     82c:	b8 58 20             	mov    ax,0x2058
     82f:	66 ff d0             	call   eax
     832:	66 5b                	pop    ebx
     834:	66 5f                	pop    edi
     836:	1f                   	pop    ds
     837:	61                   	popa   
     838:	c3                   	ret    

00000839 <installInt2Bh>:
     839:	60                   	pusha  
     83a:	06                   	push   es
     83b:	b8 00 00             	mov    ax,0x0
     83e:	8e c0                	mov    es,ax
     840:	26 c7 06 ac 00 4f 08 	mov    WORD PTR es:0xac,0x84f
     847:	26 8c 0e ae 00       	mov    WORD PTR es:0xae,cs
     84c:	07                   	pop    es
     84d:	61                   	popa   
     84e:	c3                   	ret    

0000084f <int2Bh>:
     84f:	2e 8f 06 81 08       	pop    WORD PTR cs:0x881
     854:	2e 8f 06 83 08       	pop    WORD PTR cs:0x883
     859:	9d                   	popf   
     85a:	2e 8f 06 81 08       	pop    WORD PTR cs:0x881
     85f:	60                   	pusha  
     860:	1e                   	push   ds
     861:	8c c8                	mov    ax,cs
     863:	8e d8                	mov    ds,ax
     865:	66 b8 00 00 00 00    	mov    eax,0x0
     86b:	b8 dc 3a             	mov    ax,0x3adc
     86e:	66 ff d0             	call   eax
     871:	1f                   	pop    ds
     872:	61                   	popa   
     873:	9c                   	pushf  
     874:	2e ff 36 83 08       	push   WORD PTR cs:0x883
     879:	2e ff 36 81 08       	push   WORD PTR cs:0x881
     87e:	e9 a9 00             	jmp    92a <int8h>

00000881 <in2b_store_ip>:
	...

00000883 <in2b_store_cs>:
	...

00000885 <installInt9h>:
     885:	60                   	pusha  
     886:	06                   	push   es
     887:	1e                   	push   ds
     888:	31 c0                	xor    ax,ax
     88a:	8e c0                	mov    es,ax
     88c:	8c c8                	mov    ax,cs
     88e:	8e d8                	mov    ds,ax
     890:	26 a1 26 00          	mov    ax,es:0x26
     894:	2e a3 b4 08          	mov    cs:0x8b4,ax
     898:	26 a1 24 00          	mov    ax,es:0x24
     89c:	2e a3 b2 08          	mov    cs:0x8b2,ax
     8a0:	fa                   	cli    
     8a1:	26 8c 0e 26 00       	mov    WORD PTR es:0x26,cs
     8a6:	26 c7 06 24 00 b6 08 	mov    WORD PTR es:0x24,0x8b6
     8ad:	fb                   	sti    
     8ae:	1f                   	pop    ds
     8af:	07                   	pop    es
     8b0:	61                   	popa   
     8b1:	c3                   	ret    

000008b2 <tmp9>:
     8b2:	00 00                	add    BYTE PTR [bx+si],al
	...

000008b6 <int9h>:
     8b6:	60                   	pusha  
     8b7:	06                   	push   es
     8b8:	1e                   	push   ds
     8b9:	8c c8                	mov    ax,cs
     8bb:	8e d8                	mov    ds,ax
     8bd:	8e c0                	mov    es,ax
     8bf:	9c                   	pushf  
     8c0:	2e ff 1e b2 08       	call   DWORD PTR cs:0x8b2

000008c5 <showInsert>:
     8c5:	b9 09 00             	mov    cx,0x9
     8c8:	bd e2 08             	mov    bp,0x8e2
     8cb:	ba 45 18             	mov    dx,0x1845
     8ce:	b3 0f                	mov    bl,0xf
     8d0:	b7 00                	mov    bh,0x0
     8d2:	b4 13                	mov    ah,0x13
     8d4:	b0 00                	mov    al,0x0
     8d6:	cd 10                	int    0x10
     8d8:	b0 20                	mov    al,0x20
     8da:	e6 20                	out    0x20,al
     8dc:	e6 a0                	out    0xa0,al
     8de:	1f                   	pop    ds
     8df:	07                   	pop    es
     8e0:	61                   	popa   
     8e1:	cf                   	iret   

000008e2 <inserting>:
     8e2:	69 6e 73 65 72       	imul   bp,WORD PTR [bp+0x73],0x7265
     8e7:	74 69                	je     952 <int8h+0x28>
     8e9:	6e                   	outs   dx,BYTE PTR ds:[si]
     8ea:	67                   	addr32

000008eb <installInt8h>:
     8eb:	06                   	push   es
     8ec:	50                   	push   ax
     8ed:	31 c0                	xor    ax,ax
     8ef:	8e c0                	mov    es,ax
     8f1:	26 a1 22 00          	mov    ax,es:0x22
     8f5:	2e a3 28 09          	mov    cs:0x928,ax
     8f9:	26 a1 20 00          	mov    ax,es:0x20
     8fd:	2e a3 26 09          	mov    cs:0x926,ax
     901:	fa                   	cli    
     902:	26 8c 0e 22 00       	mov    WORD PTR es:0x22,cs
     907:	26 c7 06 20 00 2a 09 	mov    WORD PTR es:0x20,0x92a
     90e:	2e c7 06 2b 0a 28 00 	mov    WORD PTR cs:0xa2b,0x28
     915:	fb                   	sti    

00000916 <SetTimer>:
     916:	b0 34                	mov    al,0x34
     918:	e6 43                	out    0x43,al
     91a:	b8 0b e9             	mov    ax,0xe90b
     91d:	e6 40                	out    0x40,al
     91f:	88 e0                	mov    al,ah
     921:	e6 40                	out    0x40,al
     923:	58                   	pop    ax
     924:	07                   	pop    es
     925:	c3                   	ret    

00000926 <tmp8>:
     926:	00 00                	add    BYTE PTR [bx+si],al
	...

0000092a <int8h>:
     92a:	60                   	pusha  
     92b:	1e                   	push   ds
     92c:	06                   	push   es
     92d:	8c c8                	mov    ax,cs
     92f:	8e d8                	mov    ds,ax
     931:	9c                   	pushf  
     932:	ff 1e 26 09          	call   DWORD PTR ds:0x926
     936:	ff 0e 2b 0a          	dec    WORD PTR ds:0xa2b
     93a:	83 3e 2b 0a 00       	cmp    WORD PTR ds:0xa2b,0x0
     93f:	75 73                	jne    9b4 <int8hret>
     941:	c7 06 2b 0a 28 00    	mov    WORD PTR ds:0xa2b,0x28
     947:	b8 00 b8             	mov    ax,0xb800
     94a:	8e c0                	mov    es,ax
     94c:	b4 04                	mov    ah,0x4
     94e:	b7 00                	mov    bh,0x0
     950:	b4 03                	mov    ah,0x3
     952:	cd 10                	int    0x10
     954:	b8 00 00             	mov    ax,0x0
     957:	88 f0                	mov    al,dh
     959:	b3 50                	mov    bl,0x50
     95b:	f6 e3                	mul    bl
     95d:	b6 00                	mov    dh,0x0
     95f:	01 d0                	add    ax,dx
     961:	bb 02 00             	mov    bx,0x2
     964:	f7 e3                	mul    bx
     966:	89 c5                	mov    bp,ax
     968:	bb 2f 0a             	mov    bx,0xa2f
     96b:	03 1e 2d 0a          	add    bx,WORD PTR ds:0xa2d
     96f:	8a 07                	mov    al,BYTE PTR [bx]
     971:	b4 0f                	mov    ah,0xf
     973:	26 89 46 00          	mov    WORD PTR es:[bp+0x0],ax
     977:	b8 20 0f             	mov    ax,0xf20
     97a:	26 89 46 02          	mov    WORD PTR es:[bp+0x2],ax
     97e:	26 89 46 04          	mov    WORD PTR es:[bp+0x4],ax
     982:	26 89 46 06          	mov    WORD PTR es:[bp+0x6],ax
     986:	26 89 46 08          	mov    WORD PTR es:[bp+0x8],ax
     98a:	ff 06 2d 0a          	inc    WORD PTR ds:0xa2d
     98e:	83 3e 2d 0a 04       	cmp    WORD PTR ds:0xa2d,0x4
     993:	7c 06                	jl     99b <insertShow>
     995:	c7 06 2d 0a 00 00    	mov    WORD PTR ds:0xa2d,0x0

0000099b <insertShow>:
     99b:	06                   	push   es
     99c:	8c c8                	mov    ax,cs
     99e:	8e c0                	mov    es,ax
     9a0:	b9 09 00             	mov    cx,0x9
     9a3:	bd 33 0a             	mov    bp,0xa33
     9a6:	ba 45 18             	mov    dx,0x1845
     9a9:	b3 0f                	mov    bl,0xf
     9ab:	b7 00                	mov    bh,0x0
     9ad:	b4 13                	mov    ah,0x13
     9af:	b0 00                	mov    al,0x0
     9b1:	cd 10                	int    0x10
     9b3:	07                   	pop    es

000009b4 <int8hret>:
     9b4:	fa                   	cli    
     9b5:	b0 20                	mov    al,0x20
     9b7:	e6 20                	out    0x20,al
     9b9:	e6 a0                	out    0xa0,al
     9bb:	07                   	pop    es
     9bc:	1f                   	pop    ds
     9bd:	61                   	popa   
     9be:	53                   	push   bx
     9bf:	50                   	push   ax
     9c0:	1e                   	push   ds
     9c1:	8c c8                	mov    ax,cs
     9c3:	8e d8                	mov    ds,ax
     9c5:	2e 8b 1e a0 70       	mov    bx,WORD PTR cs:0x70a0
     9ca:	2e a1 f8 65          	mov    ax,cs:0x65f8
     9ce:	f6 e3                	mul    bl
     9d0:	89 c3                	mov    bx,ax
     9d2:	81 c3 60 6a          	add    bx,0x6a60
     9d6:	2e 89 1e 7a 0d       	mov    WORD PTR cs:0xd7a,bx
     9db:	1f                   	pop    ds
     9dc:	58                   	pop    ax
     9dd:	5b                   	pop    bx
     9de:	50                   	push   ax
     9df:	1e                   	push   ds
     9e0:	0e                   	push   cs
     9e1:	1f                   	pop    ds
     9e2:	60                   	pusha  
     9e3:	66 31 c0             	xor    eax,eax
     9e6:	b8 f2 39             	mov    ax,0x39f2
     9e9:	66 ff d0             	call   eax
     9ec:	61                   	popa   
     9ed:	1f                   	pop    ds
     9ee:	58                   	pop    ax
     9ef:	2e 8f 06 81 08       	pop    WORD PTR cs:0x881
     9f4:	2e 8f 06 83 08       	pop    WORD PTR cs:0x883
     9f9:	9d                   	popf   
     9fa:	2e ff 36 81 08       	push   WORD PTR cs:0x881
     9ff:	2e ff 36 83 08       	push   WORD PTR cs:0x883
     a04:	53                   	push   bx
     a05:	50                   	push   ax
     a06:	1e                   	push   ds
     a07:	8c c8                	mov    ax,cs
     a09:	8e d8                	mov    ds,ax
     a0b:	2e 8b 1e a0 70       	mov    bx,WORD PTR cs:0x70a0
     a10:	2e a1 f8 65          	mov    ax,cs:0x65f8
     a14:	f6 e3                	mul    bl
     a16:	89 c3                	mov    bx,ax
     a18:	81 c3 60 6a          	add    bx,0x6a60
     a1c:	2e 89 1e 78 0d       	mov    WORD PTR cs:0xd78,bx
     a21:	1f                   	pop    ds
     a22:	58                   	pop    ax
     a23:	5b                   	pop    bx
     a24:	e8 91 02             	call   cb8 <save>
     a27:	e8 fd 02             	call   d27 <restart>
     a2a:	cf                   	iret   

00000a2b <count>:
     a2b:	28 00                	sub    BYTE PTR [bx+si],al

00000a2d <k>:
	...

00000a2f <char>:
     a2f:	7c 5c                	jl     a8d <int34h+0xd>
     a31:	2d                   	.byte 0x2d
     a32:	2f                   	das    

00000a33 <inserted>:
     a33:	69 6e 73 65 72       	imul   bp,WORD PTR [bp+0x73],0x7265
     a38:	74 65                	je     a9f <int36h+0x3>
     a3a:	64                   	fs
     a3b:	20                   	.byte 0x20

00000a3c <int8h_store_ss>:
	...

00000a3e <installInt34_37h>:
     a3e:	06                   	push   es
     a3f:	50                   	push   ax
     a40:	b8 00 00             	mov    ax,0x0
     a43:	8e c0                	mov    es,ax
     a45:	fa                   	cli    
     a46:	26 8c 0e d2 00       	mov    WORD PTR es:0xd2,cs
     a4b:	26 c7 06 d0 00 80 0a 	mov    WORD PTR es:0xd0,0xa80
     a52:	fb                   	sti    
     a53:	fa                   	cli    
     a54:	26 8c 0e d6 00       	mov    WORD PTR es:0xd6,cs
     a59:	26 c7 06 d4 00 8e 0a 	mov    WORD PTR es:0xd4,0xa8e
     a60:	fb                   	sti    
     a61:	fa                   	cli    
     a62:	26 8c 0e da 00       	mov    WORD PTR es:0xda,cs
     a67:	26 c7 06 d8 00 9c 0a 	mov    WORD PTR es:0xd8,0xa9c
     a6e:	fb                   	sti    
     a6f:	fa                   	cli    
     a70:	26 8c 0e de 00       	mov    WORD PTR es:0xde,cs
     a75:	26 c7 06 dc 00 aa 0a 	mov    WORD PTR es:0xdc,0xaaa
     a7c:	fb                   	sti    
     a7d:	58                   	pop    ax
     a7e:	07                   	pop    es
     a7f:	c3                   	ret    

00000a80 <int34h>:
     a80:	8c c8                	mov    ax,cs
     a82:	8e d8                	mov    ds,ax
     a84:	66 31 c0             	xor    eax,eax
     a87:	b8 57 38             	mov    ax,0x3857
     a8a:	66 ff d0             	call   eax
     a8d:	cf                   	iret   

00000a8e <int35h>:
     a8e:	8c c8                	mov    ax,cs
     a90:	8e d8                	mov    ds,ax
     a92:	66 31 c0             	xor    eax,eax
     a95:	b8 b2 38             	mov    ax,0x38b2
     a98:	66 ff d0             	call   eax
     a9b:	cf                   	iret   

00000a9c <int36h>:
     a9c:	8c c8                	mov    ax,cs
     a9e:	8e d8                	mov    ds,ax
     aa0:	66 31 c0             	xor    eax,eax
     aa3:	b8 0d 39             	mov    ax,0x390d
     aa6:	66 ff d0             	call   eax
     aa9:	cf                   	iret   

00000aaa <int37h>:
     aaa:	8c c8                	mov    ax,cs
     aac:	8e d8                	mov    ds,ax
     aae:	66 31 c0             	xor    eax,eax
     ab1:	b8 68 39             	mov    ax,0x3968
     ab4:	66 ff d0             	call   eax
     ab7:	cf                   	iret   

00000ab8 <_printSentence>:
     ab8:	66 55                	push   ebp
     aba:	8c c8                	mov    ax,cs
     abc:	8e c0                	mov    es,ax
     abe:	67 8a 5c 24 18       	mov    bl,BYTE PTR [esp+0x18]
     ac3:	67 8b 4c 24 14       	mov    cx,WORD PTR [esp+0x14]
     ac8:	67 8a 54 24 10       	mov    dl,BYTE PTR [esp+0x10]
     acd:	67 8a 74 24 0c       	mov    dh,BYTE PTR [esp+0xc]
     ad2:	67 8b 6c 24 08       	mov    bp,WORD PTR [esp+0x8]
     ad7:	b0 01                	mov    al,0x1
     ad9:	b7 00                	mov    bh,0x0
     adb:	0e                   	push   cs
     adc:	07                   	pop    es
     add:	b4 13                	mov    ah,0x13
     adf:	cd 10                	int    0x10
     ae1:	66 5d                	pop    ebp
     ae3:	66 59                	pop    ecx
     ae5:	ff e1                	jmp    cx

00000ae7 <_ClearScreen>:
     ae7:	60                   	pusha  
     ae8:	b4 06                	mov    ah,0x6
     aea:	b0 00                	mov    al,0x0
     aec:	b7 0f                	mov    bh,0xf
     aee:	b5 00                	mov    ch,0x0
     af0:	b1 00                	mov    cl,0x0
     af2:	b6 18                	mov    dh,0x18
     af4:	b2 4f                	mov    dl,0x4f
     af6:	cd 10                	int    0x10
     af8:	61                   	popa   
     af9:	66 59                	pop    ecx
     afb:	ff e1                	jmp    cx

00000afd <_getInput>:
     afd:	c7 06 37 0c 00 00    	mov    WORD PTR ds:0xc37,0x0

00000b03 <getStr>:
     b03:	b4 00                	mov    ah,0x0
     b05:	cd 16                	int    0x16
     b07:	3c 20                	cmp    al,0x20
     b09:	7c 07                	jl     b12 <nochar>
     b0b:	b4 00                	mov    ah,0x0
     b0d:	e8 26 00             	call   b36 <Charmini>
     b10:	eb f1                	jmp    b03 <getStr>

00000b12 <nochar>:
     b12:	80 fc 0e             	cmp    ah,0xe
     b15:	74 07                	je     b1e <backspace>
     b17:	80 fc 1c             	cmp    ah,0x1c
     b1a:	74 09                	je     b25 <enter>
     b1c:	eb e5                	jmp    b03 <getStr>

00000b1e <backspace>:
     b1e:	b4 01                	mov    ah,0x1
     b20:	e8 13 00             	call   b36 <Charmini>
     b23:	eb de                	jmp    b03 <getStr>

00000b25 <enter>:
     b25:	b0 00                	mov    al,0x0
     b27:	b4 00                	mov    ah,0x0
     b29:	e8 0a 00             	call   b36 <Charmini>
     b2c:	66 29 c0             	sub    eax,eax
     b2f:	b8 d2 0b             	mov    ax,0xbd2
     b32:	66 59                	pop    ecx
     b34:	ff e1                	jmp    cx

00000b36 <Charmini>:
     b36:	53                   	push   bx
     b37:	52                   	push   dx
     b38:	57                   	push   di
     b39:	06                   	push   es
     b3a:	80 fc 01             	cmp    ah,0x1
     b3d:	0f 8f 8c 00          	jg     bcd <Charminiret>
     b41:	88 e3                	mov    bl,ah
     b43:	b7 00                	mov    bh,0x0
     b45:	01 db                	add    bx,bx
     b47:	ff a7 39 0c          	jmp    WORD PTR [bx+0xc39]

00000b4b <charpush>:
     b4b:	80 3e 37 0c 64       	cmp    BYTE PTR ds:0xc37,0x64
     b50:	7d 7b                	jge    bcd <Charminiret>
     b52:	8b 1e 37 0c          	mov    bx,WORD PTR ds:0xc37
     b56:	fe 06 37 0c          	inc    BYTE PTR ds:0xc37
     b5a:	88 87 d2 0b          	mov    BYTE PTR [bx+0xbd2],al
     b5e:	e8 1a 00             	call   b7b <charshow>
     b61:	eb 6a                	jmp    bcd <Charminiret>

00000b63 <charpop>:
     b63:	80 3e 37 0c 00       	cmp    BYTE PTR ds:0xc37,0x0
     b68:	7e 63                	jle    bcd <Charminiret>
     b6a:	fe 0e 37 0c          	dec    BYTE PTR ds:0xc37
     b6e:	8b 1e 37 0c          	mov    bx,WORD PTR ds:0xc37
     b72:	8a 87 d2 0b          	mov    al,BYTE PTR [bx+0xbd2]
     b76:	e8 24 00             	call   b9d <coverLast>
     b79:	eb 52                	jmp    bcd <Charminiret>

00000b7b <charshow>:
     b7b:	66 55                	push   ebp
     b7d:	b7 00                	mov    bh,0x0
     b7f:	b4 03                	mov    ah,0x3
     b81:	cd 10                	int    0x10
     b83:	b0 01                	mov    al,0x1
     b85:	b4 13                	mov    ah,0x13
     b87:	b7 00                	mov    bh,0x0
     b89:	b3 0e                	mov    bl,0xe
     b8b:	b9 01 00             	mov    cx,0x1
     b8e:	0e                   	push   cs
     b8f:	07                   	pop    es
     b90:	bd d2 0b             	mov    bp,0xbd2
     b93:	03 2e 37 0c          	add    bp,WORD PTR ds:0xc37
     b97:	4d                   	dec    bp
     b98:	cd 10                	int    0x10
     b9a:	66 5d                	pop    ebp
     b9c:	c3                   	ret    

00000b9d <coverLast>:
     b9d:	b8 00 b8             	mov    ax,0xb800
     ba0:	8e c0                	mov    es,ax
     ba2:	b4 03                	mov    ah,0x3
     ba4:	cd 10                	int    0x10
     ba6:	80 fa 00             	cmp    dl,0x0
     ba9:	7f 04                	jg     baf <noEndofLine>
     bab:	b2 50                	mov    dl,0x50
     bad:	fe ce                	dec    dh

00000baf <noEndofLine>:
     baf:	fe ca                	dec    dl
     bb1:	b4 02                	mov    ah,0x2
     bb3:	b7 00                	mov    bh,0x0
     bb5:	cd 10                	int    0x10
     bb7:	b8 50 00             	mov    ax,0x50
     bba:	f6 e6                	mul    dh
     bbc:	b6 00                	mov    dh,0x0
     bbe:	01 d0                	add    ax,dx
     bc0:	ba 02 00             	mov    dx,0x2
     bc3:	f7 e2                	mul    dx
     bc5:	89 c3                	mov    bx,ax
     bc7:	26 c7 07 20 0f       	mov    WORD PTR es:[bx],0xf20
     bcc:	c3                   	ret    

00000bcd <Charminiret>:
     bcd:	07                   	pop    es
     bce:	5f                   	pop    di
     bcf:	5a                   	pop    dx
     bd0:	5b                   	pop    bx
     bd1:	c3                   	ret    

00000bd2 <input>:
	...

00000c37 <top>:
	...

00000c39 <getInputTable>:
     c39:	4b                   	dec    bx
     c3a:	0b 63 0b             	or     sp,WORD PTR [bp+di+0xb]
     c3d:	7b 0b                	jnp    c4a <_shutdown+0xb>

00000c3f <_shutdown>:
     c3f:	60                   	pusha  
     c40:	b8 01 53             	mov    ax,0x5301
     c43:	31 db                	xor    bx,bx
     c45:	cd 15                	int    0x15
     c47:	b8 0e 53             	mov    ax,0x530e
     c4a:	b9 02 01             	mov    cx,0x102
     c4d:	cd 15                	int    0x15
     c4f:	b8 07 53             	mov    ax,0x5307
     c52:	b3 01                	mov    bl,0x1
     c54:	b9 03 00             	mov    cx,0x3
     c57:	cd 15                	int    0x15
     c59:	61                   	popa   
     c5a:	66 59                	pop    ecx
     c5c:	ff e1                	jmp    cx

00000c5e <_loadReal>:
     c5e:	66 55                	push   ebp
     c60:	06                   	push   es
     c61:	1e                   	push   ds
     c62:	50                   	push   ax
     c63:	52                   	push   dx
     c64:	51                   	push   cx
     c65:	53                   	push   bx
     c66:	8c c8                	mov    ax,cs
     c68:	8e d8                	mov    ds,ax
     c6a:	67 8b 44 24 20       	mov    ax,WORD PTR [esp+0x20]
     c6f:	8e c0                	mov    es,ax
     c71:	67 8b 44 24 14       	mov    ax,WORD PTR [esp+0x14]
     c76:	ba 00 00             	mov    dx,0x0
     c79:	b9 00 02             	mov    cx,0x200
     c7c:	f7 f1                	div    cx
     c7e:	b9 12 00             	mov    cx,0x12
     c81:	f7 f1                	div    cx
     c83:	88 d1                	mov    cl,dl
     c85:	fe c1                	inc    cl
     c87:	89 c2                	mov    dx,ax
     c89:	d1 e8                	shr    ax,1
     c8b:	88 c5                	mov    ch,al
     c8d:	88 d6                	mov    dh,dl
     c8f:	80 e6 01             	and    dh,0x1
     c92:	b2 00                	mov    dl,0x0
     c94:	51                   	push   cx
     c95:	67 8b 44 24 1a       	mov    ax,WORD PTR [esp+0x1a]
     c9a:	b9 00 02             	mov    cx,0x200
     c9d:	ba 00 00             	mov    dx,0x0
     ca0:	f7 f1                	div    cx
     ca2:	59                   	pop    cx
     ca3:	67 8b 5c 24 1c       	mov    bx,WORD PTR [esp+0x1c]
     ca8:	b4 02                	mov    ah,0x2
     caa:	cd 13                	int    0x13
     cac:	5b                   	pop    bx
     cad:	59                   	pop    cx
     cae:	5a                   	pop    dx
     caf:	58                   	pop    ax
     cb0:	1f                   	pop    ds
     cb1:	07                   	pop    es
     cb2:	66 5d                	pop    ebp
     cb4:	66 59                	pop    ecx
     cb6:	ff e1                	jmp    cx

00000cb8 <save>:
     cb8:	2e 89 26 74 0d       	mov    WORD PTR cs:0xd74,sp
     cbd:	2e 8f 06 8c 0d       	pop    WORD PTR cs:0xd8c
     cc2:	1e                   	push   ds
     cc3:	0e                   	push   cs
     cc4:	1f                   	pop    ds
     cc5:	56                   	push   si
     cc6:	57                   	push   di
     cc7:	2e 8b 3e 7a 0d       	mov    di,WORD PTR cs:0xd7a
     ccc:	2e 8f 06 7e 0d       	pop    WORD PTR cs:0xd7e
     cd1:	2e 8f 06 80 0d       	pop    WORD PTR cs:0xd80
     cd6:	2e 8f 06 82 0d       	pop    WORD PTR cs:0xd82
     cdb:	2e 8f 06 86 0d       	pop    WORD PTR cs:0xd86
     ce0:	2e 8f 06 84 0d       	pop    WORD PTR cs:0xd84
     ce5:	8c 55 20             	mov    WORD PTR [di+0x20],ss
     ce8:	89 65 1e             	mov    WORD PTR [di+0x1e],sp
     ceb:	0e                   	push   cs
     cec:	17                   	pop    ss
     ced:	83 c7 1e             	add    di,0x1e
     cf0:	89 fc                	mov    sp,di
     cf2:	9c                   	pushf  
     cf3:	2e ff 36 86 0d       	push   WORD PTR cs:0xd86
     cf8:	2e ff 36 84 0d       	push   WORD PTR cs:0xd84
     cfd:	60                   	pusha  
     cfe:	5f                   	pop    di
     cff:	5f                   	pop    di
     d00:	2e ff 36 80 0d       	push   WORD PTR cs:0xd80
     d05:	2e ff 36 7e 0d       	push   WORD PTR cs:0xd7e
     d0a:	2e ff 36 82 0d       	push   WORD PTR cs:0xd82
     d0f:	06                   	push   es
     d10:	0f a0                	push   fs
     d12:	0f a8                	push   gs
     d14:	2e a3 76 0d          	mov    cs:0xd76,ax
     d18:	2e a1 74 0d          	mov    ax,cs:0xd74
     d1c:	89 c4                	mov    sp,ax
     d1e:	2e a1 76 0d          	mov    ax,cs:0xd76
     d22:	2e ff 26 8c 0d       	jmp    WORD PTR cs:0xd8c

00000d27 <restart>:
     d27:	0e                   	push   cs
     d28:	17                   	pop    ss
     d29:	2e 8f 06 8c 0d       	pop    WORD PTR cs:0xd8c
     d2e:	2e 8b 26 78 0d       	mov    sp,WORD PTR cs:0xd78
     d33:	89 e0                	mov    ax,sp
     d35:	83 c0 18             	add    ax,0x18
     d38:	2e a3 8a 0d          	mov    cs:0xd8a,ax
     d3c:	0f a9                	pop    gs
     d3e:	0f a1                	pop    fs
     d40:	07                   	pop    es
     d41:	1f                   	pop    ds
     d42:	61                   	popa   
     d43:	2e 8b 26 8a 0d       	mov    sp,WORD PTR cs:0xd8a
     d48:	2e 8f 06 84 0d       	pop    WORD PTR cs:0xd84
     d4d:	2e 8f 06 86 0d       	pop    WORD PTR cs:0xd86
     d52:	9d                   	popf   
     d53:	2e 8f 06 8a 0d       	pop    WORD PTR cs:0xd8a
     d58:	17                   	pop    ss
     d59:	2e a3 7c 0d          	mov    cs:0xd7c,ax
     d5d:	2e a1 8a 0d          	mov    ax,cs:0xd8a
     d61:	89 c4                	mov    sp,ax
     d63:	2e a1 7c 0d          	mov    ax,cs:0xd7c
     d67:	fb                   	sti    
     d68:	9c                   	pushf  
     d69:	2e ff 36 86 0d       	push   WORD PTR cs:0xd86
     d6e:	2e ff 36 84 0d       	push   WORD PTR cs:0xd84
     d73:	cf                   	iret   

00000d74 <store_sp_dispatch>:
	...

00000d76 <store_ax_dispatch>:
	...

00000d78 <new_process>:
	...

00000d7a <old_process>:
	...

00000d7c <store_ax>:
	...

00000d7e <store_di>:
	...

00000d80 <store_si>:
	...

00000d82 <store_ds>:
	...

00000d84 <store_ip>:
	...

00000d86 <store_cs>:
	...

00000d88 <store_ss>:
	...

00000d8a <store_sp>:
	...

00000d8c <store_retaddr>:
	...

00000d8e <_reboot>:
     d8e:	cd 19                	int    0x19

00000d90 <_getDate>:
     d90:	60                   	pusha  
     d91:	b4 04                	mov    ah,0x4
     d93:	cd 1a                	int    0x1a
     d95:	88 cb                	mov    bl,cl
     d97:	88 d8                	mov    al,bl
     d99:	24 f0                	and    al,0xf0
     d9b:	b1 04                	mov    cl,0x4
     d9d:	d2 e8                	shr    al,cl
     d9f:	80 e3 0f             	and    bl,0xf
     da2:	88 dc                	mov    ah,bl
     da4:	05 30 30             	add    ax,0x3030
     da7:	c7 06 f5 0d 32 30    	mov    WORD PTR ds:0xdf5,0x3032
     dad:	a3 f7 0d             	mov    ds:0xdf7,ax
     db0:	88 f3                	mov    bl,dh
     db2:	88 d8                	mov    al,bl
     db4:	24 f0                	and    al,0xf0
     db6:	b1 04                	mov    cl,0x4
     db8:	d2 e8                	shr    al,cl
     dba:	80 e3 0f             	and    bl,0xf
     dbd:	88 dc                	mov    ah,bl
     dbf:	05 30 30             	add    ax,0x3030
     dc2:	a3 f2 0d             	mov    ds:0xdf2,ax
     dc5:	c6 06 f4 0d 2f       	mov    BYTE PTR ds:0xdf4,0x2f
     dca:	88 d3                	mov    bl,dl
     dcc:	88 d8                	mov    al,bl
     dce:	24 f0                	and    al,0xf0
     dd0:	b1 04                	mov    cl,0x4
     dd2:	d2 e8                	shr    al,cl
     dd4:	80 e3 0f             	and    bl,0xf
     dd7:	88 dc                	mov    ah,bl
     dd9:	05 30 30             	add    ax,0x3030
     ddc:	a3 ef 0d             	mov    ds:0xdef,ax
     ddf:	c6 06 f1 0d 2f       	mov    BYTE PTR ds:0xdf1,0x2f
     de4:	61                   	popa   
     de5:	66 31 c0             	xor    eax,eax
     de8:	b8 ef 0d             	mov    ax,0xdef
     deb:	66 59                	pop    ecx
     ded:	ff e1                	jmp    cx

00000def <date>:
	...

00000dfa <_roll>:
     dfa:	66 55                	push   ebp
     dfc:	b4 06                	mov    ah,0x6
     dfe:	b0 01                	mov    al,0x1
     e00:	b7 0f                	mov    bh,0xf
     e02:	b9 00 00             	mov    cx,0x0
     e05:	ba 4f 18             	mov    dx,0x184f
     e08:	cd 10                	int    0x10
     e0a:	66 5d                	pop    ebp
     e0c:	66 59                	pop    ecx
     e0e:	ff e1                	jmp    cx

00000e10 <lastline>:
	...

00001590 <_getRecords>:
    1590:	66 55                	push   ebp
    1592:	8c c8                	mov    ax,cs
    1594:	67 8b 44 24 08       	mov    ax,WORD PTR [esp+0x8]
    1599:	8e c0                	mov    es,ax
    159b:	66 31 db             	xor    ebx,ebx
    159e:	66 67 8b 5c 24 0c    	mov    ebx,DWORD PTR [esp+0xc]
    15a4:	66 31 c0             	xor    eax,eax
    15a7:	66 89 d8             	mov    eax,ebx
    15aa:	66 5d                	pop    ebp
    15ac:	66 59                	pop    ecx
    15ae:	ff e1                	jmp    cx
    15b0:	66 90                	xchg   eax,eax
    15b2:	66 90                	xchg   eax,eax
    15b4:	66 90                	xchg   eax,eax
    15b6:	66 90                	xchg   eax,eax
    15b8:	66 90                	xchg   eax,eax
    15ba:	66 90                	xchg   eax,eax
    15bc:	66 90                	xchg   eax,eax
    15be:	66 90                	xchg   eax,eax

000015c0 <_strlen>:
strlen():
D:\OneDrive\Study\Operating Systems\สตั้\project5\codes/./lib/utilsC.c:25
char * WelcomeSentence = "oh my Wsh\n\rCopyright (C) Xihuai Wang\n\rtype \"man\" to get help\n\r";
char * prompt = ">>";

// รยขรรขรรยทรปยดยฎรยชรร'0'ยฝรกรยฒยกยฃ
int strlen(char * sen)
{
    15c0:	66 55                	push   ebp
    15c2:	66 89 e5             	mov    ebp,esp
    15c5:	66 83 ec 04          	sub    esp,0x4
D:\OneDrive\Study\Operating Systems\สตั้\project5\codes/./lib/utilsC.c:26
	int i = 0;
    15c9:	67 66 c7 45 fc 00 00 	mov    DWORD PTR [ebp-0x4],0x0
    15d0:	00 00 
D:\OneDrive\Study\Operating Systems\สตั้\project5\codes/./lib/utilsC.c:27
	while(sen[i]) { ++i; }
    15d2:	eb 05                	jmp    15d9 <_strlen+0x19>
    15d4:	67 66 ff 45 fc       	inc    DWORD PTR [ebp-0x4]
    15d9:	67 66 8b 55 fc       	mov    edx,DWORD PTR [ebp-0x4]
    15de:	67 66 8b 45 08       	mov    eax,DWORD PTR [ebp+0x8]
    15e3:	66 01 d0             	add    eax,edx
    15e6:	67 8a 00             	mov    al,BYTE PTR [eax]
    15e9:	84 c0                	test   al,al
    15eb:	75 e7                	jne    15d4 <_strlen+0x14>
D:\OneDrive\Study\Operating Systems\สตั้\project5\codes/./lib/utilsC.c:28
	return i;
    15ed:	67 66 8b 45 fc       	mov    eax,DWORD PTR [ebp-0x4]
D:\OneDrive\Study\Operating Systems\สตั้\project5\codes/./lib/utilsC.c:29
}
    15f2:	66 c9                	leave  
    15f4:	66 c3                	ret    

000015f6 <_countLines>:
countLines():
D:\OneDrive\Study\Operating Systems\สตั้\project5\codes/./lib/utilsC.c:32

int countLines(char * sen)
{
    15f6:	66 55                	push   ebp
    15f8:	66 89 e5             	mov    ebp,esp
    15fb:	66 83 ec 08          	sub    esp,0x8
D:\OneDrive\Study\Operating Systems\สตั้\project5\codes/./lib/utilsC.c:33
	int lines = 0;
    15ff:	67 66 c7 45 fc 00 00 	mov    DWORD PTR [ebp-0x4],0x0
    1606:	00 00 
D:\OneDrive\Study\Operating Systems\สตั้\project5\codes/./lib/utilsC.c:34
	for(int i = 0; sen[i]; ++i) {
    1608:	67 66 c7 45 f8 00 00 	mov    DWORD PTR [ebp-0x8],0x0
    160f:	00 00 
    1611:	eb 1e                	jmp    1631 <_countLines+0x3b>
D:\OneDrive\Study\Operating Systems\สตั้\project5\codes/./lib/utilsC.c:35
		if(sen[i] == '\n') {
    1613:	67 66 8b 55 f8       	mov    edx,DWORD PTR [ebp-0x8]
    1618:	67 66 8b 45 08       	mov    eax,DWORD PTR [ebp+0x8]
    161d:	66 01 d0             	add    eax,edx
    1620:	67 8a 00             	mov    al,BYTE PTR [eax]
    1623:	3c 0a                	cmp    al,0xa
    1625:	75 05                	jne    162c <_countLines+0x36>
D:\OneDrive\Study\Operating Systems\สตั้\project5\codes/./lib/utilsC.c:36
			++lines;
    1627:	67 66 ff 45 fc       	inc    DWORD PTR [ebp-0x4]
D:\OneDrive\Study\Operating Systems\สตั้\project5\codes/./lib/utilsC.c:34
	for(int i = 0; sen[i]; ++i) {
    162c:	67 66 ff 45 f8       	inc    DWORD PTR [ebp-0x8]
    1631:	67 66 8b 55 f8       	mov    edx,DWORD PTR [ebp-0x8]
    1636:	67 66 8b 45 08       	mov    eax,DWORD PTR [ebp+0x8]
    163b:	66 01 d0             	add    eax,edx
    163e:	67 8a 00             	mov    al,BYTE PTR [eax]
    1641:	84 c0                	test   al,al
    1643:	75 ce                	jne    1613 <_countLines+0x1d>
D:\OneDrive\Study\Operating Systems\สตั้\project5\codes/./lib/utilsC.c:39
		}
	}
	lines += 1;
    1645:	67 66 ff 45 fc       	inc    DWORD PTR [ebp-0x4]
D:\OneDrive\Study\Operating Systems\สตั้\project5\codes/./lib/utilsC.c:40
	return lines;
    164a:	67 66 8b 45 fc       	mov    eax,DWORD PTR [ebp-0x4]
D:\OneDrive\Study\Operating Systems\สตั้\project5\codes/./lib/utilsC.c:41
}
    164f:	66 c9                	leave  
    1651:	66 c3                	ret    

00001653 <_initialScreen>:
initialScreen():
D:\OneDrive\Study\Operating Systems\สตั้\project5\codes/./lib/utilsC.c:44

void initialScreen(int welcome)
{
    1653:	66 55                	push   ebp
    1655:	66 89 e5             	mov    ebp,esp
    1658:	66 83 ec 14          	sub    esp,0x14
D:\OneDrive\Study\Operating Systems\สตั้\project5\codes/./lib/utilsC.c:45
	clear();
    165c:	66 e8 d3 00 00 00    	call   1735 <_clear>
D:\OneDrive\Study\Operating Systems\สตั้\project5\codes/./lib/utilsC.c:46
	if(welcome) {
    1662:	67 66 83 7d 08 00    	cmp    DWORD PTR [ebp+0x8],0x0
    1668:	74 63                	je     16cd <_initialScreen+0x7a>
D:\OneDrive\Study\Operating Systems\สตั้\project5\codes/./lib/utilsC.c:47
		printSentence(WelcomeSentence, line, 0, strlen(WelcomeSentence), white);
    166a:	66 a1 9c 3b          	mov    eax,ds:0x3b9c
    166e:	67 66 89 04 24       	mov    DWORD PTR [esp],eax
    1673:	66 e8 47 ff ff ff    	call   15c0 <_strlen>
    1679:	66 89 c1             	mov    ecx,eax
    167c:	66 8b 16 00 61       	mov    edx,DWORD PTR ds:0x6100
    1681:	66 a1 9c 3b          	mov    eax,ds:0x3b9c
    1685:	67 66 c7 44 24 10 0f 	mov    DWORD PTR [esp+0x10],0xf
    168c:	00 00 00 
    168f:	67 66 89 4c 24 0c    	mov    DWORD PTR [esp+0xc],ecx
    1695:	67 66 c7 44 24 08 00 	mov    DWORD PTR [esp+0x8],0x0
    169c:	00 00 00 
    169f:	67 66 89 54 24 04    	mov    DWORD PTR [esp+0x4],edx
    16a5:	67 66 89 04 24       	mov    DWORD PTR [esp],eax
    16aa:	66 e8 08 f4 ff ff    	call   ab8 <_printSentence>
D:\OneDrive\Study\Operating Systems\สตั้\project5\codes/./lib/utilsC.c:48
		line += countLines(WelcomeSentence);
    16b0:	66 a1 9c 3b          	mov    eax,ds:0x3b9c
    16b4:	67 66 89 04 24       	mov    DWORD PTR [esp],eax
    16b9:	66 e8 37 ff ff ff    	call   15f6 <_countLines>
    16bf:	66 89 c2             	mov    edx,eax
    16c2:	66 a1 00 61          	mov    eax,ds:0x6100
    16c6:	66 01 d0             	add    eax,edx
    16c9:	66 a3 00 61          	mov    ds:0x6100,eax
D:\OneDrive\Study\Operating Systems\สตั้\project5\codes/./lib/utilsC.c:50
	}
	printSentence(prompt, line, 0, strlen(prompt), white);
    16cd:	66 a1 a0 3b          	mov    eax,ds:0x3ba0
    16d1:	67 66 89 04 24       	mov    DWORD PTR [esp],eax
    16d6:	66 e8 e4 fe ff ff    	call   15c0 <_strlen>
    16dc:	66 89 c1             	mov    ecx,eax
    16df:	66 8b 16 00 61       	mov    edx,DWORD PTR ds:0x6100
    16e4:	66 a1 a0 3b          	mov    eax,ds:0x3ba0
    16e8:	67 66 c7 44 24 10 0f 	mov    DWORD PTR [esp+0x10],0xf
    16ef:	00 00 00 
    16f2:	67 66 89 4c 24 0c    	mov    DWORD PTR [esp+0xc],ecx
    16f8:	67 66 c7 44 24 08 00 	mov    DWORD PTR [esp+0x8],0x0
    16ff:	00 00 00 
    1702:	67 66 89 54 24 04    	mov    DWORD PTR [esp+0x4],edx
    1708:	67 66 89 04 24       	mov    DWORD PTR [esp],eax
    170d:	66 e8 a5 f3 ff ff    	call   ab8 <_printSentence>
D:\OneDrive\Study\Operating Systems\สตั้\project5\codes/./lib/utilsC.c:51
	line += countLines(prompt);
    1713:	66 a1 a0 3b          	mov    eax,ds:0x3ba0
    1717:	67 66 89 04 24       	mov    DWORD PTR [esp],eax
    171c:	66 e8 d4 fe ff ff    	call   15f6 <_countLines>
    1722:	66 89 c2             	mov    edx,eax
    1725:	66 a1 00 61          	mov    eax,ds:0x6100
    1729:	66 01 d0             	add    eax,edx
    172c:	66 a3 00 61          	mov    ds:0x6100,eax
D:\OneDrive\Study\Operating Systems\สตั้\project5\codes/./lib/utilsC.c:52
}
    1730:	90                   	nop
    1731:	66 c9                	leave  
    1733:	66 c3                	ret    

00001735 <_clear>:
clear():
D:\OneDrive\Study\Operating Systems\สตั้\project5\codes/./lib/utilsC.c:55

void clear()
{
    1735:	66 55                	push   ebp
    1737:	66 89 e5             	mov    ebp,esp
D:\OneDrive\Study\Operating Systems\สตั้\project5\codes/./lib/utilsC.c:56
	line = 0;
    173a:	66 c7 06 00 61 00 00 	mov    DWORD PTR ds:0x6100,0x0
    1741:	00 00 
D:\OneDrive\Study\Operating Systems\สตั้\project5\codes/./lib/utilsC.c:57
	ClearScreen();
    1743:	66 e8 9e f3 ff ff    	call   ae7 <_ClearScreen>
D:\OneDrive\Study\Operating Systems\สตั้\project5\codes/./lib/utilsC.c:58
}
    1749:	90                   	nop
    174a:	66 5d                	pop    ebp
    174c:	66 c3                	ret    

0000174e <_strcmp>:
strcmp():
D:\OneDrive\Study\Operating Systems\สตั้\project5\codes/./lib/utilsC.c:61

int strcmp(char * l, char * r)
{
    174e:	66 55                	push   ebp
    1750:	66 89 e5             	mov    ebp,esp
    1753:	66 83 ec 08          	sub    esp,0x8
D:\OneDrive\Study\Operating Systems\สตั้\project5\codes/./lib/utilsC.c:62
	int i=0, j=0;
    1757:	67 66 c7 45 fc 00 00 	mov    DWORD PTR [ebp-0x4],0x0
    175e:	00 00 
    1760:	67 66 c7 45 f8 00 00 	mov    DWORD PTR [ebp-0x8],0x0
    1767:	00 00 
D:\OneDrive\Study\Operating Systems\สตั้\project5\codes/./lib/utilsC.c:63
	for(; l[i] && r[i]; ++i, ++j)
    1769:	eb 64                	jmp    17cf <_strcmp+0x81>
D:\OneDrive\Study\Operating Systems\สตั้\project5\codes/./lib/utilsC.c:65
	{
		if(l[i] < r[j]) {
    176b:	67 66 8b 55 fc       	mov    edx,DWORD PTR [ebp-0x4]
    1770:	67 66 8b 45 08       	mov    eax,DWORD PTR [ebp+0x8]
    1775:	66 01 d0             	add    eax,edx
    1778:	67 8a 10             	mov    dl,BYTE PTR [eax]
    177b:	67 66 8b 4d f8       	mov    ecx,DWORD PTR [ebp-0x8]
    1780:	67 66 8b 45 0c       	mov    eax,DWORD PTR [ebp+0xc]
    1785:	66 01 c8             	add    eax,ecx
    1788:	67 8a 00             	mov    al,BYTE PTR [eax]
    178b:	38 c2                	cmp    dl,al
    178d:	7d 09                	jge    1798 <_strcmp+0x4a>
D:\OneDrive\Study\Operating Systems\สตั้\project5\codes/./lib/utilsC.c:66
			return -1;
    178f:	66 b8 ff ff ff ff    	mov    eax,0xffffffff
    1795:	e9 c7 00             	jmp    185f <_strcmp+0x111>
D:\OneDrive\Study\Operating Systems\สตั้\project5\codes/./lib/utilsC.c:67
		} else if(l[i] > r[j]) {
    1798:	67 66 8b 55 fc       	mov    edx,DWORD PTR [ebp-0x4]
    179d:	67 66 8b 45 08       	mov    eax,DWORD PTR [ebp+0x8]
    17a2:	66 01 d0             	add    eax,edx
    17a5:	67 8a 10             	mov    dl,BYTE PTR [eax]
    17a8:	67 66 8b 4d f8       	mov    ecx,DWORD PTR [ebp-0x8]
    17ad:	67 66 8b 45 0c       	mov    eax,DWORD PTR [ebp+0xc]
    17b2:	66 01 c8             	add    eax,ecx
    17b5:	67 8a 00             	mov    al,BYTE PTR [eax]
    17b8:	38 c2                	cmp    dl,al
    17ba:	7e 09                	jle    17c5 <_strcmp+0x77>
D:\OneDrive\Study\Operating Systems\สตั้\project5\codes/./lib/utilsC.c:68
			return 1;
    17bc:	66 b8 01 00 00 00    	mov    eax,0x1
    17c2:	e9 9a 00             	jmp    185f <_strcmp+0x111>
D:\OneDrive\Study\Operating Systems\สตั้\project5\codes/./lib/utilsC.c:63
	for(; l[i] && r[i]; ++i, ++j)
    17c5:	67 66 ff 45 fc       	inc    DWORD PTR [ebp-0x4]
    17ca:	67 66 ff 45 f8       	inc    DWORD PTR [ebp-0x8]
    17cf:	67 66 8b 55 fc       	mov    edx,DWORD PTR [ebp-0x4]
    17d4:	67 66 8b 45 08       	mov    eax,DWORD PTR [ebp+0x8]
    17d9:	66 01 d0             	add    eax,edx
    17dc:	67 8a 00             	mov    al,BYTE PTR [eax]
    17df:	84 c0                	test   al,al
    17e1:	74 16                	je     17f9 <_strcmp+0xab>
    17e3:	67 66 8b 55 fc       	mov    edx,DWORD PTR [ebp-0x4]
    17e8:	67 66 8b 45 0c       	mov    eax,DWORD PTR [ebp+0xc]
    17ed:	66 01 d0             	add    eax,edx
    17f0:	67 8a 00             	mov    al,BYTE PTR [eax]
    17f3:	84 c0                	test   al,al
    17f5:	0f 85 72 ff          	jne    176b <_strcmp+0x1d>
D:\OneDrive\Study\Operating Systems\สตั้\project5\codes/./lib/utilsC.c:71
		} 
	}
	if(!l[i] && r[j]) {
    17f9:	67 66 8b 55 fc       	mov    edx,DWORD PTR [ebp-0x4]
    17fe:	67 66 8b 45 08       	mov    eax,DWORD PTR [ebp+0x8]
    1803:	66 01 d0             	add    eax,edx
    1806:	67 8a 00             	mov    al,BYTE PTR [eax]
    1809:	84 c0                	test   al,al
    180b:	75 1c                	jne    1829 <_strcmp+0xdb>
    180d:	67 66 8b 55 f8       	mov    edx,DWORD PTR [ebp-0x8]
    1812:	67 66 8b 45 0c       	mov    eax,DWORD PTR [ebp+0xc]
    1817:	66 01 d0             	add    eax,edx
    181a:	67 8a 00             	mov    al,BYTE PTR [eax]
    181d:	84 c0                	test   al,al
    181f:	74 08                	je     1829 <_strcmp+0xdb>
D:\OneDrive\Study\Operating Systems\สตั้\project5\codes/./lib/utilsC.c:72
		return -1;
    1821:	66 b8 ff ff ff ff    	mov    eax,0xffffffff
    1827:	eb 36                	jmp    185f <_strcmp+0x111>
D:\OneDrive\Study\Operating Systems\สตั้\project5\codes/./lib/utilsC.c:73
	} else if(l[i] && !r[j]) {
    1829:	67 66 8b 55 fc       	mov    edx,DWORD PTR [ebp-0x4]
    182e:	67 66 8b 45 08       	mov    eax,DWORD PTR [ebp+0x8]
    1833:	66 01 d0             	add    eax,edx
    1836:	67 8a 00             	mov    al,BYTE PTR [eax]
    1839:	84 c0                	test   al,al
    183b:	74 1c                	je     1859 <_strcmp+0x10b>
    183d:	67 66 8b 55 f8       	mov    edx,DWORD PTR [ebp-0x8]
    1842:	67 66 8b 45 0c       	mov    eax,DWORD PTR [ebp+0xc]
    1847:	66 01 d0             	add    eax,edx
    184a:	67 8a 00             	mov    al,BYTE PTR [eax]
    184d:	84 c0                	test   al,al
    184f:	75 08                	jne    1859 <_strcmp+0x10b>
D:\OneDrive\Study\Operating Systems\สตั้\project5\codes/./lib/utilsC.c:74
		return 1;
    1851:	66 b8 01 00 00 00    	mov    eax,0x1
    1857:	eb 06                	jmp    185f <_strcmp+0x111>
D:\OneDrive\Study\Operating Systems\สตั้\project5\codes/./lib/utilsC.c:76
	} else {
		return 0;
    1859:	66 b8 00 00 00 00    	mov    eax,0x0
D:\OneDrive\Study\Operating Systems\สตั้\project5\codes/./lib/utilsC.c:78
	}
}
    185f:	66 c9                	leave  
    1861:	66 c3                	ret    

00001863 <_date>:
date():
D:\OneDrive\Study\Operating Systems\สตั้\project5\codes/./lib/utilsC.c:81

void date()
{
    1863:	66 55                	push   ebp
    1865:	66 89 e5             	mov    ebp,esp
    1868:	66 83 ec 18          	sub    esp,0x18
D:\OneDrive\Study\Operating Systems\สตั้\project5\codes/./lib/utilsC.c:82
	char * dateSen = getDate();
    186c:	66 e8 1e f5 ff ff    	call   d90 <_getDate>
    1872:	67 66 89 45 fc       	mov    DWORD PTR [ebp-0x4],eax
D:\OneDrive\Study\Operating Systems\สตั้\project5\codes/./lib/utilsC.c:83
	printSentence(dateSen, line, 30, strlen(dateSen), purple);
    1877:	67 66 8b 45 fc       	mov    eax,DWORD PTR [ebp-0x4]
    187c:	67 66 89 04 24       	mov    DWORD PTR [esp],eax
    1881:	66 e8 39 fd ff ff    	call   15c0 <_strlen>
    1887:	66 89 c2             	mov    edx,eax
    188a:	66 a1 00 61          	mov    eax,ds:0x6100
    188e:	67 66 c7 44 24 10 0d 	mov    DWORD PTR [esp+0x10],0xd
    1895:	00 00 00 
    1898:	67 66 89 54 24 0c    	mov    DWORD PTR [esp+0xc],edx
    189e:	67 66 c7 44 24 08 1e 	mov    DWORD PTR [esp+0x8],0x1e
    18a5:	00 00 00 
    18a8:	67 66 89 44 24 04    	mov    DWORD PTR [esp+0x4],eax
    18ae:	67 66 8b 45 fc       	mov    eax,DWORD PTR [ebp-0x4]
    18b3:	67 66 89 04 24       	mov    DWORD PTR [esp],eax
    18b8:	66 e8 fa f1 ff ff    	call   ab8 <_printSentence>
D:\OneDrive\Study\Operating Systems\สตั้\project5\codes/./lib/utilsC.c:84
	newline();
    18be:	66 e8 c3 00 00 00    	call   1987 <_newline>
D:\OneDrive\Study\Operating Systems\สตั้\project5\codes/./lib/utilsC.c:85
	line += countLines(dateSen);
    18c4:	67 66 8b 45 fc       	mov    eax,DWORD PTR [ebp-0x4]
    18c9:	67 66 89 04 24       	mov    DWORD PTR [esp],eax
    18ce:	66 e8 22 fd ff ff    	call   15f6 <_countLines>
    18d4:	66 89 c2             	mov    edx,eax
    18d7:	66 a1 00 61          	mov    eax,ds:0x6100
    18db:	66 01 d0             	add    eax,edx
    18de:	66 a3 00 61          	mov    ds:0x6100,eax
D:\OneDrive\Study\Operating Systems\สตั้\project5\codes/./lib/utilsC.c:86
}
    18e2:	90                   	nop
    18e3:	66 c9                	leave  
    18e5:	66 c3                	ret    

000018e7 <_man>:
man():
D:\OneDrive\Study\Operating Systems\สตั้\project5\codes/./lib/utilsC.c:90


void man()
{
    18e7:	66 55                	push   ebp
    18e9:	66 89 e5             	mov    ebp,esp
    18ec:	66 83 ec 18          	sub    esp,0x18
D:\OneDrive\Study\Operating Systems\สตั้\project5\codes/./lib/utilsC.c:91
	char * manual = getRecords(segOfOs, offsetOfManual);
    18f0:	67 66 c7 44 24 04 00 	mov    DWORD PTR [esp+0x4],0xd500
    18f7:	d5 00 00 
    18fa:	67 66 c7 04 24 00 20 	mov    DWORD PTR [esp],0x2000
    1901:	00 00 
    1903:	66 e8 87 fc ff ff    	call   1590 <_getRecords>
    1909:	67 66 89 45 fc       	mov    DWORD PTR [ebp-0x4],eax
D:\OneDrive\Study\Operating Systems\สตั้\project5\codes/./lib/utilsC.c:92
	line = 0;
    190e:	66 c7 06 00 61 00 00 	mov    DWORD PTR ds:0x6100,0x0
    1915:	00 00 
D:\OneDrive\Study\Operating Systems\สตั้\project5\codes/./lib/utilsC.c:93
	ClearScreen();
    1917:	66 e8 ca f1 ff ff    	call   ae7 <_ClearScreen>
D:\OneDrive\Study\Operating Systems\สตั้\project5\codes/./lib/utilsC.c:94
	printSentence(manual, line, 0, strlen(manual), purple);
    191d:	67 66 8b 45 fc       	mov    eax,DWORD PTR [ebp-0x4]
    1922:	67 66 89 04 24       	mov    DWORD PTR [esp],eax
    1927:	66 e8 93 fc ff ff    	call   15c0 <_strlen>
    192d:	66 89 c2             	mov    edx,eax
    1930:	66 a1 00 61          	mov    eax,ds:0x6100
    1934:	67 66 c7 44 24 10 0d 	mov    DWORD PTR [esp+0x10],0xd
    193b:	00 00 00 
    193e:	67 66 89 54 24 0c    	mov    DWORD PTR [esp+0xc],edx
    1944:	67 66 c7 44 24 08 00 	mov    DWORD PTR [esp+0x8],0x0
    194b:	00 00 00 
    194e:	67 66 89 44 24 04    	mov    DWORD PTR [esp+0x4],eax
    1954:	67 66 8b 45 fc       	mov    eax,DWORD PTR [ebp-0x4]
    1959:	67 66 89 04 24       	mov    DWORD PTR [esp],eax
    195e:	66 e8 54 f1 ff ff    	call   ab8 <_printSentence>
D:\OneDrive\Study\Operating Systems\สตั้\project5\codes/./lib/utilsC.c:95
	line += countLines(manual);
    1964:	67 66 8b 45 fc       	mov    eax,DWORD PTR [ebp-0x4]
    1969:	67 66 89 04 24       	mov    DWORD PTR [esp],eax
    196e:	66 e8 82 fc ff ff    	call   15f6 <_countLines>
    1974:	66 89 c2             	mov    edx,eax
    1977:	66 a1 00 61          	mov    eax,ds:0x6100
    197b:	66 01 d0             	add    eax,edx
    197e:	66 a3 00 61          	mov    ds:0x6100,eax
D:\OneDrive\Study\Operating Systems\สตั้\project5\codes/./lib/utilsC.c:96
}
    1982:	90                   	nop
    1983:	66 c9                	leave  
    1985:	66 c3                	ret    

00001987 <_newline>:
newline():
D:\OneDrive\Study\Operating Systems\สตั้\project5\codes/./lib/utilsC.c:99

void newline()
{
    1987:	66 55                	push   ebp
    1989:	66 89 e5             	mov    ebp,esp
    198c:	66 83 ec 14          	sub    esp,0x14
D:\OneDrive\Study\Operating Systems\สตั้\project5\codes/./lib/utilsC.c:100
	if(line >= 25) {
    1990:	66 a1 00 61          	mov    eax,ds:0x6100
    1994:	66 83 f8 18          	cmp    eax,0x18
    1998:	7e 0f                	jle    19a9 <_newline+0x22>
D:\OneDrive\Study\Operating Systems\สตั้\project5\codes/./lib/utilsC.c:101
		roll();
    199a:	66 e8 5a f4 ff ff    	call   dfa <_roll>
D:\OneDrive\Study\Operating Systems\สตั้\project5\codes/./lib/utilsC.c:102
		line = 24;
    19a0:	66 c7 06 00 61 18 00 	mov    DWORD PTR ds:0x6100,0x18
    19a7:	00 00 
D:\OneDrive\Study\Operating Systems\สตั้\project5\codes/./lib/utilsC.c:104
	}
	printSentence(prompt, line, 0, strlen(prompt), white);
    19a9:	66 a1 a0 3b          	mov    eax,ds:0x3ba0
    19ad:	67 66 89 04 24       	mov    DWORD PTR [esp],eax
    19b2:	66 e8 08 fc ff ff    	call   15c0 <_strlen>
    19b8:	66 89 c1             	mov    ecx,eax
    19bb:	66 8b 16 00 61       	mov    edx,DWORD PTR ds:0x6100
    19c0:	66 a1 a0 3b          	mov    eax,ds:0x3ba0
    19c4:	67 66 c7 44 24 10 0f 	mov    DWORD PTR [esp+0x10],0xf
    19cb:	00 00 00 
    19ce:	67 66 89 4c 24 0c    	mov    DWORD PTR [esp+0xc],ecx
    19d4:	67 66 c7 44 24 08 00 	mov    DWORD PTR [esp+0x8],0x0
    19db:	00 00 00 
    19de:	67 66 89 54 24 04    	mov    DWORD PTR [esp+0x4],edx
    19e4:	67 66 89 04 24       	mov    DWORD PTR [esp],eax
    19e9:	66 e8 c9 f0 ff ff    	call   ab8 <_printSentence>
D:\OneDrive\Study\Operating Systems\สตั้\project5\codes/./lib/utilsC.c:105
	line += countLines(prompt);
    19ef:	66 a1 a0 3b          	mov    eax,ds:0x3ba0
    19f3:	67 66 89 04 24       	mov    DWORD PTR [esp],eax
    19f8:	66 e8 f8 fb ff ff    	call   15f6 <_countLines>
    19fe:	66 89 c2             	mov    edx,eax
    1a01:	66 a1 00 61          	mov    eax,ds:0x6100
    1a05:	66 01 d0             	add    eax,edx
    1a08:	66 a3 00 61          	mov    ds:0x6100,eax
D:\OneDrive\Study\Operating Systems\สตั้\project5\codes/./lib/utilsC.c:106
}
    1a0c:	90                   	nop
    1a0d:	66 c9                	leave  
    1a0f:	66 c3                	ret    

00001a11 <_strncpy>:
strncpy():
D:\OneDrive\Study\Operating Systems\สตั้\project5\codes/./lib/utilsC.c:111



void strncpy(char * sour, char * des, int len)
{
    1a11:	66 55                	push   ebp
    1a13:	66 89 e5             	mov    ebp,esp
    1a16:	66 83 ec 04          	sub    esp,0x4
D:\OneDrive\Study\Operating Systems\สตั้\project5\codes/./lib/utilsC.c:112
	int i = 0;
    1a1a:	67 66 c7 45 fc 00 00 	mov    DWORD PTR [ebp-0x4],0x0
    1a21:	00 00 
D:\OneDrive\Study\Operating Systems\สตั้\project5\codes/./lib/utilsC.c:113
	while(sour[i] && i < len){
    1a23:	eb 25                	jmp    1a4a <_strncpy+0x39>
D:\OneDrive\Study\Operating Systems\สตั้\project5\codes/./lib/utilsC.c:114
		des[i] = sour[i];
    1a25:	67 66 8b 55 fc       	mov    edx,DWORD PTR [ebp-0x4]
    1a2a:	67 66 8b 45 0c       	mov    eax,DWORD PTR [ebp+0xc]
    1a2f:	66 01 c2             	add    edx,eax
    1a32:	67 66 8b 4d fc       	mov    ecx,DWORD PTR [ebp-0x4]
    1a37:	67 66 8b 45 08       	mov    eax,DWORD PTR [ebp+0x8]
    1a3c:	66 01 c8             	add    eax,ecx
    1a3f:	67 8a 00             	mov    al,BYTE PTR [eax]
    1a42:	67 88 02             	mov    BYTE PTR [edx],al
D:\OneDrive\Study\Operating Systems\สตั้\project5\codes/./lib/utilsC.c:115
		++i;
    1a45:	67 66 ff 45 fc       	inc    DWORD PTR [ebp-0x4]
D:\OneDrive\Study\Operating Systems\สตั้\project5\codes/./lib/utilsC.c:113
	while(sour[i] && i < len){
    1a4a:	67 66 8b 55 fc       	mov    edx,DWORD PTR [ebp-0x4]
    1a4f:	67 66 8b 45 08       	mov    eax,DWORD PTR [ebp+0x8]
    1a54:	66 01 d0             	add    eax,edx
    1a57:	67 8a 00             	mov    al,BYTE PTR [eax]
    1a5a:	84 c0                	test   al,al
    1a5c:	74 0c                	je     1a6a <_strncpy+0x59>
    1a5e:	67 66 8b 45 fc       	mov    eax,DWORD PTR [ebp-0x4]
    1a63:	67 66 3b 45 10       	cmp    eax,DWORD PTR [ebp+0x10]
    1a68:	7c bb                	jl     1a25 <_strncpy+0x14>
D:\OneDrive\Study\Operating Systems\สตั้\project5\codes/./lib/utilsC.c:117
	}
	des[i] = '\0';
    1a6a:	67 66 8b 55 fc       	mov    edx,DWORD PTR [ebp-0x4]
    1a6f:	67 66 8b 45 0c       	mov    eax,DWORD PTR [ebp+0xc]
    1a74:	66 01 d0             	add    eax,edx
    1a77:	67 c6 00 00          	mov    BYTE PTR [eax],0x0
D:\OneDrive\Study\Operating Systems\สตั้\project5\codes/./lib/utilsC.c:118
}
    1a7b:	90                   	nop
    1a7c:	66 c9                	leave  
    1a7e:	66 c3                	ret    

00001a80 <_hashfun>:
hashfun():
D:\OneDrive\Study\Operating Systems\สตั้\project5\codes/./lib/utilsC.c:120

int hashfun(char * key){
    1a80:	66 55                	push   ebp
    1a82:	66 89 e5             	mov    ebp,esp
    1a85:	66 83 ec 0c          	sub    esp,0xc
D:\OneDrive\Study\Operating Systems\สตั้\project5\codes/./lib/utilsC.c:121
	int weight = 29;
    1a89:	67 66 c7 45 f4 1d 00 	mov    DWORD PTR [ebp-0xc],0x1d
    1a90:	00 00 
D:\OneDrive\Study\Operating Systems\สตั้\project5\codes/./lib/utilsC.c:122
	int i = 0;
    1a92:	67 66 c7 45 fc 00 00 	mov    DWORD PTR [ebp-0x4],0x0
    1a99:	00 00 
D:\OneDrive\Study\Operating Systems\สตั้\project5\codes/./lib/utilsC.c:123
	int ret = 0;
    1a9b:	67 66 c7 45 f8 00 00 	mov    DWORD PTR [ebp-0x8],0x0
    1aa2:	00 00 
D:\OneDrive\Study\Operating Systems\สตั้\project5\codes/./lib/utilsC.c:124
	while(key[i]){
    1aa4:	eb 3a                	jmp    1ae0 <_hashfun+0x60>
D:\OneDrive\Study\Operating Systems\สตั้\project5\codes/./lib/utilsC.c:125
		ret = (ret + key[i]*weight) % Len;
    1aa6:	67 66 8b 55 fc       	mov    edx,DWORD PTR [ebp-0x4]
    1aab:	67 66 8b 45 08       	mov    eax,DWORD PTR [ebp+0x8]
    1ab0:	66 01 d0             	add    eax,edx
    1ab3:	67 8a 00             	mov    al,BYTE PTR [eax]
    1ab6:	66 0f be c0          	movsx  eax,al
    1aba:	67 66 0f af 45 f4    	imul   eax,DWORD PTR [ebp-0xc]
    1ac0:	66 89 c2             	mov    edx,eax
    1ac3:	67 66 8b 45 f8       	mov    eax,DWORD PTR [ebp-0x8]
    1ac8:	66 01 d0             	add    eax,edx
    1acb:	66 b9 14 00 00 00    	mov    ecx,0x14
    1ad1:	66 99                	cdq    
    1ad3:	66 f7 f9             	idiv   ecx
    1ad6:	67 66 89 55 f8       	mov    DWORD PTR [ebp-0x8],edx
D:\OneDrive\Study\Operating Systems\สตั้\project5\codes/./lib/utilsC.c:126
		++i;
    1adb:	67 66 ff 45 fc       	inc    DWORD PTR [ebp-0x4]
D:\OneDrive\Study\Operating Systems\สตั้\project5\codes/./lib/utilsC.c:124
	while(key[i]){
    1ae0:	67 66 8b 55 fc       	mov    edx,DWORD PTR [ebp-0x4]
    1ae5:	67 66 8b 45 08       	mov    eax,DWORD PTR [ebp+0x8]
    1aea:	66 01 d0             	add    eax,edx
    1aed:	67 8a 00             	mov    al,BYTE PTR [eax]
    1af0:	84 c0                	test   al,al
    1af2:	75 b2                	jne    1aa6 <_hashfun+0x26>
D:\OneDrive\Study\Operating Systems\สตั้\project5\codes/./lib/utilsC.c:128
	}
	return ret;
    1af4:	67 66 8b 45 f8       	mov    eax,DWORD PTR [ebp-0x8]
D:\OneDrive\Study\Operating Systems\สตั้\project5\codes/./lib/utilsC.c:129
}
    1af9:	66 c9                	leave  
    1afb:	66 c3                	ret    

00001afd <_hash>:
hash():
D:\OneDrive\Study\Operating Systems\สตั้\project5\codes/./lib/utilsC.c:132

int hash(char * key, struct info record)
{
    1afd:	66 55                	push   ebp
    1aff:	66 89 e5             	mov    ebp,esp
    1b02:	66 83 ec 18          	sub    esp,0x18
D:\OneDrive\Study\Operating Systems\สตั้\project5\codes/./lib/utilsC.c:133
	int inicode = hashfun(key);
    1b06:	67 66 8b 45 08       	mov    eax,DWORD PTR [ebp+0x8]
    1b0b:	67 66 89 04 24       	mov    DWORD PTR [esp],eax
    1b10:	66 e8 6a ff ff ff    	call   1a80 <_hashfun>
    1b16:	67 66 89 45 f4       	mov    DWORD PTR [ebp-0xc],eax
D:\OneDrive\Study\Operating Systems\สตั้\project5\codes/./lib/utilsC.c:134
	int code = inicode, i = 1;
    1b1b:	67 66 8b 45 f4       	mov    eax,DWORD PTR [ebp-0xc]
    1b20:	67 66 89 45 fc       	mov    DWORD PTR [ebp-0x4],eax
    1b25:	67 66 c7 45 f8 01 00 	mov    DWORD PTR [ebp-0x8],0x1
    1b2c:	00 00 
D:\OneDrive\Study\Operating Systems\สตั้\project5\codes/./lib/utilsC.c:135
	while(information[code].type!=null){
    1b2e:	eb 2b                	jmp    1b5b <_hash+0x5e>
D:\OneDrive\Study\Operating Systems\สตั้\project5\codes/./lib/utilsC.c:136
		code = (inicode + i * i) % Len;
    1b30:	67 66 8b 45 f8       	mov    eax,DWORD PTR [ebp-0x8]
    1b35:	67 66 0f af 45 f8    	imul   eax,DWORD PTR [ebp-0x8]
    1b3b:	66 89 c2             	mov    edx,eax
    1b3e:	67 66 8b 45 f4       	mov    eax,DWORD PTR [ebp-0xc]
    1b43:	66 01 d0             	add    eax,edx
    1b46:	66 b9 14 00 00 00    	mov    ecx,0x14
    1b4c:	66 99                	cdq    
    1b4e:	66 f7 f9             	idiv   ecx
    1b51:	67 66 89 55 fc       	mov    DWORD PTR [ebp-0x4],edx
D:\OneDrive\Study\Operating Systems\สตั้\project5\codes/./lib/utilsC.c:137
		++i;
    1b56:	67 66 ff 45 f8       	inc    DWORD PTR [ebp-0x8]
D:\OneDrive\Study\Operating Systems\สตั้\project5\codes/./lib/utilsC.c:135
	while(information[code].type!=null){
    1b5b:	67 66 8b 55 fc       	mov    edx,DWORD PTR [ebp-0x4]
    1b60:	66 89 d0             	mov    eax,edx
    1b63:	66 01 c0             	add    eax,eax
    1b66:	66 01 d0             	add    eax,edx
    1b69:	66 c1 e0 02          	shl    eax,0x2
    1b6d:	66 01 d0             	add    eax,edx
    1b70:	66 c1 e0 02          	shl    eax,0x2
    1b74:	66 05 60 66 00 00    	add    eax,0x6660
    1b7a:	67 66 8b 00          	mov    eax,DWORD PTR [eax]
    1b7e:	66 85 c0             	test   eax,eax
    1b81:	75 ad                	jne    1b30 <_hash+0x33>
D:\OneDrive\Study\Operating Systems\สตั้\project5\codes/./lib/utilsC.c:141
	}


	information[code].type = record.type;
    1b83:	67 66 8b 4d 2c       	mov    ecx,DWORD PTR [ebp+0x2c]
    1b88:	67 66 8b 55 fc       	mov    edx,DWORD PTR [ebp-0x4]
    1b8d:	66 89 d0             	mov    eax,edx
    1b90:	66 01 c0             	add    eax,eax
    1b93:	66 01 d0             	add    eax,edx
    1b96:	66 c1 e0 02          	shl    eax,0x2
    1b9a:	66 01 d0             	add    eax,edx
    1b9d:	66 c1 e0 02          	shl    eax,0x2
    1ba1:	66 05 60 66 00 00    	add    eax,0x6660
    1ba7:	67 66 89 08          	mov    DWORD PTR [eax],ecx
D:\OneDrive\Study\Operating Systems\สตั้\project5\codes/./lib/utilsC.c:142
	strncpy(record.name, information[code].name, strlen(record.name));
    1bab:	67 66 8d 45 0c       	lea    eax,[ebp+0xc]
    1bb0:	67 66 89 04 24       	mov    DWORD PTR [esp],eax
    1bb5:	66 e8 05 fa ff ff    	call   15c0 <_strlen>
    1bbb:	66 89 c1             	mov    ecx,eax
    1bbe:	67 66 8b 55 fc       	mov    edx,DWORD PTR [ebp-0x4]
    1bc3:	66 89 d0             	mov    eax,edx
    1bc6:	66 01 c0             	add    eax,eax
    1bc9:	66 01 d0             	add    eax,edx
    1bcc:	66 c1 e0 02          	shl    eax,0x2
    1bd0:	66 01 d0             	add    eax,edx
    1bd3:	66 c1 e0 02          	shl    eax,0x2
    1bd7:	66 05 40 66 00 00    	add    eax,0x6640
    1bdd:	67 66 89 4c 24 08    	mov    DWORD PTR [esp+0x8],ecx
    1be3:	67 66 89 44 24 04    	mov    DWORD PTR [esp+0x4],eax
    1be9:	67 66 8d 45 0c       	lea    eax,[ebp+0xc]
    1bee:	67 66 89 04 24       	mov    DWORD PTR [esp],eax
    1bf3:	66 e8 18 fe ff ff    	call   1a11 <_strncpy>
D:\OneDrive\Study\Operating Systems\สตั้\project5\codes/./lib/utilsC.c:143
	information[code].size = record.size;
    1bf9:	67 66 8b 4d 34       	mov    ecx,DWORD PTR [ebp+0x34]
    1bfe:	67 66 8b 55 fc       	mov    edx,DWORD PTR [ebp-0x4]
    1c03:	66 89 d0             	mov    eax,edx
    1c06:	66 01 c0             	add    eax,eax
    1c09:	66 01 d0             	add    eax,edx
    1c0c:	66 c1 e0 02          	shl    eax,0x2
    1c10:	66 01 d0             	add    eax,edx
    1c13:	66 c1 e0 02          	shl    eax,0x2
    1c17:	66 05 68 66 00 00    	add    eax,0x6668
    1c1d:	67 66 89 08          	mov    DWORD PTR [eax],ecx
D:\OneDrive\Study\Operating Systems\สตั้\project5\codes/./lib/utilsC.c:144
	information[code].lmaddress = record.lmaddress;
    1c21:	67 66 8b 4d 30       	mov    ecx,DWORD PTR [ebp+0x30]
    1c26:	67 66 8b 55 fc       	mov    edx,DWORD PTR [ebp-0x4]
    1c2b:	66 89 d0             	mov    eax,edx
    1c2e:	66 01 c0             	add    eax,eax
    1c31:	66 01 d0             	add    eax,edx
    1c34:	66 c1 e0 02          	shl    eax,0x2
    1c38:	66 01 d0             	add    eax,edx
    1c3b:	66 c1 e0 02          	shl    eax,0x2
    1c3f:	66 05 64 66 00 00    	add    eax,0x6664
    1c45:	67 66 89 08          	mov    DWORD PTR [eax],ecx
D:\OneDrive\Study\Operating Systems\สตั้\project5\codes/./lib/utilsC.c:145
	information[code].deleted = record.deleted;
    1c49:	67 66 8b 4d 38       	mov    ecx,DWORD PTR [ebp+0x38]
    1c4e:	67 66 8b 55 fc       	mov    edx,DWORD PTR [ebp-0x4]
    1c53:	66 89 d0             	mov    eax,edx
    1c56:	66 01 c0             	add    eax,eax
    1c59:	66 01 d0             	add    eax,edx
    1c5c:	66 c1 e0 02          	shl    eax,0x2
    1c60:	66 01 d0             	add    eax,edx
    1c63:	66 c1 e0 02          	shl    eax,0x2
    1c67:	66 05 6c 66 00 00    	add    eax,0x666c
    1c6d:	67 66 89 08          	mov    DWORD PTR [eax],ecx
D:\OneDrive\Study\Operating Systems\สตั้\project5\codes/./lib/utilsC.c:146
	return code;
    1c71:	67 66 8b 45 fc       	mov    eax,DWORD PTR [ebp-0x4]
D:\OneDrive\Study\Operating Systems\สตั้\project5\codes/./lib/utilsC.c:147
}
    1c76:	66 c9                	leave  
    1c78:	66 c3                	ret    

00001c7a <_find>:
find():
D:\OneDrive\Study\Operating Systems\สตั้\project5\codes/./lib/utilsC.c:150

int find(char * key)
{
    1c7a:	66 55                	push   ebp
    1c7c:	66 89 e5             	mov    ebp,esp
    1c7f:	66 83 ec 14          	sub    esp,0x14
D:\OneDrive\Study\Operating Systems\สตั้\project5\codes/./lib/utilsC.c:151
	int inicode = hashfun(key);
    1c83:	67 66 8b 45 08       	mov    eax,DWORD PTR [ebp+0x8]
    1c88:	67 66 89 04 24       	mov    DWORD PTR [esp],eax
    1c8d:	66 e8 ed fd ff ff    	call   1a80 <_hashfun>
    1c93:	67 66 89 45 f4       	mov    DWORD PTR [ebp-0xc],eax
D:\OneDrive\Study\Operating Systems\สตั้\project5\codes/./lib/utilsC.c:152
	int code = inicode, i = 1;
    1c98:	67 66 8b 45 f4       	mov    eax,DWORD PTR [ebp-0xc]
    1c9d:	67 66 89 45 fc       	mov    DWORD PTR [ebp-0x4],eax
    1ca2:	67 66 c7 45 f8 01 00 	mov    DWORD PTR [ebp-0x8],0x1
    1ca9:	00 00 
D:\OneDrive\Study\Operating Systems\สตั้\project5\codes/./lib/utilsC.c:153
	while(information[code].type == null || strcmp(key, information[code].name) != 0){
    1cab:	eb 3b                	jmp    1ce8 <_find+0x6e>
D:\OneDrive\Study\Operating Systems\สตั้\project5\codes/./lib/utilsC.c:154
		code = (inicode + i * i) % Len;
    1cad:	67 66 8b 45 f8       	mov    eax,DWORD PTR [ebp-0x8]
    1cb2:	67 66 0f af 45 f8    	imul   eax,DWORD PTR [ebp-0x8]
    1cb8:	66 89 c2             	mov    edx,eax
    1cbb:	67 66 8b 45 f4       	mov    eax,DWORD PTR [ebp-0xc]
    1cc0:	66 01 d0             	add    eax,edx
    1cc3:	66 b9 14 00 00 00    	mov    ecx,0x14
    1cc9:	66 99                	cdq    
    1ccb:	66 f7 f9             	idiv   ecx
    1cce:	67 66 89 55 fc       	mov    DWORD PTR [ebp-0x4],edx
D:\OneDrive\Study\Operating Systems\สตั้\project5\codes/./lib/utilsC.c:155
		++i;
    1cd3:	67 66 ff 45 f8       	inc    DWORD PTR [ebp-0x8]
D:\OneDrive\Study\Operating Systems\สตั้\project5\codes/./lib/utilsC.c:156
		if(i > Len)
    1cd8:	67 66 83 7d f8 14    	cmp    DWORD PTR [ebp-0x8],0x14
    1cde:	7e 08                	jle    1ce8 <_find+0x6e>
D:\OneDrive\Study\Operating Systems\สตั้\project5\codes/./lib/utilsC.c:157
			return -1;
    1ce0:	66 b8 ff ff ff ff    	mov    eax,0xffffffff
    1ce6:	eb 69                	jmp    1d51 <_find+0xd7>
D:\OneDrive\Study\Operating Systems\สตั้\project5\codes/./lib/utilsC.c:153
	while(information[code].type == null || strcmp(key, information[code].name) != 0){
    1ce8:	67 66 8b 55 fc       	mov    edx,DWORD PTR [ebp-0x4]
    1ced:	66 89 d0             	mov    eax,edx
    1cf0:	66 01 c0             	add    eax,eax
    1cf3:	66 01 d0             	add    eax,edx
    1cf6:	66 c1 e0 02          	shl    eax,0x2
    1cfa:	66 01 d0             	add    eax,edx
    1cfd:	66 c1 e0 02          	shl    eax,0x2
    1d01:	66 05 60 66 00 00    	add    eax,0x6660
    1d07:	67 66 8b 00          	mov    eax,DWORD PTR [eax]
    1d0b:	66 85 c0             	test   eax,eax
    1d0e:	74 9d                	je     1cad <_find+0x33>
    1d10:	67 66 8b 55 fc       	mov    edx,DWORD PTR [ebp-0x4]
    1d15:	66 89 d0             	mov    eax,edx
    1d18:	66 01 c0             	add    eax,eax
    1d1b:	66 01 d0             	add    eax,edx
    1d1e:	66 c1 e0 02          	shl    eax,0x2
    1d22:	66 01 d0             	add    eax,edx
    1d25:	66 c1 e0 02          	shl    eax,0x2
    1d29:	66 05 40 66 00 00    	add    eax,0x6640
    1d2f:	67 66 89 44 24 04    	mov    DWORD PTR [esp+0x4],eax
    1d35:	67 66 8b 45 08       	mov    eax,DWORD PTR [ebp+0x8]
    1d3a:	67 66 89 04 24       	mov    DWORD PTR [esp],eax
    1d3f:	66 e8 09 fa ff ff    	call   174e <_strcmp>
    1d45:	66 85 c0             	test   eax,eax
    1d48:	0f 85 61 ff          	jne    1cad <_find+0x33>
D:\OneDrive\Study\Operating Systems\สตั้\project5\codes/./lib/utilsC.c:159
	}
	return code;
    1d4c:	67 66 8b 45 fc       	mov    eax,DWORD PTR [ebp-0x4]
D:\OneDrive\Study\Operating Systems\สตั้\project5\codes/./lib/utilsC.c:160
}
    1d51:	66 c9                	leave  
    1d53:	66 c3                	ret    

00001d55 <_ls>:
ls():
D:\OneDrive\Study\Operating Systems\สตั้\project5\codes/./lib/utilsC.c:163

void ls()
{
    1d55:	66 55                	push   ebp
    1d57:	66 89 e5             	mov    ebp,esp
    1d5a:	66 57                	push   edi
    1d5c:	66 53                	push   ebx
    1d5e:	66 83 ec 38          	sub    esp,0x38
D:\OneDrive\Study\Operating Systems\สตั้\project5\codes/./lib/utilsC.c:164
	char * head = "Name           Size           Lma            Type";
    1d62:	67 66 c7 45 f0 68 40 	mov    DWORD PTR [ebp-0x10],0x4068
    1d69:	00 00 
D:\OneDrive\Study\Operating Systems\สตั้\project5\codes/./lib/utilsC.c:165
	printSentence(head, line, 10, strlen(head), green);
    1d6b:	67 66 8b 45 f0       	mov    eax,DWORD PTR [ebp-0x10]
    1d70:	67 66 89 04 24       	mov    DWORD PTR [esp],eax
    1d75:	66 e8 45 f8 ff ff    	call   15c0 <_strlen>
    1d7b:	66 89 c2             	mov    edx,eax
    1d7e:	66 a1 00 61          	mov    eax,ds:0x6100
    1d82:	67 66 c7 44 24 10 0a 	mov    DWORD PTR [esp+0x10],0xa
    1d89:	00 00 00 
    1d8c:	67 66 89 54 24 0c    	mov    DWORD PTR [esp+0xc],edx
    1d92:	67 66 c7 44 24 08 0a 	mov    DWORD PTR [esp+0x8],0xa
    1d99:	00 00 00 
    1d9c:	67 66 89 44 24 04    	mov    DWORD PTR [esp+0x4],eax
    1da2:	67 66 8b 45 f0       	mov    eax,DWORD PTR [ebp-0x10]
    1da7:	67 66 89 04 24       	mov    DWORD PTR [esp],eax
    1dac:	66 e8 06 ed ff ff    	call   ab8 <_printSentence>
D:\OneDrive\Study\Operating Systems\สตั้\project5\codes/./lib/utilsC.c:166
	char typeTable[10][1] = {"N", "D", "E", "F"};
    1db2:	67 66 8d 55 e6       	lea    edx,[ebp-0x1a]
    1db7:	66 b9 0a 00 00 00    	mov    ecx,0xa
    1dbd:	b0 00                	mov    al,0x0
    1dbf:	66 89 d7             	mov    edi,edx
    1dc2:	f3 aa                	rep stos BYTE PTR es:[di],al
    1dc4:	67 c6 45 e6 4e       	mov    BYTE PTR [ebp-0x1a],0x4e
    1dc9:	67 c6 45 e7 44       	mov    BYTE PTR [ebp-0x19],0x44
    1dce:	67 c6 45 e8 45       	mov    BYTE PTR [ebp-0x18],0x45
    1dd3:	67 c6 45 e9 46       	mov    BYTE PTR [ebp-0x17],0x46
D:\OneDrive\Study\Operating Systems\สตั้\project5\codes/./lib/utilsC.c:167
	line += countLines(head);
    1dd8:	67 66 8b 45 f0       	mov    eax,DWORD PTR [ebp-0x10]
    1ddd:	67 66 89 04 24       	mov    DWORD PTR [esp],eax
    1de2:	66 e8 0e f8 ff ff    	call   15f6 <_countLines>
    1de8:	66 89 c2             	mov    edx,eax
    1deb:	66 a1 00 61          	mov    eax,ds:0x6100
    1def:	66 01 d0             	add    eax,edx
    1df2:	66 a3 00 61          	mov    ds:0x6100,eax
D:\OneDrive\Study\Operating Systems\สตั้\project5\codes/./lib/utilsC.c:169
	char tmp[15];
	for(int i = 0; i < Len; ++i) 
    1df6:	67 66 c7 45 f4 00 00 	mov    DWORD PTR [ebp-0xc],0x0
    1dfd:	00 00 
    1dff:	e9 3f 02             	jmp    2041 <segOfOs+0x41>
D:\OneDrive\Study\Operating Systems\สตั้\project5\codes/./lib/utilsC.c:171
	{
		if(information[i].type != null && information[i].deleted != 1) {
    1e02:	67 66 8b 55 f4       	mov    edx,DWORD PTR [ebp-0xc]
    1e07:	66 89 d0             	mov    eax,edx
    1e0a:	66 01 c0             	add    eax,eax
    1e0d:	66 01 d0             	add    eax,edx
    1e10:	66 c1 e0 02          	shl    eax,0x2
    1e14:	66 01 d0             	add    eax,edx
    1e17:	66 c1 e0 02          	shl    eax,0x2
    1e1b:	66 05 60 66 00 00    	add    eax,0x6660
    1e21:	67 66 8b 00          	mov    eax,DWORD PTR [eax]
    1e25:	66 85 c0             	test   eax,eax
    1e28:	0f 84 10 02          	je     203c <segOfOs+0x3c>
    1e2c:	67 66 8b 55 f4       	mov    edx,DWORD PTR [ebp-0xc]
    1e31:	66 89 d0             	mov    eax,edx
    1e34:	66 01 c0             	add    eax,eax
    1e37:	66 01 d0             	add    eax,edx
    1e3a:	66 c1 e0 02          	shl    eax,0x2
    1e3e:	66 01 d0             	add    eax,edx
    1e41:	66 c1 e0 02          	shl    eax,0x2
    1e45:	66 05 6c 66 00 00    	add    eax,0x666c
    1e4b:	67 66 8b 00          	mov    eax,DWORD PTR [eax]
    1e4f:	66 83 f8 01          	cmp    eax,0x1
    1e53:	0f 84 e5 01          	je     203c <segOfOs+0x3c>
D:\OneDrive\Study\Operating Systems\สตั้\project5\codes/./lib/utilsC.c:172
			printSentence(information[i].name, line, 10, strlen(information[i].name), purple);
    1e57:	67 66 8b 55 f4       	mov    edx,DWORD PTR [ebp-0xc]
    1e5c:	66 89 d0             	mov    eax,edx
    1e5f:	66 01 c0             	add    eax,eax
    1e62:	66 01 d0             	add    eax,edx
    1e65:	66 c1 e0 02          	shl    eax,0x2
    1e69:	66 01 d0             	add    eax,edx
    1e6c:	66 c1 e0 02          	shl    eax,0x2
    1e70:	66 05 40 66 00 00    	add    eax,0x6640
    1e76:	67 66 89 04 24       	mov    DWORD PTR [esp],eax
    1e7b:	66 e8 3f f7 ff ff    	call   15c0 <_strlen>
    1e81:	66 89 c3             	mov    ebx,eax
    1e84:	66 8b 0e 00 61       	mov    ecx,DWORD PTR ds:0x6100
    1e89:	67 66 8b 55 f4       	mov    edx,DWORD PTR [ebp-0xc]
    1e8e:	66 89 d0             	mov    eax,edx
    1e91:	66 01 c0             	add    eax,eax
    1e94:	66 01 d0             	add    eax,edx
    1e97:	66 c1 e0 02          	shl    eax,0x2
    1e9b:	66 01 d0             	add    eax,edx
    1e9e:	66 c1 e0 02          	shl    eax,0x2
    1ea2:	66 05 40 66 00 00    	add    eax,0x6640
    1ea8:	67 66 c7 44 24 10 0d 	mov    DWORD PTR [esp+0x10],0xd
    1eaf:	00 00 00 
    1eb2:	67 66 89 5c 24 0c    	mov    DWORD PTR [esp+0xc],ebx
    1eb8:	67 66 c7 44 24 08 0a 	mov    DWORD PTR [esp+0x8],0xa
    1ebf:	00 00 00 
    1ec2:	67 66 89 4c 24 04    	mov    DWORD PTR [esp+0x4],ecx
    1ec8:	67 66 89 04 24       	mov    DWORD PTR [esp],eax
    1ecd:	66 e8 e5 eb ff ff    	call   ab8 <_printSentence>
D:\OneDrive\Study\Operating Systems\สตั้\project5\codes/./lib/utilsC.c:173
			int2str(information[i].size, tmp);
    1ed3:	67 66 8b 55 f4       	mov    edx,DWORD PTR [ebp-0xc]
    1ed8:	66 89 d0             	mov    eax,edx
    1edb:	66 01 c0             	add    eax,eax
    1ede:	66 01 d0             	add    eax,edx
    1ee1:	66 c1 e0 02          	shl    eax,0x2
    1ee5:	66 01 d0             	add    eax,edx
    1ee8:	66 c1 e0 02          	shl    eax,0x2
    1eec:	66 05 68 66 00 00    	add    eax,0x6668
    1ef2:	67 66 8b 00          	mov    eax,DWORD PTR [eax]
    1ef6:	67 66 8d 55 d7       	lea    edx,[ebp-0x29]
    1efb:	67 66 89 54 24 04    	mov    DWORD PTR [esp+0x4],edx
    1f01:	67 66 89 04 24       	mov    DWORD PTR [esp],eax
    1f06:	66 e8 4c 01 00 00    	call   2058 <_int2str>
D:\OneDrive\Study\Operating Systems\สตั้\project5\codes/./lib/utilsC.c:174
			printSentence(tmp, line, 25, strlen(tmp), purple);
    1f0c:	67 66 8d 45 d7       	lea    eax,[ebp-0x29]
    1f11:	67 66 89 04 24       	mov    DWORD PTR [esp],eax
    1f16:	66 e8 a4 f6 ff ff    	call   15c0 <_strlen>
    1f1c:	66 89 c2             	mov    edx,eax
    1f1f:	66 a1 00 61          	mov    eax,ds:0x6100
    1f23:	67 66 c7 44 24 10 0d 	mov    DWORD PTR [esp+0x10],0xd
    1f2a:	00 00 00 
    1f2d:	67 66 89 54 24 0c    	mov    DWORD PTR [esp+0xc],edx
    1f33:	67 66 c7 44 24 08 19 	mov    DWORD PTR [esp+0x8],0x19
    1f3a:	00 00 00 
    1f3d:	67 66 89 44 24 04    	mov    DWORD PTR [esp+0x4],eax
    1f43:	67 66 8d 45 d7       	lea    eax,[ebp-0x29]
    1f48:	67 66 89 04 24       	mov    DWORD PTR [esp],eax
    1f4d:	66 e8 65 eb ff ff    	call   ab8 <_printSentence>
D:\OneDrive\Study\Operating Systems\สตั้\project5\codes/./lib/utilsC.c:175
			int2str(information[i].lmaddress, tmp);
    1f53:	67 66 8b 55 f4       	mov    edx,DWORD PTR [ebp-0xc]
    1f58:	66 89 d0             	mov    eax,edx
    1f5b:	66 01 c0             	add    eax,eax
    1f5e:	66 01 d0             	add    eax,edx
    1f61:	66 c1 e0 02          	shl    eax,0x2
    1f65:	66 01 d0             	add    eax,edx
    1f68:	66 c1 e0 02          	shl    eax,0x2
    1f6c:	66 05 64 66 00 00    	add    eax,0x6664
    1f72:	67 66 8b 00          	mov    eax,DWORD PTR [eax]
    1f76:	67 66 8d 55 d7       	lea    edx,[ebp-0x29]
    1f7b:	67 66 89 54 24 04    	mov    DWORD PTR [esp+0x4],edx
    1f81:	67 66 89 04 24       	mov    DWORD PTR [esp],eax
    1f86:	66 e8 cc 00 00 00    	call   2058 <_int2str>
D:\OneDrive\Study\Operating Systems\สตั้\project5\codes/./lib/utilsC.c:176
			printSentence(tmp, line, 40, strlen(tmp), purple);
    1f8c:	67 66 8d 45 d7       	lea    eax,[ebp-0x29]
    1f91:	67 66 89 04 24       	mov    DWORD PTR [esp],eax
    1f96:	66 e8 24 f6 ff ff    	call   15c0 <_strlen>
    1f9c:	66 89 c2             	mov    edx,eax
    1f9f:	66 a1 00 61          	mov    eax,ds:0x6100
    1fa3:	67 66 c7 44 24 10 0d 	mov    DWORD PTR [esp+0x10],0xd
    1faa:	00 00 00 
    1fad:	67 66 89 54 24 0c    	mov    DWORD PTR [esp+0xc],edx
    1fb3:	67 66 c7 44 24 08 28 	mov    DWORD PTR [esp+0x8],0x28
    1fba:	00 00 00 
    1fbd:	67 66 89 44 24 04    	mov    DWORD PTR [esp+0x4],eax
    1fc3:	67 66 8d 45 d7       	lea    eax,[ebp-0x29]
    1fc8:	67 66 89 04 24       	mov    DWORD PTR [esp],eax
    1fcd:	66 e8 e5 ea ff ff    	call   ab8 <_printSentence>
D:\OneDrive\Study\Operating Systems\สตั้\project5\codes/./lib/utilsC.c:177
			printSentence(typeTable[information[i].type], line, 55, 1, purple);
    1fd3:	66 8b 0e 00 61       	mov    ecx,DWORD PTR ds:0x6100
    1fd8:	67 66 8b 55 f4       	mov    edx,DWORD PTR [ebp-0xc]
    1fdd:	66 89 d0             	mov    eax,edx
    1fe0:	66 01 c0             	add    eax,eax
    1fe3:	66 01 d0             	add    eax,edx
    1fe6:	66 c1 e0 02          	shl    eax,0x2
    1fea:	66 01 d0             	add    eax,edx
    1fed:	66 c1 e0 02          	shl    eax,0x2
    1ff1:	66 05 60 66 00 00    	add    eax,0x6660
    1ff7:	67 66 8b 00          	mov    eax,DWORD PTR [eax]
    1ffb:	67 66 8d 55 e6       	lea    edx,[ebp-0x1a]
    2000:	66 01 d0             	add    eax,edx
    2003:	67 66 c7 44 24 10 0d 	mov    DWORD PTR [esp+0x10],0xd
    200a:	00 00 00 
    200d:	67 66 c7 44 24 0c 01 	mov    DWORD PTR [esp+0xc],0x1
    2014:	00 00 00 
    2017:	67 66 c7 44 24 08 37 	mov    DWORD PTR [esp+0x8],0x37
    201e:	00 00 00 
    2021:	67 66 89 4c 24 04    	mov    DWORD PTR [esp+0x4],ecx
    2027:	67 66 89 04 24       	mov    DWORD PTR [esp],eax
    202c:	66 e8 86 ea ff ff    	call   ab8 <_printSentence>
D:\OneDrive\Study\Operating Systems\สตั้\project5\codes/./lib/utilsC.c:178
			line += 1;
    2032:	66 a1 00 61          	mov    eax,ds:0x6100
    2036:	66 40                	inc    eax
    2038:	66 a3 00 61          	mov    ds:0x6100,eax
D:\OneDrive\Study\Operating Systems\สตั้\project5\codes/./lib/utilsC.c:169
	for(int i = 0; i < Len; ++i) 
    203c:	67 66 ff 45 f4       	inc    DWORD PTR [ebp-0xc]
    2041:	67 66 83 7d f4 13    	cmp    DWORD PTR [ebp-0xc],0x13
    2047:	0f 8e b7 fd          	jle    1e02 <_ls+0xad>
D:\OneDrive\Study\Operating Systems\สตั้\project5\codes/./lib/utilsC.c:181
		}
	}
}
    204b:	90                   	nop
    204c:	66 83 c4 38          	add    esp,0x38
    2050:	66 5b                	pop    ebx
    2052:	66 5f                	pop    edi
    2054:	66 5d                	pop    ebp
    2056:	66 c3                	ret    

00002058 <_int2str>:
int2str():
D:\OneDrive\Study\Operating Systems\สตั้\project5\codes/./lib/utilsC.c:184

void int2str(int org, char * str)
{
    2058:	66 55                	push   ebp
    205a:	66 89 e5             	mov    ebp,esp
    205d:	66 53                	push   ebx
    205f:	66 83 ec 0c          	sub    esp,0xc
D:\OneDrive\Study\Operating Systems\สตั้\project5\codes/./lib/utilsC.c:185
	int num = 0;
    2063:	67 66 c7 45 f8 00 00 	mov    DWORD PTR [ebp-0x8],0x0
    206a:	00 00 
D:\OneDrive\Study\Operating Systems\สตั้\project5\codes/./lib/utilsC.c:186
	int cp = org;
    206c:	67 66 8b 45 08       	mov    eax,DWORD PTR [ebp+0x8]
    2071:	67 66 89 45 f4       	mov    DWORD PTR [ebp-0xc],eax
D:\OneDrive\Study\Operating Systems\สตั้\project5\codes/./lib/utilsC.c:187
	while(cp != 0)
    2076:	eb 29                	jmp    20a1 <_int2str+0x49>
D:\OneDrive\Study\Operating Systems\สตั้\project5\codes/./lib/utilsC.c:189
	{
		cp /= 10;
    2078:	67 66 8b 4d f4       	mov    ecx,DWORD PTR [ebp-0xc]
    207d:	66 b8 67 66 66 66    	mov    eax,0x66666667
    2083:	66 f7 e9             	imul   ecx
    2086:	66 c1 fa 02          	sar    edx,0x2
    208a:	66 89 c8             	mov    eax,ecx
    208d:	66 c1 f8 1f          	sar    eax,0x1f
    2091:	66 29 c2             	sub    edx,eax
    2094:	66 89 d0             	mov    eax,edx
    2097:	67 66 89 45 f4       	mov    DWORD PTR [ebp-0xc],eax
D:\OneDrive\Study\Operating Systems\สตั้\project5\codes/./lib/utilsC.c:190
		++num;
    209c:	67 66 ff 45 f8       	inc    DWORD PTR [ebp-0x8]
D:\OneDrive\Study\Operating Systems\สตั้\project5\codes/./lib/utilsC.c:187
	while(cp != 0)
    20a1:	67 66 83 7d f4 00    	cmp    DWORD PTR [ebp-0xc],0x0
    20a7:	75 cf                	jne    2078 <_int2str+0x20>
D:\OneDrive\Study\Operating Systems\สตั้\project5\codes/./lib/utilsC.c:192
	}
	if(org == 0)
    20a9:	67 66 83 7d 08 00    	cmp    DWORD PTR [ebp+0x8],0x0
    20af:	75 09                	jne    20ba <_int2str+0x62>
D:\OneDrive\Study\Operating Systems\สตั้\project5\codes/./lib/utilsC.c:193
		num = 1;
    20b1:	67 66 c7 45 f8 01 00 	mov    DWORD PTR [ebp-0x8],0x1
    20b8:	00 00 
D:\OneDrive\Study\Operating Systems\สตั้\project5\codes/./lib/utilsC.c:194
	str[num--] = '\0';
    20ba:	67 66 8b 45 f8       	mov    eax,DWORD PTR [ebp-0x8]
    20bf:	67 66 8d 50 ff       	lea    edx,[eax-0x1]
    20c4:	67 66 89 55 f8       	mov    DWORD PTR [ebp-0x8],edx
    20c9:	66 89 c2             	mov    edx,eax
    20cc:	67 66 8b 45 0c       	mov    eax,DWORD PTR [ebp+0xc]
    20d1:	66 01 d0             	add    eax,edx
    20d4:	67 c6 00 00          	mov    BYTE PTR [eax],0x0
D:\OneDrive\Study\Operating Systems\สตั้\project5\codes/./lib/utilsC.c:195
	for(int i = num; i >= 0; --i)
    20d8:	67 66 8b 45 f8       	mov    eax,DWORD PTR [ebp-0x8]
    20dd:	67 66 89 45 f0       	mov    DWORD PTR [ebp-0x10],eax
    20e2:	eb 70                	jmp    2154 <_int2str+0xfc>
D:\OneDrive\Study\Operating Systems\สตั้\project5\codes/./lib/utilsC.c:197
	{
		str[i] = org % 10 + 48;
    20e4:	67 66 8b 55 f0       	mov    edx,DWORD PTR [ebp-0x10]
    20e9:	67 66 8b 45 0c       	mov    eax,DWORD PTR [ebp+0xc]
    20ee:	67 66 8d 1c 02       	lea    ebx,[edx+eax*1]
    20f3:	67 66 8b 4d 08       	mov    ecx,DWORD PTR [ebp+0x8]
    20f8:	66 b8 67 66 66 66    	mov    eax,0x66666667
    20fe:	66 f7 e9             	imul   ecx
    2101:	66 c1 fa 02          	sar    edx,0x2
    2105:	66 89 c8             	mov    eax,ecx
    2108:	66 c1 f8 1f          	sar    eax,0x1f
    210c:	66 29 c2             	sub    edx,eax
    210f:	66 89 d0             	mov    eax,edx
    2112:	66 c1 e0 02          	shl    eax,0x2
    2116:	66 01 d0             	add    eax,edx
    2119:	66 01 c0             	add    eax,eax
    211c:	66 29 c1             	sub    ecx,eax
    211f:	66 89 ca             	mov    edx,ecx
    2122:	88 d0                	mov    al,dl
    2124:	66 83 c0 30          	add    eax,0x30
    2128:	67 88 03             	mov    BYTE PTR [ebx],al
D:\OneDrive\Study\Operating Systems\สตั้\project5\codes/./lib/utilsC.c:198
		org /= 10;
    212b:	67 66 8b 4d 08       	mov    ecx,DWORD PTR [ebp+0x8]
    2130:	66 b8 67 66 66 66    	mov    eax,0x66666667
    2136:	66 f7 e9             	imul   ecx
    2139:	66 c1 fa 02          	sar    edx,0x2
    213d:	66 89 c8             	mov    eax,ecx
    2140:	66 c1 f8 1f          	sar    eax,0x1f
    2144:	66 29 c2             	sub    edx,eax
    2147:	66 89 d0             	mov    eax,edx
    214a:	67 66 89 45 08       	mov    DWORD PTR [ebp+0x8],eax
D:\OneDrive\Study\Operating Systems\สตั้\project5\codes/./lib/utilsC.c:195
	for(int i = num; i >= 0; --i)
    214f:	67 66 ff 4d f0       	dec    DWORD PTR [ebp-0x10]
    2154:	67 66 83 7d f0 00    	cmp    DWORD PTR [ebp-0x10],0x0
    215a:	79 88                	jns    20e4 <_int2str+0x8c>
D:\OneDrive\Study\Operating Systems\สตั้\project5\codes/./lib/utilsC.c:200
	}
}
    215c:	90                   	nop
    215d:	66 83 c4 0c          	add    esp,0xc
    2161:	66 5b                	pop    ebx
    2163:	66 5d                	pop    ebp
    2165:	66 c3                	ret    

00002167 <_initialFile>:
initialFile():
D:\OneDrive\Study\Operating Systems\สตั้\project5\codes/./lib/utilsC.c:203

void initialFile()
{
    2167:	66 55                	push   ebp
    2169:	66 89 e5             	mov    ebp,esp
    216c:	66 83 ec 10          	sub    esp,0x10
D:\OneDrive\Study\Operating Systems\สตั้\project5\codes/./lib/utilsC.c:204
	FAT = (short*)getRecords(segOfOs, offsetOfFat);
    2170:	67 66 c7 44 24 04 00 	mov    DWORD PTR [esp+0x4],0xe000
    2177:	e0 00 00 
    217a:	67 66 c7 04 24 00 20 	mov    DWORD PTR [esp],0x2000
    2181:	00 00 
    2183:	66 e8 07 f4 ff ff    	call   1590 <_getRecords>
    2189:	66 a3 f4 65          	mov    ds:0x65f4,eax
D:\OneDrive\Study\Operating Systems\สตั้\project5\codes/./lib/utilsC.c:205
	for(int i = 0; i < Len; ++i){
    218d:	67 66 c7 45 fc 00 00 	mov    DWORD PTR [ebp-0x4],0x0
    2194:	00 00 
    2196:	eb 2c                	jmp    21c4 <_initialFile+0x5d>
D:\OneDrive\Study\Operating Systems\สตั้\project5\codes/./lib/utilsC.c:206
		information[i].type=null;
    2198:	67 66 8b 55 fc       	mov    edx,DWORD PTR [ebp-0x4]
    219d:	66 89 d0             	mov    eax,edx
    21a0:	66 01 c0             	add    eax,eax
    21a3:	66 01 d0             	add    eax,edx
    21a6:	66 c1 e0 02          	shl    eax,0x2
    21aa:	66 01 d0             	add    eax,edx
    21ad:	66 c1 e0 02          	shl    eax,0x2
    21b1:	66 05 60 66 00 00    	add    eax,0x6660
    21b7:	67 66 c7 00 00 00 00 	mov    DWORD PTR [eax],0x0
    21be:	00 
D:\OneDrive\Study\Operating Systems\สตั้\project5\codes/./lib/utilsC.c:205
	for(int i = 0; i < Len; ++i){
    21bf:	67 66 ff 45 fc       	inc    DWORD PTR [ebp-0x4]
    21c4:	67 66 83 7d fc 13    	cmp    DWORD PTR [ebp-0x4],0x13
    21ca:	7e cc                	jle    2198 <_initialFile+0x31>
D:\OneDrive\Study\Operating Systems\สตั้\project5\codes/./lib/utilsC.c:208
	}
	no.lmaddress = 0;
    21cc:	66 c7 06 24 66 00 00 	mov    DWORD PTR ds:0x6624,0x0
    21d3:	00 00 
D:\OneDrive\Study\Operating Systems\สตั้\project5\codes/./lib/utilsC.c:209
	no.size = 0;
    21d5:	66 c7 06 28 66 00 00 	mov    DWORD PTR ds:0x6628,0x0
    21dc:	00 00 
D:\OneDrive\Study\Operating Systems\สตั้\project5\codes/./lib/utilsC.c:210
	no.type = null;
    21de:	66 c7 06 20 66 00 00 	mov    DWORD PTR ds:0x6620,0x0
    21e5:	00 00 
D:\OneDrive\Study\Operating Systems\สตั้\project5\codes/./lib/utilsC.c:211
	strncpy("", no.name, 0);
    21e7:	67 66 c7 44 24 08 00 	mov    DWORD PTR [esp+0x8],0x0
    21ee:	00 00 00 
    21f1:	67 66 c7 44 24 04 00 	mov    DWORD PTR [esp+0x4],0x6600
    21f8:	66 00 00 
    21fb:	67 66 c7 04 24 9a 40 	mov    DWORD PTR [esp],0x409a
    2202:	00 00 
    2204:	66 e8 07 f8 ff ff    	call   1a11 <_strncpy>
D:\OneDrive\Study\Operating Systems\สตั้\project5\codes/./lib/utilsC.c:212
	loadFiles();
    220a:	66 e8 05 00 00 00    	call   2215 <_loadFiles>
D:\OneDrive\Study\Operating Systems\สตั้\project5\codes/./lib/utilsC.c:215
	

}
    2210:	90                   	nop
    2211:	66 c9                	leave  
    2213:	66 c3                	ret    

00002215 <_loadFiles>:
loadFiles():
D:\OneDrive\Study\Operating Systems\สตั้\project5\codes/./lib/utilsC.c:219


void loadFiles()
{
    2215:	66 55                	push   ebp
    2217:	66 89 e5             	mov    ebp,esp
    221a:	66 57                	push   edi
    221c:	66 56                	push   esi
    221e:	66 81 ec a4 00 00 00 	sub    esp,0xa4
D:\OneDrive\Study\Operating Systems\สตั้\project5\codes/./lib/utilsC.c:220
	char * rawRecords = getRecords(segOfOs, offsetOfRecord);
    2225:	67 66 c7 44 24 04 00 	mov    DWORD PTR [esp+0x4],0xd000
    222c:	d0 00 00 
    222f:	67 66 c7 04 24 00 20 	mov    DWORD PTR [esp],0x2000
    2236:	00 00 
    2238:	66 e8 52 f3 ff ff    	call   1590 <_getRecords>
    223e:	67 66 89 45 e4       	mov    DWORD PTR [ebp-0x1c],eax
D:\OneDrive\Study\Operating Systems\สตั้\project5\codes/./lib/utilsC.c:221
	int i = 0;
    2243:	67 66 c7 45 f4 00 00 	mov    DWORD PTR [ebp-0xc],0x0
    224a:	00 00 
D:\OneDrive\Study\Operating Systems\สตั้\project5\codes/./lib/utilsC.c:222
	int l = 0;
    224c:	67 66 c7 45 f0 00 00 	mov    DWORD PTR [ebp-0x10],0x0
    2253:	00 00 
D:\OneDrive\Study\Operating Systems\สตั้\project5\codes/./lib/utilsC.c:223
	int size = 0;
    2255:	67 66 c7 45 ec 00 00 	mov    DWORD PTR [ebp-0x14],0x0
    225c:	00 00 
D:\OneDrive\Study\Operating Systems\สตั้\project5\codes/./lib/utilsC.c:224
	int place = 0;
    225e:	67 66 c7 45 e8 00 00 	mov    DWORD PTR [ebp-0x18],0x0
    2265:	00 00 
D:\OneDrive\Study\Operating Systems\สตั้\project5\codes/./lib/utilsC.c:226
	char name[30];
	enum fileType t = null;
    2267:	67 66 c7 45 e0 00 00 	mov    DWORD PTR [ebp-0x20],0x0
    226e:	00 00 
D:\OneDrive\Study\Operating Systems\สตั้\project5\codes/./lib/utilsC.c:228
	struct info tmp;
	while(rawRecords[i] != '\n')
    2270:	e9 e3 01             	jmp    2456 <_loadFiles+0x241>
D:\OneDrive\Study\Operating Systems\สตั้\project5\codes/./lib/utilsC.c:230
	{
		size = 0;
    2273:	67 66 c7 45 ec 00 00 	mov    DWORD PTR [ebp-0x14],0x0
    227a:	00 00 
D:\OneDrive\Study\Operating Systems\สตั้\project5\codes/./lib/utilsC.c:231
		place = 0;
    227c:	67 66 c7 45 e8 00 00 	mov    DWORD PTR [ebp-0x18],0x0
    2283:	00 00 
D:\OneDrive\Study\Operating Systems\สตั้\project5\codes/./lib/utilsC.c:233
		// name
		++i;
    2285:	67 66 ff 45 f4       	inc    DWORD PTR [ebp-0xc]
D:\OneDrive\Study\Operating Systems\สตั้\project5\codes/./lib/utilsC.c:234
		l = 0;
    228a:	67 66 c7 45 f0 00 00 	mov    DWORD PTR [ebp-0x10],0x0
    2291:	00 00 
D:\OneDrive\Study\Operating Systems\สตั้\project5\codes/./lib/utilsC.c:235
		while(rawRecords[i]!='|'){
    2293:	eb 0a                	jmp    229f <_loadFiles+0x8a>
D:\OneDrive\Study\Operating Systems\สตั้\project5\codes/./lib/utilsC.c:236
			++i;
    2295:	67 66 ff 45 f4       	inc    DWORD PTR [ebp-0xc]
D:\OneDrive\Study\Operating Systems\สตั้\project5\codes/./lib/utilsC.c:237
			++l;
    229a:	67 66 ff 45 f0       	inc    DWORD PTR [ebp-0x10]
D:\OneDrive\Study\Operating Systems\สตั้\project5\codes/./lib/utilsC.c:235
		while(rawRecords[i]!='|'){
    229f:	67 66 8b 55 f4       	mov    edx,DWORD PTR [ebp-0xc]
    22a4:	67 66 8b 45 e4       	mov    eax,DWORD PTR [ebp-0x1c]
    22a9:	66 01 d0             	add    eax,edx
    22ac:	67 8a 00             	mov    al,BYTE PTR [eax]
    22af:	3c 7c                	cmp    al,0x7c
    22b1:	75 e2                	jne    2295 <_loadFiles+0x80>
D:\OneDrive\Study\Operating Systems\สตั้\project5\codes/./lib/utilsC.c:239
		}
		++i;
    22b3:	67 66 ff 45 f4       	inc    DWORD PTR [ebp-0xc]
D:\OneDrive\Study\Operating Systems\สตั้\project5\codes/./lib/utilsC.c:240
		strncpy(rawRecords+i-l-1, name, l);
    22b8:	67 66 8b 55 f4       	mov    edx,DWORD PTR [ebp-0xc]
    22bd:	67 66 8b 45 f0       	mov    eax,DWORD PTR [ebp-0x10]
    22c2:	66 29 c2             	sub    edx,eax
    22c5:	66 89 d0             	mov    eax,edx
    22c8:	67 66 8d 50 ff       	lea    edx,[eax-0x1]
    22cd:	67 66 8b 45 e4       	mov    eax,DWORD PTR [ebp-0x1c]
    22d2:	66 01 c2             	add    edx,eax
    22d5:	67 66 8b 45 f0       	mov    eax,DWORD PTR [ebp-0x10]
    22da:	67 66 89 44 24 08    	mov    DWORD PTR [esp+0x8],eax
    22e0:	67 66 8d 45 c2       	lea    eax,[ebp-0x3e]
    22e5:	67 66 89 44 24 04    	mov    DWORD PTR [esp+0x4],eax
    22eb:	67 66 89 14 24       	mov    DWORD PTR [esp],edx
    22f0:	66 e8 1b f7 ff ff    	call   1a11 <_strncpy>
D:\OneDrive\Study\Operating Systems\สตั้\project5\codes/./lib/utilsC.c:241
		name[l] = '\0';
    22f6:	67 66 8d 55 c2       	lea    edx,[ebp-0x3e]
    22fb:	67 66 8b 45 f0       	mov    eax,DWORD PTR [ebp-0x10]
    2300:	66 01 d0             	add    eax,edx
    2303:	67 c6 00 00          	mov    BYTE PTR [eax],0x0
D:\OneDrive\Study\Operating Systems\สตั้\project5\codes/./lib/utilsC.c:243
		// size
		while(rawRecords[i]!='|'){
    2307:	eb 3a                	jmp    2343 <_loadFiles+0x12e>
D:\OneDrive\Study\Operating Systems\สตั้\project5\codes/./lib/utilsC.c:244
			size = size * 10 + rawRecords[i]-'0';
    2309:	67 66 8b 55 ec       	mov    edx,DWORD PTR [ebp-0x14]
    230e:	66 89 d0             	mov    eax,edx
    2311:	66 c1 e0 02          	shl    eax,0x2
    2315:	66 01 d0             	add    eax,edx
    2318:	66 01 c0             	add    eax,eax
    231b:	66 89 c1             	mov    ecx,eax
    231e:	67 66 8b 55 f4       	mov    edx,DWORD PTR [ebp-0xc]
    2323:	67 66 8b 45 e4       	mov    eax,DWORD PTR [ebp-0x1c]
    2328:	66 01 d0             	add    eax,edx
    232b:	67 8a 00             	mov    al,BYTE PTR [eax]
    232e:	66 0f be c0          	movsx  eax,al
    2332:	66 01 c8             	add    eax,ecx
    2335:	66 83 e8 30          	sub    eax,0x30
    2339:	67 66 89 45 ec       	mov    DWORD PTR [ebp-0x14],eax
D:\OneDrive\Study\Operating Systems\สตั้\project5\codes/./lib/utilsC.c:245
			++i;
    233e:	67 66 ff 45 f4       	inc    DWORD PTR [ebp-0xc]
D:\OneDrive\Study\Operating Systems\สตั้\project5\codes/./lib/utilsC.c:243
		while(rawRecords[i]!='|'){
    2343:	67 66 8b 55 f4       	mov    edx,DWORD PTR [ebp-0xc]
    2348:	67 66 8b 45 e4       	mov    eax,DWORD PTR [ebp-0x1c]
    234d:	66 01 d0             	add    eax,edx
    2350:	67 8a 00             	mov    al,BYTE PTR [eax]
    2353:	3c 7c                	cmp    al,0x7c
    2355:	75 b2                	jne    2309 <_loadFiles+0xf4>
D:\OneDrive\Study\Operating Systems\สตั้\project5\codes/./lib/utilsC.c:247
		}		
		++i;
    2357:	67 66 ff 45 f4       	inc    DWORD PTR [ebp-0xc]
D:\OneDrive\Study\Operating Systems\สตั้\project5\codes/./lib/utilsC.c:249
		// place
		while(rawRecords[i]!='|'){
    235c:	eb 3a                	jmp    2398 <_loadFiles+0x183>
D:\OneDrive\Study\Operating Systems\สตั้\project5\codes/./lib/utilsC.c:250
			place = place * 10 + rawRecords[i]-'0';
    235e:	67 66 8b 55 e8       	mov    edx,DWORD PTR [ebp-0x18]
    2363:	66 89 d0             	mov    eax,edx
    2366:	66 c1 e0 02          	shl    eax,0x2
    236a:	66 01 d0             	add    eax,edx
    236d:	66 01 c0             	add    eax,eax
    2370:	66 89 c1             	mov    ecx,eax
    2373:	67 66 8b 55 f4       	mov    edx,DWORD PTR [ebp-0xc]
    2378:	67 66 8b 45 e4       	mov    eax,DWORD PTR [ebp-0x1c]
    237d:	66 01 d0             	add    eax,edx
    2380:	67 8a 00             	mov    al,BYTE PTR [eax]
    2383:	66 0f be c0          	movsx  eax,al
    2387:	66 01 c8             	add    eax,ecx
    238a:	66 83 e8 30          	sub    eax,0x30
    238e:	67 66 89 45 e8       	mov    DWORD PTR [ebp-0x18],eax
D:\OneDrive\Study\Operating Systems\สตั้\project5\codes/./lib/utilsC.c:251
			++i;
    2393:	67 66 ff 45 f4       	inc    DWORD PTR [ebp-0xc]
D:\OneDrive\Study\Operating Systems\สตั้\project5\codes/./lib/utilsC.c:249
		while(rawRecords[i]!='|'){
    2398:	67 66 8b 55 f4       	mov    edx,DWORD PTR [ebp-0xc]
    239d:	67 66 8b 45 e4       	mov    eax,DWORD PTR [ebp-0x1c]
    23a2:	66 01 d0             	add    eax,edx
    23a5:	67 8a 00             	mov    al,BYTE PTR [eax]
    23a8:	3c 7c                	cmp    al,0x7c
    23aa:	75 b2                	jne    235e <_loadFiles+0x149>
D:\OneDrive\Study\Operating Systems\สตั้\project5\codes/./lib/utilsC.c:253
		}		
		++i;
    23ac:	67 66 ff 45 f4       	inc    DWORD PTR [ebp-0xc]
D:\OneDrive\Study\Operating Systems\สตั้\project5\codes/./lib/utilsC.c:255
		//type
		t = rawRecords[i]-'0';
    23b1:	67 66 8b 55 f4       	mov    edx,DWORD PTR [ebp-0xc]
    23b6:	67 66 8b 45 e4       	mov    eax,DWORD PTR [ebp-0x1c]
    23bb:	66 01 d0             	add    eax,edx
    23be:	67 8a 00             	mov    al,BYTE PTR [eax]
    23c1:	66 0f be c0          	movsx  eax,al
    23c5:	66 83 e8 30          	sub    eax,0x30
    23c9:	67 66 89 45 e0       	mov    DWORD PTR [ebp-0x20],eax
D:\OneDrive\Study\Operating Systems\สตั้\project5\codes/./lib/utilsC.c:256
		i+=3;
    23ce:	67 66 83 45 f4 03    	add    DWORD PTR [ebp-0xc],0x3
D:\OneDrive\Study\Operating Systems\สตั้\project5\codes/./lib/utilsC.c:257
		tmp.size = size;
    23d4:	67 66 8b 45 ec       	mov    eax,DWORD PTR [ebp-0x14]
    23d9:	67 66 89 45 b4       	mov    DWORD PTR [ebp-0x4c],eax
D:\OneDrive\Study\Operating Systems\สตั้\project5\codes/./lib/utilsC.c:258
		tmp.type = t;
    23de:	67 66 8b 45 e0       	mov    eax,DWORD PTR [ebp-0x20]
    23e3:	67 66 89 45 ac       	mov    DWORD PTR [ebp-0x54],eax
D:\OneDrive\Study\Operating Systems\สตั้\project5\codes/./lib/utilsC.c:259
		tmp.lmaddress = place;
    23e8:	67 66 8b 45 e8       	mov    eax,DWORD PTR [ebp-0x18]
    23ed:	67 66 89 45 b0       	mov    DWORD PTR [ebp-0x50],eax
D:\OneDrive\Study\Operating Systems\สตั้\project5\codes/./lib/utilsC.c:260
		tmp.deleted = 0;
    23f2:	67 66 c7 45 b8 00 00 	mov    DWORD PTR [ebp-0x48],0x0
    23f9:	00 00 
D:\OneDrive\Study\Operating Systems\สตั้\project5\codes/./lib/utilsC.c:261
		strncpy(name, tmp.name, strlen(name));
    23fb:	67 66 8d 45 c2       	lea    eax,[ebp-0x3e]
    2400:	67 66 89 04 24       	mov    DWORD PTR [esp],eax
    2405:	66 e8 b5 f1 ff ff    	call   15c0 <_strlen>
    240b:	67 66 89 44 24 08    	mov    DWORD PTR [esp+0x8],eax
    2411:	67 66 8d 45 8c       	lea    eax,[ebp-0x74]
    2416:	67 66 89 44 24 04    	mov    DWORD PTR [esp+0x4],eax
    241c:	67 66 8d 45 c2       	lea    eax,[ebp-0x3e]
    2421:	67 66 89 04 24       	mov    DWORD PTR [esp],eax
    2426:	66 e8 e5 f5 ff ff    	call   1a11 <_strncpy>
D:\OneDrive\Study\Operating Systems\สตั้\project5\codes/./lib/utilsC.c:262
		hash(name, tmp);
    242c:	67 66 8d 44 24 04    	lea    eax,[esp+0x4]
    2432:	67 66 8d 55 8c       	lea    edx,[ebp-0x74]
    2437:	66 b9 0d 00 00 00    	mov    ecx,0xd
    243d:	66 89 c7             	mov    edi,eax
    2440:	66 89 d6             	mov    esi,edx
    2443:	66 f3 a5             	rep movs DWORD PTR es:[di],DWORD PTR ds:[si]
    2446:	67 66 8d 45 c2       	lea    eax,[ebp-0x3e]
    244b:	67 66 89 04 24       	mov    DWORD PTR [esp],eax
    2450:	66 e8 a7 f6 ff ff    	call   1afd <_hash>
D:\OneDrive\Study\Operating Systems\สตั้\project5\codes/./lib/utilsC.c:228
	while(rawRecords[i] != '\n')
    2456:	67 66 8b 55 f4       	mov    edx,DWORD PTR [ebp-0xc]
    245b:	67 66 8b 45 e4       	mov    eax,DWORD PTR [ebp-0x1c]
    2460:	66 01 d0             	add    eax,edx
    2463:	67 8a 00             	mov    al,BYTE PTR [eax]
    2466:	3c 0a                	cmp    al,0xa
    2468:	0f 85 07 fe          	jne    2273 <_loadFiles+0x5e>
D:\OneDrive\Study\Operating Systems\สตั้\project5\codes/./lib/utilsC.c:264
	}
}
    246c:	90                   	nop
    246d:	66 81 c4 a4 00 00 00 	add    esp,0xa4
    2474:	66 5e                	pop    esi
    2476:	66 5f                	pop    edi
    2478:	66 5d                	pop    ebp
    247a:	66 c3                	ret    

0000247c <_initialProcessTable>:
initialProcessTable():
D:\OneDrive\Study\Operating Systems\สตั้\project5\codes/./lib/utilsC.c:268


void initialProcessTable()
{
    247c:	66 55                	push   ebp
    247e:	66 89 e5             	mov    ebp,esp
    2481:	66 83 ec 10          	sub    esp,0x10
D:\OneDrive\Study\Operating Systems\สตั้\project5\codes/./lib/utilsC.c:269
	for (int i = 0; i < Len; ++i)
    2485:	67 66 c7 45 fc 00 00 	mov    DWORD PTR [ebp-0x4],0x0
    248c:	00 00 
    248e:	eb 47                	jmp    24d7 <_initialProcessTable+0x5b>
D:\OneDrive\Study\Operating Systems\สตั้\project5\codes/./lib/utilsC.c:271
	{
		processTable[i].id = -1;
    2490:	67 66 8b 55 fc       	mov    edx,DWORD PTR [ebp-0x4]
    2495:	66 89 d0             	mov    eax,edx
    2498:	66 c1 e0 02          	shl    eax,0x2
    249c:	66 01 d0             	add    eax,edx
    249f:	66 c1 e0 04          	shl    eax,0x4
    24a3:	66 05 84 6a 00 00    	add    eax,0x6a84
    24a9:	67 66 c7 00 ff ff ff 	mov    DWORD PTR [eax],0xffffffff
    24b0:	ff 
D:\OneDrive\Study\Operating Systems\สตั้\project5\codes/./lib/utilsC.c:272
		processTable[i].status = Origin;
    24b1:	67 66 8b 55 fc       	mov    edx,DWORD PTR [ebp-0x4]
    24b6:	66 89 d0             	mov    eax,edx
    24b9:	66 c1 e0 02          	shl    eax,0x2
    24bd:	66 01 d0             	add    eax,edx
    24c0:	66 c1 e0 04          	shl    eax,0x4
    24c4:	66 05 ac 6a 00 00    	add    eax,0x6aac
    24ca:	67 66 c7 00 00 00 00 	mov    DWORD PTR [eax],0x0
    24d1:	00 
D:\OneDrive\Study\Operating Systems\สตั้\project5\codes/./lib/utilsC.c:269
	for (int i = 0; i < Len; ++i)
    24d2:	67 66 ff 45 fc       	inc    DWORD PTR [ebp-0x4]
    24d7:	67 66 83 7d fc 13    	cmp    DWORD PTR [ebp-0x4],0x13
    24dd:	7e b1                	jle    2490 <_initialProcessTable+0x14>
D:\OneDrive\Study\Operating Systems\สตั้\project5\codes/./lib/utilsC.c:275
	}
	
	processTable[0].status = running;
    24df:	66 c7 06 ac 6a 02 00 	mov    DWORD PTR ds:0x6aac,0x2
    24e6:	00 00 
D:\OneDrive\Study\Operating Systems\สตั้\project5\codes/./lib/utilsC.c:276
	strncpy("kernel", processTable[0].name, 6); 
    24e8:	67 66 c7 44 24 08 06 	mov    DWORD PTR [esp+0x8],0x6
    24ef:	00 00 00 
    24f2:	67 66 c7 44 24 04 8c 	mov    DWORD PTR [esp+0x4],0x6a8c
    24f9:	6a 00 00 
    24fc:	67 66 c7 04 24 9b 40 	mov    DWORD PTR [esp],0x409b
    2503:	00 00 
    2505:	66 e8 06 f5 ff ff    	call   1a11 <_strncpy>
D:\OneDrive\Study\Operating Systems\สตั้\project5\codes/./lib/utilsC.c:277
	processTable[0].id = 0;
    250b:	66 c7 06 84 6a 00 00 	mov    DWORD PTR ds:0x6a84,0x0
    2512:	00 00 
D:\OneDrive\Study\Operating Systems\สตั้\project5\codes/./lib/utilsC.c:278
	processTable[0].pcb.cs = 0x2000;
    2514:	c7 06 7a 6a 00 20    	mov    WORD PTR ds:0x6a7a,0x2000
D:\OneDrive\Study\Operating Systems\สตั้\project5\codes/./lib/utilsC.c:279
	processTable[0].pcb.ip = 0x0;
    251a:	c7 06 78 6a 00 00    	mov    WORD PTR ds:0x6a78,0x0
D:\OneDrive\Study\Operating Systems\สตั้\project5\codes/./lib/utilsC.c:280
	processTable[0].pcb.ss_now = 0x2000;
    2520:	c7 06 80 6a 00 20    	mov    WORD PTR ds:0x6a80,0x2000
D:\OneDrive\Study\Operating Systems\สตั้\project5\codes/./lib/utilsC.c:281
	processTable[0].pcb.sp_now = 0xffff;
    2526:	c7 06 7e 6a ff ff    	mov    WORD PTR ds:0x6a7e,0xffff
D:\OneDrive\Study\Operating Systems\สตั้\project5\codes/./lib/utilsC.c:283
	// curProcessId = 1;
}
    252c:	90                   	nop
    252d:	66 c9                	leave  
    252f:	66 c3                	ret    

00002531 <_ps>:
ps():
D:\OneDrive\Study\Operating Systems\สตั้\project5\codes/./lib/utilsC.c:286

void ps()
{
    2531:	66 55                	push   ebp
    2533:	66 89 e5             	mov    ebp,esp
    2536:	66 57                	push   edi
    2538:	66 56                	push   esi
    253a:	66 53                	push   ebx
    253c:	66 83 ec 7c          	sub    esp,0x7c
D:\OneDrive\Study\Operating Systems\สตั้\project5\codes/./lib/utilsC.c:287
	char * head = "Id  ProcessName       Status\n";
    2540:	67 66 c7 45 ec a2 40 	mov    DWORD PTR [ebp-0x14],0x40a2
    2547:	00 00 
D:\OneDrive\Study\Operating Systems\สตั้\project5\codes/./lib/utilsC.c:288
	char status[6][10] = {"Origin", "ready", "running", "blocked", "suspend", "exit"};
    2549:	67 66 8d 45 ac       	lea    eax,[ebp-0x54]
    254e:	66 bb c0 3b 00 00    	mov    ebx,0x3bc0
    2554:	66 ba 0f 00 00 00    	mov    edx,0xf
    255a:	66 89 c7             	mov    edi,eax
    255d:	66 89 de             	mov    esi,ebx
    2560:	66 89 d1             	mov    ecx,edx
    2563:	66 f3 a5             	rep movs DWORD PTR es:[di],DWORD PTR ds:[si]
D:\OneDrive\Study\Operating Systems\สตั้\project5\codes/./lib/utilsC.c:289
	int begin = 20;
    2566:	67 66 c7 45 e8 14 00 	mov    DWORD PTR [ebp-0x18],0x14
    256d:	00 00 
D:\OneDrive\Study\Operating Systems\สตั้\project5\codes/./lib/utilsC.c:290
	printSentence(head, line++, begin, strlen(head), purple);
    256f:	67 66 8b 45 ec       	mov    eax,DWORD PTR [ebp-0x14]
    2574:	67 66 89 04 24       	mov    DWORD PTR [esp],eax
    2579:	66 e8 41 f0 ff ff    	call   15c0 <_strlen>
    257f:	66 89 c2             	mov    edx,eax
    2582:	66 a1 00 61          	mov    eax,ds:0x6100
    2586:	67 66 8d 48 01       	lea    ecx,[eax+0x1]
    258b:	66 89 0e 00 61       	mov    DWORD PTR ds:0x6100,ecx
    2590:	67 66 c7 44 24 10 0d 	mov    DWORD PTR [esp+0x10],0xd
    2597:	00 00 00 
    259a:	67 66 89 54 24 0c    	mov    DWORD PTR [esp+0xc],edx
    25a0:	67 66 8b 55 e8       	mov    edx,DWORD PTR [ebp-0x18]
    25a5:	67 66 89 54 24 08    	mov    DWORD PTR [esp+0x8],edx
    25ab:	67 66 89 44 24 04    	mov    DWORD PTR [esp+0x4],eax
    25b1:	67 66 8b 45 ec       	mov    eax,DWORD PTR [ebp-0x14]
    25b6:	67 66 89 04 24       	mov    DWORD PTR [esp],eax
    25bb:	66 e8 f7 e4 ff ff    	call   ab8 <_printSentence>
D:\OneDrive\Study\Operating Systems\สตั้\project5\codes/./lib/utilsC.c:292
	char str[30];
	for (int i = 0; i < Len; ++i)
    25c1:	67 66 c7 45 f0 00 00 	mov    DWORD PTR [ebp-0x10],0x0
    25c8:	00 00 
    25ca:	e9 e1 01             	jmp    27ae <_ps+0x27d>
D:\OneDrive\Study\Operating Systems\สตั้\project5\codes/./lib/utilsC.c:294
	{
		if(processTable[i].id != -1)
    25cd:	67 66 8b 55 f0       	mov    edx,DWORD PTR [ebp-0x10]
    25d2:	66 89 d0             	mov    eax,edx
    25d5:	66 c1 e0 02          	shl    eax,0x2
    25d9:	66 01 d0             	add    eax,edx
    25dc:	66 c1 e0 04          	shl    eax,0x4
    25e0:	66 05 84 6a 00 00    	add    eax,0x6a84
    25e6:	67 66 8b 00          	mov    eax,DWORD PTR [eax]
    25ea:	66 83 f8 ff          	cmp    eax,0xffffffff
    25ee:	0f 84 b7 01          	je     27a9 <_ps+0x278>
D:\OneDrive\Study\Operating Systems\สตั้\project5\codes/./lib/utilsC.c:296
		{
			int2str(processTable[i].id, str);
    25f2:	67 66 8b 55 f0       	mov    edx,DWORD PTR [ebp-0x10]
    25f7:	66 89 d0             	mov    eax,edx
    25fa:	66 c1 e0 02          	shl    eax,0x2
    25fe:	66 01 d0             	add    eax,edx
    2601:	66 c1 e0 04          	shl    eax,0x4
    2605:	66 05 84 6a 00 00    	add    eax,0x6a84
    260b:	67 66 8b 00          	mov    eax,DWORD PTR [eax]
    260f:	67 66 8d 55 8e       	lea    edx,[ebp-0x72]
    2614:	67 66 89 54 24 04    	mov    DWORD PTR [esp+0x4],edx
    261a:	67 66 89 04 24       	mov    DWORD PTR [esp],eax
    261f:	66 e8 33 fa ff ff    	call   2058 <_int2str>
D:\OneDrive\Study\Operating Systems\สตั้\project5\codes/./lib/utilsC.c:297
			printSentence(str, line, begin+1, strlen(str), purple);
    2625:	67 66 8d 45 8e       	lea    eax,[ebp-0x72]
    262a:	67 66 89 04 24       	mov    DWORD PTR [esp],eax
    262f:	66 e8 8b ef ff ff    	call   15c0 <_strlen>
    2635:	66 89 c2             	mov    edx,eax
    2638:	67 66 8b 45 e8       	mov    eax,DWORD PTR [ebp-0x18]
    263d:	67 66 8d 48 01       	lea    ecx,[eax+0x1]
    2642:	66 a1 00 61          	mov    eax,ds:0x6100
    2646:	67 66 c7 44 24 10 0d 	mov    DWORD PTR [esp+0x10],0xd
    264d:	00 00 00 
    2650:	67 66 89 54 24 0c    	mov    DWORD PTR [esp+0xc],edx
    2656:	67 66 89 4c 24 08    	mov    DWORD PTR [esp+0x8],ecx
    265c:	67 66 89 44 24 04    	mov    DWORD PTR [esp+0x4],eax
    2662:	67 66 8d 45 8e       	lea    eax,[ebp-0x72]
    2667:	67 66 89 04 24       	mov    DWORD PTR [esp],eax
    266c:	66 e8 46 e4 ff ff    	call   ab8 <_printSentence>
D:\OneDrive\Study\Operating Systems\สตั้\project5\codes/./lib/utilsC.c:298
			printSentence(processTable[i].name, line, begin+5, strlen(processTable[i].name), purple);
    2672:	67 66 8b 55 f0       	mov    edx,DWORD PTR [ebp-0x10]
    2677:	66 89 d0             	mov    eax,edx
    267a:	66 c1 e0 02          	shl    eax,0x2
    267e:	66 01 d0             	add    eax,edx
    2681:	66 c1 e0 04          	shl    eax,0x4
    2685:	66 83 c0 20          	add    eax,0x20
    2689:	66 05 60 6a 00 00    	add    eax,0x6a60
    268f:	66 83 c0 0c          	add    eax,0xc
    2693:	67 66 89 04 24       	mov    DWORD PTR [esp],eax
    2698:	66 e8 22 ef ff ff    	call   15c0 <_strlen>
    269e:	66 89 c1             	mov    ecx,eax
    26a1:	67 66 8b 45 e8       	mov    eax,DWORD PTR [ebp-0x18]
    26a6:	67 66 8d 70 05       	lea    esi,[eax+0x5]
    26ab:	66 8b 16 00 61       	mov    edx,DWORD PTR ds:0x6100
    26b0:	67 66 8b 5d f0       	mov    ebx,DWORD PTR [ebp-0x10]
    26b5:	66 89 d8             	mov    eax,ebx
    26b8:	66 c1 e0 02          	shl    eax,0x2
    26bc:	66 01 d8             	add    eax,ebx
    26bf:	66 c1 e0 04          	shl    eax,0x4
    26c3:	66 83 c0 20          	add    eax,0x20
    26c7:	66 05 60 6a 00 00    	add    eax,0x6a60
    26cd:	66 83 c0 0c          	add    eax,0xc
    26d1:	67 66 c7 44 24 10 0d 	mov    DWORD PTR [esp+0x10],0xd
    26d8:	00 00 00 
    26db:	67 66 89 4c 24 0c    	mov    DWORD PTR [esp+0xc],ecx
    26e1:	67 66 89 74 24 08    	mov    DWORD PTR [esp+0x8],esi
    26e7:	67 66 89 54 24 04    	mov    DWORD PTR [esp+0x4],edx
    26ed:	67 66 89 04 24       	mov    DWORD PTR [esp],eax
    26f2:	66 e8 c0 e3 ff ff    	call   ab8 <_printSentence>
D:\OneDrive\Study\Operating Systems\สตั้\project5\codes/./lib/utilsC.c:299
			printSentence(status[processTable[i].status], line++, begin+23, strlen(status[processTable[i].status]), purple);
    26f8:	67 66 8b 55 f0       	mov    edx,DWORD PTR [ebp-0x10]
    26fd:	66 89 d0             	mov    eax,edx
    2700:	66 c1 e0 02          	shl    eax,0x2
    2704:	66 01 d0             	add    eax,edx
    2707:	66 c1 e0 04          	shl    eax,0x4
    270b:	66 05 ac 6a 00 00    	add    eax,0x6aac
    2711:	67 66 8b 10          	mov    edx,DWORD PTR [eax]
    2715:	67 66 8d 4d ac       	lea    ecx,[ebp-0x54]
    271a:	66 89 d0             	mov    eax,edx
    271d:	66 c1 e0 02          	shl    eax,0x2
    2721:	66 01 d0             	add    eax,edx
    2724:	66 01 c0             	add    eax,eax
    2727:	66 01 c8             	add    eax,ecx
    272a:	67 66 89 04 24       	mov    DWORD PTR [esp],eax
    272f:	66 e8 8b ee ff ff    	call   15c0 <_strlen>
    2735:	66 89 c1             	mov    ecx,eax
    2738:	67 66 8b 45 e8       	mov    eax,DWORD PTR [ebp-0x18]
    273d:	67 66 8d 70 17       	lea    esi,[eax+0x17]
    2742:	66 8b 16 00 61       	mov    edx,DWORD PTR ds:0x6100
    2747:	67 66 8d 42 01       	lea    eax,[edx+0x1]
    274c:	66 a3 00 61          	mov    ds:0x6100,eax
    2750:	67 66 8b 5d f0       	mov    ebx,DWORD PTR [ebp-0x10]
    2755:	66 89 d8             	mov    eax,ebx
    2758:	66 c1 e0 02          	shl    eax,0x2
    275c:	66 01 d8             	add    eax,ebx
    275f:	66 c1 e0 04          	shl    eax,0x4
    2763:	66 05 ac 6a 00 00    	add    eax,0x6aac
    2769:	67 66 8b 18          	mov    ebx,DWORD PTR [eax]
    276d:	67 66 8d 7d ac       	lea    edi,[ebp-0x54]
    2772:	66 89 d8             	mov    eax,ebx
    2775:	66 c1 e0 02          	shl    eax,0x2
    2779:	66 01 d8             	add    eax,ebx
    277c:	66 01 c0             	add    eax,eax
    277f:	66 01 f8             	add    eax,edi
    2782:	67 66 c7 44 24 10 0d 	mov    DWORD PTR [esp+0x10],0xd
    2789:	00 00 00 
    278c:	67 66 89 4c 24 0c    	mov    DWORD PTR [esp+0xc],ecx
    2792:	67 66 89 74 24 08    	mov    DWORD PTR [esp+0x8],esi
    2798:	67 66 89 54 24 04    	mov    DWORD PTR [esp+0x4],edx
    279e:	67 66 89 04 24       	mov    DWORD PTR [esp],eax
    27a3:	66 e8 0f e3 ff ff    	call   ab8 <_printSentence>
D:\OneDrive\Study\Operating Systems\สตั้\project5\codes/./lib/utilsC.c:292
	for (int i = 0; i < Len; ++i)
    27a9:	67 66 ff 45 f0       	inc    DWORD PTR [ebp-0x10]
    27ae:	67 66 83 7d f0 13    	cmp    DWORD PTR [ebp-0x10],0x13
    27b4:	0f 8e 15 fe          	jle    25cd <_ps+0x9c>
D:\OneDrive\Study\Operating Systems\สตั้\project5\codes/./lib/utilsC.c:302
		}
	}
}
    27b8:	90                   	nop
    27b9:	66 83 c4 7c          	add    esp,0x7c
    27bd:	66 5b                	pop    ebx
    27bf:	66 5e                	pop    esi
    27c1:	66 5f                	pop    edi
    27c3:	66 5d                	pop    ebp
    27c5:	66 c3                	ret    

000027c7 <_nextUnusedItem>:
nextUnusedItem():
D:\OneDrive\Study\Operating Systems\สตั้\project5\codes/./lib/utilsC.c:305

int nextUnusedItem()
{
    27c7:	66 55                	push   ebp
    27c9:	66 89 e5             	mov    ebp,esp
    27cc:	66 83 ec 04          	sub    esp,0x4
D:\OneDrive\Study\Operating Systems\สตั้\project5\codes/./lib/utilsC.c:306
	for (int i = 0; i < MemLen; ++i)
    27d0:	67 66 c7 45 fc 00 00 	mov    DWORD PTR [ebp-0x4],0x0
    27d7:	00 00 
    27d9:	eb 2d                	jmp    2808 <_nextUnusedItem+0x41>
D:\OneDrive\Study\Operating Systems\สตั้\project5\codes/./lib/utilsC.c:308
	{
		if(memoryTable[i].used == 0)
    27db:	67 66 8b 55 fc       	mov    edx,DWORD PTR [ebp-0x4]
    27e0:	66 89 d0             	mov    eax,edx
    27e3:	66 01 c0             	add    eax,eax
    27e6:	66 01 d0             	add    eax,edx
    27e9:	66 c1 e0 03          	shl    eax,0x3
    27ed:	66 05 50 61 00 00    	add    eax,0x6150
    27f3:	67 66 8b 00          	mov    eax,DWORD PTR [eax]
    27f7:	66 85 c0             	test   eax,eax
    27fa:	75 07                	jne    2803 <_nextUnusedItem+0x3c>
D:\OneDrive\Study\Operating Systems\สตั้\project5\codes/./lib/utilsC.c:309
			return i;
    27fc:	67 66 8b 45 fc       	mov    eax,DWORD PTR [ebp-0x4]
    2801:	eb 13                	jmp    2816 <_nextUnusedItem+0x4f>
D:\OneDrive\Study\Operating Systems\สตั้\project5\codes/./lib/utilsC.c:306
	for (int i = 0; i < MemLen; ++i)
    2803:	67 66 ff 45 fc       	inc    DWORD PTR [ebp-0x4]
    2808:	67 66 83 7d fc 31    	cmp    DWORD PTR [ebp-0x4],0x31
    280e:	7e cb                	jle    27db <_nextUnusedItem+0x14>
D:\OneDrive\Study\Operating Systems\สตั้\project5\codes/./lib/utilsC.c:311
	}
	return -1;
    2810:	66 b8 ff ff ff ff    	mov    eax,0xffffffff
D:\OneDrive\Study\Operating Systems\สตั้\project5\codes/./lib/utilsC.c:312
}
    2816:	66 c9                	leave  
    2818:	66 c3                	ret    

0000281a <_initialMemoryTable>:
initialMemoryTable():
D:\OneDrive\Study\Operating Systems\สตั้\project5\codes/./lib/utilsC.c:315

void initialMemoryTable()
{
    281a:	66 55                	push   ebp
    281c:	66 89 e5             	mov    ebp,esp
    281f:	66 83 ec 08          	sub    esp,0x8
D:\OneDrive\Study\Operating Systems\สตั้\project5\codes/./lib/utilsC.c:317
	int next;
	for (int i = 0; i < MemLen; ++i)
    2823:	67 66 c7 45 fc 00 00 	mov    DWORD PTR [ebp-0x4],0x0
    282a:	00 00 
    282c:	e9 85 00             	jmp    28b4 <_initialMemoryTable+0x9a>
D:\OneDrive\Study\Operating Systems\สตั้\project5\codes/./lib/utilsC.c:319
	{
		memoryTable[i].used = 0;
    282f:	67 66 8b 55 fc       	mov    edx,DWORD PTR [ebp-0x4]
    2834:	66 89 d0             	mov    eax,edx
    2837:	66 01 c0             	add    eax,eax
    283a:	66 01 d0             	add    eax,edx
    283d:	66 c1 e0 03          	shl    eax,0x3
    2841:	66 05 50 61 00 00    	add    eax,0x6150
    2847:	67 66 c7 00 00 00 00 	mov    DWORD PTR [eax],0x0
    284e:	00 
D:\OneDrive\Study\Operating Systems\สตั้\project5\codes/./lib/utilsC.c:320
		memoryTable[i].next = -1;
    284f:	67 66 8b 55 fc       	mov    edx,DWORD PTR [ebp-0x4]
    2854:	66 89 d0             	mov    eax,edx
    2857:	66 01 c0             	add    eax,eax
    285a:	66 01 d0             	add    eax,edx
    285d:	66 c1 e0 03          	shl    eax,0x3
    2861:	66 05 4c 61 00 00    	add    eax,0x614c
    2867:	67 66 c7 00 ff ff ff 	mov    DWORD PTR [eax],0xffffffff
    286e:	ff 
D:\OneDrive\Study\Operating Systems\สตั้\project5\codes/./lib/utilsC.c:321
		memoryTable[i].pre = -1;
    286f:	67 66 8b 55 fc       	mov    edx,DWORD PTR [ebp-0x4]
    2874:	66 89 d0             	mov    eax,edx
    2877:	66 01 c0             	add    eax,eax
    287a:	66 01 d0             	add    eax,edx
    287d:	66 c1 e0 03          	shl    eax,0x3
    2881:	66 05 48 61 00 00    	add    eax,0x6148
    2887:	67 66 c7 00 ff ff ff 	mov    DWORD PTR [eax],0xffffffff
    288e:	ff 
D:\OneDrive\Study\Operating Systems\สตั้\project5\codes/./lib/utilsC.c:322
		memoryTable[i].status = unused;
    288f:	67 66 8b 55 fc       	mov    edx,DWORD PTR [ebp-0x4]
    2894:	66 89 d0             	mov    eax,edx
    2897:	66 01 c0             	add    eax,eax
    289a:	66 01 d0             	add    eax,edx
    289d:	66 c1 e0 03          	shl    eax,0x3
    28a1:	66 05 54 61 00 00    	add    eax,0x6154
    28a7:	67 66 c7 00 00 00 00 	mov    DWORD PTR [eax],0x0
    28ae:	00 
D:\OneDrive\Study\Operating Systems\สตั้\project5\codes/./lib/utilsC.c:317
	for (int i = 0; i < MemLen; ++i)
    28af:	67 66 ff 45 fc       	inc    DWORD PTR [ebp-0x4]
    28b4:	67 66 83 7d fc 31    	cmp    DWORD PTR [ebp-0x4],0x31
    28ba:	0f 8e 71 ff          	jle    282f <_initialMemoryTable+0x15>
D:\OneDrive\Study\Operating Systems\สตั้\project5\codes/./lib/utilsC.c:324
	}
	firstUnusedMemoryItem = 0;
    28be:	66 c7 06 04 61 00 00 	mov    DWORD PTR ds:0x6104,0x0
    28c5:	00 00 
D:\OneDrive\Study\Operating Systems\สตั้\project5\codes/./lib/utilsC.c:325
	memoryTable[firstUnusedMemoryItem].pre = -1;
    28c7:	66 8b 16 04 61       	mov    edx,DWORD PTR ds:0x6104
    28cc:	66 89 d0             	mov    eax,edx
    28cf:	66 01 c0             	add    eax,eax
    28d2:	66 01 d0             	add    eax,edx
    28d5:	66 c1 e0 03          	shl    eax,0x3
    28d9:	66 05 48 61 00 00    	add    eax,0x6148
    28df:	67 66 c7 00 ff ff ff 	mov    DWORD PTR [eax],0xffffffff
    28e6:	ff 
D:\OneDrive\Study\Operating Systems\สตั้\project5\codes/./lib/utilsC.c:326
	memoryTable[firstUnusedMemoryItem].used = 1;
    28e7:	66 8b 16 04 61       	mov    edx,DWORD PTR ds:0x6104
    28ec:	66 89 d0             	mov    eax,edx
    28ef:	66 01 c0             	add    eax,eax
    28f2:	66 01 d0             	add    eax,edx
    28f5:	66 c1 e0 03          	shl    eax,0x3
    28f9:	66 05 50 61 00 00    	add    eax,0x6150
    28ff:	67 66 c7 00 01 00 00 	mov    DWORD PTR [eax],0x1
    2906:	00 
D:\OneDrive\Study\Operating Systems\สตั้\project5\codes/./lib/utilsC.c:327
	memoryTable[firstUnusedMemoryItem].beginAddr = 0;
    2907:	66 8b 16 04 61       	mov    edx,DWORD PTR ds:0x6104
    290c:	66 89 d0             	mov    eax,edx
    290f:	66 01 c0             	add    eax,eax
    2912:	66 01 d0             	add    eax,edx
    2915:	66 c1 e0 03          	shl    eax,0x3
    2919:	66 05 40 61 00 00    	add    eax,0x6140
    291f:	67 66 c7 00 00 00 00 	mov    DWORD PTR [eax],0x0
    2926:	00 
D:\OneDrive\Study\Operating Systems\สตั้\project5\codes/./lib/utilsC.c:328
	memoryTable[firstUnusedMemoryItem].endAddr = 0x4ff;
    2927:	66 8b 16 04 61       	mov    edx,DWORD PTR ds:0x6104
    292c:	66 89 d0             	mov    eax,edx
    292f:	66 01 c0             	add    eax,eax
    2932:	66 01 d0             	add    eax,edx
    2935:	66 c1 e0 03          	shl    eax,0x3
    2939:	66 05 44 61 00 00    	add    eax,0x6144
    293f:	67 66 c7 00 ff 04 00 	mov    DWORD PTR [eax],0x4ff
    2946:	00 
D:\OneDrive\Study\Operating Systems\สตั้\project5\codes/./lib/utilsC.c:329
	memoryTable[firstUnusedMemoryItem].status = used;
    2947:	66 8b 16 04 61       	mov    edx,DWORD PTR ds:0x6104
    294c:	66 89 d0             	mov    eax,edx
    294f:	66 01 c0             	add    eax,eax
    2952:	66 01 d0             	add    eax,edx
    2955:	66 c1 e0 03          	shl    eax,0x3
    2959:	66 05 54 61 00 00    	add    eax,0x6154
    295f:	67 66 c7 00 01 00 00 	mov    DWORD PTR [eax],0x1
    2966:	00 
D:\OneDrive\Study\Operating Systems\สตั้\project5\codes/./lib/utilsC.c:330
	next = nextUnusedItem();
    2967:	66 e8 5a fe ff ff    	call   27c7 <_nextUnusedItem>
    296d:	67 66 89 45 f8       	mov    DWORD PTR [ebp-0x8],eax
D:\OneDrive\Study\Operating Systems\สตั้\project5\codes/./lib/utilsC.c:331
	memoryTable[next].pre = firstUnusedMemoryItem;
    2972:	66 8b 16 04 61       	mov    edx,DWORD PTR ds:0x6104
    2977:	67 66 8b 4d f8       	mov    ecx,DWORD PTR [ebp-0x8]
    297c:	66 89 c8             	mov    eax,ecx
    297f:	66 01 c0             	add    eax,eax
    2982:	66 01 c8             	add    eax,ecx
    2985:	66 c1 e0 03          	shl    eax,0x3
    2989:	66 05 48 61 00 00    	add    eax,0x6148
    298f:	67 66 89 10          	mov    DWORD PTR [eax],edx
D:\OneDrive\Study\Operating Systems\สตั้\project5\codes/./lib/utilsC.c:332
	memoryTable[firstUnusedMemoryItem].next = next;
    2993:	66 8b 16 04 61       	mov    edx,DWORD PTR ds:0x6104
    2998:	66 89 d0             	mov    eax,edx
    299b:	66 01 c0             	add    eax,eax
    299e:	66 01 d0             	add    eax,edx
    29a1:	66 c1 e0 03          	shl    eax,0x3
    29a5:	67 66 8d 90 4c 61 00 	lea    edx,[eax+0x614c]
    29ac:	00 
    29ad:	67 66 8b 45 f8       	mov    eax,DWORD PTR [ebp-0x8]
    29b2:	67 66 89 02          	mov    DWORD PTR [edx],eax
D:\OneDrive\Study\Operating Systems\สตั้\project5\codes/./lib/utilsC.c:333
	firstUnusedMemoryItem = next;
    29b6:	67 66 8b 45 f8       	mov    eax,DWORD PTR [ebp-0x8]
    29bb:	66 a3 04 61          	mov    ds:0x6104,eax
D:\OneDrive\Study\Operating Systems\สตั้\project5\codes/./lib/utilsC.c:335

	memoryTable[firstUnusedMemoryItem].used = 1;
    29bf:	66 8b 16 04 61       	mov    edx,DWORD PTR ds:0x6104
    29c4:	66 89 d0             	mov    eax,edx
    29c7:	66 01 c0             	add    eax,eax
    29ca:	66 01 d0             	add    eax,edx
    29cd:	66 c1 e0 03          	shl    eax,0x3
    29d1:	66 05 50 61 00 00    	add    eax,0x6150
    29d7:	67 66 c7 00 01 00 00 	mov    DWORD PTR [eax],0x1
    29de:	00 
D:\OneDrive\Study\Operating Systems\สตั้\project5\codes/./lib/utilsC.c:336
	memoryTable[firstUnusedMemoryItem].beginAddr = 0x500;
    29df:	66 8b 16 04 61       	mov    edx,DWORD PTR ds:0x6104
    29e4:	66 89 d0             	mov    eax,edx
    29e7:	66 01 c0             	add    eax,eax
    29ea:	66 01 d0             	add    eax,edx
    29ed:	66 c1 e0 03          	shl    eax,0x3
    29f1:	66 05 40 61 00 00    	add    eax,0x6140
    29f7:	67 66 c7 00 00 05 00 	mov    DWORD PTR [eax],0x500
    29fe:	00 
D:\OneDrive\Study\Operating Systems\สตั้\project5\codes/./lib/utilsC.c:337
	memoryTable[firstUnusedMemoryItem].endAddr = 0x7cff;
    29ff:	66 8b 16 04 61       	mov    edx,DWORD PTR ds:0x6104
    2a04:	66 89 d0             	mov    eax,edx
    2a07:	66 01 c0             	add    eax,eax
    2a0a:	66 01 d0             	add    eax,edx
    2a0d:	66 c1 e0 03          	shl    eax,0x3
    2a11:	66 05 44 61 00 00    	add    eax,0x6144
    2a17:	67 66 c7 00 ff 7c 00 	mov    DWORD PTR [eax],0x7cff
    2a1e:	00 
D:\OneDrive\Study\Operating Systems\สตั้\project5\codes/./lib/utilsC.c:338
	memoryTable[firstUnusedMemoryItem].status = unused;
    2a1f:	66 8b 16 04 61       	mov    edx,DWORD PTR ds:0x6104
    2a24:	66 89 d0             	mov    eax,edx
    2a27:	66 01 c0             	add    eax,eax
    2a2a:	66 01 d0             	add    eax,edx
    2a2d:	66 c1 e0 03          	shl    eax,0x3
    2a31:	66 05 54 61 00 00    	add    eax,0x6154
    2a37:	67 66 c7 00 00 00 00 	mov    DWORD PTR [eax],0x0
    2a3e:	00 
D:\OneDrive\Study\Operating Systems\สตั้\project5\codes/./lib/utilsC.c:339
	next = nextUnusedItem();
    2a3f:	66 e8 82 fd ff ff    	call   27c7 <_nextUnusedItem>
    2a45:	67 66 89 45 f8       	mov    DWORD PTR [ebp-0x8],eax
D:\OneDrive\Study\Operating Systems\สตั้\project5\codes/./lib/utilsC.c:340
	memoryTable[next].pre = firstUnusedMemoryItem;
    2a4a:	66 8b 16 04 61       	mov    edx,DWORD PTR ds:0x6104
    2a4f:	67 66 8b 4d f8       	mov    ecx,DWORD PTR [ebp-0x8]
    2a54:	66 89 c8             	mov    eax,ecx
    2a57:	66 01 c0             	add    eax,eax
    2a5a:	66 01 c8             	add    eax,ecx
    2a5d:	66 c1 e0 03          	shl    eax,0x3
    2a61:	66 05 48 61 00 00    	add    eax,0x6148
    2a67:	67 66 89 10          	mov    DWORD PTR [eax],edx
D:\OneDrive\Study\Operating Systems\สตั้\project5\codes/./lib/utilsC.c:341
	memoryTable[firstUnusedMemoryItem].next = next;
    2a6b:	66 8b 16 04 61       	mov    edx,DWORD PTR ds:0x6104
    2a70:	66 89 d0             	mov    eax,edx
    2a73:	66 01 c0             	add    eax,eax
    2a76:	66 01 d0             	add    eax,edx
    2a79:	66 c1 e0 03          	shl    eax,0x3
    2a7d:	67 66 8d 90 4c 61 00 	lea    edx,[eax+0x614c]
    2a84:	00 
    2a85:	67 66 8b 45 f8       	mov    eax,DWORD PTR [ebp-0x8]
    2a8a:	67 66 89 02          	mov    DWORD PTR [edx],eax
D:\OneDrive\Study\Operating Systems\สตั้\project5\codes/./lib/utilsC.c:342
	firstUnusedMemoryItem = next;
    2a8e:	67 66 8b 45 f8       	mov    eax,DWORD PTR [ebp-0x8]
    2a93:	66 a3 04 61          	mov    ds:0x6104,eax
D:\OneDrive\Study\Operating Systems\สตั้\project5\codes/./lib/utilsC.c:345


	memoryTable[firstUnusedMemoryItem].used = 1;
    2a97:	66 8b 16 04 61       	mov    edx,DWORD PTR ds:0x6104
    2a9c:	66 89 d0             	mov    eax,edx
    2a9f:	66 01 c0             	add    eax,eax
    2aa2:	66 01 d0             	add    eax,edx
    2aa5:	66 c1 e0 03          	shl    eax,0x3
    2aa9:	66 05 50 61 00 00    	add    eax,0x6150
    2aaf:	67 66 c7 00 01 00 00 	mov    DWORD PTR [eax],0x1
    2ab6:	00 
D:\OneDrive\Study\Operating Systems\สตั้\project5\codes/./lib/utilsC.c:346
	memoryTable[firstUnusedMemoryItem].beginAddr = 0x7e00;
    2ab7:	66 8b 16 04 61       	mov    edx,DWORD PTR ds:0x6104
    2abc:	66 89 d0             	mov    eax,edx
    2abf:	66 01 c0             	add    eax,eax
    2ac2:	66 01 d0             	add    eax,edx
    2ac5:	66 c1 e0 03          	shl    eax,0x3
    2ac9:	66 05 40 61 00 00    	add    eax,0x6140
    2acf:	67 66 c7 00 00 7e 00 	mov    DWORD PTR [eax],0x7e00
    2ad6:	00 
D:\OneDrive\Study\Operating Systems\สตั้\project5\codes/./lib/utilsC.c:347
	memoryTable[firstUnusedMemoryItem].endAddr = 0x7dff;
    2ad7:	66 8b 16 04 61       	mov    edx,DWORD PTR ds:0x6104
    2adc:	66 89 d0             	mov    eax,edx
    2adf:	66 01 c0             	add    eax,eax
    2ae2:	66 01 d0             	add    eax,edx
    2ae5:	66 c1 e0 03          	shl    eax,0x3
    2ae9:	66 05 44 61 00 00    	add    eax,0x6144
    2aef:	67 66 c7 00 ff 7d 00 	mov    DWORD PTR [eax],0x7dff
    2af6:	00 
D:\OneDrive\Study\Operating Systems\สตั้\project5\codes/./lib/utilsC.c:348
	memoryTable[firstUnusedMemoryItem].status = used;
    2af7:	66 8b 16 04 61       	mov    edx,DWORD PTR ds:0x6104
    2afc:	66 89 d0             	mov    eax,edx
    2aff:	66 01 c0             	add    eax,eax
    2b02:	66 01 d0             	add    eax,edx
    2b05:	66 c1 e0 03          	shl    eax,0x3
    2b09:	66 05 54 61 00 00    	add    eax,0x6154
    2b0f:	67 66 c7 00 01 00 00 	mov    DWORD PTR [eax],0x1
    2b16:	00 
D:\OneDrive\Study\Operating Systems\สตั้\project5\codes/./lib/utilsC.c:349
	next = nextUnusedItem();
    2b17:	66 e8 aa fc ff ff    	call   27c7 <_nextUnusedItem>
    2b1d:	67 66 89 45 f8       	mov    DWORD PTR [ebp-0x8],eax
D:\OneDrive\Study\Operating Systems\สตั้\project5\codes/./lib/utilsC.c:350
	memoryTable[next].pre = firstUnusedMemoryItem;
    2b22:	66 8b 16 04 61       	mov    edx,DWORD PTR ds:0x6104
    2b27:	67 66 8b 4d f8       	mov    ecx,DWORD PTR [ebp-0x8]
    2b2c:	66 89 c8             	mov    eax,ecx
    2b2f:	66 01 c0             	add    eax,eax
    2b32:	66 01 c8             	add    eax,ecx
    2b35:	66 c1 e0 03          	shl    eax,0x3
    2b39:	66 05 48 61 00 00    	add    eax,0x6148
    2b3f:	67 66 89 10          	mov    DWORD PTR [eax],edx
D:\OneDrive\Study\Operating Systems\สตั้\project5\codes/./lib/utilsC.c:351
	memoryTable[firstUnusedMemoryItem].next = next;
    2b43:	66 8b 16 04 61       	mov    edx,DWORD PTR ds:0x6104
    2b48:	66 89 d0             	mov    eax,edx
    2b4b:	66 01 c0             	add    eax,eax
    2b4e:	66 01 d0             	add    eax,edx
    2b51:	66 c1 e0 03          	shl    eax,0x3
    2b55:	67 66 8d 90 4c 61 00 	lea    edx,[eax+0x614c]
    2b5c:	00 
    2b5d:	67 66 8b 45 f8       	mov    eax,DWORD PTR [ebp-0x8]
    2b62:	67 66 89 02          	mov    DWORD PTR [edx],eax
D:\OneDrive\Study\Operating Systems\สตั้\project5\codes/./lib/utilsC.c:352
	firstUnusedMemoryItem = next;
    2b66:	67 66 8b 45 f8       	mov    eax,DWORD PTR [ebp-0x8]
    2b6b:	66 a3 04 61          	mov    ds:0x6104,eax
D:\OneDrive\Study\Operating Systems\สตั้\project5\codes/./lib/utilsC.c:354

	memoryTable[firstUnusedMemoryItem].used = 1;
    2b6f:	66 8b 16 04 61       	mov    edx,DWORD PTR ds:0x6104
    2b74:	66 89 d0             	mov    eax,edx
    2b77:	66 01 c0             	add    eax,eax
    2b7a:	66 01 d0             	add    eax,edx
    2b7d:	66 c1 e0 03          	shl    eax,0x3
    2b81:	66 05 50 61 00 00    	add    eax,0x6150
    2b87:	67 66 c7 00 01 00 00 	mov    DWORD PTR [eax],0x1
    2b8e:	00 
D:\OneDrive\Study\Operating Systems\สตั้\project5\codes/./lib/utilsC.c:355
	memoryTable[firstUnusedMemoryItem].beginAddr = 0x7e00;
    2b8f:	66 8b 16 04 61       	mov    edx,DWORD PTR ds:0x6104
    2b94:	66 89 d0             	mov    eax,edx
    2b97:	66 01 c0             	add    eax,eax
    2b9a:	66 01 d0             	add    eax,edx
    2b9d:	66 c1 e0 03          	shl    eax,0x3
    2ba1:	66 05 40 61 00 00    	add    eax,0x6140
    2ba7:	67 66 c7 00 00 7e 00 	mov    DWORD PTR [eax],0x7e00
    2bae:	00 
D:\OneDrive\Study\Operating Systems\สตั้\project5\codes/./lib/utilsC.c:356
	memoryTable[firstUnusedMemoryItem].endAddr = 0xc1ff;
    2baf:	66 8b 16 04 61       	mov    edx,DWORD PTR ds:0x6104
    2bb4:	66 89 d0             	mov    eax,edx
    2bb7:	66 01 c0             	add    eax,eax
    2bba:	66 01 d0             	add    eax,edx
    2bbd:	66 c1 e0 03          	shl    eax,0x3
    2bc1:	66 05 44 61 00 00    	add    eax,0x6144
    2bc7:	67 66 c7 00 ff c1 00 	mov    DWORD PTR [eax],0xc1ff
    2bce:	00 
D:\OneDrive\Study\Operating Systems\สตั้\project5\codes/./lib/utilsC.c:357
	memoryTable[firstUnusedMemoryItem].status = unused;
    2bcf:	66 8b 16 04 61       	mov    edx,DWORD PTR ds:0x6104
    2bd4:	66 89 d0             	mov    eax,edx
    2bd7:	66 01 c0             	add    eax,eax
    2bda:	66 01 d0             	add    eax,edx
    2bdd:	66 c1 e0 03          	shl    eax,0x3
    2be1:	66 05 54 61 00 00    	add    eax,0x6154
    2be7:	67 66 c7 00 00 00 00 	mov    DWORD PTR [eax],0x0
    2bee:	00 
D:\OneDrive\Study\Operating Systems\สตั้\project5\codes/./lib/utilsC.c:358
	next = nextUnusedItem();
    2bef:	66 e8 d2 fb ff ff    	call   27c7 <_nextUnusedItem>
    2bf5:	67 66 89 45 f8       	mov    DWORD PTR [ebp-0x8],eax
D:\OneDrive\Study\Operating Systems\สตั้\project5\codes/./lib/utilsC.c:359
	memoryTable[next].pre = firstUnusedMemoryItem;
    2bfa:	66 8b 16 04 61       	mov    edx,DWORD PTR ds:0x6104
    2bff:	67 66 8b 4d f8       	mov    ecx,DWORD PTR [ebp-0x8]
    2c04:	66 89 c8             	mov    eax,ecx
    2c07:	66 01 c0             	add    eax,eax
    2c0a:	66 01 c8             	add    eax,ecx
    2c0d:	66 c1 e0 03          	shl    eax,0x3
    2c11:	66 05 48 61 00 00    	add    eax,0x6148
    2c17:	67 66 89 10          	mov    DWORD PTR [eax],edx
D:\OneDrive\Study\Operating Systems\สตั้\project5\codes/./lib/utilsC.c:360
	memoryTable[firstUnusedMemoryItem].next = next;
    2c1b:	66 8b 16 04 61       	mov    edx,DWORD PTR ds:0x6104
    2c20:	66 89 d0             	mov    eax,edx
    2c23:	66 01 c0             	add    eax,eax
    2c26:	66 01 d0             	add    eax,edx
    2c29:	66 c1 e0 03          	shl    eax,0x3
    2c2d:	67 66 8d 90 4c 61 00 	lea    edx,[eax+0x614c]
    2c34:	00 
    2c35:	67 66 8b 45 f8       	mov    eax,DWORD PTR [ebp-0x8]
    2c3a:	67 66 89 02          	mov    DWORD PTR [edx],eax
D:\OneDrive\Study\Operating Systems\สตั้\project5\codes/./lib/utilsC.c:361
	firstUnusedMemoryItem = next;
    2c3e:	67 66 8b 45 f8       	mov    eax,DWORD PTR [ebp-0x8]
    2c43:	66 a3 04 61          	mov    ds:0x6104,eax
D:\OneDrive\Study\Operating Systems\สตั้\project5\codes/./lib/utilsC.c:363

	memoryTable[firstUnusedMemoryItem].used = 1;
    2c47:	66 8b 16 04 61       	mov    edx,DWORD PTR ds:0x6104
    2c4c:	66 89 d0             	mov    eax,edx
    2c4f:	66 01 c0             	add    eax,eax
    2c52:	66 01 d0             	add    eax,edx
    2c55:	66 c1 e0 03          	shl    eax,0x3
    2c59:	66 05 50 61 00 00    	add    eax,0x6150
    2c5f:	67 66 c7 00 01 00 00 	mov    DWORD PTR [eax],0x1
    2c66:	00 
D:\OneDrive\Study\Operating Systems\สตั้\project5\codes/./lib/utilsC.c:364
	memoryTable[firstUnusedMemoryItem].beginAddr = 0xc200;
    2c67:	66 8b 16 04 61       	mov    edx,DWORD PTR ds:0x6104
    2c6c:	66 89 d0             	mov    eax,edx
    2c6f:	66 01 c0             	add    eax,eax
    2c72:	66 01 d0             	add    eax,edx
    2c75:	66 c1 e0 03          	shl    eax,0x3
    2c79:	66 05 40 61 00 00    	add    eax,0x6140
    2c7f:	67 66 c7 00 00 c2 00 	mov    DWORD PTR [eax],0xc200
    2c86:	00 
D:\OneDrive\Study\Operating Systems\สตั้\project5\codes/./lib/utilsC.c:365
	memoryTable[firstUnusedMemoryItem].endAddr = 0xc9ff;
    2c87:	66 8b 16 04 61       	mov    edx,DWORD PTR ds:0x6104
    2c8c:	66 89 d0             	mov    eax,edx
    2c8f:	66 01 c0             	add    eax,eax
    2c92:	66 01 d0             	add    eax,edx
    2c95:	66 c1 e0 03          	shl    eax,0x3
    2c99:	66 05 44 61 00 00    	add    eax,0x6144
    2c9f:	67 66 c7 00 ff c9 00 	mov    DWORD PTR [eax],0xc9ff
    2ca6:	00 
D:\OneDrive\Study\Operating Systems\สตั้\project5\codes/./lib/utilsC.c:366
	memoryTable[firstUnusedMemoryItem].status = used;
    2ca7:	66 8b 16 04 61       	mov    edx,DWORD PTR ds:0x6104
    2cac:	66 89 d0             	mov    eax,edx
    2caf:	66 01 c0             	add    eax,eax
    2cb2:	66 01 d0             	add    eax,edx
    2cb5:	66 c1 e0 03          	shl    eax,0x3
    2cb9:	66 05 54 61 00 00    	add    eax,0x6154
    2cbf:	67 66 c7 00 01 00 00 	mov    DWORD PTR [eax],0x1
    2cc6:	00 
D:\OneDrive\Study\Operating Systems\สตั้\project5\codes/./lib/utilsC.c:367
	next = nextUnusedItem();
    2cc7:	66 e8 fa fa ff ff    	call   27c7 <_nextUnusedItem>
    2ccd:	67 66 89 45 f8       	mov    DWORD PTR [ebp-0x8],eax
D:\OneDrive\Study\Operating Systems\สตั้\project5\codes/./lib/utilsC.c:368
	memoryTable[next].pre = firstUnusedMemoryItem;
    2cd2:	66 8b 16 04 61       	mov    edx,DWORD PTR ds:0x6104
    2cd7:	67 66 8b 4d f8       	mov    ecx,DWORD PTR [ebp-0x8]
    2cdc:	66 89 c8             	mov    eax,ecx
    2cdf:	66 01 c0             	add    eax,eax
    2ce2:	66 01 c8             	add    eax,ecx
    2ce5:	66 c1 e0 03          	shl    eax,0x3
    2ce9:	66 05 48 61 00 00    	add    eax,0x6148
    2cef:	67 66 89 10          	mov    DWORD PTR [eax],edx
D:\OneDrive\Study\Operating Systems\สตั้\project5\codes/./lib/utilsC.c:369
	memoryTable[firstUnusedMemoryItem].next = next;
    2cf3:	66 8b 16 04 61       	mov    edx,DWORD PTR ds:0x6104
    2cf8:	66 89 d0             	mov    eax,edx
    2cfb:	66 01 c0             	add    eax,eax
    2cfe:	66 01 d0             	add    eax,edx
    2d01:	66 c1 e0 03          	shl    eax,0x3
    2d05:	67 66 8d 90 4c 61 00 	lea    edx,[eax+0x614c]
    2d0c:	00 
    2d0d:	67 66 8b 45 f8       	mov    eax,DWORD PTR [ebp-0x8]
    2d12:	67 66 89 02          	mov    DWORD PTR [edx],eax
D:\OneDrive\Study\Operating Systems\สตั้\project5\codes/./lib/utilsC.c:370
	firstUnusedMemoryItem = next;
    2d16:	67 66 8b 45 f8       	mov    eax,DWORD PTR [ebp-0x8]
    2d1b:	66 a3 04 61          	mov    ds:0x6104,eax
D:\OneDrive\Study\Operating Systems\สตั้\project5\codes/./lib/utilsC.c:372

	memoryTable[firstUnusedMemoryItem].used = 1;
    2d1f:	66 8b 16 04 61       	mov    edx,DWORD PTR ds:0x6104
    2d24:	66 89 d0             	mov    eax,edx
    2d27:	66 01 c0             	add    eax,eax
    2d2a:	66 01 d0             	add    eax,edx
    2d2d:	66 c1 e0 03          	shl    eax,0x3
    2d31:	66 05 50 61 00 00    	add    eax,0x6150
    2d37:	67 66 c7 00 01 00 00 	mov    DWORD PTR [eax],0x1
    2d3e:	00 
D:\OneDrive\Study\Operating Systems\สตั้\project5\codes/./lib/utilsC.c:373
	memoryTable[firstUnusedMemoryItem].beginAddr = 0xca00;
    2d3f:	66 8b 16 04 61       	mov    edx,DWORD PTR ds:0x6104
    2d44:	66 89 d0             	mov    eax,edx
    2d47:	66 01 c0             	add    eax,eax
    2d4a:	66 01 d0             	add    eax,edx
    2d4d:	66 c1 e0 03          	shl    eax,0x3
    2d51:	66 05 40 61 00 00    	add    eax,0x6140
    2d57:	67 66 c7 00 00 ca 00 	mov    DWORD PTR [eax],0xca00
    2d5e:	00 
D:\OneDrive\Study\Operating Systems\สตั้\project5\codes/./lib/utilsC.c:374
	memoryTable[firstUnusedMemoryItem].endAddr = 0x1ffff;
    2d5f:	66 8b 16 04 61       	mov    edx,DWORD PTR ds:0x6104
    2d64:	66 89 d0             	mov    eax,edx
    2d67:	66 01 c0             	add    eax,eax
    2d6a:	66 01 d0             	add    eax,edx
    2d6d:	66 c1 e0 03          	shl    eax,0x3
    2d71:	66 05 44 61 00 00    	add    eax,0x6144
    2d77:	67 66 c7 00 ff ff 01 	mov    DWORD PTR [eax],0x1ffff
    2d7e:	00 
D:\OneDrive\Study\Operating Systems\สตั้\project5\codes/./lib/utilsC.c:375
	memoryTable[firstUnusedMemoryItem].status = unused;
    2d7f:	66 8b 16 04 61       	mov    edx,DWORD PTR ds:0x6104
    2d84:	66 89 d0             	mov    eax,edx
    2d87:	66 01 c0             	add    eax,eax
    2d8a:	66 01 d0             	add    eax,edx
    2d8d:	66 c1 e0 03          	shl    eax,0x3
    2d91:	66 05 54 61 00 00    	add    eax,0x6154
    2d97:	67 66 c7 00 00 00 00 	mov    DWORD PTR [eax],0x0
    2d9e:	00 
D:\OneDrive\Study\Operating Systems\สตั้\project5\codes/./lib/utilsC.c:376
	next = nextUnusedItem();
    2d9f:	66 e8 22 fa ff ff    	call   27c7 <_nextUnusedItem>
    2da5:	67 66 89 45 f8       	mov    DWORD PTR [ebp-0x8],eax
D:\OneDrive\Study\Operating Systems\สตั้\project5\codes/./lib/utilsC.c:377
	memoryTable[next].pre = firstUnusedMemoryItem;
    2daa:	66 8b 16 04 61       	mov    edx,DWORD PTR ds:0x6104
    2daf:	67 66 8b 4d f8       	mov    ecx,DWORD PTR [ebp-0x8]
    2db4:	66 89 c8             	mov    eax,ecx
    2db7:	66 01 c0             	add    eax,eax
    2dba:	66 01 c8             	add    eax,ecx
    2dbd:	66 c1 e0 03          	shl    eax,0x3
    2dc1:	66 05 48 61 00 00    	add    eax,0x6148
    2dc7:	67 66 89 10          	mov    DWORD PTR [eax],edx
D:\OneDrive\Study\Operating Systems\สตั้\project5\codes/./lib/utilsC.c:378
	memoryTable[firstUnusedMemoryItem].next = next;
    2dcb:	66 8b 16 04 61       	mov    edx,DWORD PTR ds:0x6104
    2dd0:	66 89 d0             	mov    eax,edx
    2dd3:	66 01 c0             	add    eax,eax
    2dd6:	66 01 d0             	add    eax,edx
    2dd9:	66 c1 e0 03          	shl    eax,0x3
    2ddd:	67 66 8d 90 4c 61 00 	lea    edx,[eax+0x614c]
    2de4:	00 
    2de5:	67 66 8b 45 f8       	mov    eax,DWORD PTR [ebp-0x8]
    2dea:	67 66 89 02          	mov    DWORD PTR [edx],eax
D:\OneDrive\Study\Operating Systems\สตั้\project5\codes/./lib/utilsC.c:379
	firstUnusedMemoryItem = next;
    2dee:	67 66 8b 45 f8       	mov    eax,DWORD PTR [ebp-0x8]
    2df3:	66 a3 04 61          	mov    ds:0x6104,eax
D:\OneDrive\Study\Operating Systems\สตั้\project5\codes/./lib/utilsC.c:381

	memoryTable[firstUnusedMemoryItem].used = 1;
    2df7:	66 8b 16 04 61       	mov    edx,DWORD PTR ds:0x6104
    2dfc:	66 89 d0             	mov    eax,edx
    2dff:	66 01 c0             	add    eax,eax
    2e02:	66 01 d0             	add    eax,edx
    2e05:	66 c1 e0 03          	shl    eax,0x3
    2e09:	66 05 50 61 00 00    	add    eax,0x6150
    2e0f:	67 66 c7 00 01 00 00 	mov    DWORD PTR [eax],0x1
    2e16:	00 
D:\OneDrive\Study\Operating Systems\สตั้\project5\codes/./lib/utilsC.c:382
	memoryTable[firstUnusedMemoryItem].beginAddr = 0x20000;
    2e17:	66 8b 16 04 61       	mov    edx,DWORD PTR ds:0x6104
    2e1c:	66 89 d0             	mov    eax,edx
    2e1f:	66 01 c0             	add    eax,eax
    2e22:	66 01 d0             	add    eax,edx
    2e25:	66 c1 e0 03          	shl    eax,0x3
    2e29:	66 05 40 61 00 00    	add    eax,0x6140
    2e2f:	67 66 c7 00 00 00 02 	mov    DWORD PTR [eax],0x20000
    2e36:	00 
D:\OneDrive\Study\Operating Systems\สตั้\project5\codes/./lib/utilsC.c:383
	memoryTable[firstUnusedMemoryItem].endAddr = 0x2ffff;
    2e37:	66 8b 16 04 61       	mov    edx,DWORD PTR ds:0x6104
    2e3c:	66 89 d0             	mov    eax,edx
    2e3f:	66 01 c0             	add    eax,eax
    2e42:	66 01 d0             	add    eax,edx
    2e45:	66 c1 e0 03          	shl    eax,0x3
    2e49:	66 05 44 61 00 00    	add    eax,0x6144
    2e4f:	67 66 c7 00 ff ff 02 	mov    DWORD PTR [eax],0x2ffff
    2e56:	00 
D:\OneDrive\Study\Operating Systems\สตั้\project5\codes/./lib/utilsC.c:384
	memoryTable[firstUnusedMemoryItem].status = used;
    2e57:	66 8b 16 04 61       	mov    edx,DWORD PTR ds:0x6104
    2e5c:	66 89 d0             	mov    eax,edx
    2e5f:	66 01 c0             	add    eax,eax
    2e62:	66 01 d0             	add    eax,edx
    2e65:	66 c1 e0 03          	shl    eax,0x3
    2e69:	66 05 54 61 00 00    	add    eax,0x6154
    2e6f:	67 66 c7 00 01 00 00 	mov    DWORD PTR [eax],0x1
    2e76:	00 
D:\OneDrive\Study\Operating Systems\สตั้\project5\codes/./lib/utilsC.c:385
	next = nextUnusedItem();
    2e77:	66 e8 4a f9 ff ff    	call   27c7 <_nextUnusedItem>
    2e7d:	67 66 89 45 f8       	mov    DWORD PTR [ebp-0x8],eax
D:\OneDrive\Study\Operating Systems\สตั้\project5\codes/./lib/utilsC.c:386
	memoryTable[next].pre = firstUnusedMemoryItem;
    2e82:	66 8b 16 04 61       	mov    edx,DWORD PTR ds:0x6104
    2e87:	67 66 8b 4d f8       	mov    ecx,DWORD PTR [ebp-0x8]
    2e8c:	66 89 c8             	mov    eax,ecx
    2e8f:	66 01 c0             	add    eax,eax
    2e92:	66 01 c8             	add    eax,ecx
    2e95:	66 c1 e0 03          	shl    eax,0x3
    2e99:	66 05 48 61 00 00    	add    eax,0x6148
    2e9f:	67 66 89 10          	mov    DWORD PTR [eax],edx
D:\OneDrive\Study\Operating Systems\สตั้\project5\codes/./lib/utilsC.c:387
	memoryTable[firstUnusedMemoryItem].next = next;
    2ea3:	66 8b 16 04 61       	mov    edx,DWORD PTR ds:0x6104
    2ea8:	66 89 d0             	mov    eax,edx
    2eab:	66 01 c0             	add    eax,eax
    2eae:	66 01 d0             	add    eax,edx
    2eb1:	66 c1 e0 03          	shl    eax,0x3
    2eb5:	67 66 8d 90 4c 61 00 	lea    edx,[eax+0x614c]
    2ebc:	00 
    2ebd:	67 66 8b 45 f8       	mov    eax,DWORD PTR [ebp-0x8]
    2ec2:	67 66 89 02          	mov    DWORD PTR [edx],eax
D:\OneDrive\Study\Operating Systems\สตั้\project5\codes/./lib/utilsC.c:388
	firstUnusedMemoryItem = next;
    2ec6:	67 66 8b 45 f8       	mov    eax,DWORD PTR [ebp-0x8]
    2ecb:	66 a3 04 61          	mov    ds:0x6104,eax
D:\OneDrive\Study\Operating Systems\สตั้\project5\codes/./lib/utilsC.c:390

	memoryTable[firstUnusedMemoryItem].used = 1;
    2ecf:	66 8b 16 04 61       	mov    edx,DWORD PTR ds:0x6104
    2ed4:	66 89 d0             	mov    eax,edx
    2ed7:	66 01 c0             	add    eax,eax
    2eda:	66 01 d0             	add    eax,edx
    2edd:	66 c1 e0 03          	shl    eax,0x3
    2ee1:	66 05 50 61 00 00    	add    eax,0x6150
    2ee7:	67 66 c7 00 01 00 00 	mov    DWORD PTR [eax],0x1
    2eee:	00 
D:\OneDrive\Study\Operating Systems\สตั้\project5\codes/./lib/utilsC.c:391
	memoryTable[firstUnusedMemoryItem].beginAddr = 0x2ffff;
    2eef:	66 8b 16 04 61       	mov    edx,DWORD PTR ds:0x6104
    2ef4:	66 89 d0             	mov    eax,edx
    2ef7:	66 01 c0             	add    eax,eax
    2efa:	66 01 d0             	add    eax,edx
    2efd:	66 c1 e0 03          	shl    eax,0x3
    2f01:	66 05 40 61 00 00    	add    eax,0x6140
    2f07:	67 66 c7 00 ff ff 02 	mov    DWORD PTR [eax],0x2ffff
    2f0e:	00 
D:\OneDrive\Study\Operating Systems\สตั้\project5\codes/./lib/utilsC.c:392
	memoryTable[firstUnusedMemoryItem].endAddr = 0x9ffff;
    2f0f:	66 8b 16 04 61       	mov    edx,DWORD PTR ds:0x6104
    2f14:	66 89 d0             	mov    eax,edx
    2f17:	66 01 c0             	add    eax,eax
    2f1a:	66 01 d0             	add    eax,edx
    2f1d:	66 c1 e0 03          	shl    eax,0x3
    2f21:	66 05 44 61 00 00    	add    eax,0x6144
    2f27:	67 66 c7 00 ff ff 09 	mov    DWORD PTR [eax],0x9ffff
    2f2e:	00 
D:\OneDrive\Study\Operating Systems\สตั้\project5\codes/./lib/utilsC.c:393
	memoryTable[firstUnusedMemoryItem].status = unused;
    2f2f:	66 8b 16 04 61       	mov    edx,DWORD PTR ds:0x6104
    2f34:	66 89 d0             	mov    eax,edx
    2f37:	66 01 c0             	add    eax,eax
    2f3a:	66 01 d0             	add    eax,edx
    2f3d:	66 c1 e0 03          	shl    eax,0x3
    2f41:	66 05 54 61 00 00    	add    eax,0x6154
    2f47:	67 66 c7 00 00 00 00 	mov    DWORD PTR [eax],0x0
    2f4e:	00 
D:\OneDrive\Study\Operating Systems\สตั้\project5\codes/./lib/utilsC.c:394
	next = nextUnusedItem();
    2f4f:	66 e8 72 f8 ff ff    	call   27c7 <_nextUnusedItem>
    2f55:	67 66 89 45 f8       	mov    DWORD PTR [ebp-0x8],eax
D:\OneDrive\Study\Operating Systems\สตั้\project5\codes/./lib/utilsC.c:395
	memoryTable[next].pre = firstUnusedMemoryItem;
    2f5a:	66 8b 16 04 61       	mov    edx,DWORD PTR ds:0x6104
    2f5f:	67 66 8b 4d f8       	mov    ecx,DWORD PTR [ebp-0x8]
    2f64:	66 89 c8             	mov    eax,ecx
    2f67:	66 01 c0             	add    eax,eax
    2f6a:	66 01 c8             	add    eax,ecx
    2f6d:	66 c1 e0 03          	shl    eax,0x3
    2f71:	66 05 48 61 00 00    	add    eax,0x6148
    2f77:	67 66 89 10          	mov    DWORD PTR [eax],edx
D:\OneDrive\Study\Operating Systems\สตั้\project5\codes/./lib/utilsC.c:396
	memoryTable[firstUnusedMemoryItem].next = next;
    2f7b:	66 8b 16 04 61       	mov    edx,DWORD PTR ds:0x6104
    2f80:	66 89 d0             	mov    eax,edx
    2f83:	66 01 c0             	add    eax,eax
    2f86:	66 01 d0             	add    eax,edx
    2f89:	66 c1 e0 03          	shl    eax,0x3
    2f8d:	67 66 8d 90 4c 61 00 	lea    edx,[eax+0x614c]
    2f94:	00 
    2f95:	67 66 8b 45 f8       	mov    eax,DWORD PTR [ebp-0x8]
    2f9a:	67 66 89 02          	mov    DWORD PTR [edx],eax
D:\OneDrive\Study\Operating Systems\สตั้\project5\codes/./lib/utilsC.c:397
	firstUnusedMemoryItem = next;
    2f9e:	67 66 8b 45 f8       	mov    eax,DWORD PTR [ebp-0x8]
    2fa3:	66 a3 04 61          	mov    ds:0x6104,eax
D:\OneDrive\Study\Operating Systems\สตั้\project5\codes/./lib/utilsC.c:399

}
    2fa7:	90                   	nop
    2fa8:	66 c9                	leave  
    2faa:	66 c3                	ret    

00002fac <_findItem>:
findItem():
D:\OneDrive\Study\Operating Systems\สตั้\project5\codes/./lib/utilsC.c:402

int findItem(int addr)
{
    2fac:	66 55                	push   ebp
    2fae:	66 89 e5             	mov    ebp,esp
    2fb1:	66 83 ec 04          	sub    esp,0x4
D:\OneDrive\Study\Operating Systems\สตั้\project5\codes/./lib/utilsC.c:403
	int itemId = 0;
    2fb5:	67 66 c7 45 fc 00 00 	mov    DWORD PTR [ebp-0x4],0x0
    2fbc:	00 00 
D:\OneDrive\Study\Operating Systems\สตั้\project5\codes/./lib/utilsC.c:404
	for(; itemId < MemLen; itemId = memoryTable[itemId].next)
    2fbe:	eb 4b                	jmp    300b <_findItem+0x5f>
D:\OneDrive\Study\Operating Systems\สตั้\project5\codes/./lib/utilsC.c:406
	{
		if(memoryTable[itemId].beginAddr < addr)
    2fc0:	67 66 8b 55 fc       	mov    edx,DWORD PTR [ebp-0x4]
    2fc5:	66 89 d0             	mov    eax,edx
    2fc8:	66 01 c0             	add    eax,eax
    2fcb:	66 01 d0             	add    eax,edx
    2fce:	66 c1 e0 03          	shl    eax,0x3
    2fd2:	66 05 40 61 00 00    	add    eax,0x6140
    2fd8:	67 66 8b 00          	mov    eax,DWORD PTR [eax]
    2fdc:	67 66 3b 45 08       	cmp    eax,DWORD PTR [ebp+0x8]
    2fe1:	7d 07                	jge    2fea <_findItem+0x3e>
D:\OneDrive\Study\Operating Systems\สตั้\project5\codes/./lib/utilsC.c:407
			return itemId;
    2fe3:	67 66 8b 45 fc       	mov    eax,DWORD PTR [ebp-0x4]
    2fe8:	eb 2f                	jmp    3019 <_findItem+0x6d>
D:\OneDrive\Study\Operating Systems\สตั้\project5\codes/./lib/utilsC.c:404
	for(; itemId < MemLen; itemId = memoryTable[itemId].next)
    2fea:	67 66 8b 55 fc       	mov    edx,DWORD PTR [ebp-0x4]
    2fef:	66 89 d0             	mov    eax,edx
    2ff2:	66 01 c0             	add    eax,eax
    2ff5:	66 01 d0             	add    eax,edx
    2ff8:	66 c1 e0 03          	shl    eax,0x3
    2ffc:	66 05 4c 61 00 00    	add    eax,0x614c
    3002:	67 66 8b 00          	mov    eax,DWORD PTR [eax]
    3006:	67 66 89 45 fc       	mov    DWORD PTR [ebp-0x4],eax
    300b:	67 66 83 7d fc 31    	cmp    DWORD PTR [ebp-0x4],0x31
    3011:	7e ad                	jle    2fc0 <_findItem+0x14>
D:\OneDrive\Study\Operating Systems\สตั้\project5\codes/./lib/utilsC.c:409
	}
	return -1;
    3013:	66 b8 ff ff ff ff    	mov    eax,0xffffffff
D:\OneDrive\Study\Operating Systems\สตั้\project5\codes/./lib/utilsC.c:410
}
    3019:	66 c9                	leave  
    301b:	66 c3                	ret    

0000301d <_merge>:
merge():
D:\OneDrive\Study\Operating Systems\สตั้\project5\codes/./lib/utilsC.c:413

void merge(int item)
{
    301d:	66 55                	push   ebp
    301f:	66 89 e5             	mov    ebp,esp
    3022:	66 83 ec 08          	sub    esp,0x8
D:\OneDrive\Study\Operating Systems\สตั้\project5\codes/./lib/utilsC.c:415
	int first;
	for (first = item; memoryTable[first].pre != -1 &&
    3026:	67 66 8b 45 08       	mov    eax,DWORD PTR [ebp+0x8]
    302b:	67 66 89 45 fc       	mov    DWORD PTR [ebp-0x4],eax
    3030:	eb 21                	jmp    3053 <_merge+0x36>
D:\OneDrive\Study\Operating Systems\สตั้\project5\codes/./lib/utilsC.c:416
	 memoryTable[memoryTable[first].pre].status==unused; first=memoryTable[first].pre)
    3032:	67 66 8b 55 fc       	mov    edx,DWORD PTR [ebp-0x4]
    3037:	66 89 d0             	mov    eax,edx
    303a:	66 01 c0             	add    eax,eax
    303d:	66 01 d0             	add    eax,edx
    3040:	66 c1 e0 03          	shl    eax,0x3
    3044:	66 05 48 61 00 00    	add    eax,0x6148
    304a:	67 66 8b 00          	mov    eax,DWORD PTR [eax]
    304e:	67 66 89 45 fc       	mov    DWORD PTR [ebp-0x4],eax
D:\OneDrive\Study\Operating Systems\สตั้\project5\codes/./lib/utilsC.c:415
	for (first = item; memoryTable[first].pre != -1 &&
    3053:	67 66 8b 55 fc       	mov    edx,DWORD PTR [ebp-0x4]
    3058:	66 89 d0             	mov    eax,edx
    305b:	66 01 c0             	add    eax,eax
    305e:	66 01 d0             	add    eax,edx
    3061:	66 c1 e0 03          	shl    eax,0x3
    3065:	66 05 48 61 00 00    	add    eax,0x6148
    306b:	67 66 8b 00          	mov    eax,DWORD PTR [eax]
    306f:	66 83 f8 ff          	cmp    eax,0xffffffff
    3073:	0f 84 0d 01          	je     3184 <_merge+0x167>
D:\OneDrive\Study\Operating Systems\สตั้\project5\codes/./lib/utilsC.c:416
	 memoryTable[memoryTable[first].pre].status==unused; first=memoryTable[first].pre)
    3077:	67 66 8b 55 fc       	mov    edx,DWORD PTR [ebp-0x4]
    307c:	66 89 d0             	mov    eax,edx
    307f:	66 01 c0             	add    eax,eax
    3082:	66 01 d0             	add    eax,edx
    3085:	66 c1 e0 03          	shl    eax,0x3
    3089:	66 05 48 61 00 00    	add    eax,0x6148
    308f:	67 66 8b 10          	mov    edx,DWORD PTR [eax]
    3093:	66 89 d0             	mov    eax,edx
    3096:	66 01 c0             	add    eax,eax
    3099:	66 01 d0             	add    eax,edx
    309c:	66 c1 e0 03          	shl    eax,0x3
    30a0:	66 05 54 61 00 00    	add    eax,0x6154
    30a6:	67 66 8b 00          	mov    eax,DWORD PTR [eax]
D:\OneDrive\Study\Operating Systems\สตั้\project5\codes/./lib/utilsC.c:415
	for (first = item; memoryTable[first].pre != -1 &&
    30aa:	66 85 c0             	test   eax,eax
    30ad:	74 83                	je     3032 <_merge+0x15>
D:\OneDrive\Study\Operating Systems\สตั้\project5\codes/./lib/utilsC.c:418
	{}
	while(memoryTable[first].next != -1 && memoryTable[memoryTable[item].next].status == unused)
    30af:	e9 d2 00             	jmp    3184 <_merge+0x167>
D:\OneDrive\Study\Operating Systems\สตั้\project5\codes/./lib/utilsC.c:420
	{
		int next = memoryTable[first].next;
    30b2:	67 66 8b 55 fc       	mov    edx,DWORD PTR [ebp-0x4]
    30b7:	66 89 d0             	mov    eax,edx
    30ba:	66 01 c0             	add    eax,eax
    30bd:	66 01 d0             	add    eax,edx
    30c0:	66 c1 e0 03          	shl    eax,0x3
    30c4:	66 05 4c 61 00 00    	add    eax,0x614c
    30ca:	67 66 8b 00          	mov    eax,DWORD PTR [eax]
    30ce:	67 66 89 45 f8       	mov    DWORD PTR [ebp-0x8],eax
D:\OneDrive\Study\Operating Systems\สตั้\project5\codes/./lib/utilsC.c:421
		memoryTable[first].endAddr = memoryTable[next].endAddr;
    30d3:	67 66 8b 55 f8       	mov    edx,DWORD PTR [ebp-0x8]
    30d8:	66 89 d0             	mov    eax,edx
    30db:	66 01 c0             	add    eax,eax
    30de:	66 01 d0             	add    eax,edx
    30e1:	66 c1 e0 03          	shl    eax,0x3
    30e5:	66 05 44 61 00 00    	add    eax,0x6144
    30eb:	67 66 8b 10          	mov    edx,DWORD PTR [eax]
    30ef:	67 66 8b 4d fc       	mov    ecx,DWORD PTR [ebp-0x4]
    30f4:	66 89 c8             	mov    eax,ecx
    30f7:	66 01 c0             	add    eax,eax
    30fa:	66 01 c8             	add    eax,ecx
    30fd:	66 c1 e0 03          	shl    eax,0x3
    3101:	66 05 44 61 00 00    	add    eax,0x6144
    3107:	67 66 89 10          	mov    DWORD PTR [eax],edx
D:\OneDrive\Study\Operating Systems\สตั้\project5\codes/./lib/utilsC.c:422
		memoryTable[first].next = memoryTable[next].next;
    310b:	67 66 8b 55 f8       	mov    edx,DWORD PTR [ebp-0x8]
    3110:	66 89 d0             	mov    eax,edx
    3113:	66 01 c0             	add    eax,eax
    3116:	66 01 d0             	add    eax,edx
    3119:	66 c1 e0 03          	shl    eax,0x3
    311d:	66 05 4c 61 00 00    	add    eax,0x614c
    3123:	67 66 8b 10          	mov    edx,DWORD PTR [eax]
    3127:	67 66 8b 4d fc       	mov    ecx,DWORD PTR [ebp-0x4]
    312c:	66 89 c8             	mov    eax,ecx
    312f:	66 01 c0             	add    eax,eax
    3132:	66 01 c8             	add    eax,ecx
    3135:	66 c1 e0 03          	shl    eax,0x3
    3139:	66 05 4c 61 00 00    	add    eax,0x614c
    313f:	67 66 89 10          	mov    DWORD PTR [eax],edx
D:\OneDrive\Study\Operating Systems\สตั้\project5\codes/./lib/utilsC.c:423
		memoryTable[next].used = 0;
    3143:	67 66 8b 55 f8       	mov    edx,DWORD PTR [ebp-0x8]
    3148:	66 89 d0             	mov    eax,edx
    314b:	66 01 c0             	add    eax,eax
    314e:	66 01 d0             	add    eax,edx
    3151:	66 c1 e0 03          	shl    eax,0x3
    3155:	66 05 50 61 00 00    	add    eax,0x6150
    315b:	67 66 c7 00 00 00 00 	mov    DWORD PTR [eax],0x0
    3162:	00 
D:\OneDrive\Study\Operating Systems\สตั้\project5\codes/./lib/utilsC.c:424
		next = memoryTable[next].next;
    3163:	67 66 8b 55 f8       	mov    edx,DWORD PTR [ebp-0x8]
    3168:	66 89 d0             	mov    eax,edx
    316b:	66 01 c0             	add    eax,eax
    316e:	66 01 d0             	add    eax,edx
    3171:	66 c1 e0 03          	shl    eax,0x3
    3175:	66 05 4c 61 00 00    	add    eax,0x614c
    317b:	67 66 8b 00          	mov    eax,DWORD PTR [eax]
    317f:	67 66 89 45 f8       	mov    DWORD PTR [ebp-0x8],eax
D:\OneDrive\Study\Operating Systems\สตั้\project5\codes/./lib/utilsC.c:418
	while(memoryTable[first].next != -1 && memoryTable[memoryTable[item].next].status == unused)
    3184:	67 66 8b 55 fc       	mov    edx,DWORD PTR [ebp-0x4]
    3189:	66 89 d0             	mov    eax,edx
    318c:	66 01 c0             	add    eax,eax
    318f:	66 01 d0             	add    eax,edx
    3192:	66 c1 e0 03          	shl    eax,0x3
    3196:	66 05 4c 61 00 00    	add    eax,0x614c
    319c:	67 66 8b 00          	mov    eax,DWORD PTR [eax]
    31a0:	66 83 f8 ff          	cmp    eax,0xffffffff
    31a4:	74 3a                	je     31e0 <_merge+0x1c3>
    31a6:	67 66 8b 55 08       	mov    edx,DWORD PTR [ebp+0x8]
    31ab:	66 89 d0             	mov    eax,edx
    31ae:	66 01 c0             	add    eax,eax
    31b1:	66 01 d0             	add    eax,edx
    31b4:	66 c1 e0 03          	shl    eax,0x3
    31b8:	66 05 4c 61 00 00    	add    eax,0x614c
    31be:	67 66 8b 10          	mov    edx,DWORD PTR [eax]
    31c2:	66 89 d0             	mov    eax,edx
    31c5:	66 01 c0             	add    eax,eax
    31c8:	66 01 d0             	add    eax,edx
    31cb:	66 c1 e0 03          	shl    eax,0x3
    31cf:	66 05 54 61 00 00    	add    eax,0x6154
    31d5:	67 66 8b 00          	mov    eax,DWORD PTR [eax]
    31d9:	66 85 c0             	test   eax,eax
    31dc:	0f 84 d2 fe          	je     30b2 <_merge+0x95>
D:\OneDrive\Study\Operating Systems\สตั้\project5\codes/./lib/utilsC.c:427
	}

}
    31e0:	90                   	nop
    31e1:	66 c9                	leave  
    31e3:	66 c3                	ret    

000031e5 <_release>:
release():
D:\OneDrive\Study\Operating Systems\สตั้\project5\codes/./lib/utilsC.c:430

void release(int begin, int end)
{
    31e5:	66 55                	push   ebp
    31e7:	66 89 e5             	mov    ebp,esp
    31ea:	66 83 ec 08          	sub    esp,0x8
D:\OneDrive\Study\Operating Systems\สตั้\project5\codes/./lib/utilsC.c:431
	int item = findItem(begin);
    31ee:	67 66 8b 45 08       	mov    eax,DWORD PTR [ebp+0x8]
    31f3:	67 66 89 04 24       	mov    DWORD PTR [esp],eax
    31f8:	66 e8 ae fd ff ff    	call   2fac <_findItem>
    31fe:	67 66 89 45 fc       	mov    DWORD PTR [ebp-0x4],eax
D:\OneDrive\Study\Operating Systems\สตั้\project5\codes/./lib/utilsC.c:432
	memoryTable[item].status = unused;
    3203:	67 66 8b 55 fc       	mov    edx,DWORD PTR [ebp-0x4]
    3208:	66 89 d0             	mov    eax,edx
    320b:	66 01 c0             	add    eax,eax
    320e:	66 01 d0             	add    eax,edx
    3211:	66 c1 e0 03          	shl    eax,0x3
    3215:	66 05 54 61 00 00    	add    eax,0x6154
    321b:	67 66 c7 00 00 00 00 	mov    DWORD PTR [eax],0x0
    3222:	00 
D:\OneDrive\Study\Operating Systems\สตั้\project5\codes/./lib/utilsC.c:433
	merge(item);
    3223:	67 66 8b 45 fc       	mov    eax,DWORD PTR [ebp-0x4]
    3228:	67 66 89 04 24       	mov    DWORD PTR [esp],eax
    322d:	66 e8 ea fd ff ff    	call   301d <_merge>
D:\OneDrive\Study\Operating Systems\สตั้\project5\codes/./lib/utilsC.c:434
}
    3233:	90                   	nop
    3234:	66 c9                	leave  
    3236:	66 c3                	ret    

00003238 <_findEnoughBlock>:
findEnoughBlock():
D:\OneDrive\Study\Operating Systems\สตั้\project5\codes/./lib/utilsC.c:437

int findEnoughBlock(int size)
{
    3238:	66 55                	push   ebp
    323a:	66 89 e5             	mov    ebp,esp
    323d:	66 83 ec 04          	sub    esp,0x4
D:\OneDrive\Study\Operating Systems\สตั้\project5\codes/./lib/utilsC.c:438
	int itemId = 0;
    3241:	67 66 c7 45 fc 00 00 	mov    DWORD PTR [ebp-0x4],0x0
    3248:	00 00 
D:\OneDrive\Study\Operating Systems\สตั้\project5\codes/./lib/utilsC.c:440
	// ไธ่่้ๅๆๅต
	while(memoryTable[itemId].status == used || memoryTable[itemId].endAddr - memoryTable[itemId].beginAddr + 1 < size)
    324a:	eb 21                	jmp    326d <_findEnoughBlock+0x35>
D:\OneDrive\Study\Operating Systems\สตั้\project5\codes/./lib/utilsC.c:442
	{
		itemId = memoryTable[itemId].next;
    324c:	67 66 8b 55 fc       	mov    edx,DWORD PTR [ebp-0x4]
    3251:	66 89 d0             	mov    eax,edx
    3254:	66 01 c0             	add    eax,eax
    3257:	66 01 d0             	add    eax,edx
    325a:	66 c1 e0 03          	shl    eax,0x3
    325e:	66 05 4c 61 00 00    	add    eax,0x614c
    3264:	67 66 8b 00          	mov    eax,DWORD PTR [eax]
    3268:	67 66 89 45 fc       	mov    DWORD PTR [ebp-0x4],eax
D:\OneDrive\Study\Operating Systems\สตั้\project5\codes/./lib/utilsC.c:440
	while(memoryTable[itemId].status == used || memoryTable[itemId].endAddr - memoryTable[itemId].beginAddr + 1 < size)
    326d:	67 66 8b 55 fc       	mov    edx,DWORD PTR [ebp-0x4]
    3272:	66 89 d0             	mov    eax,edx
    3275:	66 01 c0             	add    eax,eax
    3278:	66 01 d0             	add    eax,edx
    327b:	66 c1 e0 03          	shl    eax,0x3
    327f:	66 05 54 61 00 00    	add    eax,0x6154
    3285:	67 66 8b 00          	mov    eax,DWORD PTR [eax]
    3289:	66 83 f8 01          	cmp    eax,0x1
    328d:	74 bd                	je     324c <_findEnoughBlock+0x14>
    328f:	67 66 8b 55 fc       	mov    edx,DWORD PTR [ebp-0x4]
    3294:	66 89 d0             	mov    eax,edx
    3297:	66 01 c0             	add    eax,eax
    329a:	66 01 d0             	add    eax,edx
    329d:	66 c1 e0 03          	shl    eax,0x3
    32a1:	66 05 44 61 00 00    	add    eax,0x6144
    32a7:	67 66 8b 08          	mov    ecx,DWORD PTR [eax]
    32ab:	67 66 8b 55 fc       	mov    edx,DWORD PTR [ebp-0x4]
    32b0:	66 89 d0             	mov    eax,edx
    32b3:	66 01 c0             	add    eax,eax
    32b6:	66 01 d0             	add    eax,edx
    32b9:	66 c1 e0 03          	shl    eax,0x3
    32bd:	66 05 40 61 00 00    	add    eax,0x6140
    32c3:	67 66 8b 00          	mov    eax,DWORD PTR [eax]
    32c7:	66 29 c1             	sub    ecx,eax
    32ca:	66 89 c8             	mov    eax,ecx
    32cd:	66 40                	inc    eax
    32cf:	67 66 3b 45 08       	cmp    eax,DWORD PTR [ebp+0x8]
    32d4:	0f 8c 74 ff          	jl     324c <_findEnoughBlock+0x14>
D:\OneDrive\Study\Operating Systems\สตั้\project5\codes/./lib/utilsC.c:444
	}
	return itemId;
    32d8:	67 66 8b 45 fc       	mov    eax,DWORD PTR [ebp-0x4]
D:\OneDrive\Study\Operating Systems\สตั้\project5\codes/./lib/utilsC.c:445
}
    32dd:	66 c9                	leave  
    32df:	66 c3                	ret    

000032e1 <_require>:
require():
D:\OneDrive\Study\Operating Systems\สตั้\project5\codes/./lib/utilsC.c:449


int require(int size, int curId)
{
    32e1:	66 55                	push   ebp
    32e3:	66 89 e5             	mov    ebp,esp
    32e6:	66 83 ec 04          	sub    esp,0x4
D:\OneDrive\Study\Operating Systems\สตั้\project5\codes/./lib/utilsC.c:450
	memoryTable[firstUnusedMemoryItem].beginAddr = memoryTable[curId].beginAddr;
    32ea:	66 8b 0e 04 61       	mov    ecx,DWORD PTR ds:0x6104
    32ef:	67 66 8b 55 0c       	mov    edx,DWORD PTR [ebp+0xc]
    32f4:	66 89 d0             	mov    eax,edx
    32f7:	66 01 c0             	add    eax,eax
    32fa:	66 01 d0             	add    eax,edx
    32fd:	66 c1 e0 03          	shl    eax,0x3
    3301:	66 05 40 61 00 00    	add    eax,0x6140
    3307:	67 66 8b 10          	mov    edx,DWORD PTR [eax]
    330b:	66 89 c8             	mov    eax,ecx
    330e:	66 01 c0             	add    eax,eax
    3311:	66 01 c8             	add    eax,ecx
    3314:	66 c1 e0 03          	shl    eax,0x3
    3318:	66 05 40 61 00 00    	add    eax,0x6140
    331e:	67 66 89 10          	mov    DWORD PTR [eax],edx
D:\OneDrive\Study\Operating Systems\สตั้\project5\codes/./lib/utilsC.c:451
	memoryTable[firstUnusedMemoryItem].endAddr = memoryTable[firstUnusedMemoryItem].beginAddr+size-1;
    3322:	66 8b 16 04 61       	mov    edx,DWORD PTR ds:0x6104
    3327:	66 8b 0e 04 61       	mov    ecx,DWORD PTR ds:0x6104
    332c:	66 89 c8             	mov    eax,ecx
    332f:	66 01 c0             	add    eax,eax
    3332:	66 01 c8             	add    eax,ecx
    3335:	66 c1 e0 03          	shl    eax,0x3
    3339:	66 05 40 61 00 00    	add    eax,0x6140
    333f:	67 66 8b 08          	mov    ecx,DWORD PTR [eax]
    3343:	67 66 8b 45 08       	mov    eax,DWORD PTR [ebp+0x8]
    3348:	66 01 c8             	add    eax,ecx
    334b:	67 66 8d 48 ff       	lea    ecx,[eax-0x1]
    3350:	66 89 d0             	mov    eax,edx
    3353:	66 01 c0             	add    eax,eax
    3356:	66 01 d0             	add    eax,edx
    3359:	66 c1 e0 03          	shl    eax,0x3
    335d:	66 05 44 61 00 00    	add    eax,0x6144
    3363:	67 66 89 08          	mov    DWORD PTR [eax],ecx
D:\OneDrive\Study\Operating Systems\สตั้\project5\codes/./lib/utilsC.c:452
	memoryTable[firstUnusedMemoryItem].used = 1;
    3367:	66 8b 16 04 61       	mov    edx,DWORD PTR ds:0x6104
    336c:	66 89 d0             	mov    eax,edx
    336f:	66 01 c0             	add    eax,eax
    3372:	66 01 d0             	add    eax,edx
    3375:	66 c1 e0 03          	shl    eax,0x3
    3379:	66 05 50 61 00 00    	add    eax,0x6150
    337f:	67 66 c7 00 01 00 00 	mov    DWORD PTR [eax],0x1
    3386:	00 
D:\OneDrive\Study\Operating Systems\สตั้\project5\codes/./lib/utilsC.c:453
	memoryTable[firstUnusedMemoryItem].status = used;
    3387:	66 8b 16 04 61       	mov    edx,DWORD PTR ds:0x6104
    338c:	66 89 d0             	mov    eax,edx
    338f:	66 01 c0             	add    eax,eax
    3392:	66 01 d0             	add    eax,edx
    3395:	66 c1 e0 03          	shl    eax,0x3
    3399:	66 05 54 61 00 00    	add    eax,0x6154
    339f:	67 66 c7 00 01 00 00 	mov    DWORD PTR [eax],0x1
    33a6:	00 
D:\OneDrive\Study\Operating Systems\สตั้\project5\codes/./lib/utilsC.c:454
	memoryTable[firstUnusedMemoryItem].pre = memoryTable[curId].pre;
    33a7:	66 8b 0e 04 61       	mov    ecx,DWORD PTR ds:0x6104
    33ac:	67 66 8b 55 0c       	mov    edx,DWORD PTR [ebp+0xc]
    33b1:	66 89 d0             	mov    eax,edx
    33b4:	66 01 c0             	add    eax,eax
    33b7:	66 01 d0             	add    eax,edx
    33ba:	66 c1 e0 03          	shl    eax,0x3
    33be:	66 05 48 61 00 00    	add    eax,0x6148
    33c4:	67 66 8b 10          	mov    edx,DWORD PTR [eax]
    33c8:	66 89 c8             	mov    eax,ecx
    33cb:	66 01 c0             	add    eax,eax
    33ce:	66 01 c8             	add    eax,ecx
    33d1:	66 c1 e0 03          	shl    eax,0x3
    33d5:	66 05 48 61 00 00    	add    eax,0x6148
    33db:	67 66 89 10          	mov    DWORD PTR [eax],edx
D:\OneDrive\Study\Operating Systems\สตั้\project5\codes/./lib/utilsC.c:455
	memoryTable[firstUnusedMemoryItem].next = curId;
    33df:	66 8b 16 04 61       	mov    edx,DWORD PTR ds:0x6104
    33e4:	66 89 d0             	mov    eax,edx
    33e7:	66 01 c0             	add    eax,eax
    33ea:	66 01 d0             	add    eax,edx
    33ed:	66 c1 e0 03          	shl    eax,0x3
    33f1:	67 66 8d 90 4c 61 00 	lea    edx,[eax+0x614c]
    33f8:	00 
    33f9:	67 66 8b 45 0c       	mov    eax,DWORD PTR [ebp+0xc]
    33fe:	67 66 89 02          	mov    DWORD PTR [edx],eax
D:\OneDrive\Study\Operating Systems\สตั้\project5\codes/./lib/utilsC.c:456
	memoryTable[curId].pre = firstUnusedMemoryItem;
    3402:	66 8b 16 04 61       	mov    edx,DWORD PTR ds:0x6104
    3407:	67 66 8b 4d 0c       	mov    ecx,DWORD PTR [ebp+0xc]
    340c:	66 89 c8             	mov    eax,ecx
    340f:	66 01 c0             	add    eax,eax
    3412:	66 01 c8             	add    eax,ecx
    3415:	66 c1 e0 03          	shl    eax,0x3
    3419:	66 05 48 61 00 00    	add    eax,0x6148
    341f:	67 66 89 10          	mov    DWORD PTR [eax],edx
D:\OneDrive\Study\Operating Systems\สตั้\project5\codes/./lib/utilsC.c:457
	memoryTable[curId].beginAddr = memoryTable[firstUnusedMemoryItem].endAddr+1;
    3423:	66 8b 16 04 61       	mov    edx,DWORD PTR ds:0x6104
    3428:	66 89 d0             	mov    eax,edx
    342b:	66 01 c0             	add    eax,eax
    342e:	66 01 d0             	add    eax,edx
    3431:	66 c1 e0 03          	shl    eax,0x3
    3435:	66 05 44 61 00 00    	add    eax,0x6144
    343b:	67 66 8b 00          	mov    eax,DWORD PTR [eax]
    343f:	67 66 8d 48 01       	lea    ecx,[eax+0x1]
    3444:	67 66 8b 55 0c       	mov    edx,DWORD PTR [ebp+0xc]
    3449:	66 89 d0             	mov    eax,edx
    344c:	66 01 c0             	add    eax,eax
    344f:	66 01 d0             	add    eax,edx
    3452:	66 c1 e0 03          	shl    eax,0x3
    3456:	66 05 40 61 00 00    	add    eax,0x6140
    345c:	67 66 89 08          	mov    DWORD PTR [eax],ecx
D:\OneDrive\Study\Operating Systems\สตั้\project5\codes/./lib/utilsC.c:458
	if(memoryTable[curId].beginAddr > memoryTable[curId].endAddr)
    3460:	67 66 8b 55 0c       	mov    edx,DWORD PTR [ebp+0xc]
    3465:	66 89 d0             	mov    eax,edx
    3468:	66 01 c0             	add    eax,eax
    346b:	66 01 d0             	add    eax,edx
    346e:	66 c1 e0 03          	shl    eax,0x3
    3472:	66 05 40 61 00 00    	add    eax,0x6140
    3478:	67 66 8b 08          	mov    ecx,DWORD PTR [eax]
    347c:	67 66 8b 55 0c       	mov    edx,DWORD PTR [ebp+0xc]
    3481:	66 89 d0             	mov    eax,edx
    3484:	66 01 c0             	add    eax,eax
    3487:	66 01 d0             	add    eax,edx
    348a:	66 c1 e0 03          	shl    eax,0x3
    348e:	66 05 44 61 00 00    	add    eax,0x6144
    3494:	67 66 8b 00          	mov    eax,DWORD PTR [eax]
    3498:	66 39 c1             	cmp    ecx,eax
    349b:	7e 58                	jle    34f5 <_require+0x214>
D:\OneDrive\Study\Operating Systems\สตั้\project5\codes/./lib/utilsC.c:460
	{
		memoryTable[firstUnusedMemoryItem].next = memoryTable[curId].next;
    349d:	66 8b 0e 04 61       	mov    ecx,DWORD PTR ds:0x6104
    34a2:	67 66 8b 55 0c       	mov    edx,DWORD PTR [ebp+0xc]
    34a7:	66 89 d0             	mov    eax,edx
    34aa:	66 01 c0             	add    eax,eax
    34ad:	66 01 d0             	add    eax,edx
    34b0:	66 c1 e0 03          	shl    eax,0x3
    34b4:	66 05 4c 61 00 00    	add    eax,0x614c
    34ba:	67 66 8b 10          	mov    edx,DWORD PTR [eax]
    34be:	66 89 c8             	mov    eax,ecx
    34c1:	66 01 c0             	add    eax,eax
    34c4:	66 01 c8             	add    eax,ecx
    34c7:	66 c1 e0 03          	shl    eax,0x3
    34cb:	66 05 4c 61 00 00    	add    eax,0x614c
    34d1:	67 66 89 10          	mov    DWORD PTR [eax],edx
D:\OneDrive\Study\Operating Systems\สตั้\project5\codes/./lib/utilsC.c:461
		memoryTable[curId].used = 0;
    34d5:	67 66 8b 55 0c       	mov    edx,DWORD PTR [ebp+0xc]
    34da:	66 89 d0             	mov    eax,edx
    34dd:	66 01 c0             	add    eax,eax
    34e0:	66 01 d0             	add    eax,edx
    34e3:	66 c1 e0 03          	shl    eax,0x3
    34e7:	66 05 50 61 00 00    	add    eax,0x6150
    34ed:	67 66 c7 00 00 00 00 	mov    DWORD PTR [eax],0x0
    34f4:	00 
D:\OneDrive\Study\Operating Systems\สตั้\project5\codes/./lib/utilsC.c:463
	}
	int ret = firstUnusedMemoryItem;
    34f5:	66 a1 04 61          	mov    eax,ds:0x6104
    34f9:	67 66 89 45 fc       	mov    DWORD PTR [ebp-0x4],eax
D:\OneDrive\Study\Operating Systems\สตั้\project5\codes/./lib/utilsC.c:464
	firstUnusedMemoryItem = nextUnusedItem();
    34fe:	66 e8 c3 f2 ff ff    	call   27c7 <_nextUnusedItem>
    3504:	66 a3 04 61          	mov    ds:0x6104,eax
D:\OneDrive\Study\Operating Systems\สตั้\project5\codes/./lib/utilsC.c:465
	return ret;
    3508:	67 66 8b 45 fc       	mov    eax,DWORD PTR [ebp-0x4]
D:\OneDrive\Study\Operating Systems\สตั้\project5\codes/./lib/utilsC.c:466
}
    350d:	66 c9                	leave  
    350f:	66 c3                	ret    

00003511 <_createProcess>:
createProcess():
D:\OneDrive\Study\Operating Systems\สตั้\project5\codes/./lib/utilsC.c:471


//size่ฆๅๆฌๆ็ๅคงๅฐ
void createProcess(int id, char * name, int size, int fileId)
{
    3511:	66 55                	push   ebp
    3513:	66 89 e5             	mov    ebp,esp
    3516:	66 83 ec 24          	sub    esp,0x24
D:\OneDrive\Study\Operating Systems\สตั้\project5\codes/./lib/utilsC.c:472
	processTable[id].id = id;
    351a:	67 66 8b 55 08       	mov    edx,DWORD PTR [ebp+0x8]
    351f:	66 89 d0             	mov    eax,edx
    3522:	66 c1 e0 02          	shl    eax,0x2
    3526:	66 01 d0             	add    eax,edx
    3529:	66 c1 e0 04          	shl    eax,0x4
    352d:	67 66 8d 90 84 6a 00 	lea    edx,[eax+0x6a84]
    3534:	00 
    3535:	67 66 8b 45 08       	mov    eax,DWORD PTR [ebp+0x8]
    353a:	67 66 89 02          	mov    DWORD PTR [edx],eax
D:\OneDrive\Study\Operating Systems\สตั้\project5\codes/./lib/utilsC.c:473
	processTable[id].status = ready;
    353e:	67 66 8b 55 08       	mov    edx,DWORD PTR [ebp+0x8]
    3543:	66 89 d0             	mov    eax,edx
    3546:	66 c1 e0 02          	shl    eax,0x2
    354a:	66 01 d0             	add    eax,edx
    354d:	66 c1 e0 04          	shl    eax,0x4
    3551:	66 05 ac 6a 00 00    	add    eax,0x6aac
    3557:	67 66 c7 00 01 00 00 	mov    DWORD PTR [eax],0x1
    355e:	00 
D:\OneDrive\Study\Operating Systems\สตั้\project5\codes/./lib/utilsC.c:474
	int blockNum = findEnoughBlock(size);
    355f:	67 66 8b 45 10       	mov    eax,DWORD PTR [ebp+0x10]
    3564:	67 66 89 04 24       	mov    DWORD PTR [esp],eax
    3569:	66 e8 c9 fc ff ff    	call   3238 <_findEnoughBlock>
    356f:	67 66 89 45 fc       	mov    DWORD PTR [ebp-0x4],eax
D:\OneDrive\Study\Operating Systems\สตั้\project5\codes/./lib/utilsC.c:475
	blockNum = require(size, blockNum);
    3574:	67 66 8b 45 fc       	mov    eax,DWORD PTR [ebp-0x4]
    3579:	67 66 89 44 24 04    	mov    DWORD PTR [esp+0x4],eax
    357f:	67 66 8b 45 10       	mov    eax,DWORD PTR [ebp+0x10]
    3584:	67 66 89 04 24       	mov    DWORD PTR [esp],eax
    3589:	66 e8 52 fd ff ff    	call   32e1 <_require>
    358f:	67 66 89 45 fc       	mov    DWORD PTR [ebp-0x4],eax
D:\OneDrive\Study\Operating Systems\สตั้\project5\codes/./lib/utilsC.c:476
	processTable[id].blockNum = blockNum;
    3594:	67 66 8b 55 08       	mov    edx,DWORD PTR [ebp+0x8]
    3599:	66 89 d0             	mov    eax,edx
    359c:	66 c1 e0 02          	shl    eax,0x2
    35a0:	66 01 d0             	add    eax,edx
    35a3:	66 c1 e0 04          	shl    eax,0x4
    35a7:	67 66 8d 90 88 6a 00 	lea    edx,[eax+0x6a88]
    35ae:	00 
    35af:	67 66 8b 45 fc       	mov    eax,DWORD PTR [ebp-0x4]
    35b4:	67 66 89 02          	mov    DWORD PTR [edx],eax
D:\OneDrive\Study\Operating Systems\สตั้\project5\codes/./lib/utilsC.c:477
	strncpy(name, processTable[id].name, strlen(name));
    35b8:	67 66 8b 45 0c       	mov    eax,DWORD PTR [ebp+0xc]
    35bd:	67 66 89 04 24       	mov    DWORD PTR [esp],eax
    35c2:	66 e8 f8 df ff ff    	call   15c0 <_strlen>
    35c8:	66 89 c2             	mov    edx,eax
    35cb:	67 66 8b 4d 08       	mov    ecx,DWORD PTR [ebp+0x8]
    35d0:	66 89 c8             	mov    eax,ecx
    35d3:	66 c1 e0 02          	shl    eax,0x2
    35d7:	66 01 c8             	add    eax,ecx
    35da:	66 c1 e0 04          	shl    eax,0x4
    35de:	66 83 c0 20          	add    eax,0x20
    35e2:	66 05 60 6a 00 00    	add    eax,0x6a60
    35e8:	66 83 c0 0c          	add    eax,0xc
    35ec:	67 66 89 54 24 08    	mov    DWORD PTR [esp+0x8],edx
    35f2:	67 66 89 44 24 04    	mov    DWORD PTR [esp+0x4],eax
    35f8:	67 66 8b 45 0c       	mov    eax,DWORD PTR [ebp+0xc]
    35fd:	67 66 89 04 24       	mov    DWORD PTR [esp],eax
    3602:	66 e8 09 e4 ff ff    	call   1a11 <_strncpy>
D:\OneDrive\Study\Operating Systems\สตั้\project5\codes/./lib/utilsC.c:479
	int offsetOfPrg, segOfPrg;
	int offsetMask = 0x0000ffff;
    3608:	67 66 c7 45 f8 ff ff 	mov    DWORD PTR [ebp-0x8],0xffff
    360f:	00 00 
D:\OneDrive\Study\Operating Systems\สตั้\project5\codes/./lib/utilsC.c:480
	int segMask = 0xf0000;
    3611:	67 66 c7 45 f4 00 00 	mov    DWORD PTR [ebp-0xc],0xf0000
    3618:	0f 00 
D:\OneDrive\Study\Operating Systems\สตั้\project5\codes/./lib/utilsC.c:481
	offsetOfPrg = memoryTable[blockNum].beginAddr & offsetMask;
    361a:	67 66 8b 55 fc       	mov    edx,DWORD PTR [ebp-0x4]
    361f:	66 89 d0             	mov    eax,edx
    3622:	66 01 c0             	add    eax,eax
    3625:	66 01 d0             	add    eax,edx
    3628:	66 c1 e0 03          	shl    eax,0x3
    362c:	66 05 40 61 00 00    	add    eax,0x6140
    3632:	67 66 8b 00          	mov    eax,DWORD PTR [eax]
    3636:	67 66 23 45 f8       	and    eax,DWORD PTR [ebp-0x8]
    363b:	67 66 89 45 f0       	mov    DWORD PTR [ebp-0x10],eax
D:\OneDrive\Study\Operating Systems\สตั้\project5\codes/./lib/utilsC.c:482
	segOfPrg = (memoryTable[blockNum].beginAddr & segMask) >> 4;
    3640:	67 66 8b 55 fc       	mov    edx,DWORD PTR [ebp-0x4]
    3645:	66 89 d0             	mov    eax,edx
    3648:	66 01 c0             	add    eax,eax
    364b:	66 01 d0             	add    eax,edx
    364e:	66 c1 e0 03          	shl    eax,0x3
    3652:	66 05 40 61 00 00    	add    eax,0x6140
    3658:	67 66 8b 00          	mov    eax,DWORD PTR [eax]
    365c:	67 66 23 45 f4       	and    eax,DWORD PTR [ebp-0xc]
    3661:	66 c1 f8 04          	sar    eax,0x4
    3665:	67 66 89 45 ec       	mov    DWORD PTR [ebp-0x14],eax
D:\OneDrive\Study\Operating Systems\สตั้\project5\codes/./lib/utilsC.c:485

	//ไปฅไธ้จๅไปฃ็ๅๅทง๏ผๆนๆณๆฏ็ดๆฅๆนๅcsๅssๆฎต๏ผๅไธๅ็งป้ๅณ็งป4ไฝ็ๅผ๏ผไปฅไฝฟๅพ็จๅบ๏ผorg 0h๏ผไธ้่ฆorgๅ็งป้ใ 
	processTable[id].pcb.cs = segOfPrg + (offsetOfPrg >> 4);
    366a:	67 66 8b 45 f0       	mov    eax,DWORD PTR [ebp-0x10]
    366f:	66 c1 f8 04          	sar    eax,0x4
    3673:	66 89 c2             	mov    edx,eax
    3676:	67 66 8b 45 ec       	mov    eax,DWORD PTR [ebp-0x14]
    367b:	66 01 d0             	add    eax,edx
    367e:	66 89 c2             	mov    edx,eax
    3681:	67 66 8b 4d 08       	mov    ecx,DWORD PTR [ebp+0x8]
    3686:	66 89 c8             	mov    eax,ecx
    3689:	66 c1 e0 02          	shl    eax,0x2
    368d:	66 01 c8             	add    eax,ecx
    3690:	66 c1 e0 04          	shl    eax,0x4
    3694:	66 05 7a 6a 00 00    	add    eax,0x6a7a
    369a:	67 89 10             	mov    WORD PTR [eax],dx
D:\OneDrive\Study\Operating Systems\สตั้\project5\codes/./lib/utilsC.c:486
	processTable[id].pcb.ip = 0;
    369d:	67 66 8b 55 08       	mov    edx,DWORD PTR [ebp+0x8]
    36a2:	66 89 d0             	mov    eax,edx
    36a5:	66 c1 e0 02          	shl    eax,0x2
    36a9:	66 01 d0             	add    eax,edx
    36ac:	66 c1 e0 04          	shl    eax,0x4
    36b0:	66 05 78 6a 00 00    	add    eax,0x6a78
    36b6:	67 c7 00 00 00       	mov    WORD PTR [eax],0x0
D:\OneDrive\Study\Operating Systems\สตั้\project5\codes/./lib/utilsC.c:487
	processTable[id].pcb.ss_now = segOfPrg + (offsetOfPrg >> 4);
    36bb:	67 66 8b 45 f0       	mov    eax,DWORD PTR [ebp-0x10]
    36c0:	66 c1 f8 04          	sar    eax,0x4
    36c4:	66 89 c2             	mov    edx,eax
    36c7:	67 66 8b 45 ec       	mov    eax,DWORD PTR [ebp-0x14]
    36cc:	66 01 d0             	add    eax,edx
    36cf:	66 89 c2             	mov    edx,eax
    36d2:	67 66 8b 4d 08       	mov    ecx,DWORD PTR [ebp+0x8]
    36d7:	66 89 c8             	mov    eax,ecx
    36da:	66 c1 e0 02          	shl    eax,0x2
    36de:	66 01 c8             	add    eax,ecx
    36e1:	66 c1 e0 04          	shl    eax,0x4
    36e5:	66 05 80 6a 00 00    	add    eax,0x6a80
    36eb:	67 89 10             	mov    WORD PTR [eax],dx
D:\OneDrive\Study\Operating Systems\สตั้\project5\codes/./lib/utilsC.c:488
	processTable[id].pcb.sp_now = size-1;
    36ee:	67 66 8b 45 10       	mov    eax,DWORD PTR [ebp+0x10]
    36f3:	66 48                	dec    eax
    36f5:	66 89 c2             	mov    edx,eax
    36f8:	67 66 8b 4d 08       	mov    ecx,DWORD PTR [ebp+0x8]
    36fd:	66 89 c8             	mov    eax,ecx
    3700:	66 c1 e0 02          	shl    eax,0x2
    3704:	66 01 c8             	add    eax,ecx
    3707:	66 c1 e0 04          	shl    eax,0x4
    370b:	66 05 7e 6a 00 00    	add    eax,0x6a7e
    3711:	67 89 10             	mov    WORD PTR [eax],dx
D:\OneDrive\Study\Operating Systems\สตั้\project5\codes/./lib/utilsC.c:489
	loadReal(information[fileId].lmaddress, information[fileId].size, offsetOfPrg, segOfPrg);
    3714:	67 66 8b 55 14       	mov    edx,DWORD PTR [ebp+0x14]
    3719:	66 89 d0             	mov    eax,edx
    371c:	66 01 c0             	add    eax,eax
    371f:	66 01 d0             	add    eax,edx
    3722:	66 c1 e0 02          	shl    eax,0x2
    3726:	66 01 d0             	add    eax,edx
    3729:	66 c1 e0 02          	shl    eax,0x2
    372d:	66 05 68 66 00 00    	add    eax,0x6668
    3733:	67 66 8b 08          	mov    ecx,DWORD PTR [eax]
    3737:	67 66 8b 55 14       	mov    edx,DWORD PTR [ebp+0x14]
    373c:	66 89 d0             	mov    eax,edx
    373f:	66 01 c0             	add    eax,eax
    3742:	66 01 d0             	add    eax,edx
    3745:	66 c1 e0 02          	shl    eax,0x2
    3749:	66 01 d0             	add    eax,edx
    374c:	66 c1 e0 02          	shl    eax,0x2
    3750:	66 05 64 66 00 00    	add    eax,0x6664
    3756:	67 66 8b 00          	mov    eax,DWORD PTR [eax]
    375a:	67 66 8b 55 ec       	mov    edx,DWORD PTR [ebp-0x14]
    375f:	67 66 89 54 24 0c    	mov    DWORD PTR [esp+0xc],edx
    3765:	67 66 8b 55 f0       	mov    edx,DWORD PTR [ebp-0x10]
    376a:	67 66 89 54 24 08    	mov    DWORD PTR [esp+0x8],edx
    3770:	67 66 89 4c 24 04    	mov    DWORD PTR [esp+0x4],ecx
    3776:	67 66 89 04 24       	mov    DWORD PTR [esp],eax
    377b:	66 e8 dd d4 ff ff    	call   c5e <_loadReal>
D:\OneDrive\Study\Operating Systems\สตั้\project5\codes/./lib/utilsC.c:490
}
    3781:	90                   	nop
    3782:	66 c9                	leave  
    3784:	66 c3                	ret    

00003786 <_kill>:
kill():
D:\OneDrive\Study\Operating Systems\สตั้\project5\codes/./lib/utilsC.c:494


void kill(int id)
{
    3786:	66 55                	push   ebp
    3788:	66 89 e5             	mov    ebp,esp
    378b:	66 83 ec 08          	sub    esp,0x8
D:\OneDrive\Study\Operating Systems\สตั้\project5\codes/./lib/utilsC.c:495
	if(id != 0){
    378f:	67 66 83 7d 08 00    	cmp    DWORD PTR [ebp+0x8],0x0
    3795:	74 42                	je     37d9 <_kill+0x53>
D:\OneDrive\Study\Operating Systems\สตั้\project5\codes/./lib/utilsC.c:496
		processTable[id].status = exit;
    3797:	67 66 8b 55 08       	mov    edx,DWORD PTR [ebp+0x8]
    379c:	66 89 d0             	mov    eax,edx
    379f:	66 c1 e0 02          	shl    eax,0x2
    37a3:	66 01 d0             	add    eax,edx
    37a6:	66 c1 e0 04          	shl    eax,0x4
    37aa:	66 05 ac 6a 00 00    	add    eax,0x6aac
    37b0:	67 66 c7 00 05 00 00 	mov    DWORD PTR [eax],0x5
    37b7:	00 
D:\OneDrive\Study\Operating Systems\สตั้\project5\codes/./lib/utilsC.c:497
		processTable[id].id = -1;
    37b8:	67 66 8b 55 08       	mov    edx,DWORD PTR [ebp+0x8]
    37bd:	66 89 d0             	mov    eax,edx
    37c0:	66 c1 e0 02          	shl    eax,0x2
    37c4:	66 01 d0             	add    eax,edx
    37c7:	66 c1 e0 04          	shl    eax,0x4
    37cb:	66 05 84 6a 00 00    	add    eax,0x6a84
    37d1:	67 66 c7 00 ff ff ff 	mov    DWORD PTR [eax],0xffffffff
    37d8:	ff 
D:\OneDrive\Study\Operating Systems\สตั้\project5\codes/./lib/utilsC.c:499
	}
	release(memoryTable[processTable[id].blockNum].beginAddr, memoryTable[processTable[id].blockNum].endAddr);
    37d9:	67 66 8b 55 08       	mov    edx,DWORD PTR [ebp+0x8]
    37de:	66 89 d0             	mov    eax,edx
    37e1:	66 c1 e0 02          	shl    eax,0x2
    37e5:	66 01 d0             	add    eax,edx
    37e8:	66 c1 e0 04          	shl    eax,0x4
    37ec:	66 05 88 6a 00 00    	add    eax,0x6a88
    37f2:	67 66 8b 10          	mov    edx,DWORD PTR [eax]
    37f6:	66 89 d0             	mov    eax,edx
    37f9:	66 01 c0             	add    eax,eax
    37fc:	66 01 d0             	add    eax,edx
    37ff:	66 c1 e0 03          	shl    eax,0x3
    3803:	66 05 44 61 00 00    	add    eax,0x6144
    3809:	67 66 8b 10          	mov    edx,DWORD PTR [eax]
    380d:	67 66 8b 4d 08       	mov    ecx,DWORD PTR [ebp+0x8]
    3812:	66 89 c8             	mov    eax,ecx
    3815:	66 c1 e0 02          	shl    eax,0x2
    3819:	66 01 c8             	add    eax,ecx
    381c:	66 c1 e0 04          	shl    eax,0x4
    3820:	66 05 88 6a 00 00    	add    eax,0x6a88
    3826:	67 66 8b 08          	mov    ecx,DWORD PTR [eax]
    382a:	66 89 c8             	mov    eax,ecx
    382d:	66 01 c0             	add    eax,eax
    3830:	66 01 c8             	add    eax,ecx
    3833:	66 c1 e0 03          	shl    eax,0x3
    3837:	66 05 40 61 00 00    	add    eax,0x6140
    383d:	67 66 8b 00          	mov    eax,DWORD PTR [eax]
    3841:	67 66 89 54 24 04    	mov    DWORD PTR [esp+0x4],edx
    3847:	67 66 89 04 24       	mov    DWORD PTR [esp],eax
    384c:	66 e8 93 f9 ff ff    	call   31e5 <_release>
D:\OneDrive\Study\Operating Systems\สตั้\project5\codes/./lib/utilsC.c:501

}
    3852:	90                   	nop
    3853:	66 c9                	leave  
    3855:	66 c3                	ret    

00003857 <_int34h>:
int34h():
D:\OneDrive\Study\Operating Systems\สตั้\project5\codes/./lib/utilsC.c:504

void int34h()
{
    3857:	66 55                	push   ebp
    3859:	66 89 e5             	mov    ebp,esp
    385c:	66 83 ec 18          	sub    esp,0x18
D:\OneDrive\Study\Operating Systems\สตั้\project5\codes/./lib/utilsC.c:505
	char * s = "Int 34h Xihuai Wang";
    3860:	67 66 c7 45 fc c0 40 	mov    DWORD PTR [ebp-0x4],0x40c0
    3867:	00 00 
D:\OneDrive\Study\Operating Systems\สตั้\project5\codes/./lib/utilsC.c:506
	printSentence(s, 6, 5, strlen(s), purple);
    3869:	67 66 8b 45 fc       	mov    eax,DWORD PTR [ebp-0x4]
    386e:	67 66 89 04 24       	mov    DWORD PTR [esp],eax
    3873:	66 e8 47 dd ff ff    	call   15c0 <_strlen>
    3879:	67 66 c7 44 24 10 0d 	mov    DWORD PTR [esp+0x10],0xd
    3880:	00 00 00 
    3883:	67 66 89 44 24 0c    	mov    DWORD PTR [esp+0xc],eax
    3889:	67 66 c7 44 24 08 05 	mov    DWORD PTR [esp+0x8],0x5
    3890:	00 00 00 
    3893:	67 66 c7 44 24 04 06 	mov    DWORD PTR [esp+0x4],0x6
    389a:	00 00 00 
    389d:	67 66 8b 45 fc       	mov    eax,DWORD PTR [ebp-0x4]
    38a2:	67 66 89 04 24       	mov    DWORD PTR [esp],eax
    38a7:	66 e8 0b d2 ff ff    	call   ab8 <_printSentence>
D:\OneDrive\Study\Operating Systems\สตั้\project5\codes/./lib/utilsC.c:507
}
    38ad:	90                   	nop
    38ae:	66 c9                	leave  
    38b0:	66 c3                	ret    

000038b2 <_int35h>:
int35h():
D:\OneDrive\Study\Operating Systems\สตั้\project5\codes/./lib/utilsC.c:509
void int35h()
{
    38b2:	66 55                	push   ebp
    38b4:	66 89 e5             	mov    ebp,esp
    38b7:	66 83 ec 18          	sub    esp,0x18
D:\OneDrive\Study\Operating Systems\สตั้\project5\codes/./lib/utilsC.c:510
	char * s = "Int 35h 16337236";
    38bb:	67 66 c7 45 fc d4 40 	mov    DWORD PTR [ebp-0x4],0x40d4
    38c2:	00 00 
D:\OneDrive\Study\Operating Systems\สตั้\project5\codes/./lib/utilsC.c:511
	printSentence(s, 6, 46, strlen(s), purple);
    38c4:	67 66 8b 45 fc       	mov    eax,DWORD PTR [ebp-0x4]
    38c9:	67 66 89 04 24       	mov    DWORD PTR [esp],eax
    38ce:	66 e8 ec dc ff ff    	call   15c0 <_strlen>
    38d4:	67 66 c7 44 24 10 0d 	mov    DWORD PTR [esp+0x10],0xd
    38db:	00 00 00 
    38de:	67 66 89 44 24 0c    	mov    DWORD PTR [esp+0xc],eax
    38e4:	67 66 c7 44 24 08 2e 	mov    DWORD PTR [esp+0x8],0x2e
    38eb:	00 00 00 
    38ee:	67 66 c7 44 24 04 06 	mov    DWORD PTR [esp+0x4],0x6
    38f5:	00 00 00 
    38f8:	67 66 8b 45 fc       	mov    eax,DWORD PTR [ebp-0x4]
    38fd:	67 66 89 04 24       	mov    DWORD PTR [esp],eax
    3902:	66 e8 b0 d1 ff ff    	call   ab8 <_printSentence>
D:\OneDrive\Study\Operating Systems\สตั้\project5\codes/./lib/utilsC.c:512
}
    3908:	90                   	nop
    3909:	66 c9                	leave  
    390b:	66 c3                	ret    

0000390d <_int36h>:
int36h():
D:\OneDrive\Study\Operating Systems\สตั้\project5\codes/./lib/utilsC.c:514
void int36h()
{
    390d:	66 55                	push   ebp
    390f:	66 89 e5             	mov    ebp,esp
    3912:	66 83 ec 18          	sub    esp,0x18
D:\OneDrive\Study\Operating Systems\สตั้\project5\codes/./lib/utilsC.c:515
	char * s = "Int 34h Class two";
    3916:	67 66 c7 45 fc e5 40 	mov    DWORD PTR [ebp-0x4],0x40e5
    391d:	00 00 
D:\OneDrive\Study\Operating Systems\สตั้\project5\codes/./lib/utilsC.c:516
	printSentence(s, 18, 5, strlen(s), purple);
    391f:	67 66 8b 45 fc       	mov    eax,DWORD PTR [ebp-0x4]
    3924:	67 66 89 04 24       	mov    DWORD PTR [esp],eax
    3929:	66 e8 91 dc ff ff    	call   15c0 <_strlen>
    392f:	67 66 c7 44 24 10 0d 	mov    DWORD PTR [esp+0x10],0xd
    3936:	00 00 00 
    3939:	67 66 89 44 24 0c    	mov    DWORD PTR [esp+0xc],eax
    393f:	67 66 c7 44 24 08 05 	mov    DWORD PTR [esp+0x8],0x5
    3946:	00 00 00 
    3949:	67 66 c7 44 24 04 12 	mov    DWORD PTR [esp+0x4],0x12
    3950:	00 00 00 
    3953:	67 66 8b 45 fc       	mov    eax,DWORD PTR [ebp-0x4]
    3958:	67 66 89 04 24       	mov    DWORD PTR [esp],eax
    395d:	66 e8 55 d1 ff ff    	call   ab8 <_printSentence>
D:\OneDrive\Study\Operating Systems\สตั้\project5\codes/./lib/utilsC.c:517
}
    3963:	90                   	nop
    3964:	66 c9                	leave  
    3966:	66 c3                	ret    

00003968 <_int37h>:
int37h():
D:\OneDrive\Study\Operating Systems\สตั้\project5\codes/./lib/utilsC.c:519
void int37h()
{
    3968:	66 55                	push   ebp
    396a:	66 89 e5             	mov    ebp,esp
    396d:	66 83 ec 18          	sub    esp,0x18
D:\OneDrive\Study\Operating Systems\สตั้\project5\codes/./lib/utilsC.c:520
	char * s = "Int 34h Grade 2016";
    3971:	67 66 c7 45 fc f7 40 	mov    DWORD PTR [ebp-0x4],0x40f7
    3978:	00 00 
D:\OneDrive\Study\Operating Systems\สตั้\project5\codes/./lib/utilsC.c:521
	printSentence(s, 18, 46, strlen(s), purple);
    397a:	67 66 8b 45 fc       	mov    eax,DWORD PTR [ebp-0x4]
    397f:	67 66 89 04 24       	mov    DWORD PTR [esp],eax
    3984:	66 e8 36 dc ff ff    	call   15c0 <_strlen>
    398a:	67 66 c7 44 24 10 0d 	mov    DWORD PTR [esp+0x10],0xd
    3991:	00 00 00 
    3994:	67 66 89 44 24 0c    	mov    DWORD PTR [esp+0xc],eax
    399a:	67 66 c7 44 24 08 2e 	mov    DWORD PTR [esp+0x8],0x2e
    39a1:	00 00 00 
    39a4:	67 66 c7 44 24 04 12 	mov    DWORD PTR [esp+0x4],0x12
    39ab:	00 00 00 
    39ae:	67 66 8b 45 fc       	mov    eax,DWORD PTR [ebp-0x4]
    39b3:	67 66 89 04 24       	mov    DWORD PTR [esp],eax
    39b8:	66 e8 fa d0 ff ff    	call   ab8 <_printSentence>
D:\OneDrive\Study\Operating Systems\สตั้\project5\codes/./lib/utilsC.c:522
}
    39be:	90                   	nop
    39bf:	66 c9                	leave  
    39c1:	66 c3                	ret    

000039c3 <_initial>:
initial():
D:\OneDrive\Study\Operating Systems\สตั้\project5\codes/./lib/utilsC.c:525

void initial()
{
    39c3:	66 55                	push   ebp
    39c5:	66 89 e5             	mov    ebp,esp
    39c8:	66 83 ec 04          	sub    esp,0x4
D:\OneDrive\Study\Operating Systems\สตั้\project5\codes/./lib/utilsC.c:526
	initialFile();
    39cc:	66 e8 95 e7 ff ff    	call   2167 <_initialFile>
D:\OneDrive\Study\Operating Systems\สตั้\project5\codes/./lib/utilsC.c:527
	initialScreen(1);
    39d2:	67 66 c7 04 24 01 00 	mov    DWORD PTR [esp],0x1
    39d9:	00 00 
    39db:	66 e8 72 dc ff ff    	call   1653 <_initialScreen>
D:\OneDrive\Study\Operating Systems\สตั้\project5\codes/./lib/utilsC.c:528
	initialProcessTable();
    39e1:	66 e8 95 ea ff ff    	call   247c <_initialProcessTable>
D:\OneDrive\Study\Operating Systems\สตั้\project5\codes/./lib/utilsC.c:529
	initialMemoryTable();
    39e7:	66 e8 2d ee ff ff    	call   281a <_initialMemoryTable>
D:\OneDrive\Study\Operating Systems\สตั้\project5\codes/./lib/utilsC.c:530
}
    39ed:	90                   	nop
    39ee:	66 c9                	leave  
    39f0:	66 c3                	ret    

000039f2 <_schedule>:
schedule():
D:\OneDrive\Study\Operating Systems\สตั้\project5\codes/./lib/utilsC.c:540
// 	newPro->status = running;
// 	dispatchReal(&(oldPro->pcb), &(newPro->pcb));
// }

void schedule()
{
    39f2:	66 55                	push   ebp
    39f4:	66 89 e5             	mov    ebp,esp
    39f7:	66 83 ec 04          	sub    esp,0x4
D:\OneDrive\Study\Operating Systems\สตั้\project5\codes/./lib/utilsC.c:541
	if(runSub == 0)
    39fb:	66 a1 20 61          	mov    eax,ds:0x6120
    39ff:	66 85 c0             	test   eax,eax
    3a02:	75 0c                	jne    3a10 <_schedule+0x1e>
D:\OneDrive\Study\Operating Systems\สตั้\project5\codes/./lib/utilsC.c:543
	{
		curProcessId = 0;
    3a04:	66 c7 06 a0 70 00 00 	mov    DWORD PTR ds:0x70a0,0x0
    3a0b:	00 00 
D:\OneDrive\Study\Operating Systems\สตั้\project5\codes/./lib/utilsC.c:544
		return ;
    3a0d:	e9 c8 00             	jmp    3ad8 <_schedule+0xe6>
D:\OneDrive\Study\Operating Systems\สตั้\project5\codes/./lib/utilsC.c:546
	} 
	else if(curProcessId != 0 ||(runSub == 1))
    3a10:	66 a1 a0 70          	mov    eax,ds:0x70a0
    3a14:	66 85 c0             	test   eax,eax
    3a17:	75 0c                	jne    3a25 <_schedule+0x33>
    3a19:	66 a1 20 61          	mov    eax,ds:0x6120
    3a1d:	66 83 f8 01          	cmp    eax,0x1
    3a21:	0f 85 b3 00          	jne    3ad8 <_schedule+0xe6>
D:\OneDrive\Study\Operating Systems\สตั้\project5\codes/./lib/utilsC.c:548
	{
		for(int i = (curProcessId+1)%ProcessSize; i !=curProcessId; i = (i+1)%ProcessSize)
    3a25:	66 a1 a0 70          	mov    eax,ds:0x70a0
    3a29:	66 40                	inc    eax
    3a2b:	66 8b 0e f0 65       	mov    ecx,DWORD PTR ds:0x65f0
    3a30:	66 99                	cdq    
    3a32:	66 f7 f9             	idiv   ecx
    3a35:	67 66 89 55 fc       	mov    DWORD PTR [ebp-0x4],edx
    3a3a:	e9 8e 00             	jmp    3acb <_schedule+0xd9>
D:\OneDrive\Study\Operating Systems\สตั้\project5\codes/./lib/utilsC.c:550
		{
			if(i != 0 && processTable[i].status == ready)
    3a3d:	67 66 83 7d fc 00    	cmp    DWORD PTR [ebp-0x4],0x0
    3a43:	74 70                	je     3ab5 <_schedule+0xc3>
    3a45:	67 66 8b 55 fc       	mov    edx,DWORD PTR [ebp-0x4]
    3a4a:	66 89 d0             	mov    eax,edx
    3a4d:	66 c1 e0 02          	shl    eax,0x2
    3a51:	66 01 d0             	add    eax,edx
    3a54:	66 c1 e0 04          	shl    eax,0x4
    3a58:	66 05 ac 6a 00 00    	add    eax,0x6aac
    3a5e:	67 66 8b 00          	mov    eax,DWORD PTR [eax]
    3a62:	66 83 f8 01          	cmp    eax,0x1
    3a66:	75 4d                	jne    3ab5 <_schedule+0xc3>
D:\OneDrive\Study\Operating Systems\สตั้\project5\codes/./lib/utilsC.c:552
			{
				processTable[i].status = running;
    3a68:	67 66 8b 55 fc       	mov    edx,DWORD PTR [ebp-0x4]
    3a6d:	66 89 d0             	mov    eax,edx
    3a70:	66 c1 e0 02          	shl    eax,0x2
    3a74:	66 01 d0             	add    eax,edx
    3a77:	66 c1 e0 04          	shl    eax,0x4
    3a7b:	66 05 ac 6a 00 00    	add    eax,0x6aac
    3a81:	67 66 c7 00 02 00 00 	mov    DWORD PTR [eax],0x2
    3a88:	00 
D:\OneDrive\Study\Operating Systems\สตั้\project5\codes/./lib/utilsC.c:553
				processTable[curProcessId].status = ready;
    3a89:	66 8b 16 a0 70       	mov    edx,DWORD PTR ds:0x70a0
    3a8e:	66 89 d0             	mov    eax,edx
    3a91:	66 c1 e0 02          	shl    eax,0x2
    3a95:	66 01 d0             	add    eax,edx
    3a98:	66 c1 e0 04          	shl    eax,0x4
    3a9c:	66 05 ac 6a 00 00    	add    eax,0x6aac
    3aa2:	67 66 c7 00 01 00 00 	mov    DWORD PTR [eax],0x1
    3aa9:	00 
D:\OneDrive\Study\Operating Systems\สตั้\project5\codes/./lib/utilsC.c:554
				curProcessId = i;
    3aaa:	67 66 8b 45 fc       	mov    eax,DWORD PTR [ebp-0x4]
    3aaf:	66 a3 a0 70          	mov    ds:0x70a0,eax
D:\OneDrive\Study\Operating Systems\สตั้\project5\codes/./lib/utilsC.c:555
				return ;
    3ab3:	eb 23                	jmp    3ad8 <_schedule+0xe6>
D:\OneDrive\Study\Operating Systems\สตั้\project5\codes/./lib/utilsC.c:548
		for(int i = (curProcessId+1)%ProcessSize; i !=curProcessId; i = (i+1)%ProcessSize)
    3ab5:	67 66 8b 45 fc       	mov    eax,DWORD PTR [ebp-0x4]
    3aba:	66 40                	inc    eax
    3abc:	66 8b 0e f0 65       	mov    ecx,DWORD PTR ds:0x65f0
    3ac1:	66 99                	cdq    
    3ac3:	66 f7 f9             	idiv   ecx
    3ac6:	67 66 89 55 fc       	mov    DWORD PTR [ebp-0x4],edx
    3acb:	66 a1 a0 70          	mov    eax,ds:0x70a0
    3acf:	67 66 39 45 fc       	cmp    DWORD PTR [ebp-0x4],eax
    3ad4:	0f 85 65 ff          	jne    3a3d <_schedule+0x4b>
D:\OneDrive\Study\Operating Systems\สตั้\project5\codes/./lib/utilsC.c:559
			}
		}
	}
}
    3ad8:	66 c9                	leave  
    3ada:	66 c3                	ret    

00003adc <_block>:
block():
D:\OneDrive\Study\Operating Systems\สตั้\project5\codes/./lib/utilsC.c:562

void block()
{
    3adc:	66 55                	push   ebp
    3ade:	66 89 e5             	mov    ebp,esp
    3ae1:	66 83 ec 04          	sub    esp,0x4
D:\OneDrive\Study\Operating Systems\สตั้\project5\codes/./lib/utilsC.c:563
	for (int i = 1; i < ProcessSize; ++i)
    3ae5:	67 66 c7 45 fc 01 00 	mov    DWORD PTR [ebp-0x4],0x1
    3aec:	00 00 
    3aee:	eb 26                	jmp    3b16 <_block+0x3a>
D:\OneDrive\Study\Operating Systems\สตั้\project5\codes/./lib/utilsC.c:565
	{
		processTable[i].status = blocked;
    3af0:	67 66 8b 55 fc       	mov    edx,DWORD PTR [ebp-0x4]
    3af5:	66 89 d0             	mov    eax,edx
    3af8:	66 c1 e0 02          	shl    eax,0x2
    3afc:	66 01 d0             	add    eax,edx
    3aff:	66 c1 e0 04          	shl    eax,0x4
    3b03:	66 05 ac 6a 00 00    	add    eax,0x6aac
    3b09:	67 66 c7 00 03 00 00 	mov    DWORD PTR [eax],0x3
    3b10:	00 
D:\OneDrive\Study\Operating Systems\สตั้\project5\codes/./lib/utilsC.c:563
	for (int i = 1; i < ProcessSize; ++i)
    3b11:	67 66 ff 45 fc       	inc    DWORD PTR [ebp-0x4]
    3b16:	66 a1 f0 65          	mov    eax,ds:0x65f0
    3b1a:	67 66 39 45 fc       	cmp    DWORD PTR [ebp-0x4],eax
    3b1f:	7c cf                	jl     3af0 <_block+0x14>
D:\OneDrive\Study\Operating Systems\สตั้\project5\codes/./lib/utilsC.c:567
	}
	runSub = 0;
    3b21:	66 c7 06 20 61 00 00 	mov    DWORD PTR ds:0x6120,0x0
    3b28:	00 00 
D:\OneDrive\Study\Operating Systems\สตั้\project5\codes/./lib/utilsC.c:568
	return ;
    3b2a:	90                   	nop
D:\OneDrive\Study\Operating Systems\สตั้\project5\codes/./lib/utilsC.c:569
}
    3b2b:	66 c9                	leave  
    3b2d:	66 c3                	ret    

00003b2f <_wakeUp>:
wakeUp():
D:\OneDrive\Study\Operating Systems\สตั้\project5\codes/./lib/utilsC.c:572

void wakeUp()
{
    3b2f:	66 55                	push   ebp
    3b31:	66 89 e5             	mov    ebp,esp
    3b34:	66 83 ec 04          	sub    esp,0x4
D:\OneDrive\Study\Operating Systems\สตั้\project5\codes/./lib/utilsC.c:573
	for (int i = 1; i < ProcessSize; ++i)
    3b38:	67 66 c7 45 fc 01 00 	mov    DWORD PTR [ebp-0x4],0x1
    3b3f:	00 00 
    3b41:	eb 49                	jmp    3b8c <_wakeUp+0x5d>
D:\OneDrive\Study\Operating Systems\สตั้\project5\codes/./lib/utilsC.c:575
	{
		if(processTable[i].status == blocked)
    3b43:	67 66 8b 55 fc       	mov    edx,DWORD PTR [ebp-0x4]
    3b48:	66 89 d0             	mov    eax,edx
    3b4b:	66 c1 e0 02          	shl    eax,0x2
    3b4f:	66 01 d0             	add    eax,edx
    3b52:	66 c1 e0 04          	shl    eax,0x4
    3b56:	66 05 ac 6a 00 00    	add    eax,0x6aac
    3b5c:	67 66 8b 00          	mov    eax,DWORD PTR [eax]
    3b60:	66 83 f8 03          	cmp    eax,0x3
    3b64:	75 21                	jne    3b87 <_wakeUp+0x58>
D:\OneDrive\Study\Operating Systems\สตั้\project5\codes/./lib/utilsC.c:577
		{
			processTable[i].status = ready;
    3b66:	67 66 8b 55 fc       	mov    edx,DWORD PTR [ebp-0x4]
    3b6b:	66 89 d0             	mov    eax,edx
    3b6e:	66 c1 e0 02          	shl    eax,0x2
    3b72:	66 01 d0             	add    eax,edx
    3b75:	66 c1 e0 04          	shl    eax,0x4
    3b79:	66 05 ac 6a 00 00    	add    eax,0x6aac
    3b7f:	67 66 c7 00 01 00 00 	mov    DWORD PTR [eax],0x1
    3b86:	00 
D:\OneDrive\Study\Operating Systems\สตั้\project5\codes/./lib/utilsC.c:573
	for (int i = 1; i < ProcessSize; ++i)
    3b87:	67 66 ff 45 fc       	inc    DWORD PTR [ebp-0x4]
    3b8c:	66 a1 f0 65          	mov    eax,ds:0x65f0
    3b90:	67 66 39 45 fc       	cmp    DWORD PTR [ebp-0x4],eax
    3b95:	7c ac                	jl     3b43 <_wakeUp+0x14>
D:\OneDrive\Study\Operating Systems\สตั้\project5\codes/./lib/utilsC.c:581
		}
		
	}
	return ;
    3b97:	90                   	nop
D:\OneDrive\Study\Operating Systems\สตั้\project5\codes/./lib/utilsC.c:582
    3b98:	66 c9                	leave  
    3b9a:	66 c3                	ret    

00003b9c <_WelcomeSentence>:
    3b9c:	24 40                	and    al,0x40
	...

00003ba0 <_prompt>:
    3ba0:	63 40 00             	arpl   WORD PTR [bx+si+0x0],ax
    3ba3:	00 eb                	add    bl,ch
    3ba5:	1a 90 90 90          	sbb    dl,BYTE PTR [bx+si-0x6f70]
    3ba9:	90                   	nop
    3baa:	90                   	nop
    3bab:	90                   	nop
    3bac:	90                   	nop
    3bad:	90                   	nop
    3bae:	90                   	nop
    3baf:	90                   	nop
    3bb0:	90                   	nop
    3bb1:	90                   	nop
    3bb2:	90                   	nop
    3bb3:	90                   	nop
    3bb4:	90                   	nop
    3bb5:	90                   	nop
    3bb6:	90                   	nop
    3bb7:	90                   	nop
    3bb8:	90                   	nop
    3bb9:	90                   	nop
    3bba:	90                   	nop
    3bbb:	90                   	nop
    3bbc:	90                   	nop
    3bbd:	90                   	nop
    3bbe:	90                   	nop
    3bbf:	90                   	nop
    3bc0:	4f                   	dec    di
    3bc1:	72 69                	jb     3c2c <_prompt+0x8c>
    3bc3:	67 69 6e 00 00 00    	imul   bp,WORD PTR [esi+0x0],0x0
    3bc9:	00 72 65             	add    BYTE PTR [bp+si+0x65],dh
    3bcc:	61                   	popa   
    3bcd:	64 79 00             	fs jns 3bd0 <_prompt+0x30>
    3bd0:	00 00                	add    BYTE PTR [bx+si],al
    3bd2:	00 00                	add    BYTE PTR [bx+si],al
    3bd4:	72 75                	jb     3c4b <_prompt+0xab>
    3bd6:	6e                   	outs   dx,BYTE PTR ds:[si]
    3bd7:	6e                   	outs   dx,BYTE PTR ds:[si]
    3bd8:	69 6e 67 00 00       	imul   bp,WORD PTR [bp+0x67],0x0
    3bdd:	00 62 6c             	add    BYTE PTR [bp+si+0x6c],ah
    3be0:	6f                   	outs   dx,WORD PTR ds:[si]
    3be1:	63 6b 65             	arpl   WORD PTR [bp+di+0x65],bp
    3be4:	64 00 00             	add    BYTE PTR fs:[bx+si],al
    3be7:	00 73 75             	add    BYTE PTR [bp+di+0x75],dh
    3bea:	73 70                	jae    3c5c <_prompt+0xbc>
    3bec:	65 6e                	outs   dx,BYTE PTR gs:[si]
    3bee:	64 00 00             	add    BYTE PTR fs:[bx+si],al
    3bf1:	00 65 78             	add    BYTE PTR [di+0x78],ah
    3bf4:	69 74 00 00 00       	imul   si,WORD PTR [si+0x0],0x0
    3bf9:	00 00                	add    BYTE PTR [bx+si],al
    3bfb:	00 00                	add    BYTE PTR [bx+si],al
    3bfd:	00 00                	add    BYTE PTR [bx+si],al
	...
