
..\imgs\boot.tmp:     file format pei-i386


Disassembly of section .text:

00000000 <.text>:
       0:	66 8c c8             	mov    eax,cs
       3:	8e d8                	mov    ds,ax
       5:	8e c0                	mov    es,ax
       7:	8e d0                	mov    ss,ax
       9:	8e e8                	mov    gs,ax
       b:	66 e8 74 10 00 00    	call   1085 <_inisys>
      11:	eb 00                	jmp    13 <__main>

00000013 <__main>:
_main():
D:\OneDrive\Study\Operating Systems\实验\project7\codes/./kernel/os.c:39
{
	int i;
	struct testMalloc * next;
};

int _main() {
      13:	66 55                	push   ebp
      15:	66 89 e5             	mov    ebp,esp
      18:	66 56                	push   esi
      1a:	66 53                	push   ebx
      1c:	66 81 ec b8 00 00 00 	sub    esp,0xb8
D:\OneDrive\Study\Operating Systems\实验\project7\codes/./kernel/os.c:40
	runSub = 0;
      23:	66 c7 06 d8 92 00 00 	mov    DWORD PTR ds:0x92d8,0x0
      2a:	00 00 
D:\OneDrive\Study\Operating Systems\实验\project7\codes/./kernel/os.c:41
	curProcessId = 0;
      2c:	66 c7 06 a0 be 00 00 	mov    DWORD PTR ds:0xbea0,0x0
      33:	00 00 
D:\OneDrive\Study\Operating Systems\实验\project7\codes/./kernel/os.c:42
	ProcessSize = 1;
      35:	66 c7 06 fc 96 01 00 	mov    DWORD PTR ds:0x96fc,0x1
      3c:	00 00 
D:\OneDrive\Study\Operating Systems\实验\project7\codes/./kernel/os.c:43
	SizeOfProcessStruct = sizeof(struct Process);
      3e:	66 c7 06 04 97 90 00 	mov    DWORD PTR ds:0x9704,0x90
      45:	00 00 
D:\OneDrive\Study\Operating Systems\实验\project7\codes/./kernel/os.c:44
	initial();
      47:	66 e8 97 2b 00 00    	call   2be4 <_initial>
D:\OneDrive\Study\Operating Systems\实验\project7\codes/./kernel/os.c:47
	char * in;
	char * str;
	int tmp = -1;
      4d:	67 66 c7 85 60 ff ff 	mov    DWORD PTR [ebp-0xa0],0xffffffff
      54:	ff ff ff ff ff 
D:\OneDrive\Study\Operating Systems\实验\project7\codes/./kernel/os.c:48
	init(&ReadyQue);
      59:	67 66 c7 04 24 c0 be 	mov    DWORD PTR [esp],0xbec0
      60:	00 00 
      62:	66 e8 d2 61 00 00    	call   623a <_init>
D:\OneDrive\Study\Operating Systems\实验\project7\codes/./kernel/os.c:49
	init(&BlockedQue);
      68:	67 66 c7 04 24 a0 96 	mov    DWORD PTR [esp],0x96a0
      6f:	00 00 
      71:	66 e8 c3 61 00 00    	call   623a <_init>
D:\OneDrive\Study\Operating Systems\实验\project7\codes/./kernel/os.c:50
	init(&SuspendQue);
      77:	67 66 c7 04 24 00 b3 	mov    DWORD PTR [esp],0xb300
      7e:	00 00 
      80:	66 e8 b4 61 00 00    	call   623a <_init>
D:\OneDrive\Study\Operating Systems\实验\project7\codes/./kernel/os.c:53

	do {
		in = getInput();
      86:	66 e8 65 15 00 00    	call   15f1 <_getInput>
      8c:	67 66 89 45 f0       	mov    DWORD PTR [ebp-0x10],eax
D:\OneDrive\Study\Operating Systems\实验\project7\codes/./kernel/os.c:54
		if (strcmp(in, "testFork") == 0) {
      91:	67 66 c7 44 24 04 00 	mov    DWORD PTR [esp+0x4],0x7000
      98:	70 00 00 
      9b:	67 66 8b 45 f0       	mov    eax,DWORD PTR [ebp-0x10]
      a0:	67 66 89 04 24       	mov    DWORD PTR [esp],eax
      a5:	66 e8 3f 2c 00 00    	call   2cea <_strcmp>
      ab:	66 85 c0             	test   eax,eax
      ae:	0f 85 a7 01          	jne    259 <__file_alignment__+0x59>
D:\OneDrive\Study\Operating Systems\实验\project7\codes/./kernel/os.c:55
			tmp = find(in);
      b2:	67 66 8b 45 f0       	mov    eax,DWORD PTR [ebp-0x10]
      b7:	67 66 89 04 24       	mov    DWORD PTR [esp],eax
      bc:	66 e8 b5 30 00 00    	call   3177 <_find>
      c2:	67 66 89 85 60 ff ff 	mov    DWORD PTR [ebp-0xa0],eax
      c9:	ff 
D:\OneDrive\Study\Operating Systems\实验\project7\codes/./kernel/os.c:57
			int offsetOfPrg, segOfPrg;
			int offsetMask = 0x0000ffff;
      ca:	67 66 c7 45 ec ff ff 	mov    DWORD PTR [ebp-0x14],0xffff
      d1:	00 00 
D:\OneDrive\Study\Operating Systems\实验\project7\codes/./kernel/os.c:58
			int segMask = 0xf0000;
      d3:	67 66 c7 45 e8 00 00 	mov    DWORD PTR [ebp-0x18],0xf0000
      da:	0f 00 
D:\OneDrive\Study\Operating Systems\实验\project7\codes/./kernel/os.c:59
			offsetOfPrg = 0x80000 & offsetMask;
      dc:	67 66 8b 45 ec       	mov    eax,DWORD PTR [ebp-0x14]
      e1:	66 25 00 00 08 00    	and    eax,0x80000
      e7:	67 66 89 45 e4       	mov    DWORD PTR [ebp-0x1c],eax
D:\OneDrive\Study\Operating Systems\实验\project7\codes/./kernel/os.c:60
			segOfPrg = (0x80000 & segMask) >> 4;
      ec:	67 66 8b 45 e8       	mov    eax,DWORD PTR [ebp-0x18]
      f1:	66 c1 f8 04          	sar    eax,0x4
      f5:	66 25 00 80 00 00    	and    eax,0x8000
      fb:	67 66 89 45 e0       	mov    DWORD PTR [ebp-0x20],eax
D:\OneDrive\Study\Operating Systems\实验\project7\codes/./kernel/os.c:61
			int cs = segOfPrg + (offsetOfPrg >> 4), ip = 0, ss = segOfPrg + (offsetOfPrg >> 4), sp = information[tmp].size + 1024 - 1;
     100:	67 66 8b 45 e4       	mov    eax,DWORD PTR [ebp-0x1c]
     105:	66 c1 f8 04          	sar    eax,0x4
     109:	66 89 c2             	mov    edx,eax
     10c:	67 66 8b 45 e0       	mov    eax,DWORD PTR [ebp-0x20]
     111:	66 01 d0             	add    eax,edx
     114:	67 66 89 45 dc       	mov    DWORD PTR [ebp-0x24],eax
     119:	67 66 c7 45 d8 00 00 	mov    DWORD PTR [ebp-0x28],0x0
     120:	00 00 
     122:	67 66 8b 45 e4       	mov    eax,DWORD PTR [ebp-0x1c]
     127:	66 c1 f8 04          	sar    eax,0x4
     12b:	66 89 c2             	mov    edx,eax
     12e:	67 66 8b 45 e0       	mov    eax,DWORD PTR [ebp-0x20]
     133:	66 01 d0             	add    eax,edx
     136:	67 66 89 45 d4       	mov    DWORD PTR [ebp-0x2c],eax
     13b:	67 66 8b 95 60 ff ff 	mov    edx,DWORD PTR [ebp-0xa0]
     142:	ff 
     143:	66 89 d0             	mov    eax,edx
     146:	66 01 c0             	add    eax,eax
     149:	66 01 d0             	add    eax,edx
     14c:	66 c1 e0 02          	shl    eax,0x2
     150:	66 01 d0             	add    eax,edx
     153:	66 c1 e0 02          	shl    eax,0x2
     157:	66 05 08 af 00 00    	add    eax,0xaf08
     15d:	67 66 8b 00          	mov    eax,DWORD PTR [eax]
     161:	66 05 ff 03 00 00    	add    eax,0x3ff
     167:	67 66 89 45 d0       	mov    DWORD PTR [ebp-0x30],eax
D:\OneDrive\Study\Operating Systems\实验\project7\codes/./kernel/os.c:62
			createProcess(findNextProcessItem(), information[tmp].name, information[tmp].size + 1024, cs, ip, ss, sp, 9);
     16c:	67 66 8b 95 60 ff ff 	mov    edx,DWORD PTR [ebp-0xa0]
     173:	ff 
     174:	66 89 d0             	mov    eax,edx
     177:	66 01 c0             	add    eax,eax
     17a:	66 01 d0             	add    eax,edx
     17d:	66 c1 e0 02          	shl    eax,0x2
     181:	66 01 d0             	add    eax,edx
     184:	66 c1 e0 02          	shl    eax,0x2
     188:	66 05 08 af 00 00    	add    eax,0xaf08
     18e:	67 66 8b 00          	mov    eax,DWORD PTR [eax]
     192:	67 66 8d b0 00 04 00 	lea    esi,[eax+0x400]
     199:	00 
     19a:	67 66 8b 95 60 ff ff 	mov    edx,DWORD PTR [ebp-0xa0]
     1a1:	ff 
     1a2:	66 89 d0             	mov    eax,edx
     1a5:	66 01 c0             	add    eax,eax
     1a8:	66 01 d0             	add    eax,edx
     1ab:	66 c1 e0 02          	shl    eax,0x2
     1af:	66 01 d0             	add    eax,edx
     1b2:	66 c1 e0 02          	shl    eax,0x2
     1b6:	67 66 8d 98 e0 ae 00 	lea    ebx,[eax+0xaee0]
     1bd:	00 
     1be:	66 e8 fe 34 00 00    	call   36c2 <_findNextProcessItem>
     1c4:	67 66 c7 44 24 1c 09 	mov    DWORD PTR [esp+0x1c],0x9
     1cb:	00 00 00 
     1ce:	67 66 8b 55 d0       	mov    edx,DWORD PTR [ebp-0x30]
     1d3:	67 66 89 54 24 18    	mov    DWORD PTR [esp+0x18],edx
     1d9:	67 66 8b 55 d4       	mov    edx,DWORD PTR [ebp-0x2c]
     1de:	67 66 89 54 24 14    	mov    DWORD PTR [esp+0x14],edx
     1e4:	67 66 8b 55 d8       	mov    edx,DWORD PTR [ebp-0x28]
     1e9:	67 66 89 54 24 10    	mov    DWORD PTR [esp+0x10],edx
     1ef:	67 66 8b 55 dc       	mov    edx,DWORD PTR [ebp-0x24]
     1f4:	67 66 89 54 24 0c    	mov    DWORD PTR [esp+0xc],edx
     1fa:	67 66 89 74 24 08    	mov    DWORD PTR [esp+0x8],esi
     200:	67 66 89 5c 24 04    	mov    DWORD PTR [esp+0x4],ebx
     206:	67 66 89 04 24       	mov    DWORD PTR [esp],eax
     20b:	66 e8 78 36 00 00    	call   3889 <_createProcess>
D:\OneDrive\Study\Operating Systems\实验\project7\codes/./kernel/os.c:63
			ProcessSize += 1;
     211:	66 a1 fc 96          	mov    eax,ds:0x96fc
     215:	66 40                	inc    eax
     217:	66 a3 fc 96          	mov    ds:0x96fc,eax
D:\OneDrive\Study\Operating Systems\实验\project7\codes/./kernel/os.c:64
			enqueue(&ReadyQue, ProcessSize - 1);
     21b:	66 a1 fc 96          	mov    eax,ds:0x96fc
     21f:	66 48                	dec    eax
     221:	67 66 89 44 24 04    	mov    DWORD PTR [esp+0x4],eax
     227:	67 66 c7 04 24 c0 be 	mov    DWORD PTR [esp],0xbec0
     22e:	00 00 
     230:	66 e8 37 60 00 00    	call   626d <_enqueue>
D:\OneDrive\Study\Operating Systems\实验\project7\codes/./kernel/os.c:65
			clear();
     236:	66 e8 83 20 00 00    	call   22bf <_clear>
D:\OneDrive\Study\Operating Systems\实验\project7\codes/./kernel/os.c:66
			runSub = 1;
     23c:	66 c7 06 d8 92 01 00 	mov    DWORD PTR ds:0x92d8,0x1
     243:	00 00 
D:\OneDrive\Study\Operating Systems\实验\project7\codes/./kernel/os.c:67
			__asm__("int $0x8\n");
     245:	cd 08                	int    0x8
D:\OneDrive\Study\Operating Systems\实验\project7\codes/./kernel/os.c:68
			runSub = 0;
     247:	66 c7 06 d8 92 00 00 	mov    DWORD PTR ds:0x92d8,0x0
     24e:	00 00 
D:\OneDrive\Study\Operating Systems\实验\project7\codes/./kernel/os.c:69
			clear();
     250:	66 e8 69 20 00 00    	call   22bf <_clear>
     256:	e9 15 0e             	jmp    106e <__section_alignment__+0x6e>
D:\OneDrive\Study\Operating Systems\实验\project7\codes/./kernel/os.c:71
		}
		else if (in[0] == 'r' && in[1] == 'u' && in[2] == 'n')
     259:	67 66 8b 45 f0       	mov    eax,DWORD PTR [ebp-0x10]
     25e:	67 8a 00             	mov    al,BYTE PTR [eax]
     261:	3c 72                	cmp    al,0x72
     263:	0f 85 c1 04          	jne    728 <__file_alignment__+0x528>
     267:	67 66 8b 45 f0       	mov    eax,DWORD PTR [ebp-0x10]
     26c:	66 40                	inc    eax
     26e:	67 8a 00             	mov    al,BYTE PTR [eax]
     271:	3c 75                	cmp    al,0x75
     273:	0f 85 b1 04          	jne    728 <__file_alignment__+0x528>
     277:	67 66 8b 45 f0       	mov    eax,DWORD PTR [ebp-0x10]
     27c:	66 83 c0 02          	add    eax,0x2
     280:	67 8a 00             	mov    al,BYTE PTR [eax]
     283:	3c 6e                	cmp    al,0x6e
     285:	0f 85 9f 04          	jne    728 <__file_alignment__+0x528>
D:\OneDrive\Study\Operating Systems\实验\project7\codes/./kernel/os.c:73
		{
			printSentence("\n", line++, 0, strlen("\n"), white);
     289:	67 66 c7 04 24 09 70 	mov    DWORD PTR [esp],0x7009
     290:	00 00 
     292:	66 e8 81 29 00 00    	call   2c19 <_strlen>
     298:	66 89 c2             	mov    edx,eax
     29b:	66 a1 00 92          	mov    eax,ds:0x9200
     29f:	67 66 8d 48 01       	lea    ecx,[eax+0x1]
     2a4:	66 89 0e 00 92       	mov    DWORD PTR ds:0x9200,ecx
     2a9:	67 66 c7 44 24 10 0f 	mov    DWORD PTR [esp+0x10],0xf
     2b0:	00 00 00 
     2b3:	67 66 89 54 24 0c    	mov    DWORD PTR [esp+0xc],edx
     2b9:	67 66 c7 44 24 08 00 	mov    DWORD PTR [esp+0x8],0x0
     2c0:	00 00 00 
     2c3:	67 66 89 44 24 04    	mov    DWORD PTR [esp+0x4],eax
     2c9:	67 66 c7 04 24 09 70 	mov    DWORD PTR [esp],0x7009
     2d0:	00 00 
     2d2:	66 e8 cd 12 00 00    	call   15a5 <_printSentence>
D:\OneDrive\Study\Operating Systems\实验\project7\codes/./kernel/os.c:75
			do {
				str = getInput();
     2d8:	66 e8 13 13 00 00    	call   15f1 <_getInput>
     2de:	67 66 89 45 cc       	mov    DWORD PTR [ebp-0x34],eax
D:\OneDrive\Study\Operating Systems\实验\project7\codes/./kernel/os.c:76
				printSentence("\n", line++, 0, strlen("\n"), white);
     2e3:	67 66 c7 04 24 09 70 	mov    DWORD PTR [esp],0x7009
     2ea:	00 00 
     2ec:	66 e8 27 29 00 00    	call   2c19 <_strlen>
     2f2:	66 89 c2             	mov    edx,eax
     2f5:	66 a1 00 92          	mov    eax,ds:0x9200
     2f9:	67 66 8d 48 01       	lea    ecx,[eax+0x1]
     2fe:	66 89 0e 00 92       	mov    DWORD PTR ds:0x9200,ecx
     303:	67 66 c7 44 24 10 0f 	mov    DWORD PTR [esp+0x10],0xf
     30a:	00 00 00 
     30d:	67 66 89 54 24 0c    	mov    DWORD PTR [esp+0xc],edx
     313:	67 66 c7 44 24 08 00 	mov    DWORD PTR [esp+0x8],0x0
     31a:	00 00 00 
     31d:	67 66 89 44 24 04    	mov    DWORD PTR [esp+0x4],eax
     323:	67 66 c7 04 24 09 70 	mov    DWORD PTR [esp],0x7009
     32a:	00 00 
     32c:	66 e8 73 12 00 00    	call   15a5 <_printSentence>
D:\OneDrive\Study\Operating Systems\实验\project7\codes/./kernel/os.c:77
				if (str[0]) {
     332:	67 66 8b 45 cc       	mov    eax,DWORD PTR [ebp-0x34]
     337:	67 8a 00             	mov    al,BYTE PTR [eax]
     33a:	84 c0                	test   al,al
     33c:	0f 84 e7 02          	je     627 <__file_alignment__+0x427>
D:\OneDrive\Study\Operating Systems\实验\project7\codes/./kernel/os.c:78
					tmp = find(str);
     340:	67 66 8b 45 cc       	mov    eax,DWORD PTR [ebp-0x34]
     345:	67 66 89 04 24       	mov    DWORD PTR [esp],eax
     34a:	66 e8 27 2e 00 00    	call   3177 <_find>
     350:	67 66 89 85 60 ff ff 	mov    DWORD PTR [ebp-0xa0],eax
     357:	ff 
D:\OneDrive\Study\Operating Systems\实验\project7\codes/./kernel/os.c:79
					if (tmp != -1 && information[tmp].deleted != 1) {
     358:	67 66 8b 85 60 ff ff 	mov    eax,DWORD PTR [ebp-0xa0]
     35f:	ff 
     360:	66 83 f8 ff          	cmp    eax,0xffffffff
     364:	0f 84 bf 02          	je     627 <__file_alignment__+0x427>
     368:	67 66 8b 95 60 ff ff 	mov    edx,DWORD PTR [ebp-0xa0]
     36f:	ff 
     370:	66 89 d0             	mov    eax,edx
     373:	66 01 c0             	add    eax,eax
     376:	66 01 d0             	add    eax,edx
     379:	66 c1 e0 02          	shl    eax,0x2
     37d:	66 01 d0             	add    eax,edx
     380:	66 c1 e0 02          	shl    eax,0x2
     384:	66 05 0c af 00 00    	add    eax,0xaf0c
     38a:	67 66 8b 00          	mov    eax,DWORD PTR [eax]
     38e:	66 83 f8 01          	cmp    eax,0x1
     392:	0f 84 91 02          	je     627 <__file_alignment__+0x427>
D:\OneDrive\Study\Operating Systems\实验\project7\codes/./kernel/os.c:80
						int blockNum = findEnoughBlock(information[tmp].size + 1024);
     396:	67 66 8b 95 60 ff ff 	mov    edx,DWORD PTR [ebp-0xa0]
     39d:	ff 
     39e:	66 89 d0             	mov    eax,edx
     3a1:	66 01 c0             	add    eax,eax
     3a4:	66 01 d0             	add    eax,edx
     3a7:	66 c1 e0 02          	shl    eax,0x2
     3ab:	66 01 d0             	add    eax,edx
     3ae:	66 c1 e0 02          	shl    eax,0x2
     3b2:	66 05 08 af 00 00    	add    eax,0xaf08
     3b8:	67 66 8b 00          	mov    eax,DWORD PTR [eax]
     3bc:	66 05 00 04 00 00    	add    eax,0x400
     3c2:	67 66 89 04 24       	mov    DWORD PTR [esp],eax
     3c7:	66 e8 9f 56 00 00    	call   5a6c <_findEnoughBlock>
     3cd:	67 66 89 45 c8       	mov    DWORD PTR [ebp-0x38],eax
D:\OneDrive\Study\Operating Systems\实验\project7\codes/./kernel/os.c:81
						blockNum = require(information[tmp].size + 1024, blockNum);
     3d2:	67 66 8b 95 60 ff ff 	mov    edx,DWORD PTR [ebp-0xa0]
     3d9:	ff 
     3da:	66 89 d0             	mov    eax,edx
     3dd:	66 01 c0             	add    eax,eax
     3e0:	66 01 d0             	add    eax,edx
     3e3:	66 c1 e0 02          	shl    eax,0x2
     3e7:	66 01 d0             	add    eax,edx
     3ea:	66 c1 e0 02          	shl    eax,0x2
     3ee:	66 05 08 af 00 00    	add    eax,0xaf08
     3f4:	67 66 8b 00          	mov    eax,DWORD PTR [eax]
     3f8:	67 66 8d 90 00 04 00 	lea    edx,[eax+0x400]
     3ff:	00 
     400:	67 66 8b 45 c8       	mov    eax,DWORD PTR [ebp-0x38]
     405:	67 66 89 44 24 04    	mov    DWORD PTR [esp+0x4],eax
     40b:	67 66 89 14 24       	mov    DWORD PTR [esp],edx
     410:	66 e8 ff 56 00 00    	call   5b15 <_require>
     416:	67 66 89 45 c8       	mov    DWORD PTR [ebp-0x38],eax
D:\OneDrive\Study\Operating Systems\实验\project7\codes/./kernel/os.c:83
						int offsetOfPrg, segOfPrg;
						int offsetMask = 0x0000ffff;
     41b:	67 66 c7 45 c4 ff ff 	mov    DWORD PTR [ebp-0x3c],0xffff
     422:	00 00 
D:\OneDrive\Study\Operating Systems\实验\project7\codes/./kernel/os.c:84
						int segMask = 0xf0000;
     424:	67 66 c7 45 c0 00 00 	mov    DWORD PTR [ebp-0x40],0xf0000
     42b:	0f 00 
D:\OneDrive\Study\Operating Systems\实验\project7\codes/./kernel/os.c:85
						offsetOfPrg = memoryTable[blockNum].beginAddr & offsetMask;
     42d:	67 66 8b 55 c8       	mov    edx,DWORD PTR [ebp-0x38]
     432:	66 89 d0             	mov    eax,edx
     435:	66 01 c0             	add    eax,eax
     438:	66 01 d0             	add    eax,edx
     43b:	66 c1 e0 03          	shl    eax,0x3
     43f:	66 05 e0 92 00 00    	add    eax,0x92e0
     445:	67 66 8b 00          	mov    eax,DWORD PTR [eax]
     449:	67 66 23 45 c4       	and    eax,DWORD PTR [ebp-0x3c]
     44e:	67 66 89 45 bc       	mov    DWORD PTR [ebp-0x44],eax
D:\OneDrive\Study\Operating Systems\实验\project7\codes/./kernel/os.c:86
						segOfPrg = (memoryTable[blockNum].beginAddr & segMask) >> 4;
     453:	67 66 8b 55 c8       	mov    edx,DWORD PTR [ebp-0x38]
     458:	66 89 d0             	mov    eax,edx
     45b:	66 01 c0             	add    eax,eax
     45e:	66 01 d0             	add    eax,edx
     461:	66 c1 e0 03          	shl    eax,0x3
     465:	66 05 e0 92 00 00    	add    eax,0x92e0
     46b:	67 66 8b 00          	mov    eax,DWORD PTR [eax]
     46f:	67 66 23 45 c0       	and    eax,DWORD PTR [ebp-0x40]
     474:	66 c1 f8 04          	sar    eax,0x4
     478:	67 66 89 45 b8       	mov    DWORD PTR [ebp-0x48],eax
D:\OneDrive\Study\Operating Systems\实验\project7\codes/./kernel/os.c:87
						int cs = segOfPrg + (offsetOfPrg >> 4), ip = 0, ss = segOfPrg + (offsetOfPrg >> 4), sp = information[tmp].size + 1024 - 1;
     47d:	67 66 8b 45 bc       	mov    eax,DWORD PTR [ebp-0x44]
     482:	66 c1 f8 04          	sar    eax,0x4
     486:	66 89 c2             	mov    edx,eax
     489:	67 66 8b 45 b8       	mov    eax,DWORD PTR [ebp-0x48]
     48e:	66 01 d0             	add    eax,edx
     491:	67 66 89 45 b4       	mov    DWORD PTR [ebp-0x4c],eax
     496:	67 66 c7 45 b0 00 00 	mov    DWORD PTR [ebp-0x50],0x0
     49d:	00 00 
     49f:	67 66 8b 45 bc       	mov    eax,DWORD PTR [ebp-0x44]
     4a4:	66 c1 f8 04          	sar    eax,0x4
     4a8:	66 89 c2             	mov    edx,eax
     4ab:	67 66 8b 45 b8       	mov    eax,DWORD PTR [ebp-0x48]
     4b0:	66 01 d0             	add    eax,edx
     4b3:	67 66 89 45 ac       	mov    DWORD PTR [ebp-0x54],eax
     4b8:	67 66 8b 95 60 ff ff 	mov    edx,DWORD PTR [ebp-0xa0]
     4bf:	ff 
     4c0:	66 89 d0             	mov    eax,edx
     4c3:	66 01 c0             	add    eax,eax
     4c6:	66 01 d0             	add    eax,edx
     4c9:	66 c1 e0 02          	shl    eax,0x2
     4cd:	66 01 d0             	add    eax,edx
     4d0:	66 c1 e0 02          	shl    eax,0x2
     4d4:	66 05 08 af 00 00    	add    eax,0xaf08
     4da:	67 66 8b 00          	mov    eax,DWORD PTR [eax]
     4de:	66 05 ff 03 00 00    	add    eax,0x3ff
     4e4:	67 66 89 45 a8       	mov    DWORD PTR [ebp-0x58],eax
D:\OneDrive\Study\Operating Systems\实验\project7\codes/./kernel/os.c:88
						createProcess(findNextProcessItem(), information[tmp].name, information[tmp].size + 1024, cs, ip, ss, sp, blockNum);
     4e9:	67 66 8b 95 60 ff ff 	mov    edx,DWORD PTR [ebp-0xa0]
     4f0:	ff 
     4f1:	66 89 d0             	mov    eax,edx
     4f4:	66 01 c0             	add    eax,eax
     4f7:	66 01 d0             	add    eax,edx
     4fa:	66 c1 e0 02          	shl    eax,0x2
     4fe:	66 01 d0             	add    eax,edx
     501:	66 c1 e0 02          	shl    eax,0x2
     505:	66 05 08 af 00 00    	add    eax,0xaf08
     50b:	67 66 8b 00          	mov    eax,DWORD PTR [eax]
     50f:	67 66 8d b0 00 04 00 	lea    esi,[eax+0x400]
     516:	00 
     517:	67 66 8b 95 60 ff ff 	mov    edx,DWORD PTR [ebp-0xa0]
     51e:	ff 
     51f:	66 89 d0             	mov    eax,edx
     522:	66 01 c0             	add    eax,eax
     525:	66 01 d0             	add    eax,edx
     528:	66 c1 e0 02          	shl    eax,0x2
     52c:	66 01 d0             	add    eax,edx
     52f:	66 c1 e0 02          	shl    eax,0x2
     533:	67 66 8d 98 e0 ae 00 	lea    ebx,[eax+0xaee0]
     53a:	00 
     53b:	66 e8 81 31 00 00    	call   36c2 <_findNextProcessItem>
     541:	67 66 8b 55 c8       	mov    edx,DWORD PTR [ebp-0x38]
     546:	67 66 89 54 24 1c    	mov    DWORD PTR [esp+0x1c],edx
     54c:	67 66 8b 55 a8       	mov    edx,DWORD PTR [ebp-0x58]
     551:	67 66 89 54 24 18    	mov    DWORD PTR [esp+0x18],edx
     557:	67 66 8b 55 ac       	mov    edx,DWORD PTR [ebp-0x54]
     55c:	67 66 89 54 24 14    	mov    DWORD PTR [esp+0x14],edx
     562:	67 66 8b 55 b0       	mov    edx,DWORD PTR [ebp-0x50]
     567:	67 66 89 54 24 10    	mov    DWORD PTR [esp+0x10],edx
     56d:	67 66 8b 55 b4       	mov    edx,DWORD PTR [ebp-0x4c]
     572:	67 66 89 54 24 0c    	mov    DWORD PTR [esp+0xc],edx
     578:	67 66 89 74 24 08    	mov    DWORD PTR [esp+0x8],esi
     57e:	67 66 89 5c 24 04    	mov    DWORD PTR [esp+0x4],ebx
     584:	67 66 89 04 24       	mov    DWORD PTR [esp],eax
     589:	66 e8 fa 32 00 00    	call   3889 <_createProcess>
D:\OneDrive\Study\Operating Systems\实验\project7\codes/./kernel/os.c:89
						ProcessSize += 1;
     58f:	66 a1 fc 96          	mov    eax,ds:0x96fc
     593:	66 40                	inc    eax
     595:	66 a3 fc 96          	mov    ds:0x96fc,eax
D:\OneDrive\Study\Operating Systems\实验\project7\codes/./kernel/os.c:90
						loadReal(information[tmp].lmaddress, information[tmp].size, offsetOfPrg, segOfPrg);
     599:	67 66 8b 95 60 ff ff 	mov    edx,DWORD PTR [ebp-0xa0]
     5a0:	ff 
     5a1:	66 89 d0             	mov    eax,edx
     5a4:	66 01 c0             	add    eax,eax
     5a7:	66 01 d0             	add    eax,edx
     5aa:	66 c1 e0 02          	shl    eax,0x2
     5ae:	66 01 d0             	add    eax,edx
     5b1:	66 c1 e0 02          	shl    eax,0x2
     5b5:	66 05 08 af 00 00    	add    eax,0xaf08
     5bb:	67 66 8b 08          	mov    ecx,DWORD PTR [eax]
     5bf:	67 66 8b 95 60 ff ff 	mov    edx,DWORD PTR [ebp-0xa0]
     5c6:	ff 
     5c7:	66 89 d0             	mov    eax,edx
     5ca:	66 01 c0             	add    eax,eax
     5cd:	66 01 d0             	add    eax,edx
     5d0:	66 c1 e0 02          	shl    eax,0x2
     5d4:	66 01 d0             	add    eax,edx
     5d7:	66 c1 e0 02          	shl    eax,0x2
     5db:	66 05 04 af 00 00    	add    eax,0xaf04
     5e1:	67 66 8b 00          	mov    eax,DWORD PTR [eax]
     5e5:	67 66 8b 55 b8       	mov    edx,DWORD PTR [ebp-0x48]
     5ea:	67 66 89 54 24 0c    	mov    DWORD PTR [esp+0xc],edx
     5f0:	67 66 8b 55 bc       	mov    edx,DWORD PTR [ebp-0x44]
     5f5:	67 66 89 54 24 08    	mov    DWORD PTR [esp+0x8],edx
     5fb:	67 66 89 4c 24 04    	mov    DWORD PTR [esp+0x4],ecx
     601:	67 66 89 04 24       	mov    DWORD PTR [esp],eax
     606:	66 e8 46 11 00 00    	call   1752 <_loadReal>
D:\OneDrive\Study\Operating Systems\实验\project7\codes/./kernel/os.c:91
						enqueue(&ReadyQue, ProcessSize - 1);
     60c:	66 a1 fc 96          	mov    eax,ds:0x96fc
     610:	66 48                	dec    eax
     612:	67 66 89 44 24 04    	mov    DWORD PTR [esp+0x4],eax
     618:	67 66 c7 04 24 c0 be 	mov    DWORD PTR [esp],0xbec0
     61f:	00 00 
     621:	66 e8 46 5c 00 00    	call   626d <_enqueue>
D:\OneDrive\Study\Operating Systems\实验\project7\codes/./kernel/os.c:94
					}
				}
			} while (str[0] != '\0');
     627:	67 66 8b 45 cc       	mov    eax,DWORD PTR [ebp-0x34]
     62c:	67 8a 00             	mov    al,BYTE PTR [eax]
     62f:	84 c0                	test   al,al
     631:	0f 85 a3 fc          	jne    2d8 <__file_alignment__+0xd8>
D:\OneDrive\Study\Operating Systems\实验\project7\codes/./kernel/os.c:95
			int queSize = size(&BlockedQue);
     635:	67 66 c7 04 24 a0 96 	mov    DWORD PTR [esp],0x96a0
     63c:	00 00 
     63e:	66 e8 e3 5b 00 00    	call   6227 <_size>
     644:	67 66 89 45 a4       	mov    DWORD PTR [ebp-0x5c],eax
D:\OneDrive\Study\Operating Systems\实验\project7\codes/./kernel/os.c:96
			for (int i = 0; i < queSize; ++i)
     649:	67 66 c7 45 f4 00 00 	mov    DWORD PTR [ebp-0xc],0x0
     650:	00 00 
     652:	e9 a8 00             	jmp    6fd <__file_alignment__+0x4fd>
D:\OneDrive\Study\Operating Systems\实验\project7\codes/./kernel/os.c:98
			{
				dequeue(&BlockedQue, &tmp);
     655:	67 66 8d 85 60 ff ff 	lea    eax,[ebp-0xa0]
     65c:	ff 
     65d:	67 66 89 44 24 04    	mov    DWORD PTR [esp+0x4],eax
     663:	67 66 c7 04 24 a0 96 	mov    DWORD PTR [esp],0x96a0
     66a:	00 00 
     66c:	66 e8 68 5c 00 00    	call   62da <_dequeue>
D:\OneDrive\Study\Operating Systems\实验\project7\codes/./kernel/os.c:99
				if (processTable[tmp].waitProcess == -1) {
     672:	67 66 8b 95 60 ff ff 	mov    edx,DWORD PTR [ebp-0xa0]
     679:	ff 
     67a:	66 89 d0             	mov    eax,edx
     67d:	66 c1 e0 03          	shl    eax,0x3
     681:	66 01 d0             	add    eax,edx
     684:	66 c1 e0 04          	shl    eax,0x4
     688:	66 05 bc b3 00 00    	add    eax,0xb3bc
     68e:	67 66 8b 00          	mov    eax,DWORD PTR [eax]
     692:	66 83 f8 ff          	cmp    eax,0xffffffff
     696:	75 43                	jne    6db <__file_alignment__+0x4db>
D:\OneDrive\Study\Operating Systems\实验\project7\codes/./kernel/os.c:100
					processTable[tmp].status = ready;
     698:	67 66 8b 95 60 ff ff 	mov    edx,DWORD PTR [ebp-0xa0]
     69f:	ff 
     6a0:	66 89 d0             	mov    eax,edx
     6a3:	66 c1 e0 03          	shl    eax,0x3
     6a7:	66 01 d0             	add    eax,edx
     6aa:	66 c1 e0 04          	shl    eax,0x4
     6ae:	66 05 ec b3 00 00    	add    eax,0xb3ec
     6b4:	67 66 c7 00 01 00 00 	mov    DWORD PTR [eax],0x1
     6bb:	00 
D:\OneDrive\Study\Operating Systems\实验\project7\codes/./kernel/os.c:101
					enqueue(&ReadyQue, tmp);
     6bc:	67 66 8b 85 60 ff ff 	mov    eax,DWORD PTR [ebp-0xa0]
     6c3:	ff 
     6c4:	67 66 89 44 24 04    	mov    DWORD PTR [esp+0x4],eax
     6ca:	67 66 c7 04 24 c0 be 	mov    DWORD PTR [esp],0xbec0
     6d1:	00 00 
     6d3:	66 e8 94 5b 00 00    	call   626d <_enqueue>
     6d9:	eb 1d                	jmp    6f8 <__file_alignment__+0x4f8>
D:\OneDrive\Study\Operating Systems\实验\project7\codes/./kernel/os.c:103
				} else {
					enqueue(&BlockedQue, tmp);
     6db:	67 66 8b 85 60 ff ff 	mov    eax,DWORD PTR [ebp-0xa0]
     6e2:	ff 
     6e3:	67 66 89 44 24 04    	mov    DWORD PTR [esp+0x4],eax
     6e9:	67 66 c7 04 24 a0 96 	mov    DWORD PTR [esp],0x96a0
     6f0:	00 00 
     6f2:	66 e8 75 5b 00 00    	call   626d <_enqueue>
D:\OneDrive\Study\Operating Systems\实验\project7\codes/./kernel/os.c:96
			for (int i = 0; i < queSize; ++i)
     6f8:	67 66 ff 45 f4       	inc    DWORD PTR [ebp-0xc]
     6fd:	67 66 8b 45 f4       	mov    eax,DWORD PTR [ebp-0xc]
     702:	67 66 3b 45 a4       	cmp    eax,DWORD PTR [ebp-0x5c]
     707:	0f 8c 4a ff          	jl     655 <__file_alignment__+0x455>
D:\OneDrive\Study\Operating Systems\实验\project7\codes/./kernel/os.c:106
				}
			}
			runSub = 1;
     70b:	66 c7 06 d8 92 01 00 	mov    DWORD PTR ds:0x92d8,0x1
     712:	00 00 
D:\OneDrive\Study\Operating Systems\实验\project7\codes/./kernel/os.c:107
			__asm__("int $0x8\n");
     714:	cd 08                	int    0x8
D:\OneDrive\Study\Operating Systems\实验\project7\codes/./kernel/os.c:108
			runSub = 0;
     716:	66 c7 06 d8 92 00 00 	mov    DWORD PTR ds:0x92d8,0x0
     71d:	00 00 
D:\OneDrive\Study\Operating Systems\实验\project7\codes/./kernel/os.c:109
			clear();
     71f:	66 e8 9a 1b 00 00    	call   22bf <_clear>
D:\OneDrive\Study\Operating Systems\实验\project7\codes/./kernel/os.c:72
		{
     725:	e9 46 09             	jmp    106e <__section_alignment__+0x6e>
D:\OneDrive\Study\Operating Systems\实验\project7\codes/./kernel/os.c:111
		}
		else if (in[0] == '.' && in[1] == '/')
     728:	67 66 8b 45 f0       	mov    eax,DWORD PTR [ebp-0x10]
     72d:	67 8a 00             	mov    al,BYTE PTR [eax]
     730:	3c 2e                	cmp    al,0x2e
     732:	0f 85 18 03          	jne    a4e <.debug_info+0xfc>
     736:	67 66 8b 45 f0       	mov    eax,DWORD PTR [ebp-0x10]
     73b:	66 40                	inc    eax
     73d:	67 8a 00             	mov    al,BYTE PTR [eax]
     740:	3c 2f                	cmp    al,0x2f
     742:	0f 85 08 03          	jne    a4e <.debug_info+0xfc>
D:\OneDrive\Study\Operating Systems\实验\project7\codes/./kernel/os.c:113
		{
			tmp = find(in + 2);
     746:	67 66 8b 45 f0       	mov    eax,DWORD PTR [ebp-0x10]
     74b:	66 83 c0 02          	add    eax,0x2
     74f:	67 66 89 04 24       	mov    DWORD PTR [esp],eax
     754:	66 e8 1d 2a 00 00    	call   3177 <_find>
     75a:	67 66 89 85 60 ff ff 	mov    DWORD PTR [ebp-0xa0],eax
     761:	ff 
D:\OneDrive\Study\Operating Systems\实验\project7\codes/./kernel/os.c:114
			if (tmp != -1 && information[tmp].deleted != 1) {
     762:	67 66 8b 85 60 ff ff 	mov    eax,DWORD PTR [ebp-0xa0]
     769:	ff 
     76a:	66 83 f8 ff          	cmp    eax,0xffffffff
     76e:	0f 84 f5 08          	je     1067 <__section_alignment__+0x67>
     772:	67 66 8b 95 60 ff ff 	mov    edx,DWORD PTR [ebp-0xa0]
     779:	ff 
     77a:	66 89 d0             	mov    eax,edx
     77d:	66 01 c0             	add    eax,eax
     780:	66 01 d0             	add    eax,edx
     783:	66 c1 e0 02          	shl    eax,0x2
     787:	66 01 d0             	add    eax,edx
     78a:	66 c1 e0 02          	shl    eax,0x2
     78e:	66 05 0c af 00 00    	add    eax,0xaf0c
     794:	67 66 8b 00          	mov    eax,DWORD PTR [eax]
     798:	66 83 f8 01          	cmp    eax,0x1
     79c:	0f 84 c7 08          	je     1067 <__section_alignment__+0x67>
D:\OneDrive\Study\Operating Systems\实验\project7\codes/./kernel/os.c:115
				int blockNum = findEnoughBlock(information[tmp].size + 1024);
     7a0:	67 66 8b 95 60 ff ff 	mov    edx,DWORD PTR [ebp-0xa0]
     7a7:	ff 
     7a8:	66 89 d0             	mov    eax,edx
     7ab:	66 01 c0             	add    eax,eax
     7ae:	66 01 d0             	add    eax,edx
     7b1:	66 c1 e0 02          	shl    eax,0x2
     7b5:	66 01 d0             	add    eax,edx
     7b8:	66 c1 e0 02          	shl    eax,0x2
     7bc:	66 05 08 af 00 00    	add    eax,0xaf08
     7c2:	67 66 8b 00          	mov    eax,DWORD PTR [eax]
     7c6:	66 05 00 04 00 00    	add    eax,0x400
     7cc:	67 66 89 04 24       	mov    DWORD PTR [esp],eax
     7d1:	66 e8 95 52 00 00    	call   5a6c <_findEnoughBlock>
     7d7:	67 66 89 45 a0       	mov    DWORD PTR [ebp-0x60],eax
D:\OneDrive\Study\Operating Systems\实验\project7\codes/./kernel/os.c:116
				blockNum = require(information[tmp].size + 1024, blockNum);
     7dc:	67 66 8b 95 60 ff ff 	mov    edx,DWORD PTR [ebp-0xa0]
     7e3:	ff 
     7e4:	66 89 d0             	mov    eax,edx
     7e7:	66 01 c0             	add    eax,eax
     7ea:	66 01 d0             	add    eax,edx
     7ed:	66 c1 e0 02          	shl    eax,0x2
     7f1:	66 01 d0             	add    eax,edx
     7f4:	66 c1 e0 02          	shl    eax,0x2
     7f8:	66 05 08 af 00 00    	add    eax,0xaf08
     7fe:	67 66 8b 00          	mov    eax,DWORD PTR [eax]
     802:	67 66 8d 90 00 04 00 	lea    edx,[eax+0x400]
     809:	00 
     80a:	67 66 8b 45 a0       	mov    eax,DWORD PTR [ebp-0x60]
     80f:	67 66 89 44 24 04    	mov    DWORD PTR [esp+0x4],eax
     815:	67 66 89 14 24       	mov    DWORD PTR [esp],edx
     81a:	66 e8 f5 52 00 00    	call   5b15 <_require>
     820:	67 66 89 45 a0       	mov    DWORD PTR [ebp-0x60],eax
D:\OneDrive\Study\Operating Systems\实验\project7\codes/./kernel/os.c:118
				int offsetOfPrg, segOfPrg;
				int offsetMask = 0x0000ffff;
     825:	67 66 c7 45 9c ff ff 	mov    DWORD PTR [ebp-0x64],0xffff
     82c:	00 00 
D:\OneDrive\Study\Operating Systems\实验\project7\codes/./kernel/os.c:119
				int segMask = 0xf0000;
     82e:	67 66 c7 45 98 00 00 	mov    DWORD PTR [ebp-0x68],0xf0000
     835:	0f 00 
D:\OneDrive\Study\Operating Systems\实验\project7\codes/./kernel/os.c:120
				offsetOfPrg = memoryTable[blockNum].beginAddr & offsetMask;
     837:	67 66 8b 55 a0       	mov    edx,DWORD PTR [ebp-0x60]
     83c:	66 89 d0             	mov    eax,edx
     83f:	66 01 c0             	add    eax,eax
     842:	66 01 d0             	add    eax,edx
     845:	66 c1 e0 03          	shl    eax,0x3
     849:	66 05 e0 92 00 00    	add    eax,0x92e0
     84f:	67 66 8b 00          	mov    eax,DWORD PTR [eax]
     853:	67 66 23 45 9c       	and    eax,DWORD PTR [ebp-0x64]
     858:	67 66 89 45 94       	mov    DWORD PTR [ebp-0x6c],eax
D:\OneDrive\Study\Operating Systems\实验\project7\codes/./kernel/os.c:121
				segOfPrg = (memoryTable[blockNum].beginAddr & segMask) >> 4;
     85d:	67 66 8b 55 a0       	mov    edx,DWORD PTR [ebp-0x60]
     862:	66 89 d0             	mov    eax,edx
     865:	66 01 c0             	add    eax,eax
     868:	66 01 d0             	add    eax,edx
     86b:	66 c1 e0 03          	shl    eax,0x3
     86f:	66 05 e0 92 00 00    	add    eax,0x92e0
     875:	67 66 8b 00          	mov    eax,DWORD PTR [eax]
     879:	67 66 23 45 98       	and    eax,DWORD PTR [ebp-0x68]
     87e:	66 c1 f8 04          	sar    eax,0x4
     882:	67 66 89 45 90       	mov    DWORD PTR [ebp-0x70],eax
D:\OneDrive\Study\Operating Systems\实验\project7\codes/./kernel/os.c:122
				int cs = segOfPrg + (offsetOfPrg >> 4), ip = 0, ss = segOfPrg + (offsetOfPrg >> 4), sp = information[tmp].size + 1024 - 1;
     887:	67 66 8b 45 94       	mov    eax,DWORD PTR [ebp-0x6c]
     88c:	66 c1 f8 04          	sar    eax,0x4
     890:	66 89 c2             	mov    edx,eax
     893:	67 66 8b 45 90       	mov    eax,DWORD PTR [ebp-0x70]
     898:	66 01 d0             	add    eax,edx
     89b:	67 66 89 45 8c       	mov    DWORD PTR [ebp-0x74],eax
     8a0:	67 66 c7 45 88 00 00 	mov    DWORD PTR [ebp-0x78],0x0
     8a7:	00 00 
     8a9:	67 66 8b 45 94       	mov    eax,DWORD PTR [ebp-0x6c]
     8ae:	66 c1 f8 04          	sar    eax,0x4
     8b2:	66 89 c2             	mov    edx,eax
     8b5:	67 66 8b 45 90       	mov    eax,DWORD PTR [ebp-0x70]
     8ba:	66 01 d0             	add    eax,edx
     8bd:	67 66 89 45 84       	mov    DWORD PTR [ebp-0x7c],eax
     8c2:	67 66 8b 95 60 ff ff 	mov    edx,DWORD PTR [ebp-0xa0]
     8c9:	ff 
     8ca:	66 89 d0             	mov    eax,edx
     8cd:	66 01 c0             	add    eax,eax
     8d0:	66 01 d0             	add    eax,edx
     8d3:	66 c1 e0 02          	shl    eax,0x2
     8d7:	66 01 d0             	add    eax,edx
     8da:	66 c1 e0 02          	shl    eax,0x2
     8de:	66 05 08 af 00 00    	add    eax,0xaf08
     8e4:	67 66 8b 00          	mov    eax,DWORD PTR [eax]
     8e8:	66 05 ff 03 00 00    	add    eax,0x3ff
     8ee:	67 66 89 45 80       	mov    DWORD PTR [ebp-0x80],eax
D:\OneDrive\Study\Operating Systems\实验\project7\codes/./kernel/os.c:123
				createProcess(findNextProcessItem(), information[tmp].name, information[tmp].size + 1024, cs, ip, ss, sp, blockNum);
     8f3:	67 66 8b 95 60 ff ff 	mov    edx,DWORD PTR [ebp-0xa0]
     8fa:	ff 
     8fb:	66 89 d0             	mov    eax,edx
     8fe:	66 01 c0             	add    eax,eax
     901:	66 01 d0             	add    eax,edx
     904:	66 c1 e0 02          	shl    eax,0x2
     908:	66 01 d0             	add    eax,edx
     90b:	66 c1 e0 02          	shl    eax,0x2
     90f:	66 05 08 af 00 00    	add    eax,0xaf08
     915:	67 66 8b 00          	mov    eax,DWORD PTR [eax]
     919:	67 66 8d b0 00 04 00 	lea    esi,[eax+0x400]
     920:	00 
     921:	67 66 8b 95 60 ff ff 	mov    edx,DWORD PTR [ebp-0xa0]
     928:	ff 
     929:	66 89 d0             	mov    eax,edx
     92c:	66 01 c0             	add    eax,eax
     92f:	66 01 d0             	add    eax,edx
     932:	66 c1 e0 02          	shl    eax,0x2
     936:	66 01 d0             	add    eax,edx
     939:	66 c1 e0 02          	shl    eax,0x2
     93d:	67 66 8d 98 e0 ae 00 	lea    ebx,[eax+0xaee0]
     944:	00 
     945:	66 e8 77 2d 00 00    	call   36c2 <_findNextProcessItem>
     94b:	67 66 8b 55 a0       	mov    edx,DWORD PTR [ebp-0x60]
     950:	67 66 89 54 24 1c    	mov    DWORD PTR [esp+0x1c],edx
     956:	67 66 8b 55 80       	mov    edx,DWORD PTR [ebp-0x80]
     95b:	67 66 89 54 24 18    	mov    DWORD PTR [esp+0x18],edx
     961:	67 66 8b 55 84       	mov    edx,DWORD PTR [ebp-0x7c]
     966:	67 66 89 54 24 14    	mov    DWORD PTR [esp+0x14],edx
     96c:	67 66 8b 55 88       	mov    edx,DWORD PTR [ebp-0x78]
     971:	67 66 89 54 24 10    	mov    DWORD PTR [esp+0x10],edx
     977:	67 66 8b 55 8c       	mov    edx,DWORD PTR [ebp-0x74]
     97c:	67 66 89 54 24 0c    	mov    DWORD PTR [esp+0xc],edx
     982:	67 66 89 74 24 08    	mov    DWORD PTR [esp+0x8],esi
     988:	67 66 89 5c 24 04    	mov    DWORD PTR [esp+0x4],ebx
     98e:	67 66 89 04 24       	mov    DWORD PTR [esp],eax
     993:	66 e8 f0 2e 00 00    	call   3889 <_createProcess>
D:\OneDrive\Study\Operating Systems\实验\project7\codes/./kernel/os.c:124
				ProcessSize += 1;
     999:	66 a1 fc 96          	mov    eax,ds:0x96fc
     99d:	66 40                	inc    eax
     99f:	66 a3 fc 96          	mov    ds:0x96fc,eax
D:\OneDrive\Study\Operating Systems\实验\project7\codes/./kernel/os.c:125
				loadReal(information[tmp].lmaddress, information[tmp].size, offsetOfPrg, segOfPrg);
     9a3:	67 66 8b 95 60 ff ff 	mov    edx,DWORD PTR [ebp-0xa0]
     9aa:	ff 
     9ab:	66 89 d0             	mov    eax,edx
     9ae:	66 01 c0             	add    eax,eax
     9b1:	66 01 d0             	add    eax,edx
     9b4:	66 c1 e0 02          	shl    eax,0x2
     9b8:	66 01 d0             	add    eax,edx
     9bb:	66 c1 e0 02          	shl    eax,0x2
     9bf:	66 05 08 af 00 00    	add    eax,0xaf08
     9c5:	67 66 8b 08          	mov    ecx,DWORD PTR [eax]
     9c9:	67 66 8b 95 60 ff ff 	mov    edx,DWORD PTR [ebp-0xa0]
     9d0:	ff 
     9d1:	66 89 d0             	mov    eax,edx
     9d4:	66 01 c0             	add    eax,eax
     9d7:	66 01 d0             	add    eax,edx
     9da:	66 c1 e0 02          	shl    eax,0x2
     9de:	66 01 d0             	add    eax,edx
     9e1:	66 c1 e0 02          	shl    eax,0x2
     9e5:	66 05 04 af 00 00    	add    eax,0xaf04
     9eb:	67 66 8b 00          	mov    eax,DWORD PTR [eax]
     9ef:	67 66 8b 55 90       	mov    edx,DWORD PTR [ebp-0x70]
     9f4:	67 66 89 54 24 0c    	mov    DWORD PTR [esp+0xc],edx
     9fa:	67 66 8b 55 94       	mov    edx,DWORD PTR [ebp-0x6c]
     9ff:	67 66 89 54 24 08    	mov    DWORD PTR [esp+0x8],edx
     a05:	67 66 89 4c 24 04    	mov    DWORD PTR [esp+0x4],ecx
     a0b:	67 66 89 04 24       	mov    DWORD PTR [esp],eax
     a10:	66 e8 3c 0d 00 00    	call   1752 <_loadReal>
D:\OneDrive\Study\Operating Systems\实验\project7\codes/./kernel/os.c:126
				enqueue(&ReadyQue, ProcessSize - 1);
     a16:	66 a1 fc 96          	mov    eax,ds:0x96fc
     a1a:	66 48                	dec    eax
     a1c:	67 66 89 44 24 04    	mov    DWORD PTR [esp+0x4],eax
     a22:	67 66 c7 04 24 c0 be 	mov    DWORD PTR [esp],0xbec0
     a29:	00 00 
     a2b:	66 e8 3c 58 00 00    	call   626d <_enqueue>
D:\OneDrive\Study\Operating Systems\实验\project7\codes/./kernel/os.c:127
				runSub = 1;
     a31:	66 c7 06 d8 92 01 00 	mov    DWORD PTR ds:0x92d8,0x1
     a38:	00 00 
D:\OneDrive\Study\Operating Systems\实验\project7\codes/./kernel/os.c:128
				__asm__("int $0x8\n");
     a3a:	cd 08                	int    0x8
D:\OneDrive\Study\Operating Systems\实验\project7\codes/./kernel/os.c:129
				runSub = 0;
     a3c:	66 c7 06 d8 92 00 00 	mov    DWORD PTR ds:0x92d8,0x0
     a43:	00 00 
D:\OneDrive\Study\Operating Systems\实验\project7\codes/./kernel/os.c:130
				clear();
     a45:	66 e8 74 18 00 00    	call   22bf <_clear>
D:\OneDrive\Study\Operating Systems\实验\project7\codes/./kernel/os.c:114
			if (tmp != -1 && information[tmp].deleted != 1) {
     a4b:	e9 19 06             	jmp    1067 <__section_alignment__+0x67>
D:\OneDrive\Study\Operating Systems\实验\project7\codes/./kernel/os.c:133
			}
		}
		else if (in[0] == 't' && in[1] == 'y' &&
     a4e:	67 66 8b 45 f0       	mov    eax,DWORD PTR [ebp-0x10]
     a53:	67 8a 00             	mov    al,BYTE PTR [eax]
     a56:	3c 74                	cmp    al,0x74
     a58:	0f 85 85 01          	jne    be1 <.debug_info+0x28f>
     a5c:	67 66 8b 45 f0       	mov    eax,DWORD PTR [ebp-0x10]
     a61:	66 40                	inc    eax
     a63:	67 8a 00             	mov    al,BYTE PTR [eax]
     a66:	3c 79                	cmp    al,0x79
     a68:	0f 85 75 01          	jne    be1 <.debug_info+0x28f>
D:\OneDrive\Study\Operating Systems\实验\project7\codes/./kernel/os.c:134
		         in[2] == 'p' && in[3] == 'e') {
     a6c:	67 66 8b 45 f0       	mov    eax,DWORD PTR [ebp-0x10]
     a71:	66 83 c0 02          	add    eax,0x2
     a75:	67 8a 00             	mov    al,BYTE PTR [eax]
D:\OneDrive\Study\Operating Systems\实验\project7\codes/./kernel/os.c:133
		else if (in[0] == 't' && in[1] == 'y' &&
     a78:	3c 70                	cmp    al,0x70
     a7a:	0f 85 63 01          	jne    be1 <.debug_info+0x28f>
D:\OneDrive\Study\Operating Systems\实验\project7\codes/./kernel/os.c:134
		         in[2] == 'p' && in[3] == 'e') {
     a7e:	67 66 8b 45 f0       	mov    eax,DWORD PTR [ebp-0x10]
     a83:	66 83 c0 03          	add    eax,0x3
     a87:	67 8a 00             	mov    al,BYTE PTR [eax]
     a8a:	3c 65                	cmp    al,0x65
     a8c:	0f 85 51 01          	jne    be1 <.debug_info+0x28f>
D:\OneDrive\Study\Operating Systems\实验\project7\codes/./kernel/os.c:135
			tmp = find(in + 5);
     a90:	67 66 8b 45 f0       	mov    eax,DWORD PTR [ebp-0x10]
     a95:	66 83 c0 05          	add    eax,0x5
     a99:	67 66 89 04 24       	mov    DWORD PTR [esp],eax
     a9e:	66 e8 d3 26 00 00    	call   3177 <_find>
     aa4:	67 66 89 85 60 ff ff 	mov    DWORD PTR [ebp-0xa0],eax
     aab:	ff 
D:\OneDrive\Study\Operating Systems\实验\project7\codes/./kernel/os.c:136
			if (tmp != -1 && information[tmp].deleted != 1) {
     aac:	67 66 8b 85 60 ff ff 	mov    eax,DWORD PTR [ebp-0xa0]
     ab3:	ff 
     ab4:	66 83 f8 ff          	cmp    eax,0xffffffff
     ab8:	0f 84 ae 05          	je     106a <__section_alignment__+0x6a>
     abc:	67 66 8b 95 60 ff ff 	mov    edx,DWORD PTR [ebp-0xa0]
     ac3:	ff 
     ac4:	66 89 d0             	mov    eax,edx
     ac7:	66 01 c0             	add    eax,eax
     aca:	66 01 d0             	add    eax,edx
     acd:	66 c1 e0 02          	shl    eax,0x2
     ad1:	66 01 d0             	add    eax,edx
     ad4:	66 c1 e0 02          	shl    eax,0x2
     ad8:	66 05 0c af 00 00    	add    eax,0xaf0c
     ade:	67 66 8b 00          	mov    eax,DWORD PTR [eax]
     ae2:	66 83 f8 01          	cmp    eax,0x1
     ae6:	0f 84 80 05          	je     106a <__section_alignment__+0x6a>
D:\OneDrive\Study\Operating Systems\实验\project7\codes/./kernel/os.c:137
				loadReal(information[tmp].lmaddress, information[tmp].size, offsetOfUserPrg, segOfOs);
     aea:	67 66 8b 95 60 ff ff 	mov    edx,DWORD PTR [ebp-0xa0]
     af1:	ff 
     af2:	66 89 d0             	mov    eax,edx
     af5:	66 01 c0             	add    eax,eax
     af8:	66 01 d0             	add    eax,edx
     afb:	66 c1 e0 02          	shl    eax,0x2
     aff:	66 01 d0             	add    eax,edx
     b02:	66 c1 e0 02          	shl    eax,0x2
     b06:	66 05 08 af 00 00    	add    eax,0xaf08
     b0c:	67 66 8b 08          	mov    ecx,DWORD PTR [eax]
     b10:	67 66 8b 95 60 ff ff 	mov    edx,DWORD PTR [ebp-0xa0]
     b17:	ff 
     b18:	66 89 d0             	mov    eax,edx
     b1b:	66 01 c0             	add    eax,eax
     b1e:	66 01 d0             	add    eax,edx
     b21:	66 c1 e0 02          	shl    eax,0x2
     b25:	66 01 d0             	add    eax,edx
     b28:	66 c1 e0 02          	shl    eax,0x2
     b2c:	66 05 04 af 00 00    	add    eax,0xaf04
     b32:	67 66 8b 00          	mov    eax,DWORD PTR [eax]
     b36:	67 66 c7 44 24 0c 00 	mov    DWORD PTR [esp+0xc],0x2000
     b3d:	20 00 00 
     b40:	67 66 c7 44 24 08 00 	mov    DWORD PTR [esp+0x8],0xe000
     b47:	e0 00 00 
     b4a:	67 66 89 4c 24 04    	mov    DWORD PTR [esp+0x4],ecx
     b50:	67 66 89 04 24       	mov    DWORD PTR [esp],eax
     b55:	66 e8 f7 0b 00 00    	call   1752 <_loadReal>
D:\OneDrive\Study\Operating Systems\实验\project7\codes/./kernel/os.c:138
				str = getRecords(segOfUser, offsetOfUserPrg);
     b5b:	67 66 c7 44 24 04 00 	mov    DWORD PTR [esp+0x4],0xe000
     b62:	e0 00 00 
     b65:	67 66 c7 04 24 00 00 	mov    DWORD PTR [esp],0x0
     b6c:	00 00 
     b6e:	66 e8 22 15 00 00    	call   2096 <_getRecords>
     b74:	67 66 89 45 cc       	mov    DWORD PTR [ebp-0x34],eax
D:\OneDrive\Study\Operating Systems\实验\project7\codes/./kernel/os.c:139
				printSentence(str, line, 0, strlen(str), purple);
     b79:	67 66 8b 45 cc       	mov    eax,DWORD PTR [ebp-0x34]
     b7e:	67 66 89 04 24       	mov    DWORD PTR [esp],eax
     b83:	66 e8 90 20 00 00    	call   2c19 <_strlen>
     b89:	66 89 c2             	mov    edx,eax
     b8c:	66 a1 00 92          	mov    eax,ds:0x9200
     b90:	67 66 c7 44 24 10 0d 	mov    DWORD PTR [esp+0x10],0xd
     b97:	00 00 00 
     b9a:	67 66 89 54 24 0c    	mov    DWORD PTR [esp+0xc],edx
     ba0:	67 66 c7 44 24 08 00 	mov    DWORD PTR [esp+0x8],0x0
     ba7:	00 00 00 
     baa:	67 66 89 44 24 04    	mov    DWORD PTR [esp+0x4],eax
     bb0:	67 66 8b 45 cc       	mov    eax,DWORD PTR [ebp-0x34]
     bb5:	67 66 89 04 24       	mov    DWORD PTR [esp],eax
     bba:	66 e8 e5 09 00 00    	call   15a5 <_printSentence>
D:\OneDrive\Study\Operating Systems\实验\project7\codes/./kernel/os.c:140
				line += countLines(str);
     bc0:	67 66 8b 45 cc       	mov    eax,DWORD PTR [ebp-0x34]
     bc5:	67 66 89 04 24       	mov    DWORD PTR [esp],eax
     bca:	66 e8 b0 15 00 00    	call   2180 <_countLines>
     bd0:	66 89 c2             	mov    edx,eax
     bd3:	66 a1 00 92          	mov    eax,ds:0x9200
     bd7:	66 01 d0             	add    eax,edx
     bda:	66 a3 00 92          	mov    ds:0x9200,eax
D:\OneDrive\Study\Operating Systems\实验\project7\codes/./kernel/os.c:136
			if (tmp != -1 && information[tmp].deleted != 1) {
     bde:	e9 89 04             	jmp    106a <__section_alignment__+0x6a>
D:\OneDrive\Study\Operating Systems\实验\project7\codes/./kernel/os.c:143
			}
		}
		else if (in[0] == 'r' && in[1] == 'm') {
     be1:	67 66 8b 45 f0       	mov    eax,DWORD PTR [ebp-0x10]
     be6:	67 8a 00             	mov    al,BYTE PTR [eax]
     be9:	3c 72                	cmp    al,0x72
     beb:	0f 85 97 00          	jne    c86 <.debug_info+0x334>
     bef:	67 66 8b 45 f0       	mov    eax,DWORD PTR [ebp-0x10]
     bf4:	66 40                	inc    eax
     bf6:	67 8a 00             	mov    al,BYTE PTR [eax]
     bf9:	3c 6d                	cmp    al,0x6d
     bfb:	0f 85 87 00          	jne    c86 <.debug_info+0x334>
D:\OneDrive\Study\Operating Systems\实验\project7\codes/./kernel/os.c:144
			tmp = find(in + 3);
     bff:	67 66 8b 45 f0       	mov    eax,DWORD PTR [ebp-0x10]
     c04:	66 83 c0 03          	add    eax,0x3
     c08:	67 66 89 04 24       	mov    DWORD PTR [esp],eax
     c0d:	66 e8 64 25 00 00    	call   3177 <_find>
     c13:	67 66 89 85 60 ff ff 	mov    DWORD PTR [ebp-0xa0],eax
     c1a:	ff 
D:\OneDrive\Study\Operating Systems\实验\project7\codes/./kernel/os.c:145
			if (tmp != -1 && information[tmp].deleted != 1) {
     c1b:	67 66 8b 85 60 ff ff 	mov    eax,DWORD PTR [ebp-0xa0]
     c22:	ff 
     c23:	66 83 f8 ff          	cmp    eax,0xffffffff
     c27:	0f 84 42 04          	je     106d <__section_alignment__+0x6d>
     c2b:	67 66 8b 95 60 ff ff 	mov    edx,DWORD PTR [ebp-0xa0]
     c32:	ff 
     c33:	66 89 d0             	mov    eax,edx
     c36:	66 01 c0             	add    eax,eax
     c39:	66 01 d0             	add    eax,edx
     c3c:	66 c1 e0 02          	shl    eax,0x2
     c40:	66 01 d0             	add    eax,edx
     c43:	66 c1 e0 02          	shl    eax,0x2
     c47:	66 05 0c af 00 00    	add    eax,0xaf0c
     c4d:	67 66 8b 00          	mov    eax,DWORD PTR [eax]
     c51:	66 83 f8 01          	cmp    eax,0x1
     c55:	0f 84 14 04          	je     106d <__section_alignment__+0x6d>
D:\OneDrive\Study\Operating Systems\实验\project7\codes/./kernel/os.c:146
				information[tmp].deleted = 1;
     c59:	67 66 8b 95 60 ff ff 	mov    edx,DWORD PTR [ebp-0xa0]
     c60:	ff 
     c61:	66 89 d0             	mov    eax,edx
     c64:	66 01 c0             	add    eax,eax
     c67:	66 01 d0             	add    eax,edx
     c6a:	66 c1 e0 02          	shl    eax,0x2
     c6e:	66 01 d0             	add    eax,edx
     c71:	66 c1 e0 02          	shl    eax,0x2
     c75:	66 05 0c af 00 00    	add    eax,0xaf0c
     c7b:	67 66 c7 00 01 00 00 	mov    DWORD PTR [eax],0x1
     c82:	00 
D:\OneDrive\Study\Operating Systems\实验\project7\codes/./kernel/os.c:145
			if (tmp != -1 && information[tmp].deleted != 1) {
     c83:	e9 e7 03             	jmp    106d <__section_alignment__+0x6d>
D:\OneDrive\Study\Operating Systems\实验\project7\codes/./kernel/os.c:149
			}
		}
		else if (in[0] == 'k' && in[1] == 'i' &&
     c86:	67 66 8b 45 f0       	mov    eax,DWORD PTR [ebp-0x10]
     c8b:	67 8a 00             	mov    al,BYTE PTR [eax]
     c8e:	3c 6b                	cmp    al,0x6b
     c90:	75 50                	jne    ce2 <.debug_info+0x390>
     c92:	67 66 8b 45 f0       	mov    eax,DWORD PTR [ebp-0x10]
     c97:	66 40                	inc    eax
     c99:	67 8a 00             	mov    al,BYTE PTR [eax]
     c9c:	3c 69                	cmp    al,0x69
     c9e:	75 42                	jne    ce2 <.debug_info+0x390>
D:\OneDrive\Study\Operating Systems\实验\project7\codes/./kernel/os.c:150
		         in[2] == 'l' && in[3] == 'l') {
     ca0:	67 66 8b 45 f0       	mov    eax,DWORD PTR [ebp-0x10]
     ca5:	66 83 c0 02          	add    eax,0x2
     ca9:	67 8a 00             	mov    al,BYTE PTR [eax]
D:\OneDrive\Study\Operating Systems\实验\project7\codes/./kernel/os.c:149
		else if (in[0] == 'k' && in[1] == 'i' &&
     cac:	3c 6c                	cmp    al,0x6c
     cae:	75 32                	jne    ce2 <.debug_info+0x390>
D:\OneDrive\Study\Operating Systems\实验\project7\codes/./kernel/os.c:150
		         in[2] == 'l' && in[3] == 'l') {
     cb0:	67 66 8b 45 f0       	mov    eax,DWORD PTR [ebp-0x10]
     cb5:	66 83 c0 03          	add    eax,0x3
     cb9:	67 8a 00             	mov    al,BYTE PTR [eax]
     cbc:	3c 6c                	cmp    al,0x6c
     cbe:	75 22                	jne    ce2 <.debug_info+0x390>
D:\OneDrive\Study\Operating Systems\实验\project7\codes/./kernel/os.c:151
			kill(in[5] - '0');
     cc0:	67 66 8b 45 f0       	mov    eax,DWORD PTR [ebp-0x10]
     cc5:	66 83 c0 05          	add    eax,0x5
     cc9:	67 8a 00             	mov    al,BYTE PTR [eax]
     ccc:	66 0f be c0          	movsx  eax,al
     cd0:	66 83 e8 30          	sub    eax,0x30
     cd4:	67 66 89 04 24       	mov    DWORD PTR [esp],eax
     cd9:	66 e8 28 1e 00 00    	call   2b07 <_kill>
     cdf:	e9 8c 03             	jmp    106e <__section_alignment__+0x6e>
D:\OneDrive\Study\Operating Systems\实验\project7\codes/./kernel/os.c:153
		}
		else if (in[0] == 's' && in[1] == 'u' &&
     ce2:	67 66 8b 45 f0       	mov    eax,DWORD PTR [ebp-0x10]
     ce7:	67 8a 00             	mov    al,BYTE PTR [eax]
     cea:	3c 73                	cmp    al,0x73
     cec:	75 50                	jne    d3e <.debug_info+0x3ec>
     cee:	67 66 8b 45 f0       	mov    eax,DWORD PTR [ebp-0x10]
     cf3:	66 40                	inc    eax
     cf5:	67 8a 00             	mov    al,BYTE PTR [eax]
     cf8:	3c 75                	cmp    al,0x75
     cfa:	75 42                	jne    d3e <.debug_info+0x3ec>
D:\OneDrive\Study\Operating Systems\实验\project7\codes/./kernel/os.c:154
		         in[2] == 's' && in[3] == 'p') {
     cfc:	67 66 8b 45 f0       	mov    eax,DWORD PTR [ebp-0x10]
     d01:	66 83 c0 02          	add    eax,0x2
     d05:	67 8a 00             	mov    al,BYTE PTR [eax]
D:\OneDrive\Study\Operating Systems\实验\project7\codes/./kernel/os.c:153
		else if (in[0] == 's' && in[1] == 'u' &&
     d08:	3c 73                	cmp    al,0x73
     d0a:	75 32                	jne    d3e <.debug_info+0x3ec>
D:\OneDrive\Study\Operating Systems\实验\project7\codes/./kernel/os.c:154
		         in[2] == 's' && in[3] == 'p') {
     d0c:	67 66 8b 45 f0       	mov    eax,DWORD PTR [ebp-0x10]
     d11:	66 83 c0 03          	add    eax,0x3
     d15:	67 8a 00             	mov    al,BYTE PTR [eax]
     d18:	3c 70                	cmp    al,0x70
     d1a:	75 22                	jne    d3e <.debug_info+0x3ec>
D:\OneDrive\Study\Operating Systems\实验\project7\codes/./kernel/os.c:155
			Tosuspend(in[5] - '0');
     d1c:	67 66 8b 45 f0       	mov    eax,DWORD PTR [ebp-0x10]
     d21:	66 83 c0 05          	add    eax,0x5
     d25:	67 8a 00             	mov    al,BYTE PTR [eax]
     d28:	66 0f be c0          	movsx  eax,al
     d2c:	66 83 e8 30          	sub    eax,0x30
     d30:	67 66 89 04 24       	mov    DWORD PTR [esp],eax
     d35:	66 e8 2d 36 00 00    	call   4368 <_Tosuspend>
     d3b:	e9 30 03             	jmp    106e <__section_alignment__+0x6e>
D:\OneDrive\Study\Operating Systems\实验\project7\codes/./kernel/os.c:157
		}
		else if (in[0] == 'a' && in[1] == 'c' &&
     d3e:	67 66 8b 45 f0       	mov    eax,DWORD PTR [ebp-0x10]
     d43:	67 8a 00             	mov    al,BYTE PTR [eax]
     d46:	3c 61                	cmp    al,0x61
     d48:	0f 85 16 02          	jne    f62 <.debug_info+0x610>
     d4c:	67 66 8b 45 f0       	mov    eax,DWORD PTR [ebp-0x10]
     d51:	66 40                	inc    eax
     d53:	67 8a 00             	mov    al,BYTE PTR [eax]
     d56:	3c 63                	cmp    al,0x63
     d58:	0f 85 06 02          	jne    f62 <.debug_info+0x610>
D:\OneDrive\Study\Operating Systems\实验\project7\codes/./kernel/os.c:158
		         in[2] == 't' && in[3] == 'i') {
     d5c:	67 66 8b 45 f0       	mov    eax,DWORD PTR [ebp-0x10]
     d61:	66 83 c0 02          	add    eax,0x2
     d65:	67 8a 00             	mov    al,BYTE PTR [eax]
D:\OneDrive\Study\Operating Systems\实验\project7\codes/./kernel/os.c:157
		else if (in[0] == 'a' && in[1] == 'c' &&
     d68:	3c 74                	cmp    al,0x74
     d6a:	0f 85 f4 01          	jne    f62 <.debug_info+0x610>
D:\OneDrive\Study\Operating Systems\实验\project7\codes/./kernel/os.c:158
		         in[2] == 't' && in[3] == 'i') {
     d6e:	67 66 8b 45 f0       	mov    eax,DWORD PTR [ebp-0x10]
     d73:	66 83 c0 03          	add    eax,0x3
     d77:	67 8a 00             	mov    al,BYTE PTR [eax]
     d7a:	3c 69                	cmp    al,0x69
     d7c:	0f 85 e2 01          	jne    f62 <.debug_info+0x610>
D:\OneDrive\Study\Operating Systems\实验\project7\codes/./kernel/os.c:159
			tmp = in[5] - '0';
     d80:	67 66 8b 45 f0       	mov    eax,DWORD PTR [ebp-0x10]
     d85:	66 83 c0 05          	add    eax,0x5
     d89:	67 8a 00             	mov    al,BYTE PTR [eax]
     d8c:	66 0f be c0          	movsx  eax,al
     d90:	66 83 e8 30          	sub    eax,0x30
     d94:	67 66 89 85 60 ff ff 	mov    DWORD PTR [ebp-0xa0],eax
     d9b:	ff 
D:\OneDrive\Study\Operating Systems\实验\project7\codes/./kernel/os.c:160
			int blockNum = findEnoughBlock(processTable[tmp].size);
     d9c:	67 66 8b 95 60 ff ff 	mov    edx,DWORD PTR [ebp-0xa0]
     da3:	ff 
     da4:	66 89 d0             	mov    eax,edx
     da7:	66 c1 e0 03          	shl    eax,0x3
     dab:	66 01 d0             	add    eax,edx
     dae:	66 c1 e0 04          	shl    eax,0x4
     db2:	66 05 90 b3 00 00    	add    eax,0xb390
     db8:	67 66 8b 00          	mov    eax,DWORD PTR [eax]
     dbc:	67 66 89 04 24       	mov    DWORD PTR [esp],eax
     dc1:	66 e8 a5 4c 00 00    	call   5a6c <_findEnoughBlock>
     dc7:	67 66 89 85 7c ff ff 	mov    DWORD PTR [ebp-0x84],eax
     dce:	ff 
D:\OneDrive\Study\Operating Systems\实验\project7\codes/./kernel/os.c:161
			blockNum = require(processTable[tmp].size, blockNum);
     dcf:	67 66 8b 95 60 ff ff 	mov    edx,DWORD PTR [ebp-0xa0]
     dd6:	ff 
     dd7:	66 89 d0             	mov    eax,edx
     dda:	66 c1 e0 03          	shl    eax,0x3
     dde:	66 01 d0             	add    eax,edx
     de1:	66 c1 e0 04          	shl    eax,0x4
     de5:	66 05 90 b3 00 00    	add    eax,0xb390
     deb:	67 66 8b 00          	mov    eax,DWORD PTR [eax]
     def:	67 66 8b 95 7c ff ff 	mov    edx,DWORD PTR [ebp-0x84]
     df6:	ff 
     df7:	67 66 89 54 24 04    	mov    DWORD PTR [esp+0x4],edx
     dfd:	67 66 89 04 24       	mov    DWORD PTR [esp],eax
     e02:	66 e8 0d 4d 00 00    	call   5b15 <_require>
     e08:	67 66 89 85 7c ff ff 	mov    DWORD PTR [ebp-0x84],eax
     e0f:	ff 
D:\OneDrive\Study\Operating Systems\实验\project7\codes/./kernel/os.c:162
			processTable[tmp].blockNum = blockNum;
     e10:	67 66 8b 95 60 ff ff 	mov    edx,DWORD PTR [ebp-0xa0]
     e17:	ff 
     e18:	66 89 d0             	mov    eax,edx
     e1b:	66 c1 e0 03          	shl    eax,0x3
     e1f:	66 01 d0             	add    eax,edx
     e22:	66 c1 e0 04          	shl    eax,0x4
     e26:	67 66 8d 90 88 b3 00 	lea    edx,[eax+0xb388]
     e2d:	00 
     e2e:	67 66 8b 85 7c ff ff 	mov    eax,DWORD PTR [ebp-0x84]
     e35:	ff 
     e36:	67 66 89 02          	mov    DWORD PTR [edx],eax
D:\OneDrive\Study\Operating Systems\实验\project7\codes/./kernel/os.c:164
			int offsetOfPrg, segOfPrg;
			int offsetMask = 0x0000ffff;
     e3a:	67 66 c7 85 78 ff ff 	mov    DWORD PTR [ebp-0x88],0xffff
     e41:	ff ff ff 00 00 
D:\OneDrive\Study\Operating Systems\实验\project7\codes/./kernel/os.c:165
			int segMask = 0xf0000;
     e46:	67 66 c7 85 74 ff ff 	mov    DWORD PTR [ebp-0x8c],0xf0000
     e4d:	ff 00 00 0f 00 
D:\OneDrive\Study\Operating Systems\实验\project7\codes/./kernel/os.c:166
			offsetOfPrg = memoryTable[blockNum].beginAddr & offsetMask;
     e52:	67 66 8b 95 7c ff ff 	mov    edx,DWORD PTR [ebp-0x84]
     e59:	ff 
     e5a:	66 89 d0             	mov    eax,edx
     e5d:	66 01 c0             	add    eax,eax
     e60:	66 01 d0             	add    eax,edx
     e63:	66 c1 e0 03          	shl    eax,0x3
     e67:	66 05 e0 92 00 00    	add    eax,0x92e0
     e6d:	67 66 8b 00          	mov    eax,DWORD PTR [eax]
     e71:	67 66 23 85 78 ff ff 	and    eax,DWORD PTR [ebp-0x88]
     e78:	ff 
     e79:	67 66 89 85 70 ff ff 	mov    DWORD PTR [ebp-0x90],eax
     e80:	ff 
D:\OneDrive\Study\Operating Systems\实验\project7\codes/./kernel/os.c:167
			segOfPrg = (memoryTable[blockNum].beginAddr & segMask) >> 4;
     e81:	67 66 8b 95 7c ff ff 	mov    edx,DWORD PTR [ebp-0x84]
     e88:	ff 
     e89:	66 89 d0             	mov    eax,edx
     e8c:	66 01 c0             	add    eax,eax
     e8f:	66 01 d0             	add    eax,edx
     e92:	66 c1 e0 03          	shl    eax,0x3
     e96:	66 05 e0 92 00 00    	add    eax,0x92e0
     e9c:	67 66 8b 00          	mov    eax,DWORD PTR [eax]
     ea0:	67 66 23 85 74 ff ff 	and    eax,DWORD PTR [ebp-0x8c]
     ea7:	ff 
     ea8:	66 c1 f8 04          	sar    eax,0x4
     eac:	67 66 89 85 6c ff ff 	mov    DWORD PTR [ebp-0x94],eax
     eb3:	ff 
D:\OneDrive\Study\Operating Systems\实验\project7\codes/./kernel/os.c:168
			int cs = segOfPrg + (offsetOfPrg >> 4), ss = segOfPrg + (offsetOfPrg >> 4);
     eb4:	67 66 8b 85 70 ff ff 	mov    eax,DWORD PTR [ebp-0x90]
     ebb:	ff 
     ebc:	66 c1 f8 04          	sar    eax,0x4
     ec0:	66 89 c2             	mov    edx,eax
     ec3:	67 66 8b 85 6c ff ff 	mov    eax,DWORD PTR [ebp-0x94]
     eca:	ff 
     ecb:	66 01 d0             	add    eax,edx
     ece:	67 66 89 85 68 ff ff 	mov    DWORD PTR [ebp-0x98],eax
     ed5:	ff 
     ed6:	67 66 8b 85 70 ff ff 	mov    eax,DWORD PTR [ebp-0x90]
     edd:	ff 
     ede:	66 c1 f8 04          	sar    eax,0x4
     ee2:	66 89 c2             	mov    edx,eax
     ee5:	67 66 8b 85 6c ff ff 	mov    eax,DWORD PTR [ebp-0x94]
     eec:	ff 
     eed:	66 01 d0             	add    eax,edx
     ef0:	67 66 89 85 64 ff ff 	mov    DWORD PTR [ebp-0x9c],eax
     ef7:	ff 
D:\OneDrive\Study\Operating Systems\实验\project7\codes/./kernel/os.c:169
			processTable[tmp].pcb.cs = cs;
     ef8:	67 66 8b 8d 60 ff ff 	mov    ecx,DWORD PTR [ebp-0xa0]
     eff:	ff 
     f00:	67 66 8b 85 68 ff ff 	mov    eax,DWORD PTR [ebp-0x98]
     f07:	ff 
     f08:	66 89 c2             	mov    edx,eax
     f0b:	66 89 c8             	mov    eax,ecx
     f0e:	66 c1 e0 03          	shl    eax,0x3
     f12:	66 01 c8             	add    eax,ecx
     f15:	66 c1 e0 04          	shl    eax,0x4
     f19:	66 05 7a b3 00 00    	add    eax,0xb37a
     f1f:	67 89 10             	mov    WORD PTR [eax],dx
D:\OneDrive\Study\Operating Systems\实验\project7\codes/./kernel/os.c:170
			processTable[tmp].pcb.ss_now = ss;
     f22:	67 66 8b 8d 60 ff ff 	mov    ecx,DWORD PTR [ebp-0xa0]
     f29:	ff 
     f2a:	67 66 8b 85 64 ff ff 	mov    eax,DWORD PTR [ebp-0x9c]
     f31:	ff 
     f32:	66 89 c2             	mov    edx,eax
     f35:	66 89 c8             	mov    eax,ecx
     f38:	66 c1 e0 03          	shl    eax,0x3
     f3c:	66 01 c8             	add    eax,ecx
     f3f:	66 c1 e0 04          	shl    eax,0x4
     f43:	66 05 80 b3 00 00    	add    eax,0xb380
     f49:	67 89 10             	mov    WORD PTR [eax],dx
D:\OneDrive\Study\Operating Systems\实验\project7\codes/./kernel/os.c:171
			activate(tmp);
     f4c:	67 66 8b 85 60 ff ff 	mov    eax,DWORD PTR [ebp-0xa0]
     f53:	ff 
     f54:	67 66 89 04 24       	mov    DWORD PTR [esp],eax
     f59:	66 e8 9f 37 00 00    	call   46fe <_activate>
D:\OneDrive\Study\Operating Systems\实验\project7\codes/./kernel/os.c:158
		         in[2] == 't' && in[3] == 'i') {
     f5f:	e9 0c 01             	jmp    106e <__section_alignment__+0x6e>
D:\OneDrive\Study\Operating Systems\实验\project7\codes/./kernel/os.c:174
		}
		else {
			if (strcmp(in, "reboot") == 0)
     f62:	67 66 c7 44 24 04 0b 	mov    DWORD PTR [esp+0x4],0x700b
     f69:	70 00 00 
     f6c:	67 66 8b 45 f0       	mov    eax,DWORD PTR [ebp-0x10]
     f71:	67 66 89 04 24       	mov    DWORD PTR [esp],eax
     f76:	66 e8 6e 1d 00 00    	call   2cea <_strcmp>
     f7c:	66 85 c0             	test   eax,eax
     f7f:	75 06                	jne    f87 <.debug_info+0x635>
D:\OneDrive\Study\Operating Systems\实验\project7\codes/./kernel/os.c:175
				reboot();
     f81:	66 e8 0d 09 00 00    	call   1894 <_reboot>
D:\OneDrive\Study\Operating Systems\实验\project7\codes/./kernel/os.c:176
			if (strcmp(in, "clear") == 0)
     f87:	67 66 c7 44 24 04 12 	mov    DWORD PTR [esp+0x4],0x7012
     f8e:	70 00 00 
     f91:	67 66 8b 45 f0       	mov    eax,DWORD PTR [ebp-0x10]
     f96:	67 66 89 04 24       	mov    DWORD PTR [esp],eax
     f9b:	66 e8 49 1d 00 00    	call   2cea <_strcmp>
     fa1:	66 85 c0             	test   eax,eax
     fa4:	75 06                	jne    fac <.debug_info+0x65a>
D:\OneDrive\Study\Operating Systems\实验\project7\codes/./kernel/os.c:177
				clear();
     fa6:	66 e8 13 13 00 00    	call   22bf <_clear>
D:\OneDrive\Study\Operating Systems\实验\project7\codes/./kernel/os.c:178
			if (strcmp(in, "date") == 0)
     fac:	67 66 c7 44 24 04 18 	mov    DWORD PTR [esp+0x4],0x7018
     fb3:	70 00 00 
     fb6:	67 66 8b 45 f0       	mov    eax,DWORD PTR [ebp-0x10]
     fbb:	67 66 89 04 24       	mov    DWORD PTR [esp],eax
     fc0:	66 e8 24 1d 00 00    	call   2cea <_strcmp>
     fc6:	66 85 c0             	test   eax,eax
     fc9:	75 06                	jne    fd1 <.debug_info+0x67f>
D:\OneDrive\Study\Operating Systems\实验\project7\codes/./kernel/os.c:179
				date();
     fcb:	66 e8 07 13 00 00    	call   22d8 <_date>
D:\OneDrive\Study\Operating Systems\实验\project7\codes/./kernel/os.c:180
			if (strcmp(in, "man") == 0)
     fd1:	67 66 c7 44 24 04 1d 	mov    DWORD PTR [esp+0x4],0x701d
     fd8:	70 00 00 
     fdb:	67 66 8b 45 f0       	mov    eax,DWORD PTR [ebp-0x10]
     fe0:	67 66 89 04 24       	mov    DWORD PTR [esp],eax
     fe5:	66 e8 ff 1c 00 00    	call   2cea <_strcmp>
     feb:	66 85 c0             	test   eax,eax
     fee:	75 06                	jne    ff6 <.debug_info+0x6a4>
D:\OneDrive\Study\Operating Systems\实验\project7\codes/./kernel/os.c:181
				man();
     ff0:	66 e8 66 13 00 00    	call   235c <_man>
D:\OneDrive\Study\Operating Systems\实验\project7\codes/./kernel/os.c:182
			if (strcmp(in, "ls") == 0)
     ff6:	67 66 c7 44 24 04 21 	mov    DWORD PTR [esp+0x4],0x7021
     ffd:	70 00 00 
    1000:	67 66 8b 45 f0       	mov    eax,DWORD PTR [ebp-0x10]
    1005:	67 66 89 04 24       	mov    DWORD PTR [esp],eax
    100a:	66 e8 da 1c 00 00    	call   2cea <_strcmp>
    1010:	66 85 c0             	test   eax,eax
    1013:	75 06                	jne    101b <__section_alignment__+0x1b>
D:\OneDrive\Study\Operating Systems\实验\project7\codes/./kernel/os.c:183
				ls();
    1015:	66 e8 6b 14 00 00    	call   2486 <_ls>
D:\OneDrive\Study\Operating Systems\实验\project7\codes/./kernel/os.c:184
			if (strcmp(in, "exit") == 0)
    101b:	67 66 c7 44 24 04 24 	mov    DWORD PTR [esp+0x4],0x7024
    1022:	70 00 00 
    1025:	67 66 8b 45 f0       	mov    eax,DWORD PTR [ebp-0x10]
    102a:	67 66 89 04 24       	mov    DWORD PTR [esp],eax
    102f:	66 e8 b5 1c 00 00    	call   2cea <_strcmp>
    1035:	66 85 c0             	test   eax,eax
    1038:	75 06                	jne    1040 <__section_alignment__+0x40>
D:\OneDrive\Study\Operating Systems\实验\project7\codes/./kernel/os.c:185
				shutdown();
    103a:	66 e8 f3 06 00 00    	call   1733 <_shutdown>
D:\OneDrive\Study\Operating Systems\实验\project7\codes/./kernel/os.c:186
			if (strcmp(in, "ps") == 0)
    1040:	67 66 c7 44 24 04 29 	mov    DWORD PTR [esp+0x4],0x7029
    1047:	70 00 00 
    104a:	67 66 8b 45 f0       	mov    eax,DWORD PTR [ebp-0x10]
    104f:	67 66 89 04 24       	mov    DWORD PTR [esp],eax
    1054:	66 e8 90 1c 00 00    	call   2cea <_strcmp>
    105a:	66 85 c0             	test   eax,eax
    105d:	75 0f                	jne    106e <__section_alignment__+0x6e>
D:\OneDrive\Study\Operating Systems\实验\project7\codes/./kernel/os.c:187
				ps();
    105f:	66 e8 e8 17 00 00    	call   284d <_ps>
    1065:	eb 07                	jmp    106e <__section_alignment__+0x6e>
D:\OneDrive\Study\Operating Systems\实验\project7\codes/./kernel/os.c:114
			if (tmp != -1 && information[tmp].deleted != 1) {
    1067:	90                   	nop
    1068:	eb 04                	jmp    106e <__section_alignment__+0x6e>
D:\OneDrive\Study\Operating Systems\实验\project7\codes/./kernel/os.c:136
			if (tmp != -1 && information[tmp].deleted != 1) {
    106a:	90                   	nop
    106b:	eb 01                	jmp    106e <__section_alignment__+0x6e>
D:\OneDrive\Study\Operating Systems\实验\project7\codes/./kernel/os.c:145
			if (tmp != -1 && information[tmp].deleted != 1) {
    106d:	90                   	nop
D:\OneDrive\Study\Operating Systems\实验\project7\codes/./kernel/os.c:189
		}
		newline();
    106e:	66 e8 88 13 00 00    	call   23fc <_newline>
D:\OneDrive\Study\Operating Systems\实验\project7\codes/./kernel/os.c:53
		in = getInput();
    1074:	e9 0f f0             	jmp    86 <.debug_str+0x4b>
    1077:	00 66 90             	add    BYTE PTR [bp-0x70],ah
    107a:	66 90                	xchg   eax,eax
    107c:	66 90                	xchg   eax,eax
    107e:	66 90                	xchg   eax,eax

00001080 <_test>:
    1080:	ea 00 00 50 00       	jmp    0x50:0x0

00001085 <_inisys>:
    1085:	60                   	pusha  
    1086:	e8 52 03             	call   13db <installInt8h>
    1089:	e8 e9 02             	call   1375 <installInt9h>
    108c:	e8 93 02             	call   1322 <installInt2Bh>
    108f:	e8 05 00             	call   1097 <installInt21h>
    1092:	e8 96 04             	call   152b <installInt34_37h>
    1095:	61                   	popa   
    1096:	c3                   	ret    

00001097 <installInt21h>:
    1097:	50                   	push   ax
    1098:	06                   	push   es
    1099:	b8 00 00             	mov    ax,0x0
    109c:	8e c0                	mov    es,ax
    109e:	26 c7 06 84 00 ad 10 	mov    WORD PTR es:0x84,0x10ad
    10a5:	26 8c 0e 86 00       	mov    WORD PTR es:0x86,cs
    10aa:	07                   	pop    es
    10ab:	58                   	pop    ax
    10ac:	c3                   	ret    

000010ad <int21h>:
    10ad:	2e 89 1e 6b 11       	mov    WORD PTR cs:0x116b,bx
    10b2:	53                   	push   bx
    10b3:	1e                   	push   ds
    10b4:	0e                   	push   cs
    10b5:	1f                   	pop    ds
    10b6:	bb 00 00             	mov    bx,0x0
    10b9:	50                   	push   ax
    10ba:	88 e0                	mov    al,ah
    10bc:	b3 02                	mov    bl,0x2
    10be:	f6 e3                	mul    bl
    10c0:	88 c3                	mov    bl,al
    10c2:	58                   	pop    ax
    10c3:	2e ff 97 cb 10       	call   WORD PTR cs:[bx+0x10cb]

000010c8 <int21hre>:
    10c8:	1f                   	pop    ds
    10c9:	5b                   	pop    bx
    10ca:	cf                   	iret   

000010cb <int21hTable>:
    10cb:	a2 11 b0             	mov    ds:0xb011,al
    10ce:	11 f5                	adc    bp,si
    10d0:	11 ce                	adc    si,cx
    10d2:	11 d9                	adc    cx,bx
    10d4:	11 29                	adc    WORD PTR [bx+di],bp
    10d6:	12 40 12             	adc    al,BYTE PTR [bx+si+0x12]
    10d9:	59                   	pop    cx
    10da:	12 68 12             	adc    ch,BYTE PTR [bx+si+0x12]
    10dd:	8c 11                	mov    WORD PTR [bx+di],ss
    10df:	cc                   	int3   
    10e0:	12 da                	adc    bl,dl
    10e2:	12 ec                	adc    ch,ah
    10e4:	12 fe                	adc    bh,dh
    10e6:	12 10                	adc    dl,BYTE PTR [bx+si]
    10e8:	13 71 11             	adc    si,WORD PTR [bx+di+0x11]
	...
    1163:	e7 11                	out    0x11,ax

00001165 <int21h_store_ip>:
	...

00001167 <int21h_store_cs>:
	...

00001169 <int21h_store_flags>:
	...

0000116b <int21h_store_ebx>:
    116b:	00 00                	add    BYTE PTR [bx+si],al
	...

0000116f <int21_store_retaddr>:
	...

00001171 <int21hFree>:
    1171:	66 50                	push   eax
    1173:	66 b8 00 00 00 00    	mov    eax,0x0
    1179:	8c e8                	mov    ax,gs
    117b:	66 50                	push   eax
    117d:	66 51                	push   ecx
    117f:	b8 ea 4b             	mov    ax,0x4bea
    1182:	66 ff d0             	call   eax
    1185:	66 59                	pop    ecx
    1187:	66 58                	pop    eax
    1189:	66 58                	pop    eax
    118b:	c3                   	ret    

0000118c <int21hMalloc>:
    118c:	66 53                	push   ebx
    118e:	1e                   	push   ds
    118f:	0e                   	push   cs
    1190:	1f                   	pop    ds
    1191:	66 53                	push   ebx
    1193:	66 b8 43 4a 00 00    	mov    eax,0x4a43
    1199:	66 ff d0             	call   eax
    119c:	66 5b                	pop    ebx
    119e:	1f                   	pop    ds
    119f:	66 5b                	pop    ebx
    11a1:	c3                   	ret    

000011a2 <int21hps>:
    11a2:	66 50                	push   eax
    11a4:	66 31 c0             	xor    eax,eax
    11a7:	b8 4d 28             	mov    ax,0x284d
    11aa:	66 ff d0             	call   eax
    11ad:	66 58                	pop    eax
    11af:	c3                   	ret    

000011b0 <int21hkill>:
    11b0:	66 50                	push   eax
    11b2:	66 53                	push   ebx
    11b4:	66 bb 00 00 00 00    	mov    ebx,0x0
    11ba:	88 c3                	mov    bl,al
    11bc:	66 53                	push   ebx
    11be:	66 31 c0             	xor    eax,eax
    11c1:	b8 07 2b             	mov    ax,0x2b07
    11c4:	66 ff d0             	call   eax
    11c7:	66 5b                	pop    ebx
    11c9:	66 5b                	pop    ebx
    11cb:	66 58                	pop    eax
    11cd:	c3                   	ret    

000011ce <int21hshowDate>:
    11ce:	fb                   	sti    
    11cf:	66 31 c0             	xor    eax,eax
    11d2:	b8 d8 22             	mov    ax,0x22d8
    11d5:	66 ff d0             	call   eax
    11d8:	c3                   	ret    

000011d9 <int21hClear>:
    11d9:	66 50                	push   eax
    11db:	66 31 c0             	xor    eax,eax
    11de:	b8 d0 15             	mov    ax,0x15d0
    11e1:	66 ff d0             	call   eax
    11e4:	66 58                	pop    eax
    11e6:	c3                   	ret    

000011e7 <int21hexit>:
    11e7:	66 50                	push   eax
    11e9:	66 31 c0             	xor    eax,eax
    11ec:	b8 33 17             	mov    ax,0x1733
    11ef:	66 ff d0             	call   eax
    11f2:	66 58                	pop    eax
    11f4:	c3                   	ret    

000011f5 <int21hPrintString>:
    11f5:	60                   	pusha  
    11f6:	1e                   	push   ds
    11f7:	66 50                	push   eax
    11f9:	8c e8                	mov    ax,gs
    11fb:	8e d8                	mov    ds,ax
    11fd:	66 53                	push   ebx
    11ff:	66 51                	push   ecx
    1201:	66 b8 00 00 00 00    	mov    eax,0x0
    1207:	88 d0                	mov    al,dl
    1209:	66 50                	push   eax
    120b:	88 f0                	mov    al,dh
    120d:	66 50                	push   eax
    120f:	66 57                	push   edi
    1211:	66 31 c0             	xor    eax,eax
    1214:	b8 a5 15             	mov    ax,0x15a5
    1217:	66 ff d0             	call   eax
    121a:	66 5f                	pop    edi
    121c:	66 58                	pop    eax
    121e:	66 58                	pop    eax
    1220:	66 59                	pop    ecx
    1222:	66 5b                	pop    ebx
    1224:	66 58                	pop    eax
    1226:	1f                   	pop    ds
    1227:	61                   	popa   
    1228:	c3                   	ret    

00001229 <int21hint2str>:
    1229:	60                   	pusha  
    122a:	1e                   	push   ds
    122b:	8c e8                	mov    ax,gs
    122d:	8e d8                	mov    ds,ax
    122f:	66 57                	push   edi
    1231:	66 53                	push   ebx
    1233:	b8 6e 2e             	mov    ax,0x2e6e
    1236:	66 ff d0             	call   eax
    1239:	66 5b                	pop    ebx
    123b:	66 5f                	pop    edi
    123d:	1f                   	pop    ds
    123e:	61                   	popa   
    123f:	c3                   	ret    

00001240 <int21hexitprg>:
    1240:	60                   	pusha  
    1241:	1e                   	push   ds
    1242:	2e 66 ff 36 6b 11    	push   DWORD PTR cs:0x116b
    1248:	66 b8 00 00 00 00    	mov    eax,0x0
    124e:	b8 d8 41             	mov    ax,0x41d8
    1251:	66 ff d0             	call   eax
    1254:	66 5b                	pop    ebx
    1256:	1f                   	pop    ds
    1257:	61                   	popa   
    1258:	c3                   	ret    

00001259 <int21hwait>:
    1259:	1e                   	push   ds
    125a:	66 b8 00 00 00 00    	mov    eax,0x0
    1260:	b8 ac 42             	mov    ax,0x42ac
    1263:	66 ff d0             	call   eax
    1266:	1f                   	pop    ds
    1267:	c3                   	ret    

00001268 <int21hfork>:
    1268:	fa                   	cli    
    1269:	0e                   	push   cs
    126a:	53                   	push   bx
    126b:	50                   	push   ax
    126c:	1e                   	push   ds
    126d:	8c c8                	mov    ax,cs
    126f:	8e d8                	mov    ds,ax
    1271:	2e 8b 1e a0 be       	mov    bx,WORD PTR cs:0xbea0
    1276:	2e a1 04 97          	mov    ax,cs:0x9704
    127a:	f6 e3                	mul    bl
    127c:	89 c3                	mov    bx,ax
    127e:	81 c3 60 b3          	add    bx,0xb360
    1282:	2e 89 1e 80 18       	mov    WORD PTR cs:0x1880,bx
    1287:	1f                   	pop    ds
    1288:	58                   	pop    ax
    1289:	5b                   	pop    bx
    128a:	fb                   	sti    
    128b:	e8 1e 05             	call   17ac <save>
    128e:	fa                   	cli    
    128f:	60                   	pusha  
    1290:	1e                   	push   ds
    1291:	66 b8 00 00 00 00    	mov    eax,0x0
    1297:	8c c8                	mov    ax,cs
    1299:	8e d8                	mov    ds,ax
    129b:	b8 95 3d             	mov    ax,0x3d95
    129e:	66 ff d0             	call   eax
    12a1:	1f                   	pop    ds
    12a2:	61                   	popa   
    12a3:	53                   	push   bx
    12a4:	50                   	push   ax
    12a5:	1e                   	push   ds
    12a6:	8c c8                	mov    ax,cs
    12a8:	8e d8                	mov    ds,ax
    12aa:	2e 8b 1e a0 be       	mov    bx,WORD PTR cs:0xbea0
    12af:	2e a1 04 97          	mov    ax,cs:0x9704
    12b3:	f6 e3                	mul    bl
    12b5:	89 c3                	mov    bx,ax
    12b7:	81 c3 60 b3          	add    bx,0xb360
    12bb:	2e 89 1e 7e 18       	mov    WORD PTR cs:0x187e,bx
    12c0:	1f                   	pop    ds
    12c1:	58                   	pop    ax
    12c2:	5b                   	pop    bx
    12c3:	e8 65 05             	call   182b <restart>

000012c6 <int21hfork_store_cs>:
	...

000012c8 <int21hfork_store_ip>:
	...

000012ca <int21hfork_store_flags>:
	...

000012cc <int21hGetSem>:
    12cc:	66 31 c0             	xor    eax,eax
    12cf:	b8 bc 5e             	mov    ax,0x5ebc
    12d2:	66 51                	push   ecx
    12d4:	66 ff d0             	call   eax
    12d7:	66 59                	pop    ecx
    12d9:	c3                   	ret    

000012da <int21hFreeSem>:
    12da:	66 50                	push   eax
    12dc:	66 31 c0             	xor    eax,eax
    12df:	b8 7a 5f             	mov    ax,0x5f7a
    12e2:	66 51                	push   ecx
    12e4:	66 ff d0             	call   eax
    12e7:	66 59                	pop    ecx
    12e9:	66 58                	pop    eax
    12eb:	c3                   	ret    

000012ec <int21hP>:
    12ec:	66 50                	push   eax
    12ee:	66 31 c0             	xor    eax,eax
    12f1:	b8 e9 5f             	mov    ax,0x5fe9
    12f4:	66 51                	push   ecx
    12f6:	66 ff d0             	call   eax
    12f9:	66 59                	pop    ecx
    12fb:	66 58                	pop    eax
    12fd:	c3                   	ret    

000012fe <int21hV>:
    12fe:	66 50                	push   eax
    1300:	66 31 c0             	xor    eax,eax
    1303:	b8 fd 60             	mov    ax,0x60fd
    1306:	66 51                	push   ecx
    1308:	66 ff d0             	call   eax
    130b:	66 59                	pop    ecx
    130d:	66 58                	pop    eax
    130f:	c3                   	ret    

00001310 <int21hDelay>:
    1310:	66 50                	push   eax
    1312:	66 31 c0             	xor    eax,eax
    1315:	b8 8e 48             	mov    ax,0x488e
    1318:	66 51                	push   ecx
    131a:	66 ff d0             	call   eax
    131d:	66 59                	pop    ecx
    131f:	66 58                	pop    eax
    1321:	c3                   	ret    

00001322 <installInt2Bh>:
    1322:	60                   	pusha  
    1323:	06                   	push   es
    1324:	b8 00 00             	mov    ax,0x0
    1327:	8e c0                	mov    es,ax
    1329:	26 c7 06 ac 00 38 13 	mov    WORD PTR es:0xac,0x1338
    1330:	26 8c 0e ae 00       	mov    WORD PTR es:0xae,cs
    1335:	07                   	pop    es
    1336:	61                   	popa   
    1337:	c3                   	ret    

00001338 <int2Bh>:
    1338:	2e 8f 06 71 13       	pop    WORD PTR cs:0x1371
    133d:	2e 8f 06 73 13       	pop    WORD PTR cs:0x1373
    1342:	9d                   	popf   
    1343:	2e 8f 06 71 13       	pop    WORD PTR cs:0x1371
    1348:	60                   	pusha  
    1349:	1e                   	push   ds
    134a:	66 b8 00 00 00 00    	mov    eax,0x0
    1350:	8c c8                	mov    ax,cs
    1352:	8e d8                	mov    ds,ax
    1354:	a1 a0 be             	mov    ax,ds:0xbea0
    1357:	66 50                	push   eax
    1359:	b8 04 3a             	mov    ax,0x3a04
    135c:	66 ff d0             	call   eax
    135f:	66 58                	pop    eax
    1361:	1f                   	pop    ds
    1362:	61                   	popa   
    1363:	9c                   	pushf  
    1364:	2e ff 36 73 13       	push   WORD PTR cs:0x1373
    1369:	2e ff 36 71 13       	push   WORD PTR cs:0x1371
    136e:	e9 a9 00             	jmp    141a <int8h>

00001371 <in2b_store_ip>:
	...

00001373 <in2b_store_cs>:
	...

00001375 <installInt9h>:
    1375:	60                   	pusha  
    1376:	06                   	push   es
    1377:	1e                   	push   ds
    1378:	31 c0                	xor    ax,ax
    137a:	8e c0                	mov    es,ax
    137c:	8c c8                	mov    ax,cs
    137e:	8e d8                	mov    ds,ax
    1380:	26 a1 26 00          	mov    ax,es:0x26
    1384:	2e a3 a4 13          	mov    cs:0x13a4,ax
    1388:	26 a1 24 00          	mov    ax,es:0x24
    138c:	2e a3 a2 13          	mov    cs:0x13a2,ax
    1390:	fa                   	cli    
    1391:	26 8c 0e 26 00       	mov    WORD PTR es:0x26,cs
    1396:	26 c7 06 24 00 a6 13 	mov    WORD PTR es:0x24,0x13a6
    139d:	fb                   	sti    
    139e:	1f                   	pop    ds
    139f:	07                   	pop    es
    13a0:	61                   	popa   
    13a1:	c3                   	ret    

000013a2 <tmp9>:
    13a2:	00 00                	add    BYTE PTR [bx+si],al
	...

000013a6 <int9h>:
    13a6:	60                   	pusha  
    13a7:	06                   	push   es
    13a8:	1e                   	push   ds
    13a9:	8c c8                	mov    ax,cs
    13ab:	8e d8                	mov    ds,ax
    13ad:	8e c0                	mov    es,ax
    13af:	9c                   	pushf  
    13b0:	2e ff 1e a2 13       	call   DWORD PTR cs:0x13a2

000013b5 <showInsert>:
    13b5:	b9 09 00             	mov    cx,0x9
    13b8:	bd d2 13             	mov    bp,0x13d2
    13bb:	ba 45 18             	mov    dx,0x1845
    13be:	b3 0f                	mov    bl,0xf
    13c0:	b7 00                	mov    bh,0x0
    13c2:	b4 13                	mov    ah,0x13
    13c4:	b0 00                	mov    al,0x0
    13c6:	cd 10                	int    0x10
    13c8:	b0 20                	mov    al,0x20
    13ca:	e6 20                	out    0x20,al
    13cc:	e6 a0                	out    0xa0,al
    13ce:	1f                   	pop    ds
    13cf:	07                   	pop    es
    13d0:	61                   	popa   
    13d1:	cf                   	iret   

000013d2 <inserting>:
    13d2:	69 6e 73 65 72       	imul   bp,WORD PTR [bp+0x73],0x7265
    13d7:	74 69                	je     1442 <int8h+0x28>
    13d9:	6e                   	outs   dx,BYTE PTR ds:[si]
    13da:	67                   	addr32

000013db <installInt8h>:
    13db:	06                   	push   es
    13dc:	50                   	push   ax
    13dd:	31 c0                	xor    ax,ax
    13df:	8e c0                	mov    es,ax
    13e1:	26 a1 22 00          	mov    ax,es:0x22
    13e5:	2e a3 18 14          	mov    cs:0x1418,ax
    13e9:	26 a1 20 00          	mov    ax,es:0x20
    13ed:	2e a3 16 14          	mov    cs:0x1416,ax
    13f1:	fa                   	cli    
    13f2:	26 8c 0e 22 00       	mov    WORD PTR es:0x22,cs
    13f7:	26 c7 06 20 00 1a 14 	mov    WORD PTR es:0x20,0x141a
    13fe:	2e c7 06 18 15 28 00 	mov    WORD PTR cs:0x1518,0x28
    1405:	fb                   	sti    

00001406 <SetTimer>:
    1406:	b0 34                	mov    al,0x34
    1408:	e6 43                	out    0x43,al
    140a:	b8 0b e9             	mov    ax,0xe90b
    140d:	e6 40                	out    0x40,al
    140f:	88 e0                	mov    al,ah
    1411:	e6 40                	out    0x40,al
    1413:	58                   	pop    ax
    1414:	07                   	pop    es
    1415:	c3                   	ret    

00001416 <tmp8>:
    1416:	00 00                	add    BYTE PTR [bx+si],al
	...

0000141a <int8h>:
    141a:	60                   	pusha  
    141b:	1e                   	push   ds
    141c:	06                   	push   es
    141d:	8c c8                	mov    ax,cs
    141f:	8e d8                	mov    ds,ax
    1421:	9c                   	pushf  
    1422:	ff 1e 16 14          	call   DWORD PTR ds:0x1416
    1426:	ff 0e 18 15          	dec    WORD PTR ds:0x1518
    142a:	83 3e 18 15 00       	cmp    WORD PTR ds:0x1518,0x0
    142f:	75 67                	jne    1498 <int8hret>
    1431:	c7 06 18 15 28 00    	mov    WORD PTR ds:0x1518,0x28
    1437:	b8 00 b8             	mov    ax,0xb800
    143a:	8e c0                	mov    es,ax
    143c:	b4 04                	mov    ah,0x4
    143e:	b7 00                	mov    bh,0x0
    1440:	b4 03                	mov    ah,0x3
    1442:	cd 10                	int    0x10
    1444:	b8 00 00             	mov    ax,0x0
    1447:	88 f0                	mov    al,dh
    1449:	b3 50                	mov    bl,0x50
    144b:	f6 e3                	mul    bl
    144d:	b6 00                	mov    dh,0x0
    144f:	01 d0                	add    ax,dx
    1451:	bb 02 00             	mov    bx,0x2
    1454:	f7 e3                	mul    bx
    1456:	89 c5                	mov    bp,ax
    1458:	bb 1c 15             	mov    bx,0x151c
    145b:	03 1e 1a 15          	add    bx,WORD PTR ds:0x151a
    145f:	8a 07                	mov    al,BYTE PTR [bx]
    1461:	b4 0f                	mov    ah,0xf
    1463:	26 89 46 00          	mov    WORD PTR es:[bp+0x0],ax
    1467:	b8 20 0f             	mov    ax,0xf20
    146a:	26 89 46 02          	mov    WORD PTR es:[bp+0x2],ax
    146e:	ff 06 1a 15          	inc    WORD PTR ds:0x151a
    1472:	83 3e 1a 15 04       	cmp    WORD PTR ds:0x151a,0x4
    1477:	7c 06                	jl     147f <insertShow>
    1479:	c7 06 1a 15 00 00    	mov    WORD PTR ds:0x151a,0x0

0000147f <insertShow>:
    147f:	06                   	push   es
    1480:	8c c8                	mov    ax,cs
    1482:	8e c0                	mov    es,ax
    1484:	b9 09 00             	mov    cx,0x9
    1487:	bd 20 15             	mov    bp,0x1520
    148a:	ba 45 18             	mov    dx,0x1845
    148d:	b3 0f                	mov    bl,0xf
    148f:	b7 00                	mov    bh,0x0
    1491:	b4 13                	mov    ah,0x13
    1493:	b0 00                	mov    al,0x0
    1495:	cd 10                	int    0x10
    1497:	07                   	pop    es

00001498 <int8hret>:
    1498:	fa                   	cli    
    1499:	b0 20                	mov    al,0x20
    149b:	e6 20                	out    0x20,al
    149d:	e6 a0                	out    0xa0,al
    149f:	07                   	pop    es
    14a0:	1f                   	pop    ds
    14a1:	61                   	popa   
    14a2:	53                   	push   bx
    14a3:	50                   	push   ax
    14a4:	1e                   	push   ds
    14a5:	8c c8                	mov    ax,cs
    14a7:	8e d8                	mov    ds,ax
    14a9:	2e 8b 1e a0 be       	mov    bx,WORD PTR cs:0xbea0
    14ae:	2e a1 04 97          	mov    ax,cs:0x9704
    14b2:	f6 e3                	mul    bl
    14b4:	89 c3                	mov    bx,ax
    14b6:	81 c3 60 b3          	add    bx,0xb360
    14ba:	2e 89 1e 80 18       	mov    WORD PTR cs:0x1880,bx
    14bf:	1f                   	pop    ds
    14c0:	58                   	pop    ax
    14c1:	5b                   	pop    bx
    14c2:	50                   	push   ax
    14c3:	1e                   	push   ds
    14c4:	0e                   	push   cs
    14c5:	1f                   	pop    ds
    14c6:	60                   	pusha  
    14c7:	66 31 c0             	xor    eax,eax
    14ca:	b8 28 49             	mov    ax,0x4928
    14cd:	66 ff d0             	call   eax
    14d0:	66 31 c0             	xor    eax,eax
    14d3:	b8 70 3b             	mov    ax,0x3b70
    14d6:	66 ff d0             	call   eax
    14d9:	61                   	popa   
    14da:	1f                   	pop    ds
    14db:	58                   	pop    ax
    14dc:	2e 8f 06 71 13       	pop    WORD PTR cs:0x1371
    14e1:	2e 8f 06 73 13       	pop    WORD PTR cs:0x1373
    14e6:	9d                   	popf   
    14e7:	2e ff 36 71 13       	push   WORD PTR cs:0x1371
    14ec:	2e ff 36 73 13       	push   WORD PTR cs:0x1373
    14f1:	53                   	push   bx
    14f2:	50                   	push   ax
    14f3:	1e                   	push   ds
    14f4:	8c c8                	mov    ax,cs
    14f6:	8e d8                	mov    ds,ax
    14f8:	2e 8b 1e a0 be       	mov    bx,WORD PTR cs:0xbea0
    14fd:	2e a1 04 97          	mov    ax,cs:0x9704
    1501:	f6 e3                	mul    bl
    1503:	89 c3                	mov    bx,ax
    1505:	81 c3 60 b3          	add    bx,0xb360
    1509:	2e 89 1e 7e 18       	mov    WORD PTR cs:0x187e,bx
    150e:	1f                   	pop    ds
    150f:	58                   	pop    ax
    1510:	5b                   	pop    bx
    1511:	e8 98 02             	call   17ac <save>
    1514:	e8 14 03             	call   182b <restart>
    1517:	cf                   	iret   

00001518 <count>:
    1518:	28 00                	sub    BYTE PTR [bx+si],al

0000151a <k>:
	...

0000151c <char>:
    151c:	7c 5c                	jl     157a <int34h+0xd>
    151e:	2d                   	.byte 0x2d
    151f:	2f                   	das    

00001520 <inserted>:
    1520:	69 6e 73 65 72       	imul   bp,WORD PTR [bp+0x73],0x7265
    1525:	74 65                	je     158c <int36h+0x3>
    1527:	64                   	fs
    1528:	20                   	.byte 0x20

00001529 <int8h_store_ss>:
	...

0000152b <installInt34_37h>:
    152b:	06                   	push   es
    152c:	50                   	push   ax
    152d:	b8 00 00             	mov    ax,0x0
    1530:	8e c0                	mov    es,ax
    1532:	fa                   	cli    
    1533:	26 8c 0e d2 00       	mov    WORD PTR es:0xd2,cs
    1538:	26 c7 06 d0 00 6d 15 	mov    WORD PTR es:0xd0,0x156d
    153f:	fb                   	sti    
    1540:	fa                   	cli    
    1541:	26 8c 0e d6 00       	mov    WORD PTR es:0xd6,cs
    1546:	26 c7 06 d4 00 7b 15 	mov    WORD PTR es:0xd4,0x157b
    154d:	fb                   	sti    
    154e:	fa                   	cli    
    154f:	26 8c 0e da 00       	mov    WORD PTR es:0xda,cs
    1554:	26 c7 06 d8 00 89 15 	mov    WORD PTR es:0xd8,0x1589
    155b:	fb                   	sti    
    155c:	fa                   	cli    
    155d:	26 8c 0e de 00       	mov    WORD PTR es:0xde,cs
    1562:	26 c7 06 dc 00 97 15 	mov    WORD PTR es:0xdc,0x1597
    1569:	fb                   	sti    
    156a:	58                   	pop    ax
    156b:	07                   	pop    es
    156c:	c3                   	ret    

0000156d <int34h>:
    156d:	8c c8                	mov    ax,cs
    156f:	8e d8                	mov    ds,ax
    1571:	66 31 c0             	xor    eax,eax
    1574:	b8 15 64             	mov    ax,0x6415
    1577:	66 ff d0             	call   eax
    157a:	cf                   	iret   

0000157b <int35h>:
    157b:	8c c8                	mov    ax,cs
    157d:	8e d8                	mov    ds,ax
    157f:	66 31 c0             	xor    eax,eax
    1582:	b8 70 64             	mov    ax,0x6470
    1585:	66 ff d0             	call   eax
    1588:	cf                   	iret   

00001589 <int36h>:
    1589:	8c c8                	mov    ax,cs
    158b:	8e d8                	mov    ds,ax
    158d:	66 31 c0             	xor    eax,eax
    1590:	b8 cb 64             	mov    ax,0x64cb
    1593:	66 ff d0             	call   eax
    1596:	cf                   	iret   

00001597 <int37h>:
    1597:	8c c8                	mov    ax,cs
    1599:	8e d8                	mov    ds,ax
    159b:	66 31 c0             	xor    eax,eax
    159e:	b8 26 65             	mov    ax,0x6526
    15a1:	66 ff d0             	call   eax
    15a4:	cf                   	iret   

000015a5 <_printSentence>:
    15a5:	66 55                	push   ebp
    15a7:	67 8a 5c 24 18       	mov    bl,BYTE PTR [esp+0x18]
    15ac:	67 8b 4c 24 14       	mov    cx,WORD PTR [esp+0x14]
    15b1:	67 8a 54 24 10       	mov    dl,BYTE PTR [esp+0x10]
    15b6:	67 8a 74 24 0c       	mov    dh,BYTE PTR [esp+0xc]
    15bb:	67 8b 6c 24 08       	mov    bp,WORD PTR [esp+0x8]
    15c0:	b0 01                	mov    al,0x1
    15c2:	b7 00                	mov    bh,0x0
    15c4:	1e                   	push   ds
    15c5:	07                   	pop    es
    15c6:	b4 13                	mov    ah,0x13
    15c8:	cd 10                	int    0x10
    15ca:	66 5d                	pop    ebp
    15cc:	66 59                	pop    ecx
    15ce:	ff e1                	jmp    cx

000015d0 <_ClearScreen>:
    15d0:	60                   	pusha  
    15d1:	b4 06                	mov    ah,0x6
    15d3:	b0 00                	mov    al,0x0
    15d5:	b7 0f                	mov    bh,0xf
    15d7:	b5 00                	mov    ch,0x0
    15d9:	b1 00                	mov    cl,0x0
    15db:	b6 18                	mov    dh,0x18
    15dd:	b2 4f                	mov    dl,0x4f
    15df:	cd 10                	int    0x10
    15e1:	61                   	popa   
    15e2:	2e 66 8f 06 ed 15    	pop    DWORD PTR cs:0x15ed
    15e8:	2e ff 26 ed 15       	jmp    WORD PTR cs:0x15ed

000015ed <retaddr>:
    15ed:	00 00                	add    BYTE PTR [bx+si],al
	...

000015f1 <_getInput>:
    15f1:	c7 06 2b 17 00 00    	mov    WORD PTR ds:0x172b,0x0

000015f7 <getStr>:
    15f7:	b4 00                	mov    ah,0x0
    15f9:	cd 16                	int    0x16
    15fb:	3c 20                	cmp    al,0x20
    15fd:	7c 07                	jl     1606 <nochar>
    15ff:	b4 00                	mov    ah,0x0
    1601:	e8 26 00             	call   162a <Charmini>
    1604:	eb f1                	jmp    15f7 <getStr>

00001606 <nochar>:
    1606:	80 fc 0e             	cmp    ah,0xe
    1609:	74 07                	je     1612 <backspace>
    160b:	80 fc 1c             	cmp    ah,0x1c
    160e:	74 09                	je     1619 <enter>
    1610:	eb e5                	jmp    15f7 <getStr>

00001612 <backspace>:
    1612:	b4 01                	mov    ah,0x1
    1614:	e8 13 00             	call   162a <Charmini>
    1617:	eb de                	jmp    15f7 <getStr>

00001619 <enter>:
    1619:	b0 00                	mov    al,0x0
    161b:	b4 00                	mov    ah,0x0
    161d:	e8 0a 00             	call   162a <Charmini>
    1620:	66 29 c0             	sub    eax,eax
    1623:	b8 c6 16             	mov    ax,0x16c6
    1626:	66 59                	pop    ecx
    1628:	ff e1                	jmp    cx

0000162a <Charmini>:
    162a:	53                   	push   bx
    162b:	52                   	push   dx
    162c:	57                   	push   di
    162d:	06                   	push   es
    162e:	80 fc 01             	cmp    ah,0x1
    1631:	0f 8f 8c 00          	jg     16c1 <Charminiret>
    1635:	88 e3                	mov    bl,ah
    1637:	b7 00                	mov    bh,0x0
    1639:	01 db                	add    bx,bx
    163b:	ff a7 2d 17          	jmp    WORD PTR [bx+0x172d]

0000163f <charpush>:
    163f:	80 3e 2b 17 64       	cmp    BYTE PTR ds:0x172b,0x64
    1644:	7d 7b                	jge    16c1 <Charminiret>
    1646:	8b 1e 2b 17          	mov    bx,WORD PTR ds:0x172b
    164a:	fe 06 2b 17          	inc    BYTE PTR ds:0x172b
    164e:	88 87 c6 16          	mov    BYTE PTR [bx+0x16c6],al
    1652:	e8 1a 00             	call   166f <charshow>
    1655:	eb 6a                	jmp    16c1 <Charminiret>

00001657 <charpop>:
    1657:	80 3e 2b 17 00       	cmp    BYTE PTR ds:0x172b,0x0
    165c:	7e 63                	jle    16c1 <Charminiret>
    165e:	fe 0e 2b 17          	dec    BYTE PTR ds:0x172b
    1662:	8b 1e 2b 17          	mov    bx,WORD PTR ds:0x172b
    1666:	8a 87 c6 16          	mov    al,BYTE PTR [bx+0x16c6]
    166a:	e8 24 00             	call   1691 <coverLast>
    166d:	eb 52                	jmp    16c1 <Charminiret>

0000166f <charshow>:
    166f:	66 55                	push   ebp
    1671:	b7 00                	mov    bh,0x0
    1673:	b4 03                	mov    ah,0x3
    1675:	cd 10                	int    0x10
    1677:	b0 01                	mov    al,0x1
    1679:	b4 13                	mov    ah,0x13
    167b:	b7 00                	mov    bh,0x0
    167d:	b3 0e                	mov    bl,0xe
    167f:	b9 01 00             	mov    cx,0x1
    1682:	0e                   	push   cs
    1683:	07                   	pop    es
    1684:	bd c6 16             	mov    bp,0x16c6
    1687:	03 2e 2b 17          	add    bp,WORD PTR ds:0x172b
    168b:	4d                   	dec    bp
    168c:	cd 10                	int    0x10
    168e:	66 5d                	pop    ebp
    1690:	c3                   	ret    

00001691 <coverLast>:
    1691:	b8 00 b8             	mov    ax,0xb800
    1694:	8e c0                	mov    es,ax
    1696:	b4 03                	mov    ah,0x3
    1698:	cd 10                	int    0x10
    169a:	80 fa 00             	cmp    dl,0x0
    169d:	7f 04                	jg     16a3 <noEndofLine>
    169f:	b2 50                	mov    dl,0x50
    16a1:	fe ce                	dec    dh

000016a3 <noEndofLine>:
    16a3:	fe ca                	dec    dl
    16a5:	b4 02                	mov    ah,0x2
    16a7:	b7 00                	mov    bh,0x0
    16a9:	cd 10                	int    0x10
    16ab:	b8 50 00             	mov    ax,0x50
    16ae:	f6 e6                	mul    dh
    16b0:	b6 00                	mov    dh,0x0
    16b2:	01 d0                	add    ax,dx
    16b4:	ba 02 00             	mov    dx,0x2
    16b7:	f7 e2                	mul    dx
    16b9:	89 c3                	mov    bx,ax
    16bb:	26 c7 07 20 0f       	mov    WORD PTR es:[bx],0xf20
    16c0:	c3                   	ret    

000016c1 <Charminiret>:
    16c1:	07                   	pop    es
    16c2:	5f                   	pop    di
    16c3:	5a                   	pop    dx
    16c4:	5b                   	pop    bx
    16c5:	c3                   	ret    

000016c6 <input>:
	...

0000172b <top>:
	...

0000172d <getInputTable>:
    172d:	3f                   	aas    
    172e:	16                   	push   ss
    172f:	57                   	push   di
    1730:	16                   	push   ss
    1731:	6f                   	outs   dx,WORD PTR ds:[si]
    1732:	16                   	push   ss

00001733 <_shutdown>:
    1733:	60                   	pusha  
    1734:	b8 01 53             	mov    ax,0x5301
    1737:	31 db                	xor    bx,bx
    1739:	cd 15                	int    0x15
    173b:	b8 0e 53             	mov    ax,0x530e
    173e:	b9 02 01             	mov    cx,0x102
    1741:	cd 15                	int    0x15
    1743:	b8 07 53             	mov    ax,0x5307
    1746:	b3 01                	mov    bl,0x1
    1748:	b9 03 00             	mov    cx,0x3
    174b:	cd 15                	int    0x15
    174d:	61                   	popa   
    174e:	66 59                	pop    ecx
    1750:	ff e1                	jmp    cx

00001752 <_loadReal>:
    1752:	66 55                	push   ebp
    1754:	06                   	push   es
    1755:	1e                   	push   ds
    1756:	50                   	push   ax
    1757:	52                   	push   dx
    1758:	51                   	push   cx
    1759:	53                   	push   bx
    175a:	8c c8                	mov    ax,cs
    175c:	8e d8                	mov    ds,ax
    175e:	67 8b 44 24 20       	mov    ax,WORD PTR [esp+0x20]
    1763:	8e c0                	mov    es,ax
    1765:	67 8b 44 24 14       	mov    ax,WORD PTR [esp+0x14]
    176a:	ba 00 00             	mov    dx,0x0
    176d:	b9 00 02             	mov    cx,0x200
    1770:	f7 f1                	div    cx
    1772:	b9 12 00             	mov    cx,0x12
    1775:	f7 f1                	div    cx
    1777:	88 d1                	mov    cl,dl
    1779:	fe c1                	inc    cl
    177b:	89 c2                	mov    dx,ax
    177d:	d1 e8                	shr    ax,1
    177f:	88 c5                	mov    ch,al
    1781:	88 d6                	mov    dh,dl
    1783:	80 e6 01             	and    dh,0x1
    1786:	b2 00                	mov    dl,0x0
    1788:	51                   	push   cx
    1789:	67 8b 44 24 1a       	mov    ax,WORD PTR [esp+0x1a]
    178e:	b9 00 02             	mov    cx,0x200
    1791:	ba 00 00             	mov    dx,0x0
    1794:	f7 f1                	div    cx
    1796:	59                   	pop    cx
    1797:	67 8b 5c 24 1c       	mov    bx,WORD PTR [esp+0x1c]
    179c:	b4 02                	mov    ah,0x2
    179e:	cd 13                	int    0x13
    17a0:	5b                   	pop    bx
    17a1:	59                   	pop    cx
    17a2:	5a                   	pop    dx
    17a3:	58                   	pop    ax
    17a4:	1f                   	pop    ds
    17a5:	07                   	pop    es
    17a6:	66 5d                	pop    ebp
    17a8:	66 59                	pop    ecx
    17aa:	ff e1                	jmp    cx

000017ac <save>:
    17ac:	83 c4 06             	add    sp,0x6
    17af:	2e 89 26 78 18       	mov    WORD PTR cs:0x1878,sp
    17b4:	2e 8c 16 7a 18       	mov    WORD PTR cs:0x187a,ss
    17b9:	83 ec 06             	sub    sp,0x6
    17bc:	2e 8f 06 92 18       	pop    WORD PTR cs:0x1892
    17c1:	1e                   	push   ds
    17c2:	0e                   	push   cs
    17c3:	1f                   	pop    ds
    17c4:	56                   	push   si
    17c5:	57                   	push   di
    17c6:	2e 8b 3e 80 18       	mov    di,WORD PTR cs:0x1880
    17cb:	2e 8f 06 84 18       	pop    WORD PTR cs:0x1884
    17d0:	2e 8f 06 86 18       	pop    WORD PTR cs:0x1886
    17d5:	2e 8f 06 88 18       	pop    WORD PTR cs:0x1888
    17da:	2e 8f 06 8c 18       	pop    WORD PTR cs:0x188c
    17df:	2e 8f 06 8a 18       	pop    WORD PTR cs:0x188a
    17e4:	8c 55 20             	mov    WORD PTR [di+0x20],ss
    17e7:	89 65 1e             	mov    WORD PTR [di+0x1e],sp
    17ea:	0e                   	push   cs
    17eb:	17                   	pop    ss
    17ec:	83 c7 1e             	add    di,0x1e
    17ef:	89 fc                	mov    sp,di
    17f1:	9c                   	pushf  
    17f2:	2e ff 36 8c 18       	push   WORD PTR cs:0x188c
    17f7:	2e ff 36 8a 18       	push   WORD PTR cs:0x188a
    17fc:	60                   	pusha  
    17fd:	5f                   	pop    di
    17fe:	5f                   	pop    di
    17ff:	2e ff 36 86 18       	push   WORD PTR cs:0x1886
    1804:	2e ff 36 84 18       	push   WORD PTR cs:0x1884
    1809:	2e ff 36 88 18       	push   WORD PTR cs:0x1888
    180e:	06                   	push   es
    180f:	0f a0                	push   fs
    1811:	0f a8                	push   gs
    1813:	2e 8e 16 7a 18       	mov    ss,WORD PTR cs:0x187a
    1818:	2e a3 7c 18          	mov    cs:0x187c,ax
    181c:	2e a1 78 18          	mov    ax,cs:0x1878
    1820:	89 c4                	mov    sp,ax
    1822:	2e a1 7c 18          	mov    ax,cs:0x187c
    1826:	2e ff 26 92 18       	jmp    WORD PTR cs:0x1892

0000182b <restart>:
    182b:	0e                   	push   cs
    182c:	17                   	pop    ss
    182d:	2e 8f 06 92 18       	pop    WORD PTR cs:0x1892
    1832:	2e 8b 26 7e 18       	mov    sp,WORD PTR cs:0x187e
    1837:	89 e0                	mov    ax,sp
    1839:	83 c0 18             	add    ax,0x18
    183c:	2e a3 90 18          	mov    cs:0x1890,ax
    1840:	0f a9                	pop    gs
    1842:	0f a1                	pop    fs
    1844:	07                   	pop    es
    1845:	1f                   	pop    ds
    1846:	61                   	popa   
    1847:	2e 8b 26 90 18       	mov    sp,WORD PTR cs:0x1890
    184c:	2e 8f 06 8a 18       	pop    WORD PTR cs:0x188a
    1851:	2e 8f 06 8c 18       	pop    WORD PTR cs:0x188c
    1856:	9d                   	popf   
    1857:	2e 8f 06 90 18       	pop    WORD PTR cs:0x1890
    185c:	17                   	pop    ss
    185d:	2e a3 82 18          	mov    cs:0x1882,ax
    1861:	2e a1 90 18          	mov    ax,cs:0x1890
    1865:	89 c4                	mov    sp,ax
    1867:	2e a1 82 18          	mov    ax,cs:0x1882
    186b:	fb                   	sti    
    186c:	9c                   	pushf  
    186d:	2e ff 36 8c 18       	push   WORD PTR cs:0x188c
    1872:	2e ff 36 8a 18       	push   WORD PTR cs:0x188a
    1877:	cf                   	iret   

00001878 <store_sp_dispatch>:
	...

0000187a <store_ss_dispatch>:
	...

0000187c <store_ax_dispatch>:
	...

0000187e <new_process>:
	...

00001880 <old_process>:
	...

00001882 <store_ax>:
	...

00001884 <store_di>:
	...

00001886 <store_si>:
	...

00001888 <store_ds>:
	...

0000188a <store_ip>:
	...

0000188c <store_cs>:
	...

0000188e <store_ss>:
	...

00001890 <store_sp>:
	...

00001892 <store_retaddr>:
	...

00001894 <_reboot>:
    1894:	cd 19                	int    0x19

00001896 <_getDate>:
    1896:	60                   	pusha  
    1897:	b4 04                	mov    ah,0x4
    1899:	cd 1a                	int    0x1a
    189b:	88 cb                	mov    bl,cl
    189d:	88 d8                	mov    al,bl
    189f:	24 f0                	and    al,0xf0
    18a1:	b1 04                	mov    cl,0x4
    18a3:	d2 e8                	shr    al,cl
    18a5:	80 e3 0f             	and    bl,0xf
    18a8:	88 dc                	mov    ah,bl
    18aa:	05 30 30             	add    ax,0x3030
    18ad:	c7 06 fb 18 32 30    	mov    WORD PTR ds:0x18fb,0x3032
    18b3:	a3 fd 18             	mov    ds:0x18fd,ax
    18b6:	88 f3                	mov    bl,dh
    18b8:	88 d8                	mov    al,bl
    18ba:	24 f0                	and    al,0xf0
    18bc:	b1 04                	mov    cl,0x4
    18be:	d2 e8                	shr    al,cl
    18c0:	80 e3 0f             	and    bl,0xf
    18c3:	88 dc                	mov    ah,bl
    18c5:	05 30 30             	add    ax,0x3030
    18c8:	a3 f8 18             	mov    ds:0x18f8,ax
    18cb:	c6 06 fa 18 2f       	mov    BYTE PTR ds:0x18fa,0x2f
    18d0:	88 d3                	mov    bl,dl
    18d2:	88 d8                	mov    al,bl
    18d4:	24 f0                	and    al,0xf0
    18d6:	b1 04                	mov    cl,0x4
    18d8:	d2 e8                	shr    al,cl
    18da:	80 e3 0f             	and    bl,0xf
    18dd:	88 dc                	mov    ah,bl
    18df:	05 30 30             	add    ax,0x3030
    18e2:	a3 f5 18             	mov    ds:0x18f5,ax
    18e5:	c6 06 f7 18 2f       	mov    BYTE PTR ds:0x18f7,0x2f
    18ea:	61                   	popa   
    18eb:	66 31 c0             	xor    eax,eax
    18ee:	b8 f5 18             	mov    ax,0x18f5
    18f1:	66 59                	pop    ecx
    18f3:	ff e1                	jmp    cx

000018f5 <date>:
	...

00001900 <_roll>:
    1900:	66 55                	push   ebp
    1902:	b4 06                	mov    ah,0x6
    1904:	b0 01                	mov    al,0x1
    1906:	b7 0f                	mov    bh,0xf
    1908:	b9 00 00             	mov    cx,0x0
    190b:	ba 4f 18             	mov    dx,0x184f
    190e:	cd 10                	int    0x10
    1910:	66 5d                	pop    ebp
    1912:	66 59                	pop    ecx
    1914:	ff e1                	jmp    cx

00001916 <lastline>:
	...

00002096 <_getRecords>:
    2096:	66 55                	push   ebp
    2098:	8c c8                	mov    ax,cs
    209a:	67 8b 44 24 08       	mov    ax,WORD PTR [esp+0x8]
    209f:	8e c0                	mov    es,ax
    20a1:	66 31 db             	xor    ebx,ebx
    20a4:	66 67 8b 5c 24 0c    	mov    ebx,DWORD PTR [esp+0xc]
    20aa:	66 31 c0             	xor    eax,eax
    20ad:	66 89 d8             	mov    eax,ebx
    20b0:	66 5d                	pop    ebp
    20b2:	66 59                	pop    ecx
    20b4:	ff e1                	jmp    cx

000020b6 <_fork>:
    20b6:	60                   	pusha  
    20b7:	b4 08                	mov    ah,0x8
    20b9:	cd 21                	int    0x21
    20bb:	61                   	popa   
    20bc:	c3                   	ret    

000020bd <_exitprg>:
    20bd:	66 55                	push   ebp
    20bf:	66 89 e5             	mov    ebp,esp
    20c2:	60                   	pusha  
    20c3:	36 67 8b 5d 08       	mov    bx,WORD PTR ss:[ebp+0x8]
    20c8:	b4 06                	mov    ah,0x6
    20ca:	cd 21                	int    0x21
    20cc:	61                   	popa   
    20cd:	66 89 ec             	mov    esp,ebp
    20d0:	66 5d                	pop    ebp
    20d2:	c3                   	ret    

000020d3 <_wait>:
    20d3:	66 55                	push   ebp
    20d5:	66 89 e5             	mov    ebp,esp
    20d8:	60                   	pusha  
    20d9:	36 67 8b 5d 08       	mov    bx,WORD PTR ss:[ebp+0x8]
    20de:	b4 07                	mov    ah,0x7
    20e0:	cd 21                	int    0x21
    20e2:	61                   	popa   
    20e3:	66 89 ec             	mov    esp,ebp
    20e6:	66 5d                	pop    ebp
    20e8:	c3                   	ret    

000020e9 <_memcpy>:
    20e9:	66 55                	push   ebp
    20eb:	66 89 e5             	mov    ebp,esp
    20ee:	60                   	pusha  
    20ef:	1e                   	push   ds
    20f0:	06                   	push   es
    20f1:	36 67 8b 45 08       	mov    ax,WORD PTR ss:[ebp+0x8]
    20f6:	8e d8                	mov    ds,ax
    20f8:	36 67 8b 75 0c       	mov    si,WORD PTR ss:[ebp+0xc]
    20fd:	36 67 8b 45 10       	mov    ax,WORD PTR ss:[ebp+0x10]
    2102:	8e c0                	mov    es,ax
    2104:	36 67 8b 7d 14       	mov    di,WORD PTR ss:[ebp+0x14]
    2109:	36 67 8b 4d 18       	mov    cx,WORD PTR ss:[ebp+0x18]
    210e:	f3 a4                	rep movs BYTE PTR es:[di],BYTE PTR ds:[si]
    2110:	07                   	pop    es
    2111:	1f                   	pop    ds
    2112:	61                   	popa   
    2113:	66 89 ec             	mov    esp,ebp
    2116:	66 5d                	pop    ebp
    2118:	66 59                	pop    ecx
    211a:	ff e1                	jmp    cx

0000211c <_write>:
    211c:	66 55                	push   ebp
    211e:	06                   	push   es
    211f:	1e                   	push   ds
    2120:	50                   	push   ax
    2121:	52                   	push   dx
    2122:	51                   	push   cx
    2123:	53                   	push   bx
    2124:	8c c8                	mov    ax,cs
    2126:	8e d8                	mov    ds,ax
    2128:	67 8b 44 24 20       	mov    ax,WORD PTR [esp+0x20]
    212d:	8e c0                	mov    es,ax
    212f:	67 8b 44 24 14       	mov    ax,WORD PTR [esp+0x14]
    2134:	ba 00 00             	mov    dx,0x0
    2137:	b9 00 02             	mov    cx,0x200
    213a:	f7 f1                	div    cx
    213c:	b9 12 00             	mov    cx,0x12
    213f:	f7 f1                	div    cx
    2141:	88 d1                	mov    cl,dl
    2143:	fe c1                	inc    cl
    2145:	89 c2                	mov    dx,ax
    2147:	d1 e8                	shr    ax,1
    2149:	88 c5                	mov    ch,al
    214b:	88 d6                	mov    dh,dl
    214d:	80 e6 01             	and    dh,0x1
    2150:	b2 00                	mov    dl,0x0
    2152:	51                   	push   cx
    2153:	67 8b 44 24 1a       	mov    ax,WORD PTR [esp+0x1a]
    2158:	b9 00 02             	mov    cx,0x200
    215b:	ba 00 00             	mov    dx,0x0
    215e:	f7 f1                	div    cx
    2160:	59                   	pop    cx
    2161:	67 8b 5c 24 1c       	mov    bx,WORD PTR [esp+0x1c]
    2166:	b4 03                	mov    ah,0x3
    2168:	cd 13                	int    0x13
    216a:	5b                   	pop    bx
    216b:	59                   	pop    cx
    216c:	5a                   	pop    dx
    216d:	58                   	pop    ax
    216e:	1f                   	pop    ds
    216f:	07                   	pop    es
    2170:	66 5d                	pop    ebp
    2172:	66 59                	pop    ecx
    2174:	ff e1                	jmp    cx
    2176:	66 90                	xchg   eax,eax
    2178:	66 90                	xchg   eax,eax
    217a:	66 90                	xchg   eax,eax
    217c:	66 90                	xchg   eax,eax
    217e:	66 90                	xchg   eax,eax

00002180 <_countLines>:
countLines():
D:\OneDrive\Study\Operating Systems\实验\project7\codes/./lib/utilsC.c:47
void initialProcessTable();
/////////// inside declarations end ////////////

//////////// IO ////////////////////
int countLines(char * sen)
{
    2180:	66 55                	push   ebp
    2182:	66 89 e5             	mov    ebp,esp
    2185:	66 83 ec 08          	sub    esp,0x8
D:\OneDrive\Study\Operating Systems\实验\project7\codes/./lib/utilsC.c:48
	int lines = 0;
    2189:	67 66 c7 45 fc 00 00 	mov    DWORD PTR [ebp-0x4],0x0
    2190:	00 00 
D:\OneDrive\Study\Operating Systems\实验\project7\codes/./lib/utilsC.c:49
	for (int i = 0; sen[i]; ++i) {
    2192:	67 66 c7 45 f8 00 00 	mov    DWORD PTR [ebp-0x8],0x0
    2199:	00 00 
    219b:	eb 1e                	jmp    21bb <_countLines+0x3b>
D:\OneDrive\Study\Operating Systems\实验\project7\codes/./lib/utilsC.c:50
		if (sen[i] == '\n') {
    219d:	67 66 8b 55 f8       	mov    edx,DWORD PTR [ebp-0x8]
    21a2:	67 66 8b 45 08       	mov    eax,DWORD PTR [ebp+0x8]
    21a7:	66 01 d0             	add    eax,edx
    21aa:	67 8a 00             	mov    al,BYTE PTR [eax]
    21ad:	3c 0a                	cmp    al,0xa
    21af:	75 05                	jne    21b6 <_countLines+0x36>
D:\OneDrive\Study\Operating Systems\实验\project7\codes/./lib/utilsC.c:51
			++lines;
    21b1:	67 66 ff 45 fc       	inc    DWORD PTR [ebp-0x4]
D:\OneDrive\Study\Operating Systems\实验\project7\codes/./lib/utilsC.c:49
	for (int i = 0; sen[i]; ++i) {
    21b6:	67 66 ff 45 f8       	inc    DWORD PTR [ebp-0x8]
    21bb:	67 66 8b 55 f8       	mov    edx,DWORD PTR [ebp-0x8]
    21c0:	67 66 8b 45 08       	mov    eax,DWORD PTR [ebp+0x8]
    21c5:	66 01 d0             	add    eax,edx
    21c8:	67 8a 00             	mov    al,BYTE PTR [eax]
    21cb:	84 c0                	test   al,al
    21cd:	75 ce                	jne    219d <_countLines+0x1d>
D:\OneDrive\Study\Operating Systems\实验\project7\codes/./lib/utilsC.c:54
		}
	}
	lines += 1;
    21cf:	67 66 ff 45 fc       	inc    DWORD PTR [ebp-0x4]
D:\OneDrive\Study\Operating Systems\实验\project7\codes/./lib/utilsC.c:55
	return lines;
    21d4:	67 66 8b 45 fc       	mov    eax,DWORD PTR [ebp-0x4]
D:\OneDrive\Study\Operating Systems\实验\project7\codes/./lib/utilsC.c:56
}
    21d9:	66 c9                	leave  
    21db:	66 c3                	ret    

000021dd <_initialScreen>:
initialScreen():
D:\OneDrive\Study\Operating Systems\实验\project7\codes/./lib/utilsC.c:59

void initialScreen(int welcome)
{
    21dd:	66 55                	push   ebp
    21df:	66 89 e5             	mov    ebp,esp
    21e2:	66 83 ec 14          	sub    esp,0x14
D:\OneDrive\Study\Operating Systems\实验\project7\codes/./lib/utilsC.c:60
	clear();
    21e6:	66 e8 d3 00 00 00    	call   22bf <_clear>
D:\OneDrive\Study\Operating Systems\实验\project7\codes/./lib/utilsC.c:61
	if (welcome) {
    21ec:	67 66 83 7d 08 00    	cmp    DWORD PTR [ebp+0x8],0x0
    21f2:	74 63                	je     2257 <_initialScreen+0x7a>
D:\OneDrive\Study\Operating Systems\实验\project7\codes/./lib/utilsC.c:62
		printSentence(WelcomeSentence, line, 0, strlen(WelcomeSentence), white);
    21f4:	66 a1 84 65          	mov    eax,ds:0x6584
    21f8:	67 66 89 04 24       	mov    DWORD PTR [esp],eax
    21fd:	66 e8 16 0a 00 00    	call   2c19 <_strlen>
    2203:	66 89 c1             	mov    ecx,eax
    2206:	66 8b 16 00 92       	mov    edx,DWORD PTR ds:0x9200
    220b:	66 a1 84 65          	mov    eax,ds:0x6584
    220f:	67 66 c7 44 24 10 0f 	mov    DWORD PTR [esp+0x10],0xf
    2216:	00 00 00 
    2219:	67 66 89 4c 24 0c    	mov    DWORD PTR [esp+0xc],ecx
    221f:	67 66 c7 44 24 08 00 	mov    DWORD PTR [esp+0x8],0x0
    2226:	00 00 00 
    2229:	67 66 89 54 24 04    	mov    DWORD PTR [esp+0x4],edx
    222f:	67 66 89 04 24       	mov    DWORD PTR [esp],eax
    2234:	66 e8 6b f3 ff ff    	call   15a5 <_printSentence>
D:\OneDrive\Study\Operating Systems\实验\project7\codes/./lib/utilsC.c:63
		line += countLines(WelcomeSentence);
    223a:	66 a1 84 65          	mov    eax,ds:0x6584
    223e:	67 66 89 04 24       	mov    DWORD PTR [esp],eax
    2243:	66 e8 37 ff ff ff    	call   2180 <_countLines>
    2249:	66 89 c2             	mov    edx,eax
    224c:	66 a1 00 92          	mov    eax,ds:0x9200
    2250:	66 01 d0             	add    eax,edx
    2253:	66 a3 00 92          	mov    ds:0x9200,eax
D:\OneDrive\Study\Operating Systems\实验\project7\codes/./lib/utilsC.c:65
	}
	printSentence(prompt, line, 0, strlen(prompt), white);
    2257:	66 a1 88 65          	mov    eax,ds:0x6588
    225b:	67 66 89 04 24       	mov    DWORD PTR [esp],eax
    2260:	66 e8 b3 09 00 00    	call   2c19 <_strlen>
    2266:	66 89 c1             	mov    ecx,eax
    2269:	66 8b 16 00 92       	mov    edx,DWORD PTR ds:0x9200
    226e:	66 a1 88 65          	mov    eax,ds:0x6588
    2272:	67 66 c7 44 24 10 0f 	mov    DWORD PTR [esp+0x10],0xf
    2279:	00 00 00 
    227c:	67 66 89 4c 24 0c    	mov    DWORD PTR [esp+0xc],ecx
    2282:	67 66 c7 44 24 08 00 	mov    DWORD PTR [esp+0x8],0x0
    2289:	00 00 00 
    228c:	67 66 89 54 24 04    	mov    DWORD PTR [esp+0x4],edx
    2292:	67 66 89 04 24       	mov    DWORD PTR [esp],eax
    2297:	66 e8 08 f3 ff ff    	call   15a5 <_printSentence>
D:\OneDrive\Study\Operating Systems\实验\project7\codes/./lib/utilsC.c:66
	line += countLines(prompt);
    229d:	66 a1 88 65          	mov    eax,ds:0x6588
    22a1:	67 66 89 04 24       	mov    DWORD PTR [esp],eax
    22a6:	66 e8 d4 fe ff ff    	call   2180 <_countLines>
    22ac:	66 89 c2             	mov    edx,eax
    22af:	66 a1 00 92          	mov    eax,ds:0x9200
    22b3:	66 01 d0             	add    eax,edx
    22b6:	66 a3 00 92          	mov    ds:0x9200,eax
D:\OneDrive\Study\Operating Systems\实验\project7\codes/./lib/utilsC.c:67
}
    22ba:	90                   	nop
    22bb:	66 c9                	leave  
    22bd:	66 c3                	ret    

000022bf <_clear>:
clear():
D:\OneDrive\Study\Operating Systems\实验\project7\codes/./lib/utilsC.c:70

void clear()
{
    22bf:	66 55                	push   ebp
    22c1:	66 89 e5             	mov    ebp,esp
D:\OneDrive\Study\Operating Systems\实验\project7\codes/./lib/utilsC.c:71
	line = 0;
    22c4:	66 c7 06 00 92 00 00 	mov    DWORD PTR ds:0x9200,0x0
    22cb:	00 00 
D:\OneDrive\Study\Operating Systems\实验\project7\codes/./lib/utilsC.c:72
	ClearScreen();
    22cd:	66 e8 fd f2 ff ff    	call   15d0 <_ClearScreen>
D:\OneDrive\Study\Operating Systems\实验\project7\codes/./lib/utilsC.c:73
}
    22d3:	90                   	nop
    22d4:	66 5d                	pop    ebp
    22d6:	66 c3                	ret    

000022d8 <_date>:
date():
D:\OneDrive\Study\Operating Systems\实验\project7\codes/./lib/utilsC.c:76

void date()
{
    22d8:	66 55                	push   ebp
    22da:	66 89 e5             	mov    ebp,esp
    22dd:	66 83 ec 18          	sub    esp,0x18
D:\OneDrive\Study\Operating Systems\实验\project7\codes/./lib/utilsC.c:77
	char * dateSen = getDate();
    22e1:	66 e8 af f5 ff ff    	call   1896 <_getDate>
    22e7:	67 66 89 45 fc       	mov    DWORD PTR [ebp-0x4],eax
D:\OneDrive\Study\Operating Systems\实验\project7\codes/./lib/utilsC.c:78
	printSentence(dateSen, line, 30, strlen(dateSen), purple);
    22ec:	67 66 8b 45 fc       	mov    eax,DWORD PTR [ebp-0x4]
    22f1:	67 66 89 04 24       	mov    DWORD PTR [esp],eax
    22f6:	66 e8 1d 09 00 00    	call   2c19 <_strlen>
    22fc:	66 89 c2             	mov    edx,eax
    22ff:	66 a1 00 92          	mov    eax,ds:0x9200
    2303:	67 66 c7 44 24 10 0d 	mov    DWORD PTR [esp+0x10],0xd
    230a:	00 00 00 
    230d:	67 66 89 54 24 0c    	mov    DWORD PTR [esp+0xc],edx
    2313:	67 66 c7 44 24 08 1e 	mov    DWORD PTR [esp+0x8],0x1e
    231a:	00 00 00 
    231d:	67 66 89 44 24 04    	mov    DWORD PTR [esp+0x4],eax
    2323:	67 66 8b 45 fc       	mov    eax,DWORD PTR [ebp-0x4]
    2328:	67 66 89 04 24       	mov    DWORD PTR [esp],eax
    232d:	66 e8 72 f2 ff ff    	call   15a5 <_printSentence>
D:\OneDrive\Study\Operating Systems\实验\project7\codes/./lib/utilsC.c:79
	newline();
    2333:	66 e8 c3 00 00 00    	call   23fc <_newline>
D:\OneDrive\Study\Operating Systems\实验\project7\codes/./lib/utilsC.c:80
	line += countLines(dateSen);
    2339:	67 66 8b 45 fc       	mov    eax,DWORD PTR [ebp-0x4]
    233e:	67 66 89 04 24       	mov    DWORD PTR [esp],eax
    2343:	66 e8 37 fe ff ff    	call   2180 <_countLines>
    2349:	66 89 c2             	mov    edx,eax
    234c:	66 a1 00 92          	mov    eax,ds:0x9200
    2350:	66 01 d0             	add    eax,edx
    2353:	66 a3 00 92          	mov    ds:0x9200,eax
D:\OneDrive\Study\Operating Systems\实验\project7\codes/./lib/utilsC.c:81
}
    2357:	90                   	nop
    2358:	66 c9                	leave  
    235a:	66 c3                	ret    

0000235c <_man>:
man():
D:\OneDrive\Study\Operating Systems\实验\project7\codes/./lib/utilsC.c:85


void man()
{
    235c:	66 55                	push   ebp
    235e:	66 89 e5             	mov    ebp,esp
    2361:	66 83 ec 18          	sub    esp,0x18
D:\OneDrive\Study\Operating Systems\实验\project7\codes/./lib/utilsC.c:86
	char * manual = getRecords(segOfOs, offsetOfManual);
    2365:	67 66 c7 44 24 04 00 	mov    DWORD PTR [esp+0x4],0xd500
    236c:	d5 00 00 
    236f:	67 66 c7 04 24 00 20 	mov    DWORD PTR [esp],0x2000
    2376:	00 00 
    2378:	66 e8 18 fd ff ff    	call   2096 <_getRecords>
    237e:	67 66 89 45 fc       	mov    DWORD PTR [ebp-0x4],eax
D:\OneDrive\Study\Operating Systems\实验\project7\codes/./lib/utilsC.c:87
	line = 0;
    2383:	66 c7 06 00 92 00 00 	mov    DWORD PTR ds:0x9200,0x0
    238a:	00 00 
D:\OneDrive\Study\Operating Systems\实验\project7\codes/./lib/utilsC.c:88
	ClearScreen();
    238c:	66 e8 3e f2 ff ff    	call   15d0 <_ClearScreen>
D:\OneDrive\Study\Operating Systems\实验\project7\codes/./lib/utilsC.c:89
	printSentence(manual, line, 0, strlen(manual), purple);
    2392:	67 66 8b 45 fc       	mov    eax,DWORD PTR [ebp-0x4]
    2397:	67 66 89 04 24       	mov    DWORD PTR [esp],eax
    239c:	66 e8 77 08 00 00    	call   2c19 <_strlen>
    23a2:	66 89 c2             	mov    edx,eax
    23a5:	66 a1 00 92          	mov    eax,ds:0x9200
    23a9:	67 66 c7 44 24 10 0d 	mov    DWORD PTR [esp+0x10],0xd
    23b0:	00 00 00 
    23b3:	67 66 89 54 24 0c    	mov    DWORD PTR [esp+0xc],edx
    23b9:	67 66 c7 44 24 08 00 	mov    DWORD PTR [esp+0x8],0x0
    23c0:	00 00 00 
    23c3:	67 66 89 44 24 04    	mov    DWORD PTR [esp+0x4],eax
    23c9:	67 66 8b 45 fc       	mov    eax,DWORD PTR [ebp-0x4]
    23ce:	67 66 89 04 24       	mov    DWORD PTR [esp],eax
    23d3:	66 e8 cc f1 ff ff    	call   15a5 <_printSentence>
D:\OneDrive\Study\Operating Systems\实验\project7\codes/./lib/utilsC.c:90
	line += countLines(manual);
    23d9:	67 66 8b 45 fc       	mov    eax,DWORD PTR [ebp-0x4]
    23de:	67 66 89 04 24       	mov    DWORD PTR [esp],eax
    23e3:	66 e8 97 fd ff ff    	call   2180 <_countLines>
    23e9:	66 89 c2             	mov    edx,eax
    23ec:	66 a1 00 92          	mov    eax,ds:0x9200
    23f0:	66 01 d0             	add    eax,edx
    23f3:	66 a3 00 92          	mov    ds:0x9200,eax
D:\OneDrive\Study\Operating Systems\实验\project7\codes/./lib/utilsC.c:91
}
    23f7:	90                   	nop
    23f8:	66 c9                	leave  
    23fa:	66 c3                	ret    

000023fc <_newline>:
newline():
D:\OneDrive\Study\Operating Systems\实验\project7\codes/./lib/utilsC.c:94

void newline()
{
    23fc:	66 55                	push   ebp
    23fe:	66 89 e5             	mov    ebp,esp
    2401:	66 83 ec 14          	sub    esp,0x14
D:\OneDrive\Study\Operating Systems\实验\project7\codes/./lib/utilsC.c:95
	if (line >= 25) {
    2405:	66 a1 00 92          	mov    eax,ds:0x9200
    2409:	66 83 f8 18          	cmp    eax,0x18
    240d:	7e 0f                	jle    241e <_newline+0x22>
D:\OneDrive\Study\Operating Systems\实验\project7\codes/./lib/utilsC.c:96
		roll();
    240f:	66 e8 eb f4 ff ff    	call   1900 <_roll>
D:\OneDrive\Study\Operating Systems\实验\project7\codes/./lib/utilsC.c:97
		line = 24;
    2415:	66 c7 06 00 92 18 00 	mov    DWORD PTR ds:0x9200,0x18
    241c:	00 00 
D:\OneDrive\Study\Operating Systems\实验\project7\codes/./lib/utilsC.c:99
	}
	printSentence(prompt, line, 0, strlen(prompt), white);
    241e:	66 a1 88 65          	mov    eax,ds:0x6588
    2422:	67 66 89 04 24       	mov    DWORD PTR [esp],eax
    2427:	66 e8 ec 07 00 00    	call   2c19 <_strlen>
    242d:	66 89 c1             	mov    ecx,eax
    2430:	66 8b 16 00 92       	mov    edx,DWORD PTR ds:0x9200
    2435:	66 a1 88 65          	mov    eax,ds:0x6588
    2439:	67 66 c7 44 24 10 0f 	mov    DWORD PTR [esp+0x10],0xf
    2440:	00 00 00 
    2443:	67 66 89 4c 24 0c    	mov    DWORD PTR [esp+0xc],ecx
    2449:	67 66 c7 44 24 08 00 	mov    DWORD PTR [esp+0x8],0x0
    2450:	00 00 00 
    2453:	67 66 89 54 24 04    	mov    DWORD PTR [esp+0x4],edx
    2459:	67 66 89 04 24       	mov    DWORD PTR [esp],eax
    245e:	66 e8 41 f1 ff ff    	call   15a5 <_printSentence>
D:\OneDrive\Study\Operating Systems\实验\project7\codes/./lib/utilsC.c:100
	line += countLines(prompt);
    2464:	66 a1 88 65          	mov    eax,ds:0x6588
    2468:	67 66 89 04 24       	mov    DWORD PTR [esp],eax
    246d:	66 e8 0d fd ff ff    	call   2180 <_countLines>
    2473:	66 89 c2             	mov    edx,eax
    2476:	66 a1 00 92          	mov    eax,ds:0x9200
    247a:	66 01 d0             	add    eax,edx
    247d:	66 a3 00 92          	mov    ds:0x9200,eax
D:\OneDrive\Study\Operating Systems\实验\project7\codes/./lib/utilsC.c:101
}
    2481:	90                   	nop
    2482:	66 c9                	leave  
    2484:	66 c3                	ret    

00002486 <_ls>:
ls():
D:\OneDrive\Study\Operating Systems\实验\project7\codes/./lib/utilsC.c:104

void ls()
{
    2486:	66 55                	push   ebp
    2488:	66 89 e5             	mov    ebp,esp
    248b:	66 57                	push   edi
    248d:	66 53                	push   ebx
    248f:	66 83 ec 38          	sub    esp,0x38
D:\OneDrive\Study\Operating Systems\实验\project7\codes/./lib/utilsC.c:105
	char * head = "Name           Size           Lma            Type";
    2493:	67 66 c7 45 f0 70 70 	mov    DWORD PTR [ebp-0x10],0x7070
    249a:	00 00 
D:\OneDrive\Study\Operating Systems\实验\project7\codes/./lib/utilsC.c:106
	printSentence(head, line, 10, strlen(head), green);
    249c:	67 66 8b 45 f0       	mov    eax,DWORD PTR [ebp-0x10]
    24a1:	67 66 89 04 24       	mov    DWORD PTR [esp],eax
    24a6:	66 e8 6d 07 00 00    	call   2c19 <_strlen>
    24ac:	66 89 c2             	mov    edx,eax
    24af:	66 a1 00 92          	mov    eax,ds:0x9200
    24b3:	67 66 c7 44 24 10 0a 	mov    DWORD PTR [esp+0x10],0xa
    24ba:	00 00 00 
    24bd:	67 66 89 54 24 0c    	mov    DWORD PTR [esp+0xc],edx
    24c3:	67 66 c7 44 24 08 0a 	mov    DWORD PTR [esp+0x8],0xa
    24ca:	00 00 00 
    24cd:	67 66 89 44 24 04    	mov    DWORD PTR [esp+0x4],eax
    24d3:	67 66 8b 45 f0       	mov    eax,DWORD PTR [ebp-0x10]
    24d8:	67 66 89 04 24       	mov    DWORD PTR [esp],eax
    24dd:	66 e8 c2 f0 ff ff    	call   15a5 <_printSentence>
D:\OneDrive\Study\Operating Systems\实验\project7\codes/./lib/utilsC.c:107
	char typeTable[10][1] = {"N", "D", "E", "F"};
    24e3:	67 66 8d 55 e6       	lea    edx,[ebp-0x1a]
    24e8:	66 b9 0a 00 00 00    	mov    ecx,0xa
    24ee:	b0 00                	mov    al,0x0
    24f0:	66 89 d7             	mov    edi,edx
    24f3:	f3 aa                	rep stos BYTE PTR es:[di],al
    24f5:	67 c6 45 e6 4e       	mov    BYTE PTR [ebp-0x1a],0x4e
    24fa:	67 c6 45 e7 44       	mov    BYTE PTR [ebp-0x19],0x44
    24ff:	67 c6 45 e8 45       	mov    BYTE PTR [ebp-0x18],0x45
    2504:	67 c6 45 e9 46       	mov    BYTE PTR [ebp-0x17],0x46
D:\OneDrive\Study\Operating Systems\实验\project7\codes/./lib/utilsC.c:108
	line += countLines(head);
    2509:	67 66 8b 45 f0       	mov    eax,DWORD PTR [ebp-0x10]
    250e:	67 66 89 04 24       	mov    DWORD PTR [esp],eax
    2513:	66 e8 67 fc ff ff    	call   2180 <_countLines>
    2519:	66 89 c2             	mov    edx,eax
    251c:	66 a1 00 92          	mov    eax,ds:0x9200
    2520:	66 01 d0             	add    eax,edx
    2523:	66 a3 00 92          	mov    ds:0x9200,eax
D:\OneDrive\Study\Operating Systems\实验\project7\codes/./lib/utilsC.c:110
	char tmp[15];
	for (int i = 0; i < Len; ++i)
    2527:	67 66 c7 45 f4 00 00 	mov    DWORD PTR [ebp-0xc],0x0
    252e:	00 00 
    2530:	e9 03 03             	jmp    2836 <_ls+0x3b0>
D:\OneDrive\Study\Operating Systems\实验\project7\codes/./lib/utilsC.c:112
	{
		if (information[i].type != null && information[i].deleted != 1) {
    2533:	67 66 8b 55 f4       	mov    edx,DWORD PTR [ebp-0xc]
    2538:	66 89 d0             	mov    eax,edx
    253b:	66 01 c0             	add    eax,eax
    253e:	66 01 d0             	add    eax,edx
    2541:	66 c1 e0 02          	shl    eax,0x2
    2545:	66 01 d0             	add    eax,edx
    2548:	66 c1 e0 02          	shl    eax,0x2
    254c:	66 05 00 af 00 00    	add    eax,0xaf00
    2552:	67 66 8b 00          	mov    eax,DWORD PTR [eax]
    2556:	66 85 c0             	test   eax,eax
    2559:	0f 84 d4 02          	je     2831 <_ls+0x3ab>
    255d:	67 66 8b 55 f4       	mov    edx,DWORD PTR [ebp-0xc]
    2562:	66 89 d0             	mov    eax,edx
    2565:	66 01 c0             	add    eax,eax
    2568:	66 01 d0             	add    eax,edx
    256b:	66 c1 e0 02          	shl    eax,0x2
    256f:	66 01 d0             	add    eax,edx
    2572:	66 c1 e0 02          	shl    eax,0x2
    2576:	66 05 0c af 00 00    	add    eax,0xaf0c
    257c:	67 66 8b 00          	mov    eax,DWORD PTR [eax]
    2580:	66 83 f8 01          	cmp    eax,0x1
    2584:	0f 84 a9 02          	je     2831 <_ls+0x3ab>
D:\OneDrive\Study\Operating Systems\实验\project7\codes/./lib/utilsC.c:113
			printSentence(information[i].name, line, 10, strlen(information[i].name), purple);
    2588:	67 66 8b 55 f4       	mov    edx,DWORD PTR [ebp-0xc]
    258d:	66 89 d0             	mov    eax,edx
    2590:	66 01 c0             	add    eax,eax
    2593:	66 01 d0             	add    eax,edx
    2596:	66 c1 e0 02          	shl    eax,0x2
    259a:	66 01 d0             	add    eax,edx
    259d:	66 c1 e0 02          	shl    eax,0x2
    25a1:	66 05 e0 ae 00 00    	add    eax,0xaee0
    25a7:	67 66 89 04 24       	mov    DWORD PTR [esp],eax
    25ac:	66 e8 67 06 00 00    	call   2c19 <_strlen>
    25b2:	66 89 c3             	mov    ebx,eax
    25b5:	66 8b 0e 00 92       	mov    ecx,DWORD PTR ds:0x9200
    25ba:	67 66 8b 55 f4       	mov    edx,DWORD PTR [ebp-0xc]
    25bf:	66 89 d0             	mov    eax,edx
    25c2:	66 01 c0             	add    eax,eax
    25c5:	66 01 d0             	add    eax,edx
    25c8:	66 c1 e0 02          	shl    eax,0x2
    25cc:	66 01 d0             	add    eax,edx
    25cf:	66 c1 e0 02          	shl    eax,0x2
    25d3:	66 05 e0 ae 00 00    	add    eax,0xaee0
    25d9:	67 66 c7 44 24 10 0d 	mov    DWORD PTR [esp+0x10],0xd
    25e0:	00 00 00 
    25e3:	67 66 89 5c 24 0c    	mov    DWORD PTR [esp+0xc],ebx
    25e9:	67 66 c7 44 24 08 0a 	mov    DWORD PTR [esp+0x8],0xa
    25f0:	00 00 00 
    25f3:	67 66 89 4c 24 04    	mov    DWORD PTR [esp+0x4],ecx
    25f9:	67 66 89 04 24       	mov    DWORD PTR [esp],eax
    25fe:	66 e8 a1 ef ff ff    	call   15a5 <_printSentence>
D:\OneDrive\Study\Operating Systems\实验\project7\codes/./lib/utilsC.c:114
			if (information[i].size == 0) {
    2604:	67 66 8b 55 f4       	mov    edx,DWORD PTR [ebp-0xc]
    2609:	66 89 d0             	mov    eax,edx
    260c:	66 01 c0             	add    eax,eax
    260f:	66 01 d0             	add    eax,edx
    2612:	66 c1 e0 02          	shl    eax,0x2
    2616:	66 01 d0             	add    eax,edx
    2619:	66 c1 e0 02          	shl    eax,0x2
    261d:	66 05 08 af 00 00    	add    eax,0xaf08
    2623:	67 66 8b 00          	mov    eax,DWORD PTR [eax]
    2627:	66 85 c0             	test   eax,eax
    262a:	75 3a                	jne    2666 <_ls+0x1e0>
D:\OneDrive\Study\Operating Systems\实验\project7\codes/./lib/utilsC.c:115
				printSentence("--", line, 25, 2, purple);
    262c:	66 a1 00 92          	mov    eax,ds:0x9200
    2630:	67 66 c7 44 24 10 0d 	mov    DWORD PTR [esp+0x10],0xd
    2637:	00 00 00 
    263a:	67 66 c7 44 24 0c 02 	mov    DWORD PTR [esp+0xc],0x2
    2641:	00 00 00 
    2644:	67 66 c7 44 24 08 19 	mov    DWORD PTR [esp+0x8],0x19
    264b:	00 00 00 
    264e:	67 66 89 44 24 04    	mov    DWORD PTR [esp+0x4],eax
    2654:	67 66 c7 04 24 a2 70 	mov    DWORD PTR [esp],0x70a2
    265b:	00 00 
    265d:	66 e8 42 ef ff ff    	call   15a5 <_printSentence>
    2663:	e9 80 00             	jmp    26e6 <_ls+0x260>
D:\OneDrive\Study\Operating Systems\实验\project7\codes/./lib/utilsC.c:117
			} else {
				int2str(information[i].size, tmp);
    2666:	67 66 8b 55 f4       	mov    edx,DWORD PTR [ebp-0xc]
    266b:	66 89 d0             	mov    eax,edx
    266e:	66 01 c0             	add    eax,eax
    2671:	66 01 d0             	add    eax,edx
    2674:	66 c1 e0 02          	shl    eax,0x2
    2678:	66 01 d0             	add    eax,edx
    267b:	66 c1 e0 02          	shl    eax,0x2
    267f:	66 05 08 af 00 00    	add    eax,0xaf08
    2685:	67 66 8b 00          	mov    eax,DWORD PTR [eax]
    2689:	67 66 8d 55 d7       	lea    edx,[ebp-0x29]
    268e:	67 66 89 54 24 04    	mov    DWORD PTR [esp+0x4],edx
    2694:	67 66 89 04 24       	mov    DWORD PTR [esp],eax
    2699:	66 e8 cf 07 00 00    	call   2e6e <_int2str>
D:\OneDrive\Study\Operating Systems\实验\project7\codes/./lib/utilsC.c:118
				printSentence(tmp, line, 25, strlen(tmp), purple);
    269f:	67 66 8d 45 d7       	lea    eax,[ebp-0x29]
    26a4:	67 66 89 04 24       	mov    DWORD PTR [esp],eax
    26a9:	66 e8 6a 05 00 00    	call   2c19 <_strlen>
    26af:	66 89 c2             	mov    edx,eax
    26b2:	66 a1 00 92          	mov    eax,ds:0x9200
    26b6:	67 66 c7 44 24 10 0d 	mov    DWORD PTR [esp+0x10],0xd
    26bd:	00 00 00 
    26c0:	67 66 89 54 24 0c    	mov    DWORD PTR [esp+0xc],edx
    26c6:	67 66 c7 44 24 08 19 	mov    DWORD PTR [esp+0x8],0x19
    26cd:	00 00 00 
    26d0:	67 66 89 44 24 04    	mov    DWORD PTR [esp+0x4],eax
    26d6:	67 66 8d 45 d7       	lea    eax,[ebp-0x29]
    26db:	67 66 89 04 24       	mov    DWORD PTR [esp],eax
    26e0:	66 e8 bf ee ff ff    	call   15a5 <_printSentence>
D:\OneDrive\Study\Operating Systems\实验\project7\codes/./lib/utilsC.c:120
			}
			if (information[i].lmaddress == 0) {
    26e6:	67 66 8b 55 f4       	mov    edx,DWORD PTR [ebp-0xc]
    26eb:	66 89 d0             	mov    eax,edx
    26ee:	66 01 c0             	add    eax,eax
    26f1:	66 01 d0             	add    eax,edx
    26f4:	66 c1 e0 02          	shl    eax,0x2
    26f8:	66 01 d0             	add    eax,edx
    26fb:	66 c1 e0 02          	shl    eax,0x2
    26ff:	66 05 04 af 00 00    	add    eax,0xaf04
    2705:	67 66 8b 00          	mov    eax,DWORD PTR [eax]
    2709:	66 85 c0             	test   eax,eax
    270c:	75 3a                	jne    2748 <_ls+0x2c2>
D:\OneDrive\Study\Operating Systems\实验\project7\codes/./lib/utilsC.c:121
				printSentence("--", line, 40, 2, purple);
    270e:	66 a1 00 92          	mov    eax,ds:0x9200
    2712:	67 66 c7 44 24 10 0d 	mov    DWORD PTR [esp+0x10],0xd
    2719:	00 00 00 
    271c:	67 66 c7 44 24 0c 02 	mov    DWORD PTR [esp+0xc],0x2
    2723:	00 00 00 
    2726:	67 66 c7 44 24 08 28 	mov    DWORD PTR [esp+0x8],0x28
    272d:	00 00 00 
    2730:	67 66 89 44 24 04    	mov    DWORD PTR [esp+0x4],eax
    2736:	67 66 c7 04 24 a2 70 	mov    DWORD PTR [esp],0x70a2
    273d:	00 00 
    273f:	66 e8 60 ee ff ff    	call   15a5 <_printSentence>
    2745:	e9 80 00             	jmp    27c8 <_ls+0x342>
D:\OneDrive\Study\Operating Systems\实验\project7\codes/./lib/utilsC.c:123
			} else {
				int2str(information[i].lmaddress, tmp);
    2748:	67 66 8b 55 f4       	mov    edx,DWORD PTR [ebp-0xc]
    274d:	66 89 d0             	mov    eax,edx
    2750:	66 01 c0             	add    eax,eax
    2753:	66 01 d0             	add    eax,edx
    2756:	66 c1 e0 02          	shl    eax,0x2
    275a:	66 01 d0             	add    eax,edx
    275d:	66 c1 e0 02          	shl    eax,0x2
    2761:	66 05 04 af 00 00    	add    eax,0xaf04
    2767:	67 66 8b 00          	mov    eax,DWORD PTR [eax]
    276b:	67 66 8d 55 d7       	lea    edx,[ebp-0x29]
    2770:	67 66 89 54 24 04    	mov    DWORD PTR [esp+0x4],edx
    2776:	67 66 89 04 24       	mov    DWORD PTR [esp],eax
    277b:	66 e8 ed 06 00 00    	call   2e6e <_int2str>
D:\OneDrive\Study\Operating Systems\实验\project7\codes/./lib/utilsC.c:124
				printSentence(tmp, line, 40, strlen(tmp), purple);
    2781:	67 66 8d 45 d7       	lea    eax,[ebp-0x29]
    2786:	67 66 89 04 24       	mov    DWORD PTR [esp],eax
    278b:	66 e8 88 04 00 00    	call   2c19 <_strlen>
    2791:	66 89 c2             	mov    edx,eax
    2794:	66 a1 00 92          	mov    eax,ds:0x9200
    2798:	67 66 c7 44 24 10 0d 	mov    DWORD PTR [esp+0x10],0xd
    279f:	00 00 00 
    27a2:	67 66 89 54 24 0c    	mov    DWORD PTR [esp+0xc],edx
    27a8:	67 66 c7 44 24 08 28 	mov    DWORD PTR [esp+0x8],0x28
    27af:	00 00 00 
    27b2:	67 66 89 44 24 04    	mov    DWORD PTR [esp+0x4],eax
    27b8:	67 66 8d 45 d7       	lea    eax,[ebp-0x29]
    27bd:	67 66 89 04 24       	mov    DWORD PTR [esp],eax
    27c2:	66 e8 dd ed ff ff    	call   15a5 <_printSentence>
D:\OneDrive\Study\Operating Systems\实验\project7\codes/./lib/utilsC.c:126
			}
			printSentence(typeTable[information[i].type], line, 55, 1, purple);
    27c8:	66 8b 0e 00 92       	mov    ecx,DWORD PTR ds:0x9200
    27cd:	67 66 8b 55 f4       	mov    edx,DWORD PTR [ebp-0xc]
    27d2:	66 89 d0             	mov    eax,edx
    27d5:	66 01 c0             	add    eax,eax
    27d8:	66 01 d0             	add    eax,edx
    27db:	66 c1 e0 02          	shl    eax,0x2
    27df:	66 01 d0             	add    eax,edx
    27e2:	66 c1 e0 02          	shl    eax,0x2
    27e6:	66 05 00 af 00 00    	add    eax,0xaf00
    27ec:	67 66 8b 00          	mov    eax,DWORD PTR [eax]
    27f0:	67 66 8d 55 e6       	lea    edx,[ebp-0x1a]
    27f5:	66 01 d0             	add    eax,edx
    27f8:	67 66 c7 44 24 10 0d 	mov    DWORD PTR [esp+0x10],0xd
    27ff:	00 00 00 
    2802:	67 66 c7 44 24 0c 01 	mov    DWORD PTR [esp+0xc],0x1
    2809:	00 00 00 
    280c:	67 66 c7 44 24 08 37 	mov    DWORD PTR [esp+0x8],0x37
    2813:	00 00 00 
    2816:	67 66 89 4c 24 04    	mov    DWORD PTR [esp+0x4],ecx
    281c:	67 66 89 04 24       	mov    DWORD PTR [esp],eax
    2821:	66 e8 7e ed ff ff    	call   15a5 <_printSentence>
D:\OneDrive\Study\Operating Systems\实验\project7\codes/./lib/utilsC.c:127
			line += 1;
    2827:	66 a1 00 92          	mov    eax,ds:0x9200
    282b:	66 40                	inc    eax
    282d:	66 a3 00 92          	mov    ds:0x9200,eax
D:\OneDrive\Study\Operating Systems\实验\project7\codes/./lib/utilsC.c:110
	for (int i = 0; i < Len; ++i)
    2831:	67 66 ff 45 f4       	inc    DWORD PTR [ebp-0xc]
    2836:	67 66 83 7d f4 13    	cmp    DWORD PTR [ebp-0xc],0x13
    283c:	0f 8e f3 fc          	jle    2533 <_ls+0xad>
D:\OneDrive\Study\Operating Systems\实验\project7\codes/./lib/utilsC.c:130
		}
	}
}
    2840:	90                   	nop
    2841:	66 83 c4 38          	add    esp,0x38
    2845:	66 5b                	pop    ebx
    2847:	66 5f                	pop    edi
    2849:	66 5d                	pop    ebp
    284b:	66 c3                	ret    

0000284d <_ps>:
ps():
D:\OneDrive\Study\Operating Systems\实验\project7\codes/./lib/utilsC.c:133

void ps()
{
    284d:	66 55                	push   ebp
    284f:	66 89 e5             	mov    ebp,esp
    2852:	66 57                	push   edi
    2854:	66 56                	push   esi
    2856:	66 53                	push   ebx
    2858:	66 83 ec 7c          	sub    esp,0x7c
D:\OneDrive\Study\Operating Systems\实验\project7\codes/./lib/utilsC.c:134
	char * head = "Id  ProcessName       Status\n";
    285c:	67 66 c7 45 ec a5 70 	mov    DWORD PTR [ebp-0x14],0x70a5
    2863:	00 00 
D:\OneDrive\Study\Operating Systems\实验\project7\codes/./lib/utilsC.c:135
	char status[6][10] = {"Origin", "ready", "running", "blocked", "suspend", "exit"};
    2865:	67 66 8d 45 ac       	lea    eax,[ebp-0x54]
    286a:	66 bb a0 65 00 00    	mov    ebx,0x65a0
    2870:	66 ba 0f 00 00 00    	mov    edx,0xf
    2876:	66 89 c7             	mov    edi,eax
    2879:	66 89 de             	mov    esi,ebx
    287c:	66 89 d1             	mov    ecx,edx
    287f:	66 f3 a5             	rep movs DWORD PTR es:[di],DWORD PTR ds:[si]
D:\OneDrive\Study\Operating Systems\实验\project7\codes/./lib/utilsC.c:136
	int begin = 20;
    2882:	67 66 c7 45 e8 14 00 	mov    DWORD PTR [ebp-0x18],0x14
    2889:	00 00 
D:\OneDrive\Study\Operating Systems\实验\project7\codes/./lib/utilsC.c:137
	printSentence(head, line++, begin, strlen(head), purple);
    288b:	67 66 8b 45 ec       	mov    eax,DWORD PTR [ebp-0x14]
    2890:	67 66 89 04 24       	mov    DWORD PTR [esp],eax
    2895:	66 e8 7e 03 00 00    	call   2c19 <_strlen>
    289b:	66 89 c2             	mov    edx,eax
    289e:	66 a1 00 92          	mov    eax,ds:0x9200
    28a2:	67 66 8d 48 01       	lea    ecx,[eax+0x1]
    28a7:	66 89 0e 00 92       	mov    DWORD PTR ds:0x9200,ecx
    28ac:	67 66 c7 44 24 10 0d 	mov    DWORD PTR [esp+0x10],0xd
    28b3:	00 00 00 
    28b6:	67 66 89 54 24 0c    	mov    DWORD PTR [esp+0xc],edx
    28bc:	67 66 8b 55 e8       	mov    edx,DWORD PTR [ebp-0x18]
    28c1:	67 66 89 54 24 08    	mov    DWORD PTR [esp+0x8],edx
    28c7:	67 66 89 44 24 04    	mov    DWORD PTR [esp+0x4],eax
    28cd:	67 66 8b 45 ec       	mov    eax,DWORD PTR [ebp-0x14]
    28d2:	67 66 89 04 24       	mov    DWORD PTR [esp],eax
    28d7:	66 e8 c8 ec ff ff    	call   15a5 <_printSentence>
D:\OneDrive\Study\Operating Systems\实验\project7\codes/./lib/utilsC.c:139
	char str[30];
	for (int i = 0; i < Len; ++i)
    28dd:	67 66 c7 45 f0 00 00 	mov    DWORD PTR [ebp-0x10],0x0
    28e4:	00 00 
    28e6:	e9 05 02             	jmp    2aee <_ps+0x2a1>
D:\OneDrive\Study\Operating Systems\实验\project7\codes/./lib/utilsC.c:141
	{
		if (processTable[i].id != -1 && processTable[i].status != Origin)
    28e9:	67 66 8b 55 f0       	mov    edx,DWORD PTR [ebp-0x10]
    28ee:	66 89 d0             	mov    eax,edx
    28f1:	66 c1 e0 03          	shl    eax,0x3
    28f5:	66 01 d0             	add    eax,edx
    28f8:	66 c1 e0 04          	shl    eax,0x4
    28fc:	66 05 84 b3 00 00    	add    eax,0xb384
    2902:	67 66 8b 00          	mov    eax,DWORD PTR [eax]
    2906:	66 83 f8 ff          	cmp    eax,0xffffffff
    290a:	0f 84 db 01          	je     2ae9 <_ps+0x29c>
    290e:	67 66 8b 55 f0       	mov    edx,DWORD PTR [ebp-0x10]
    2913:	66 89 d0             	mov    eax,edx
    2916:	66 c1 e0 03          	shl    eax,0x3
    291a:	66 01 d0             	add    eax,edx
    291d:	66 c1 e0 04          	shl    eax,0x4
    2921:	66 05 ec b3 00 00    	add    eax,0xb3ec
    2927:	67 66 8b 00          	mov    eax,DWORD PTR [eax]
    292b:	66 85 c0             	test   eax,eax
    292e:	0f 84 b7 01          	je     2ae9 <_ps+0x29c>
D:\OneDrive\Study\Operating Systems\实验\project7\codes/./lib/utilsC.c:143
		{
			int2str(processTable[i].id, str);
    2932:	67 66 8b 55 f0       	mov    edx,DWORD PTR [ebp-0x10]
    2937:	66 89 d0             	mov    eax,edx
    293a:	66 c1 e0 03          	shl    eax,0x3
    293e:	66 01 d0             	add    eax,edx
    2941:	66 c1 e0 04          	shl    eax,0x4
    2945:	66 05 84 b3 00 00    	add    eax,0xb384
    294b:	67 66 8b 00          	mov    eax,DWORD PTR [eax]
    294f:	67 66 8d 55 8e       	lea    edx,[ebp-0x72]
    2954:	67 66 89 54 24 04    	mov    DWORD PTR [esp+0x4],edx
    295a:	67 66 89 04 24       	mov    DWORD PTR [esp],eax
    295f:	66 e8 09 05 00 00    	call   2e6e <_int2str>
D:\OneDrive\Study\Operating Systems\实验\project7\codes/./lib/utilsC.c:144
			printSentence(str, line, begin + 1, strlen(str), purple);
    2965:	67 66 8d 45 8e       	lea    eax,[ebp-0x72]
    296a:	67 66 89 04 24       	mov    DWORD PTR [esp],eax
    296f:	66 e8 a4 02 00 00    	call   2c19 <_strlen>
    2975:	66 89 c2             	mov    edx,eax
    2978:	67 66 8b 45 e8       	mov    eax,DWORD PTR [ebp-0x18]
    297d:	67 66 8d 48 01       	lea    ecx,[eax+0x1]
    2982:	66 a1 00 92          	mov    eax,ds:0x9200
    2986:	67 66 c7 44 24 10 0d 	mov    DWORD PTR [esp+0x10],0xd
    298d:	00 00 00 
    2990:	67 66 89 54 24 0c    	mov    DWORD PTR [esp+0xc],edx
    2996:	67 66 89 4c 24 08    	mov    DWORD PTR [esp+0x8],ecx
    299c:	67 66 89 44 24 04    	mov    DWORD PTR [esp+0x4],eax
    29a2:	67 66 8d 45 8e       	lea    eax,[ebp-0x72]
    29a7:	67 66 89 04 24       	mov    DWORD PTR [esp],eax
    29ac:	66 e8 f3 eb ff ff    	call   15a5 <_printSentence>
D:\OneDrive\Study\Operating Systems\实验\project7\codes/./lib/utilsC.c:145
			printSentence(processTable[i].name, line, begin + 5, strlen(processTable[i].name), purple);
    29b2:	67 66 8b 55 f0       	mov    edx,DWORD PTR [ebp-0x10]
    29b7:	66 89 d0             	mov    eax,edx
    29ba:	66 c1 e0 03          	shl    eax,0x3
    29be:	66 01 d0             	add    eax,edx
    29c1:	66 c1 e0 04          	shl    eax,0x4
    29c5:	66 83 c0 30          	add    eax,0x30
    29c9:	66 05 60 b3 00 00    	add    eax,0xb360
    29cf:	66 83 c0 04          	add    eax,0x4
    29d3:	67 66 89 04 24       	mov    DWORD PTR [esp],eax
    29d8:	66 e8 3b 02 00 00    	call   2c19 <_strlen>
    29de:	66 89 c1             	mov    ecx,eax
    29e1:	67 66 8b 45 e8       	mov    eax,DWORD PTR [ebp-0x18]
    29e6:	67 66 8d 70 05       	lea    esi,[eax+0x5]
    29eb:	66 8b 16 00 92       	mov    edx,DWORD PTR ds:0x9200
    29f0:	67 66 8b 5d f0       	mov    ebx,DWORD PTR [ebp-0x10]
    29f5:	66 89 d8             	mov    eax,ebx
    29f8:	66 c1 e0 03          	shl    eax,0x3
    29fc:	66 01 d8             	add    eax,ebx
    29ff:	66 c1 e0 04          	shl    eax,0x4
    2a03:	66 83 c0 30          	add    eax,0x30
    2a07:	66 05 60 b3 00 00    	add    eax,0xb360
    2a0d:	66 83 c0 04          	add    eax,0x4
    2a11:	67 66 c7 44 24 10 0d 	mov    DWORD PTR [esp+0x10],0xd
    2a18:	00 00 00 
    2a1b:	67 66 89 4c 24 0c    	mov    DWORD PTR [esp+0xc],ecx
    2a21:	67 66 89 74 24 08    	mov    DWORD PTR [esp+0x8],esi
    2a27:	67 66 89 54 24 04    	mov    DWORD PTR [esp+0x4],edx
    2a2d:	67 66 89 04 24       	mov    DWORD PTR [esp],eax
    2a32:	66 e8 6d eb ff ff    	call   15a5 <_printSentence>
D:\OneDrive\Study\Operating Systems\实验\project7\codes/./lib/utilsC.c:146
			printSentence(status[processTable[i].status], line++, begin + 23, strlen(status[processTable[i].status]), purple);
    2a38:	67 66 8b 55 f0       	mov    edx,DWORD PTR [ebp-0x10]
    2a3d:	66 89 d0             	mov    eax,edx
    2a40:	66 c1 e0 03          	shl    eax,0x3
    2a44:	66 01 d0             	add    eax,edx
    2a47:	66 c1 e0 04          	shl    eax,0x4
    2a4b:	66 05 ec b3 00 00    	add    eax,0xb3ec
    2a51:	67 66 8b 10          	mov    edx,DWORD PTR [eax]
    2a55:	67 66 8d 4d ac       	lea    ecx,[ebp-0x54]
    2a5a:	66 89 d0             	mov    eax,edx
    2a5d:	66 c1 e0 02          	shl    eax,0x2
    2a61:	66 01 d0             	add    eax,edx
    2a64:	66 01 c0             	add    eax,eax
    2a67:	66 01 c8             	add    eax,ecx
    2a6a:	67 66 89 04 24       	mov    DWORD PTR [esp],eax
    2a6f:	66 e8 a4 01 00 00    	call   2c19 <_strlen>
    2a75:	66 89 c1             	mov    ecx,eax
    2a78:	67 66 8b 45 e8       	mov    eax,DWORD PTR [ebp-0x18]
    2a7d:	67 66 8d 70 17       	lea    esi,[eax+0x17]
    2a82:	66 8b 16 00 92       	mov    edx,DWORD PTR ds:0x9200
    2a87:	67 66 8d 42 01       	lea    eax,[edx+0x1]
    2a8c:	66 a3 00 92          	mov    ds:0x9200,eax
    2a90:	67 66 8b 5d f0       	mov    ebx,DWORD PTR [ebp-0x10]
    2a95:	66 89 d8             	mov    eax,ebx
    2a98:	66 c1 e0 03          	shl    eax,0x3
    2a9c:	66 01 d8             	add    eax,ebx
    2a9f:	66 c1 e0 04          	shl    eax,0x4
    2aa3:	66 05 ec b3 00 00    	add    eax,0xb3ec
    2aa9:	67 66 8b 18          	mov    ebx,DWORD PTR [eax]
    2aad:	67 66 8d 7d ac       	lea    edi,[ebp-0x54]
    2ab2:	66 89 d8             	mov    eax,ebx
    2ab5:	66 c1 e0 02          	shl    eax,0x2
    2ab9:	66 01 d8             	add    eax,ebx
    2abc:	66 01 c0             	add    eax,eax
    2abf:	66 01 f8             	add    eax,edi
    2ac2:	67 66 c7 44 24 10 0d 	mov    DWORD PTR [esp+0x10],0xd
    2ac9:	00 00 00 
    2acc:	67 66 89 4c 24 0c    	mov    DWORD PTR [esp+0xc],ecx
    2ad2:	67 66 89 74 24 08    	mov    DWORD PTR [esp+0x8],esi
    2ad8:	67 66 89 54 24 04    	mov    DWORD PTR [esp+0x4],edx
    2ade:	67 66 89 04 24       	mov    DWORD PTR [esp],eax
    2ae3:	66 e8 bc ea ff ff    	call   15a5 <_printSentence>
D:\OneDrive\Study\Operating Systems\实验\project7\codes/./lib/utilsC.c:139
	for (int i = 0; i < Len; ++i)
    2ae9:	67 66 ff 45 f0       	inc    DWORD PTR [ebp-0x10]
    2aee:	67 66 83 7d f0 13    	cmp    DWORD PTR [ebp-0x10],0x13
    2af4:	0f 8e f1 fd          	jle    28e9 <_ps+0x9c>
D:\OneDrive\Study\Operating Systems\实验\project7\codes/./lib/utilsC.c:149
		}
	}
}
    2af8:	90                   	nop
    2af9:	66 83 c4 7c          	add    esp,0x7c
    2afd:	66 5b                	pop    ebx
    2aff:	66 5e                	pop    esi
    2b01:	66 5f                	pop    edi
    2b03:	66 5d                	pop    ebp
    2b05:	66 c3                	ret    

00002b07 <_kill>:
kill():
D:\OneDrive\Study\Operating Systems\实验\project7\codes/./lib/utilsC.c:152

void kill(int id)
{
    2b07:	66 55                	push   ebp
    2b09:	66 89 e5             	mov    ebp,esp
    2b0c:	66 83 ec 08          	sub    esp,0x8
D:\OneDrive\Study\Operating Systems\实验\project7\codes/./lib/utilsC.c:153
	if (id != 0) {
    2b10:	67 66 83 7d 08 00    	cmp    DWORD PTR [ebp+0x8],0x0
    2b16:	0f 84 c5 00          	je     2bdf <_kill+0xd8>
D:\OneDrive\Study\Operating Systems\实验\project7\codes/./lib/utilsC.c:154
		--ProcessSize;
    2b1a:	66 a1 fc 96          	mov    eax,ds:0x96fc
    2b1e:	66 48                	dec    eax
    2b20:	66 a3 fc 96          	mov    ds:0x96fc,eax
D:\OneDrive\Study\Operating Systems\实验\project7\codes/./lib/utilsC.c:155
		processTable[id].status = exit;
    2b24:	67 66 8b 55 08       	mov    edx,DWORD PTR [ebp+0x8]
    2b29:	66 89 d0             	mov    eax,edx
    2b2c:	66 c1 e0 03          	shl    eax,0x3
    2b30:	66 01 d0             	add    eax,edx
    2b33:	66 c1 e0 04          	shl    eax,0x4
    2b37:	66 05 ec b3 00 00    	add    eax,0xb3ec
    2b3d:	67 66 c7 00 05 00 00 	mov    DWORD PTR [eax],0x5
    2b44:	00 
D:\OneDrive\Study\Operating Systems\实验\project7\codes/./lib/utilsC.c:156
		processTable[id].id = -1;
    2b45:	67 66 8b 55 08       	mov    edx,DWORD PTR [ebp+0x8]
    2b4a:	66 89 d0             	mov    eax,edx
    2b4d:	66 c1 e0 03          	shl    eax,0x3
    2b51:	66 01 d0             	add    eax,edx
    2b54:	66 c1 e0 04          	shl    eax,0x4
    2b58:	66 05 84 b3 00 00    	add    eax,0xb384
    2b5e:	67 66 c7 00 ff ff ff 	mov    DWORD PTR [eax],0xffffffff
    2b65:	ff 
D:\OneDrive\Study\Operating Systems\实验\project7\codes/./lib/utilsC.c:157
		release(memoryTable[processTable[id].blockNum].beginAddr, memoryTable[processTable[id].blockNum].endAddr);
    2b66:	67 66 8b 55 08       	mov    edx,DWORD PTR [ebp+0x8]
    2b6b:	66 89 d0             	mov    eax,edx
    2b6e:	66 c1 e0 03          	shl    eax,0x3
    2b72:	66 01 d0             	add    eax,edx
    2b75:	66 c1 e0 04          	shl    eax,0x4
    2b79:	66 05 88 b3 00 00    	add    eax,0xb388
    2b7f:	67 66 8b 10          	mov    edx,DWORD PTR [eax]
    2b83:	66 89 d0             	mov    eax,edx
    2b86:	66 01 c0             	add    eax,eax
    2b89:	66 01 d0             	add    eax,edx
    2b8c:	66 c1 e0 03          	shl    eax,0x3
    2b90:	66 05 e4 92 00 00    	add    eax,0x92e4
    2b96:	67 66 8b 10          	mov    edx,DWORD PTR [eax]
    2b9a:	67 66 8b 4d 08       	mov    ecx,DWORD PTR [ebp+0x8]
    2b9f:	66 89 c8             	mov    eax,ecx
    2ba2:	66 c1 e0 03          	shl    eax,0x3
    2ba6:	66 01 c8             	add    eax,ecx
    2ba9:	66 c1 e0 04          	shl    eax,0x4
    2bad:	66 05 88 b3 00 00    	add    eax,0xb388
    2bb3:	67 66 8b 08          	mov    ecx,DWORD PTR [eax]
    2bb7:	66 89 c8             	mov    eax,ecx
    2bba:	66 01 c0             	add    eax,eax
    2bbd:	66 01 c8             	add    eax,ecx
    2bc0:	66 c1 e0 03          	shl    eax,0x3
    2bc4:	66 05 e0 92 00 00    	add    eax,0x92e0
    2bca:	67 66 8b 00          	mov    eax,DWORD PTR [eax]
    2bce:	67 66 89 54 24 04    	mov    DWORD PTR [esp+0x4],edx
    2bd4:	67 66 89 04 24       	mov    DWORD PTR [esp],eax
    2bd9:	66 e8 3a 2e 00 00    	call   5a19 <_release>
D:\OneDrive\Study\Operating Systems\实验\project7\codes/./lib/utilsC.c:159
	}
}
    2bdf:	90                   	nop
    2be0:	66 c9                	leave  
    2be2:	66 c3                	ret    

00002be4 <_initial>:
initial():
D:\OneDrive\Study\Operating Systems\实验\project7\codes/./lib/utilsC.c:162

void initial()
{
    2be4:	66 55                	push   ebp
    2be6:	66 89 e5             	mov    ebp,esp
    2be9:	66 83 ec 04          	sub    esp,0x4
D:\OneDrive\Study\Operating Systems\实验\project7\codes/./lib/utilsC.c:163
	initialFile();
    2bed:	66 e8 5f 06 00 00    	call   3252 <_initialFile>
D:\OneDrive\Study\Operating Systems\实验\project7\codes/./lib/utilsC.c:164
	initialScreen(1);
    2bf3:	67 66 c7 04 24 01 00 	mov    DWORD PTR [esp],0x1
    2bfa:	00 00 
    2bfc:	66 e8 db f5 ff ff    	call   21dd <_initialScreen>
D:\OneDrive\Study\Operating Systems\实验\project7\codes/./lib/utilsC.c:165
	initialProcessTable();
    2c02:	66 e8 22 0b 00 00    	call   372a <_initialProcessTable>
D:\OneDrive\Study\Operating Systems\实验\project7\codes/./lib/utilsC.c:166
	initialMemoryTable();
    2c08:	66 e8 b2 20 00 00    	call   4cc0 <_initialMemoryTable>
D:\OneDrive\Study\Operating Systems\实验\project7\codes/./lib/utilsC.c:167
	initSemaphore();
    2c0e:	66 e8 21 32 00 00    	call   5e35 <_initSemaphore>
D:\OneDrive\Study\Operating Systems\实验\project7\codes/./lib/utilsC.c:168
}
    2c14:	90                   	nop
    2c15:	66 c9                	leave  
    2c17:	66 c3                	ret    

00002c19 <_strlen>:
strlen():
D:\OneDrive\Study\Operating Systems\实验\project7\codes/./lib/utilsC.c:175


//////////// string /////////////////
// 垄芒路没麓庐陋'0'陆谩虏隆拢
int strlen(char * sen)
{
    2c19:	66 55                	push   ebp
    2c1b:	66 89 e5             	mov    ebp,esp
    2c1e:	66 83 ec 04          	sub    esp,0x4
D:\OneDrive\Study\Operating Systems\实验\project7\codes/./lib/utilsC.c:176
	int i = 0;
    2c22:	67 66 c7 45 fc 00 00 	mov    DWORD PTR [ebp-0x4],0x0
    2c29:	00 00 
D:\OneDrive\Study\Operating Systems\实验\project7\codes/./lib/utilsC.c:177
	while (sen[i]) { ++i; }
    2c2b:	eb 05                	jmp    2c32 <_strlen+0x19>
    2c2d:	67 66 ff 45 fc       	inc    DWORD PTR [ebp-0x4]
    2c32:	67 66 8b 55 fc       	mov    edx,DWORD PTR [ebp-0x4]
    2c37:	67 66 8b 45 08       	mov    eax,DWORD PTR [ebp+0x8]
    2c3c:	66 01 d0             	add    eax,edx
    2c3f:	67 8a 00             	mov    al,BYTE PTR [eax]
    2c42:	84 c0                	test   al,al
    2c44:	75 e7                	jne    2c2d <_strlen+0x14>
D:\OneDrive\Study\Operating Systems\实验\project7\codes/./lib/utilsC.c:178
	return i;
    2c46:	67 66 8b 45 fc       	mov    eax,DWORD PTR [ebp-0x4]
D:\OneDrive\Study\Operating Systems\实验\project7\codes/./lib/utilsC.c:179
}
    2c4b:	66 c9                	leave  
    2c4d:	66 c3                	ret    

00002c4f <_concate>:
concate():
D:\OneDrive\Study\Operating Systems\实验\project7\codes/./lib/utilsC.c:183


void concate(char * sour, char * append)
{
    2c4f:	66 55                	push   ebp
    2c51:	66 89 e5             	mov    ebp,esp
    2c54:	66 83 ec 10          	sub    esp,0x10
D:\OneDrive\Study\Operating Systems\实验\project7\codes/./lib/utilsC.c:184
	int lenOfAppend = strlen(append);
    2c58:	67 66 8b 45 0c       	mov    eax,DWORD PTR [ebp+0xc]
    2c5d:	67 66 89 04 24       	mov    DWORD PTR [esp],eax
    2c62:	66 e8 b1 ff ff ff    	call   2c19 <_strlen>
    2c68:	67 66 89 45 f8       	mov    DWORD PTR [ebp-0x8],eax
D:\OneDrive\Study\Operating Systems\实验\project7\codes/./lib/utilsC.c:185
	int lenOfSour = strlen(sour);
    2c6d:	67 66 8b 45 08       	mov    eax,DWORD PTR [ebp+0x8]
    2c72:	67 66 89 04 24       	mov    DWORD PTR [esp],eax
    2c77:	66 e8 9c ff ff ff    	call   2c19 <_strlen>
    2c7d:	67 66 89 45 f4       	mov    DWORD PTR [ebp-0xc],eax
D:\OneDrive\Study\Operating Systems\实验\project7\codes/./lib/utilsC.c:186
	for (int i = 0; i < lenOfAppend; ++i)
    2c82:	67 66 c7 45 fc 00 00 	mov    DWORD PTR [ebp-0x4],0x0
    2c89:	00 00 
    2c8b:	eb 30                	jmp    2cbd <_concate+0x6e>
D:\OneDrive\Study\Operating Systems\实验\project7\codes/./lib/utilsC.c:188
	{
		sour[i + lenOfSour] = append[i];
    2c8d:	67 66 8b 55 fc       	mov    edx,DWORD PTR [ebp-0x4]
    2c92:	67 66 8b 45 f4       	mov    eax,DWORD PTR [ebp-0xc]
    2c97:	66 01 d0             	add    eax,edx
    2c9a:	66 89 c2             	mov    edx,eax
    2c9d:	67 66 8b 45 08       	mov    eax,DWORD PTR [ebp+0x8]
    2ca2:	66 01 c2             	add    edx,eax
    2ca5:	67 66 8b 4d fc       	mov    ecx,DWORD PTR [ebp-0x4]
    2caa:	67 66 8b 45 0c       	mov    eax,DWORD PTR [ebp+0xc]
    2caf:	66 01 c8             	add    eax,ecx
    2cb2:	67 8a 00             	mov    al,BYTE PTR [eax]
    2cb5:	67 88 02             	mov    BYTE PTR [edx],al
D:\OneDrive\Study\Operating Systems\实验\project7\codes/./lib/utilsC.c:186
	for (int i = 0; i < lenOfAppend; ++i)
    2cb8:	67 66 ff 45 fc       	inc    DWORD PTR [ebp-0x4]
    2cbd:	67 66 8b 45 fc       	mov    eax,DWORD PTR [ebp-0x4]
    2cc2:	67 66 3b 45 f8       	cmp    eax,DWORD PTR [ebp-0x8]
    2cc7:	7c c4                	jl     2c8d <_concate+0x3e>
D:\OneDrive\Study\Operating Systems\实验\project7\codes/./lib/utilsC.c:190
	}
	sour[lenOfAppend + lenOfSour] = '\0';
    2cc9:	67 66 8b 55 f8       	mov    edx,DWORD PTR [ebp-0x8]
    2cce:	67 66 8b 45 f4       	mov    eax,DWORD PTR [ebp-0xc]
    2cd3:	66 01 d0             	add    eax,edx
    2cd6:	66 89 c2             	mov    edx,eax
    2cd9:	67 66 8b 45 08       	mov    eax,DWORD PTR [ebp+0x8]
    2cde:	66 01 d0             	add    eax,edx
    2ce1:	67 c6 00 00          	mov    BYTE PTR [eax],0x0
D:\OneDrive\Study\Operating Systems\实验\project7\codes/./lib/utilsC.c:191
}
    2ce5:	90                   	nop
    2ce6:	66 c9                	leave  
    2ce8:	66 c3                	ret    

00002cea <_strcmp>:
strcmp():
D:\OneDrive\Study\Operating Systems\实验\project7\codes/./lib/utilsC.c:194

int strcmp(char * l, char * r)
{
    2cea:	66 55                	push   ebp
    2cec:	66 89 e5             	mov    ebp,esp
    2cef:	66 83 ec 08          	sub    esp,0x8
D:\OneDrive\Study\Operating Systems\实验\project7\codes/./lib/utilsC.c:195
	int i = 0, j = 0;
    2cf3:	67 66 c7 45 fc 00 00 	mov    DWORD PTR [ebp-0x4],0x0
    2cfa:	00 00 
    2cfc:	67 66 c7 45 f8 00 00 	mov    DWORD PTR [ebp-0x8],0x0
    2d03:	00 00 
D:\OneDrive\Study\Operating Systems\实验\project7\codes/./lib/utilsC.c:196
	for (; l[i] && r[i]; ++i, ++j)
    2d05:	eb 64                	jmp    2d6b <_strcmp+0x81>
D:\OneDrive\Study\Operating Systems\实验\project7\codes/./lib/utilsC.c:198
	{
		if (l[i] < r[j]) {
    2d07:	67 66 8b 55 fc       	mov    edx,DWORD PTR [ebp-0x4]
    2d0c:	67 66 8b 45 08       	mov    eax,DWORD PTR [ebp+0x8]
    2d11:	66 01 d0             	add    eax,edx
    2d14:	67 8a 10             	mov    dl,BYTE PTR [eax]
    2d17:	67 66 8b 4d f8       	mov    ecx,DWORD PTR [ebp-0x8]
    2d1c:	67 66 8b 45 0c       	mov    eax,DWORD PTR [ebp+0xc]
    2d21:	66 01 c8             	add    eax,ecx
    2d24:	67 8a 00             	mov    al,BYTE PTR [eax]
    2d27:	38 c2                	cmp    dl,al
    2d29:	7d 09                	jge    2d34 <_strcmp+0x4a>
D:\OneDrive\Study\Operating Systems\实验\project7\codes/./lib/utilsC.c:199
			return -1;
    2d2b:	66 b8 ff ff ff ff    	mov    eax,0xffffffff
    2d31:	e9 c7 00             	jmp    2dfb <_strcmp+0x111>
D:\OneDrive\Study\Operating Systems\实验\project7\codes/./lib/utilsC.c:200
		} else if (l[i] > r[j]) {
    2d34:	67 66 8b 55 fc       	mov    edx,DWORD PTR [ebp-0x4]
    2d39:	67 66 8b 45 08       	mov    eax,DWORD PTR [ebp+0x8]
    2d3e:	66 01 d0             	add    eax,edx
    2d41:	67 8a 10             	mov    dl,BYTE PTR [eax]
    2d44:	67 66 8b 4d f8       	mov    ecx,DWORD PTR [ebp-0x8]
    2d49:	67 66 8b 45 0c       	mov    eax,DWORD PTR [ebp+0xc]
    2d4e:	66 01 c8             	add    eax,ecx
    2d51:	67 8a 00             	mov    al,BYTE PTR [eax]
    2d54:	38 c2                	cmp    dl,al
    2d56:	7e 09                	jle    2d61 <_strcmp+0x77>
D:\OneDrive\Study\Operating Systems\实验\project7\codes/./lib/utilsC.c:201
			return 1;
    2d58:	66 b8 01 00 00 00    	mov    eax,0x1
    2d5e:	e9 9a 00             	jmp    2dfb <_strcmp+0x111>
D:\OneDrive\Study\Operating Systems\实验\project7\codes/./lib/utilsC.c:196
	for (; l[i] && r[i]; ++i, ++j)
    2d61:	67 66 ff 45 fc       	inc    DWORD PTR [ebp-0x4]
    2d66:	67 66 ff 45 f8       	inc    DWORD PTR [ebp-0x8]
    2d6b:	67 66 8b 55 fc       	mov    edx,DWORD PTR [ebp-0x4]
    2d70:	67 66 8b 45 08       	mov    eax,DWORD PTR [ebp+0x8]
    2d75:	66 01 d0             	add    eax,edx
    2d78:	67 8a 00             	mov    al,BYTE PTR [eax]
    2d7b:	84 c0                	test   al,al
    2d7d:	74 16                	je     2d95 <_strcmp+0xab>
    2d7f:	67 66 8b 55 fc       	mov    edx,DWORD PTR [ebp-0x4]
    2d84:	67 66 8b 45 0c       	mov    eax,DWORD PTR [ebp+0xc]
    2d89:	66 01 d0             	add    eax,edx
    2d8c:	67 8a 00             	mov    al,BYTE PTR [eax]
    2d8f:	84 c0                	test   al,al
    2d91:	0f 85 72 ff          	jne    2d07 <_strcmp+0x1d>
D:\OneDrive\Study\Operating Systems\实验\project7\codes/./lib/utilsC.c:204
		}
	}
	if (!l[i] && r[j]) {
    2d95:	67 66 8b 55 fc       	mov    edx,DWORD PTR [ebp-0x4]
    2d9a:	67 66 8b 45 08       	mov    eax,DWORD PTR [ebp+0x8]
    2d9f:	66 01 d0             	add    eax,edx
    2da2:	67 8a 00             	mov    al,BYTE PTR [eax]
    2da5:	84 c0                	test   al,al
    2da7:	75 1c                	jne    2dc5 <_strcmp+0xdb>
    2da9:	67 66 8b 55 f8       	mov    edx,DWORD PTR [ebp-0x8]
    2dae:	67 66 8b 45 0c       	mov    eax,DWORD PTR [ebp+0xc]
    2db3:	66 01 d0             	add    eax,edx
    2db6:	67 8a 00             	mov    al,BYTE PTR [eax]
    2db9:	84 c0                	test   al,al
    2dbb:	74 08                	je     2dc5 <_strcmp+0xdb>
D:\OneDrive\Study\Operating Systems\实验\project7\codes/./lib/utilsC.c:205
		return -1;
    2dbd:	66 b8 ff ff ff ff    	mov    eax,0xffffffff
    2dc3:	eb 36                	jmp    2dfb <_strcmp+0x111>
D:\OneDrive\Study\Operating Systems\实验\project7\codes/./lib/utilsC.c:206
	} else if (l[i] && !r[j]) {
    2dc5:	67 66 8b 55 fc       	mov    edx,DWORD PTR [ebp-0x4]
    2dca:	67 66 8b 45 08       	mov    eax,DWORD PTR [ebp+0x8]
    2dcf:	66 01 d0             	add    eax,edx
    2dd2:	67 8a 00             	mov    al,BYTE PTR [eax]
    2dd5:	84 c0                	test   al,al
    2dd7:	74 1c                	je     2df5 <_strcmp+0x10b>
    2dd9:	67 66 8b 55 f8       	mov    edx,DWORD PTR [ebp-0x8]
    2dde:	67 66 8b 45 0c       	mov    eax,DWORD PTR [ebp+0xc]
    2de3:	66 01 d0             	add    eax,edx
    2de6:	67 8a 00             	mov    al,BYTE PTR [eax]
    2de9:	84 c0                	test   al,al
    2deb:	75 08                	jne    2df5 <_strcmp+0x10b>
D:\OneDrive\Study\Operating Systems\实验\project7\codes/./lib/utilsC.c:207
		return 1;
    2ded:	66 b8 01 00 00 00    	mov    eax,0x1
    2df3:	eb 06                	jmp    2dfb <_strcmp+0x111>
D:\OneDrive\Study\Operating Systems\实验\project7\codes/./lib/utilsC.c:209
	} else {
		return 0;
    2df5:	66 b8 00 00 00 00    	mov    eax,0x0
D:\OneDrive\Study\Operating Systems\实验\project7\codes/./lib/utilsC.c:211
	}
}
    2dfb:	66 c9                	leave  
    2dfd:	66 c3                	ret    

00002dff <_strncpy>:
strncpy():
D:\OneDrive\Study\Operating Systems\实验\project7\codes/./lib/utilsC.c:214

void strncpy(char * sour, char * des, int len)
{
    2dff:	66 55                	push   ebp
    2e01:	66 89 e5             	mov    ebp,esp
    2e04:	66 83 ec 04          	sub    esp,0x4
D:\OneDrive\Study\Operating Systems\实验\project7\codes/./lib/utilsC.c:215
	int i = 0;
    2e08:	67 66 c7 45 fc 00 00 	mov    DWORD PTR [ebp-0x4],0x0
    2e0f:	00 00 
D:\OneDrive\Study\Operating Systems\实验\project7\codes/./lib/utilsC.c:216
	while (sour[i] && i < len) {
    2e11:	eb 25                	jmp    2e38 <_strncpy+0x39>
D:\OneDrive\Study\Operating Systems\实验\project7\codes/./lib/utilsC.c:217
		des[i] = sour[i];
    2e13:	67 66 8b 55 fc       	mov    edx,DWORD PTR [ebp-0x4]
    2e18:	67 66 8b 45 0c       	mov    eax,DWORD PTR [ebp+0xc]
    2e1d:	66 01 c2             	add    edx,eax
    2e20:	67 66 8b 4d fc       	mov    ecx,DWORD PTR [ebp-0x4]
    2e25:	67 66 8b 45 08       	mov    eax,DWORD PTR [ebp+0x8]
    2e2a:	66 01 c8             	add    eax,ecx
    2e2d:	67 8a 00             	mov    al,BYTE PTR [eax]
    2e30:	67 88 02             	mov    BYTE PTR [edx],al
D:\OneDrive\Study\Operating Systems\实验\project7\codes/./lib/utilsC.c:218
		++i;
    2e33:	67 66 ff 45 fc       	inc    DWORD PTR [ebp-0x4]
D:\OneDrive\Study\Operating Systems\实验\project7\codes/./lib/utilsC.c:216
	while (sour[i] && i < len) {
    2e38:	67 66 8b 55 fc       	mov    edx,DWORD PTR [ebp-0x4]
    2e3d:	67 66 8b 45 08       	mov    eax,DWORD PTR [ebp+0x8]
    2e42:	66 01 d0             	add    eax,edx
    2e45:	67 8a 00             	mov    al,BYTE PTR [eax]
    2e48:	84 c0                	test   al,al
    2e4a:	74 0c                	je     2e58 <_strncpy+0x59>
    2e4c:	67 66 8b 45 fc       	mov    eax,DWORD PTR [ebp-0x4]
    2e51:	67 66 3b 45 10       	cmp    eax,DWORD PTR [ebp+0x10]
    2e56:	7c bb                	jl     2e13 <_strncpy+0x14>
D:\OneDrive\Study\Operating Systems\实验\project7\codes/./lib/utilsC.c:220
	}
	des[i] = '\0';
    2e58:	67 66 8b 55 fc       	mov    edx,DWORD PTR [ebp-0x4]
    2e5d:	67 66 8b 45 0c       	mov    eax,DWORD PTR [ebp+0xc]
    2e62:	66 01 d0             	add    eax,edx
    2e65:	67 c6 00 00          	mov    BYTE PTR [eax],0x0
D:\OneDrive\Study\Operating Systems\实验\project7\codes/./lib/utilsC.c:221
}
    2e69:	90                   	nop
    2e6a:	66 c9                	leave  
    2e6c:	66 c3                	ret    

00002e6e <_int2str>:
int2str():
D:\OneDrive\Study\Operating Systems\实验\project7\codes/./lib/utilsC.c:224

void int2str(int org, char * str)
{
    2e6e:	66 55                	push   ebp
    2e70:	66 89 e5             	mov    ebp,esp
    2e73:	66 53                	push   ebx
    2e75:	66 83 ec 0c          	sub    esp,0xc
D:\OneDrive\Study\Operating Systems\实验\project7\codes/./lib/utilsC.c:225
	int num = 0;
    2e79:	67 66 c7 45 f8 00 00 	mov    DWORD PTR [ebp-0x8],0x0
    2e80:	00 00 
D:\OneDrive\Study\Operating Systems\实验\project7\codes/./lib/utilsC.c:226
	int cp = org;
    2e82:	67 66 8b 45 08       	mov    eax,DWORD PTR [ebp+0x8]
    2e87:	67 66 89 45 f4       	mov    DWORD PTR [ebp-0xc],eax
D:\OneDrive\Study\Operating Systems\实验\project7\codes/./lib/utilsC.c:227
	while (cp != 0)
    2e8c:	eb 29                	jmp    2eb7 <_int2str+0x49>
D:\OneDrive\Study\Operating Systems\实验\project7\codes/./lib/utilsC.c:229
	{
		cp /= 10;
    2e8e:	67 66 8b 4d f4       	mov    ecx,DWORD PTR [ebp-0xc]
    2e93:	66 b8 67 66 66 66    	mov    eax,0x66666667
    2e99:	66 f7 e9             	imul   ecx
    2e9c:	66 c1 fa 02          	sar    edx,0x2
    2ea0:	66 89 c8             	mov    eax,ecx
    2ea3:	66 c1 f8 1f          	sar    eax,0x1f
    2ea7:	66 29 c2             	sub    edx,eax
    2eaa:	66 89 d0             	mov    eax,edx
    2ead:	67 66 89 45 f4       	mov    DWORD PTR [ebp-0xc],eax
D:\OneDrive\Study\Operating Systems\实验\project7\codes/./lib/utilsC.c:230
		++num;
    2eb2:	67 66 ff 45 f8       	inc    DWORD PTR [ebp-0x8]
D:\OneDrive\Study\Operating Systems\实验\project7\codes/./lib/utilsC.c:227
	while (cp != 0)
    2eb7:	67 66 83 7d f4 00    	cmp    DWORD PTR [ebp-0xc],0x0
    2ebd:	75 cf                	jne    2e8e <_int2str+0x20>
D:\OneDrive\Study\Operating Systems\实验\project7\codes/./lib/utilsC.c:232
	}
	if (org == 0)
    2ebf:	67 66 83 7d 08 00    	cmp    DWORD PTR [ebp+0x8],0x0
    2ec5:	75 09                	jne    2ed0 <_int2str+0x62>
D:\OneDrive\Study\Operating Systems\实验\project7\codes/./lib/utilsC.c:233
		num = 1;
    2ec7:	67 66 c7 45 f8 01 00 	mov    DWORD PTR [ebp-0x8],0x1
    2ece:	00 00 
D:\OneDrive\Study\Operating Systems\实验\project7\codes/./lib/utilsC.c:234
	str[num--] = '\0';
    2ed0:	67 66 8b 45 f8       	mov    eax,DWORD PTR [ebp-0x8]
    2ed5:	67 66 8d 50 ff       	lea    edx,[eax-0x1]
    2eda:	67 66 89 55 f8       	mov    DWORD PTR [ebp-0x8],edx
    2edf:	66 89 c2             	mov    edx,eax
    2ee2:	67 66 8b 45 0c       	mov    eax,DWORD PTR [ebp+0xc]
    2ee7:	66 01 d0             	add    eax,edx
    2eea:	67 c6 00 00          	mov    BYTE PTR [eax],0x0
D:\OneDrive\Study\Operating Systems\实验\project7\codes/./lib/utilsC.c:235
	for (int i = num; i >= 0; --i)
    2eee:	67 66 8b 45 f8       	mov    eax,DWORD PTR [ebp-0x8]
    2ef3:	67 66 89 45 f0       	mov    DWORD PTR [ebp-0x10],eax
    2ef8:	eb 70                	jmp    2f6a <_int2str+0xfc>
D:\OneDrive\Study\Operating Systems\实验\project7\codes/./lib/utilsC.c:237
	{
		str[i] = org % 10 + 48;
    2efa:	67 66 8b 55 f0       	mov    edx,DWORD PTR [ebp-0x10]
    2eff:	67 66 8b 45 0c       	mov    eax,DWORD PTR [ebp+0xc]
    2f04:	67 66 8d 1c 02       	lea    ebx,[edx+eax*1]
    2f09:	67 66 8b 4d 08       	mov    ecx,DWORD PTR [ebp+0x8]
    2f0e:	66 b8 67 66 66 66    	mov    eax,0x66666667
    2f14:	66 f7 e9             	imul   ecx
    2f17:	66 c1 fa 02          	sar    edx,0x2
    2f1b:	66 89 c8             	mov    eax,ecx
    2f1e:	66 c1 f8 1f          	sar    eax,0x1f
    2f22:	66 29 c2             	sub    edx,eax
    2f25:	66 89 d0             	mov    eax,edx
    2f28:	66 c1 e0 02          	shl    eax,0x2
    2f2c:	66 01 d0             	add    eax,edx
    2f2f:	66 01 c0             	add    eax,eax
    2f32:	66 29 c1             	sub    ecx,eax
    2f35:	66 89 ca             	mov    edx,ecx
    2f38:	88 d0                	mov    al,dl
    2f3a:	66 83 c0 30          	add    eax,0x30
    2f3e:	67 88 03             	mov    BYTE PTR [ebx],al
D:\OneDrive\Study\Operating Systems\实验\project7\codes/./lib/utilsC.c:238
		org /= 10;
    2f41:	67 66 8b 4d 08       	mov    ecx,DWORD PTR [ebp+0x8]
    2f46:	66 b8 67 66 66 66    	mov    eax,0x66666667
    2f4c:	66 f7 e9             	imul   ecx
    2f4f:	66 c1 fa 02          	sar    edx,0x2
    2f53:	66 89 c8             	mov    eax,ecx
    2f56:	66 c1 f8 1f          	sar    eax,0x1f
    2f5a:	66 29 c2             	sub    edx,eax
    2f5d:	66 89 d0             	mov    eax,edx
    2f60:	67 66 89 45 08       	mov    DWORD PTR [ebp+0x8],eax
D:\OneDrive\Study\Operating Systems\实验\project7\codes/./lib/utilsC.c:235
	for (int i = num; i >= 0; --i)
    2f65:	67 66 ff 4d f0       	dec    DWORD PTR [ebp-0x10]
    2f6a:	67 66 83 7d f0 00    	cmp    DWORD PTR [ebp-0x10],0x0
    2f70:	79 88                	jns    2efa <_int2str+0x8c>
D:\OneDrive\Study\Operating Systems\实验\project7\codes/./lib/utilsC.c:240
	}
}
    2f72:	90                   	nop
    2f73:	66 83 c4 0c          	add    esp,0xc
    2f77:	66 5b                	pop    ebx
    2f79:	66 5d                	pop    ebp
    2f7b:	66 c3                	ret    

00002f7d <_hashfun>:
hashfun():
D:\OneDrive\Study\Operating Systems\实验\project7\codes/./lib/utilsC.c:249

////////////// File ////////////////



int hashfun(char * key) {
    2f7d:	66 55                	push   ebp
    2f7f:	66 89 e5             	mov    ebp,esp
    2f82:	66 83 ec 0c          	sub    esp,0xc
D:\OneDrive\Study\Operating Systems\实验\project7\codes/./lib/utilsC.c:250
	int weight = 29;
    2f86:	67 66 c7 45 f4 1d 00 	mov    DWORD PTR [ebp-0xc],0x1d
    2f8d:	00 00 
D:\OneDrive\Study\Operating Systems\实验\project7\codes/./lib/utilsC.c:251
	int i = 0;
    2f8f:	67 66 c7 45 fc 00 00 	mov    DWORD PTR [ebp-0x4],0x0
    2f96:	00 00 
D:\OneDrive\Study\Operating Systems\实验\project7\codes/./lib/utilsC.c:252
	int ret = 0;
    2f98:	67 66 c7 45 f8 00 00 	mov    DWORD PTR [ebp-0x8],0x0
    2f9f:	00 00 
D:\OneDrive\Study\Operating Systems\实验\project7\codes/./lib/utilsC.c:253
	while (key[i]) {
    2fa1:	eb 3a                	jmp    2fdd <_hashfun+0x60>
D:\OneDrive\Study\Operating Systems\实验\project7\codes/./lib/utilsC.c:254
		ret = (ret + key[i] * weight) % Len;
    2fa3:	67 66 8b 55 fc       	mov    edx,DWORD PTR [ebp-0x4]
    2fa8:	67 66 8b 45 08       	mov    eax,DWORD PTR [ebp+0x8]
    2fad:	66 01 d0             	add    eax,edx
    2fb0:	67 8a 00             	mov    al,BYTE PTR [eax]
    2fb3:	66 0f be c0          	movsx  eax,al
    2fb7:	67 66 0f af 45 f4    	imul   eax,DWORD PTR [ebp-0xc]
    2fbd:	66 89 c2             	mov    edx,eax
    2fc0:	67 66 8b 45 f8       	mov    eax,DWORD PTR [ebp-0x8]
    2fc5:	66 01 d0             	add    eax,edx
    2fc8:	66 b9 14 00 00 00    	mov    ecx,0x14
    2fce:	66 99                	cdq    
    2fd0:	66 f7 f9             	idiv   ecx
    2fd3:	67 66 89 55 f8       	mov    DWORD PTR [ebp-0x8],edx
D:\OneDrive\Study\Operating Systems\实验\project7\codes/./lib/utilsC.c:255
		++i;
    2fd8:	67 66 ff 45 fc       	inc    DWORD PTR [ebp-0x4]
D:\OneDrive\Study\Operating Systems\实验\project7\codes/./lib/utilsC.c:253
	while (key[i]) {
    2fdd:	67 66 8b 55 fc       	mov    edx,DWORD PTR [ebp-0x4]
    2fe2:	67 66 8b 45 08       	mov    eax,DWORD PTR [ebp+0x8]
    2fe7:	66 01 d0             	add    eax,edx
    2fea:	67 8a 00             	mov    al,BYTE PTR [eax]
    2fed:	84 c0                	test   al,al
    2fef:	75 b2                	jne    2fa3 <_hashfun+0x26>
D:\OneDrive\Study\Operating Systems\实验\project7\codes/./lib/utilsC.c:257
	}
	return ret;
    2ff1:	67 66 8b 45 f8       	mov    eax,DWORD PTR [ebp-0x8]
D:\OneDrive\Study\Operating Systems\实验\project7\codes/./lib/utilsC.c:258
}
    2ff6:	66 c9                	leave  
    2ff8:	66 c3                	ret    

00002ffa <_hash>:
hash():
D:\OneDrive\Study\Operating Systems\实验\project7\codes/./lib/utilsC.c:261

int hash(char * key, struct info record)
{
    2ffa:	66 55                	push   ebp
    2ffc:	66 89 e5             	mov    ebp,esp
    2fff:	66 83 ec 18          	sub    esp,0x18
D:\OneDrive\Study\Operating Systems\实验\project7\codes/./lib/utilsC.c:262
	int inicode = hashfun(key);
    3003:	67 66 8b 45 08       	mov    eax,DWORD PTR [ebp+0x8]
    3008:	67 66 89 04 24       	mov    DWORD PTR [esp],eax
    300d:	66 e8 6a ff ff ff    	call   2f7d <_hashfun>
    3013:	67 66 89 45 f4       	mov    DWORD PTR [ebp-0xc],eax
D:\OneDrive\Study\Operating Systems\实验\project7\codes/./lib/utilsC.c:263
	int code = inicode, i = 1;
    3018:	67 66 8b 45 f4       	mov    eax,DWORD PTR [ebp-0xc]
    301d:	67 66 89 45 fc       	mov    DWORD PTR [ebp-0x4],eax
    3022:	67 66 c7 45 f8 01 00 	mov    DWORD PTR [ebp-0x8],0x1
    3029:	00 00 
D:\OneDrive\Study\Operating Systems\实验\project7\codes/./lib/utilsC.c:264
	while (information[code].type != null) {
    302b:	eb 2b                	jmp    3058 <_hash+0x5e>
D:\OneDrive\Study\Operating Systems\实验\project7\codes/./lib/utilsC.c:265
		code = (inicode + i * i) % Len;
    302d:	67 66 8b 45 f8       	mov    eax,DWORD PTR [ebp-0x8]
    3032:	67 66 0f af 45 f8    	imul   eax,DWORD PTR [ebp-0x8]
    3038:	66 89 c2             	mov    edx,eax
    303b:	67 66 8b 45 f4       	mov    eax,DWORD PTR [ebp-0xc]
    3040:	66 01 d0             	add    eax,edx
    3043:	66 b9 14 00 00 00    	mov    ecx,0x14
    3049:	66 99                	cdq    
    304b:	66 f7 f9             	idiv   ecx
    304e:	67 66 89 55 fc       	mov    DWORD PTR [ebp-0x4],edx
D:\OneDrive\Study\Operating Systems\实验\project7\codes/./lib/utilsC.c:266
		++i;
    3053:	67 66 ff 45 f8       	inc    DWORD PTR [ebp-0x8]
D:\OneDrive\Study\Operating Systems\实验\project7\codes/./lib/utilsC.c:264
	while (information[code].type != null) {
    3058:	67 66 8b 55 fc       	mov    edx,DWORD PTR [ebp-0x4]
    305d:	66 89 d0             	mov    eax,edx
    3060:	66 01 c0             	add    eax,eax
    3063:	66 01 d0             	add    eax,edx
    3066:	66 c1 e0 02          	shl    eax,0x2
    306a:	66 01 d0             	add    eax,edx
    306d:	66 c1 e0 02          	shl    eax,0x2
    3071:	66 05 00 af 00 00    	add    eax,0xaf00
    3077:	67 66 8b 00          	mov    eax,DWORD PTR [eax]
    307b:	66 85 c0             	test   eax,eax
    307e:	75 ad                	jne    302d <_hash+0x33>
D:\OneDrive\Study\Operating Systems\实验\project7\codes/./lib/utilsC.c:270
	}


	information[code].type = record.type;
    3080:	67 66 8b 4d 2c       	mov    ecx,DWORD PTR [ebp+0x2c]
    3085:	67 66 8b 55 fc       	mov    edx,DWORD PTR [ebp-0x4]
    308a:	66 89 d0             	mov    eax,edx
    308d:	66 01 c0             	add    eax,eax
    3090:	66 01 d0             	add    eax,edx
    3093:	66 c1 e0 02          	shl    eax,0x2
    3097:	66 01 d0             	add    eax,edx
    309a:	66 c1 e0 02          	shl    eax,0x2
    309e:	66 05 00 af 00 00    	add    eax,0xaf00
    30a4:	67 66 89 08          	mov    DWORD PTR [eax],ecx
D:\OneDrive\Study\Operating Systems\实验\project7\codes/./lib/utilsC.c:271
	strncpy(record.name, information[code].name, strlen(record.name));
    30a8:	67 66 8d 45 0c       	lea    eax,[ebp+0xc]
    30ad:	67 66 89 04 24       	mov    DWORD PTR [esp],eax
    30b2:	66 e8 61 fb ff ff    	call   2c19 <_strlen>
    30b8:	66 89 c1             	mov    ecx,eax
    30bb:	67 66 8b 55 fc       	mov    edx,DWORD PTR [ebp-0x4]
    30c0:	66 89 d0             	mov    eax,edx
    30c3:	66 01 c0             	add    eax,eax
    30c6:	66 01 d0             	add    eax,edx
    30c9:	66 c1 e0 02          	shl    eax,0x2
    30cd:	66 01 d0             	add    eax,edx
    30d0:	66 c1 e0 02          	shl    eax,0x2
    30d4:	66 05 e0 ae 00 00    	add    eax,0xaee0
    30da:	67 66 89 4c 24 08    	mov    DWORD PTR [esp+0x8],ecx
    30e0:	67 66 89 44 24 04    	mov    DWORD PTR [esp+0x4],eax
    30e6:	67 66 8d 45 0c       	lea    eax,[ebp+0xc]
    30eb:	67 66 89 04 24       	mov    DWORD PTR [esp],eax
    30f0:	66 e8 09 fd ff ff    	call   2dff <_strncpy>
D:\OneDrive\Study\Operating Systems\实验\project7\codes/./lib/utilsC.c:272
	information[code].size = record.size;
    30f6:	67 66 8b 4d 34       	mov    ecx,DWORD PTR [ebp+0x34]
    30fb:	67 66 8b 55 fc       	mov    edx,DWORD PTR [ebp-0x4]
    3100:	66 89 d0             	mov    eax,edx
    3103:	66 01 c0             	add    eax,eax
    3106:	66 01 d0             	add    eax,edx
    3109:	66 c1 e0 02          	shl    eax,0x2
    310d:	66 01 d0             	add    eax,edx
    3110:	66 c1 e0 02          	shl    eax,0x2
    3114:	66 05 08 af 00 00    	add    eax,0xaf08
    311a:	67 66 89 08          	mov    DWORD PTR [eax],ecx
D:\OneDrive\Study\Operating Systems\实验\project7\codes/./lib/utilsC.c:273
	information[code].lmaddress = record.lmaddress;
    311e:	67 66 8b 4d 30       	mov    ecx,DWORD PTR [ebp+0x30]
    3123:	67 66 8b 55 fc       	mov    edx,DWORD PTR [ebp-0x4]
    3128:	66 89 d0             	mov    eax,edx
    312b:	66 01 c0             	add    eax,eax
    312e:	66 01 d0             	add    eax,edx
    3131:	66 c1 e0 02          	shl    eax,0x2
    3135:	66 01 d0             	add    eax,edx
    3138:	66 c1 e0 02          	shl    eax,0x2
    313c:	66 05 04 af 00 00    	add    eax,0xaf04
    3142:	67 66 89 08          	mov    DWORD PTR [eax],ecx
D:\OneDrive\Study\Operating Systems\实验\project7\codes/./lib/utilsC.c:274
	information[code].deleted = record.deleted;
    3146:	67 66 8b 4d 38       	mov    ecx,DWORD PTR [ebp+0x38]
    314b:	67 66 8b 55 fc       	mov    edx,DWORD PTR [ebp-0x4]
    3150:	66 89 d0             	mov    eax,edx
    3153:	66 01 c0             	add    eax,eax
    3156:	66 01 d0             	add    eax,edx
    3159:	66 c1 e0 02          	shl    eax,0x2
    315d:	66 01 d0             	add    eax,edx
    3160:	66 c1 e0 02          	shl    eax,0x2
    3164:	66 05 0c af 00 00    	add    eax,0xaf0c
    316a:	67 66 89 08          	mov    DWORD PTR [eax],ecx
D:\OneDrive\Study\Operating Systems\实验\project7\codes/./lib/utilsC.c:275
	return code;
    316e:	67 66 8b 45 fc       	mov    eax,DWORD PTR [ebp-0x4]
D:\OneDrive\Study\Operating Systems\实验\project7\codes/./lib/utilsC.c:276
}
    3173:	66 c9                	leave  
    3175:	66 c3                	ret    

00003177 <_find>:
find():
D:\OneDrive\Study\Operating Systems\实验\project7\codes/./lib/utilsC.c:279

int find(char * key)
{
    3177:	66 55                	push   ebp
    3179:	66 89 e5             	mov    ebp,esp
    317c:	66 83 ec 14          	sub    esp,0x14
D:\OneDrive\Study\Operating Systems\实验\project7\codes/./lib/utilsC.c:280
	int inicode = hashfun(key);
    3180:	67 66 8b 45 08       	mov    eax,DWORD PTR [ebp+0x8]
    3185:	67 66 89 04 24       	mov    DWORD PTR [esp],eax
    318a:	66 e8 ed fd ff ff    	call   2f7d <_hashfun>
    3190:	67 66 89 45 f4       	mov    DWORD PTR [ebp-0xc],eax
D:\OneDrive\Study\Operating Systems\实验\project7\codes/./lib/utilsC.c:281
	int code = inicode, i = 1;
    3195:	67 66 8b 45 f4       	mov    eax,DWORD PTR [ebp-0xc]
    319a:	67 66 89 45 fc       	mov    DWORD PTR [ebp-0x4],eax
    319f:	67 66 c7 45 f8 01 00 	mov    DWORD PTR [ebp-0x8],0x1
    31a6:	00 00 
D:\OneDrive\Study\Operating Systems\实验\project7\codes/./lib/utilsC.c:282
	while (information[code].type == null || strcmp(key, information[code].name) != 0) {
    31a8:	eb 3b                	jmp    31e5 <_find+0x6e>
D:\OneDrive\Study\Operating Systems\实验\project7\codes/./lib/utilsC.c:283
		code = (inicode + i * i) % Len;
    31aa:	67 66 8b 45 f8       	mov    eax,DWORD PTR [ebp-0x8]
    31af:	67 66 0f af 45 f8    	imul   eax,DWORD PTR [ebp-0x8]
    31b5:	66 89 c2             	mov    edx,eax
    31b8:	67 66 8b 45 f4       	mov    eax,DWORD PTR [ebp-0xc]
    31bd:	66 01 d0             	add    eax,edx
    31c0:	66 b9 14 00 00 00    	mov    ecx,0x14
    31c6:	66 99                	cdq    
    31c8:	66 f7 f9             	idiv   ecx
    31cb:	67 66 89 55 fc       	mov    DWORD PTR [ebp-0x4],edx
D:\OneDrive\Study\Operating Systems\实验\project7\codes/./lib/utilsC.c:284
		++i;
    31d0:	67 66 ff 45 f8       	inc    DWORD PTR [ebp-0x8]
D:\OneDrive\Study\Operating Systems\实验\project7\codes/./lib/utilsC.c:285
		if (i > Len)
    31d5:	67 66 83 7d f8 14    	cmp    DWORD PTR [ebp-0x8],0x14
    31db:	7e 08                	jle    31e5 <_find+0x6e>
D:\OneDrive\Study\Operating Systems\实验\project7\codes/./lib/utilsC.c:286
			return -1;
    31dd:	66 b8 ff ff ff ff    	mov    eax,0xffffffff
    31e3:	eb 69                	jmp    324e <_find+0xd7>
D:\OneDrive\Study\Operating Systems\实验\project7\codes/./lib/utilsC.c:282
	while (information[code].type == null || strcmp(key, information[code].name) != 0) {
    31e5:	67 66 8b 55 fc       	mov    edx,DWORD PTR [ebp-0x4]
    31ea:	66 89 d0             	mov    eax,edx
    31ed:	66 01 c0             	add    eax,eax
    31f0:	66 01 d0             	add    eax,edx
    31f3:	66 c1 e0 02          	shl    eax,0x2
    31f7:	66 01 d0             	add    eax,edx
    31fa:	66 c1 e0 02          	shl    eax,0x2
    31fe:	66 05 00 af 00 00    	add    eax,0xaf00
    3204:	67 66 8b 00          	mov    eax,DWORD PTR [eax]
    3208:	66 85 c0             	test   eax,eax
    320b:	74 9d                	je     31aa <_find+0x33>
    320d:	67 66 8b 55 fc       	mov    edx,DWORD PTR [ebp-0x4]
    3212:	66 89 d0             	mov    eax,edx
    3215:	66 01 c0             	add    eax,eax
    3218:	66 01 d0             	add    eax,edx
    321b:	66 c1 e0 02          	shl    eax,0x2
    321f:	66 01 d0             	add    eax,edx
    3222:	66 c1 e0 02          	shl    eax,0x2
    3226:	66 05 e0 ae 00 00    	add    eax,0xaee0
    322c:	67 66 89 44 24 04    	mov    DWORD PTR [esp+0x4],eax
    3232:	67 66 8b 45 08       	mov    eax,DWORD PTR [ebp+0x8]
    3237:	67 66 89 04 24       	mov    DWORD PTR [esp],eax
    323c:	66 e8 a8 fa ff ff    	call   2cea <_strcmp>
    3242:	66 85 c0             	test   eax,eax
    3245:	0f 85 61 ff          	jne    31aa <_find+0x33>
D:\OneDrive\Study\Operating Systems\实验\project7\codes/./lib/utilsC.c:288
	}
	return code;
    3249:	67 66 8b 45 fc       	mov    eax,DWORD PTR [ebp-0x4]
D:\OneDrive\Study\Operating Systems\实验\project7\codes/./lib/utilsC.c:289
}
    324e:	66 c9                	leave  
    3250:	66 c3                	ret    

00003252 <_initialFile>:
initialFile():
D:\OneDrive\Study\Operating Systems\实验\project7\codes/./lib/utilsC.c:292

void initialFile()
{
    3252:	66 55                	push   ebp
    3254:	66 89 e5             	mov    ebp,esp
    3257:	66 83 ec 10          	sub    esp,0x10
D:\OneDrive\Study\Operating Systems\实验\project7\codes/./lib/utilsC.c:293
	FAT = (short*)getRecords(segOfOs, offsetOfFat);
    325b:	67 66 c7 44 24 04 00 	mov    DWORD PTR [esp+0x4],0xe000
    3262:	e0 00 00 
    3265:	67 66 c7 04 24 00 20 	mov    DWORD PTR [esp],0x2000
    326c:	00 00 
    326e:	66 e8 22 ee ff ff    	call   2096 <_getRecords>
    3274:	66 a3 00 97          	mov    ds:0x9700,eax
D:\OneDrive\Study\Operating Systems\实验\project7\codes/./lib/utilsC.c:294
	for (int i = 0; i < Len; ++i) {
    3278:	67 66 c7 45 fc 00 00 	mov    DWORD PTR [ebp-0x4],0x0
    327f:	00 00 
    3281:	eb 2c                	jmp    32af <_initialFile+0x5d>
D:\OneDrive\Study\Operating Systems\实验\project7\codes/./lib/utilsC.c:295
		information[i].type = null;
    3283:	67 66 8b 55 fc       	mov    edx,DWORD PTR [ebp-0x4]
    3288:	66 89 d0             	mov    eax,edx
    328b:	66 01 c0             	add    eax,eax
    328e:	66 01 d0             	add    eax,edx
    3291:	66 c1 e0 02          	shl    eax,0x2
    3295:	66 01 d0             	add    eax,edx
    3298:	66 c1 e0 02          	shl    eax,0x2
    329c:	66 05 00 af 00 00    	add    eax,0xaf00
    32a2:	67 66 c7 00 00 00 00 	mov    DWORD PTR [eax],0x0
    32a9:	00 
D:\OneDrive\Study\Operating Systems\实验\project7\codes/./lib/utilsC.c:294
	for (int i = 0; i < Len; ++i) {
    32aa:	67 66 ff 45 fc       	inc    DWORD PTR [ebp-0x4]
    32af:	67 66 83 7d fc 13    	cmp    DWORD PTR [ebp-0x4],0x13
    32b5:	7e cc                	jle    3283 <_initialFile+0x31>
D:\OneDrive\Study\Operating Systems\实验\project7\codes/./lib/utilsC.c:297
	}
	no.lmaddress = 0;
    32b7:	66 c7 06 44 97 00 00 	mov    DWORD PTR ds:0x9744,0x0
    32be:	00 00 
D:\OneDrive\Study\Operating Systems\实验\project7\codes/./lib/utilsC.c:298
	no.size = 0;
    32c0:	66 c7 06 48 97 00 00 	mov    DWORD PTR ds:0x9748,0x0
    32c7:	00 00 
D:\OneDrive\Study\Operating Systems\实验\project7\codes/./lib/utilsC.c:299
	no.type = null;
    32c9:	66 c7 06 40 97 00 00 	mov    DWORD PTR ds:0x9740,0x0
    32d0:	00 00 
D:\OneDrive\Study\Operating Systems\实验\project7\codes/./lib/utilsC.c:300
	strncpy("", no.name, 0);
    32d2:	67 66 c7 44 24 08 00 	mov    DWORD PTR [esp+0x8],0x0
    32d9:	00 00 00 
    32dc:	67 66 c7 44 24 04 20 	mov    DWORD PTR [esp+0x4],0x9720
    32e3:	97 00 00 
    32e6:	67 66 c7 04 24 c3 70 	mov    DWORD PTR [esp],0x70c3
    32ed:	00 00 
    32ef:	66 e8 0a fb ff ff    	call   2dff <_strncpy>
D:\OneDrive\Study\Operating Systems\实验\project7\codes/./lib/utilsC.c:301
	loadFiles();
    32f5:	66 e8 05 00 00 00    	call   3300 <_loadFiles>
D:\OneDrive\Study\Operating Systems\实验\project7\codes/./lib/utilsC.c:302
}
    32fb:	90                   	nop
    32fc:	66 c9                	leave  
    32fe:	66 c3                	ret    

00003300 <_loadFiles>:
loadFiles():
D:\OneDrive\Study\Operating Systems\实验\project7\codes/./lib/utilsC.c:306


void loadFiles()
{
    3300:	66 55                	push   ebp
    3302:	66 89 e5             	mov    ebp,esp
    3305:	66 57                	push   edi
    3307:	66 56                	push   esi
    3309:	66 81 ec a4 00 00 00 	sub    esp,0xa4
D:\OneDrive\Study\Operating Systems\实验\project7\codes/./lib/utilsC.c:307
	char * rawRecords = getRecords(segOfOs, offsetOfRecord);
    3310:	67 66 c7 44 24 04 00 	mov    DWORD PTR [esp+0x4],0xd000
    3317:	d0 00 00 
    331a:	67 66 c7 04 24 00 20 	mov    DWORD PTR [esp],0x2000
    3321:	00 00 
    3323:	66 e8 6d ed ff ff    	call   2096 <_getRecords>
    3329:	67 66 89 45 e4       	mov    DWORD PTR [ebp-0x1c],eax
D:\OneDrive\Study\Operating Systems\实验\project7\codes/./lib/utilsC.c:308
	int i = 0;
    332e:	67 66 c7 45 f4 00 00 	mov    DWORD PTR [ebp-0xc],0x0
    3335:	00 00 
D:\OneDrive\Study\Operating Systems\实验\project7\codes/./lib/utilsC.c:309
	int l = 0;
    3337:	67 66 c7 45 f0 00 00 	mov    DWORD PTR [ebp-0x10],0x0
    333e:	00 00 
D:\OneDrive\Study\Operating Systems\实验\project7\codes/./lib/utilsC.c:310
	int size = 0;
    3340:	67 66 c7 45 ec 00 00 	mov    DWORD PTR [ebp-0x14],0x0
    3347:	00 00 
D:\OneDrive\Study\Operating Systems\实验\project7\codes/./lib/utilsC.c:311
	int place = 0;
    3349:	67 66 c7 45 e8 00 00 	mov    DWORD PTR [ebp-0x18],0x0
    3350:	00 00 
D:\OneDrive\Study\Operating Systems\实验\project7\codes/./lib/utilsC.c:313
	char name[30];
	enum fileType t = null;
    3352:	67 66 c7 45 e0 00 00 	mov    DWORD PTR [ebp-0x20],0x0
    3359:	00 00 
D:\OneDrive\Study\Operating Systems\实验\project7\codes/./lib/utilsC.c:315
	struct info tmp;
	while (rawRecords[i] != '\n')
    335b:	e9 17 02             	jmp    3575 <_loadFiles+0x275>
D:\OneDrive\Study\Operating Systems\实验\project7\codes/./lib/utilsC.c:317
	{
		size = 0;
    335e:	67 66 c7 45 ec 00 00 	mov    DWORD PTR [ebp-0x14],0x0
    3365:	00 00 
D:\OneDrive\Study\Operating Systems\实验\project7\codes/./lib/utilsC.c:318
		place = 0;
    3367:	67 66 c7 45 e8 00 00 	mov    DWORD PTR [ebp-0x18],0x0
    336e:	00 00 
D:\OneDrive\Study\Operating Systems\实验\project7\codes/./lib/utilsC.c:320
		// name
		++i;
    3370:	67 66 ff 45 f4       	inc    DWORD PTR [ebp-0xc]
D:\OneDrive\Study\Operating Systems\实验\project7\codes/./lib/utilsC.c:321
		l = 0;
    3375:	67 66 c7 45 f0 00 00 	mov    DWORD PTR [ebp-0x10],0x0
    337c:	00 00 
D:\OneDrive\Study\Operating Systems\实验\project7\codes/./lib/utilsC.c:322
		while (rawRecords[i] != '|') {
    337e:	eb 0a                	jmp    338a <_loadFiles+0x8a>
D:\OneDrive\Study\Operating Systems\实验\project7\codes/./lib/utilsC.c:323
			++i;
    3380:	67 66 ff 45 f4       	inc    DWORD PTR [ebp-0xc]
D:\OneDrive\Study\Operating Systems\实验\project7\codes/./lib/utilsC.c:324
			++l;
    3385:	67 66 ff 45 f0       	inc    DWORD PTR [ebp-0x10]
D:\OneDrive\Study\Operating Systems\实验\project7\codes/./lib/utilsC.c:322
		while (rawRecords[i] != '|') {
    338a:	67 66 8b 55 f4       	mov    edx,DWORD PTR [ebp-0xc]
    338f:	67 66 8b 45 e4       	mov    eax,DWORD PTR [ebp-0x1c]
    3394:	66 01 d0             	add    eax,edx
    3397:	67 8a 00             	mov    al,BYTE PTR [eax]
    339a:	3c 7c                	cmp    al,0x7c
    339c:	75 e2                	jne    3380 <_loadFiles+0x80>
D:\OneDrive\Study\Operating Systems\实验\project7\codes/./lib/utilsC.c:326
		}
		++i;
    339e:	67 66 ff 45 f4       	inc    DWORD PTR [ebp-0xc]
D:\OneDrive\Study\Operating Systems\实验\project7\codes/./lib/utilsC.c:327
		strncpy(rawRecords + i - l - 1, name, l);
    33a3:	67 66 8b 55 f4       	mov    edx,DWORD PTR [ebp-0xc]
    33a8:	67 66 8b 45 f0       	mov    eax,DWORD PTR [ebp-0x10]
    33ad:	66 29 c2             	sub    edx,eax
    33b0:	66 89 d0             	mov    eax,edx
    33b3:	67 66 8d 50 ff       	lea    edx,[eax-0x1]
    33b8:	67 66 8b 45 e4       	mov    eax,DWORD PTR [ebp-0x1c]
    33bd:	66 01 c2             	add    edx,eax
    33c0:	67 66 8b 45 f0       	mov    eax,DWORD PTR [ebp-0x10]
    33c5:	67 66 89 44 24 08    	mov    DWORD PTR [esp+0x8],eax
    33cb:	67 66 8d 45 c2       	lea    eax,[ebp-0x3e]
    33d0:	67 66 89 44 24 04    	mov    DWORD PTR [esp+0x4],eax
    33d6:	67 66 89 14 24       	mov    DWORD PTR [esp],edx
    33db:	66 e8 1e fa ff ff    	call   2dff <_strncpy>
D:\OneDrive\Study\Operating Systems\实验\project7\codes/./lib/utilsC.c:328
		name[l] = '\0';
    33e1:	67 66 8d 55 c2       	lea    edx,[ebp-0x3e]
    33e6:	67 66 8b 45 f0       	mov    eax,DWORD PTR [ebp-0x10]
    33eb:	66 01 d0             	add    eax,edx
    33ee:	67 c6 00 00          	mov    BYTE PTR [eax],0x0
D:\OneDrive\Study\Operating Systems\实验\project7\codes/./lib/utilsC.c:330
		// size
		while (rawRecords[i] != '|') {
    33f2:	eb 3a                	jmp    342e <_loadFiles+0x12e>
D:\OneDrive\Study\Operating Systems\实验\project7\codes/./lib/utilsC.c:331
			size = size * 10 + rawRecords[i] - '0';
    33f4:	67 66 8b 55 ec       	mov    edx,DWORD PTR [ebp-0x14]
    33f9:	66 89 d0             	mov    eax,edx
    33fc:	66 c1 e0 02          	shl    eax,0x2
    3400:	66 01 d0             	add    eax,edx
    3403:	66 01 c0             	add    eax,eax
    3406:	66 89 c1             	mov    ecx,eax
    3409:	67 66 8b 55 f4       	mov    edx,DWORD PTR [ebp-0xc]
    340e:	67 66 8b 45 e4       	mov    eax,DWORD PTR [ebp-0x1c]
    3413:	66 01 d0             	add    eax,edx
    3416:	67 8a 00             	mov    al,BYTE PTR [eax]
    3419:	66 0f be c0          	movsx  eax,al
    341d:	66 01 c8             	add    eax,ecx
    3420:	66 83 e8 30          	sub    eax,0x30
    3424:	67 66 89 45 ec       	mov    DWORD PTR [ebp-0x14],eax
D:\OneDrive\Study\Operating Systems\实验\project7\codes/./lib/utilsC.c:332
			++i;
    3429:	67 66 ff 45 f4       	inc    DWORD PTR [ebp-0xc]
D:\OneDrive\Study\Operating Systems\实验\project7\codes/./lib/utilsC.c:330
		while (rawRecords[i] != '|') {
    342e:	67 66 8b 55 f4       	mov    edx,DWORD PTR [ebp-0xc]
    3433:	67 66 8b 45 e4       	mov    eax,DWORD PTR [ebp-0x1c]
    3438:	66 01 d0             	add    eax,edx
    343b:	67 8a 00             	mov    al,BYTE PTR [eax]
    343e:	3c 7c                	cmp    al,0x7c
    3440:	75 b2                	jne    33f4 <_loadFiles+0xf4>
D:\OneDrive\Study\Operating Systems\实验\project7\codes/./lib/utilsC.c:334
		}
		++i;
    3442:	67 66 ff 45 f4       	inc    DWORD PTR [ebp-0xc]
D:\OneDrive\Study\Operating Systems\实验\project7\codes/./lib/utilsC.c:336
		// place
		while (rawRecords[i] != '|') {
    3447:	eb 3a                	jmp    3483 <_loadFiles+0x183>
D:\OneDrive\Study\Operating Systems\实验\project7\codes/./lib/utilsC.c:337
			place = place * 10 + rawRecords[i] - '0';
    3449:	67 66 8b 55 e8       	mov    edx,DWORD PTR [ebp-0x18]
    344e:	66 89 d0             	mov    eax,edx
    3451:	66 c1 e0 02          	shl    eax,0x2
    3455:	66 01 d0             	add    eax,edx
    3458:	66 01 c0             	add    eax,eax
    345b:	66 89 c1             	mov    ecx,eax
    345e:	67 66 8b 55 f4       	mov    edx,DWORD PTR [ebp-0xc]
    3463:	67 66 8b 45 e4       	mov    eax,DWORD PTR [ebp-0x1c]
    3468:	66 01 d0             	add    eax,edx
    346b:	67 8a 00             	mov    al,BYTE PTR [eax]
    346e:	66 0f be c0          	movsx  eax,al
    3472:	66 01 c8             	add    eax,ecx
    3475:	66 83 e8 30          	sub    eax,0x30
    3479:	67 66 89 45 e8       	mov    DWORD PTR [ebp-0x18],eax
D:\OneDrive\Study\Operating Systems\实验\project7\codes/./lib/utilsC.c:338
			++i;
    347e:	67 66 ff 45 f4       	inc    DWORD PTR [ebp-0xc]
D:\OneDrive\Study\Operating Systems\实验\project7\codes/./lib/utilsC.c:336
		while (rawRecords[i] != '|') {
    3483:	67 66 8b 55 f4       	mov    edx,DWORD PTR [ebp-0xc]
    3488:	67 66 8b 45 e4       	mov    eax,DWORD PTR [ebp-0x1c]
    348d:	66 01 d0             	add    eax,edx
    3490:	67 8a 00             	mov    al,BYTE PTR [eax]
    3493:	3c 7c                	cmp    al,0x7c
    3495:	75 b2                	jne    3449 <_loadFiles+0x149>
D:\OneDrive\Study\Operating Systems\实验\project7\codes/./lib/utilsC.c:340
		}
		++i;
    3497:	67 66 ff 45 f4       	inc    DWORD PTR [ebp-0xc]
D:\OneDrive\Study\Operating Systems\实验\project7\codes/./lib/utilsC.c:342
		//type
		t = rawRecords[i] - '0';
    349c:	67 66 8b 55 f4       	mov    edx,DWORD PTR [ebp-0xc]
    34a1:	67 66 8b 45 e4       	mov    eax,DWORD PTR [ebp-0x1c]
    34a6:	66 01 d0             	add    eax,edx
    34a9:	67 8a 00             	mov    al,BYTE PTR [eax]
    34ac:	66 0f be c0          	movsx  eax,al
    34b0:	66 83 e8 30          	sub    eax,0x30
    34b4:	67 66 89 45 e0       	mov    DWORD PTR [ebp-0x20],eax
D:\OneDrive\Study\Operating Systems\实验\project7\codes/./lib/utilsC.c:343
		i += 3;
    34b9:	67 66 83 45 f4 03    	add    DWORD PTR [ebp-0xc],0x3
D:\OneDrive\Study\Operating Systems\实验\project7\codes/./lib/utilsC.c:344
		tmp.size = size;
    34bf:	67 66 8b 45 ec       	mov    eax,DWORD PTR [ebp-0x14]
    34c4:	67 66 89 45 b4       	mov    DWORD PTR [ebp-0x4c],eax
D:\OneDrive\Study\Operating Systems\实验\project7\codes/./lib/utilsC.c:345
		tmp.type = t;
    34c9:	67 66 8b 45 e0       	mov    eax,DWORD PTR [ebp-0x20]
    34ce:	67 66 89 45 ac       	mov    DWORD PTR [ebp-0x54],eax
D:\OneDrive\Study\Operating Systems\实验\project7\codes/./lib/utilsC.c:346
		tmp.lmaddress = place;
    34d3:	67 66 8b 45 e8       	mov    eax,DWORD PTR [ebp-0x18]
    34d8:	67 66 89 45 b0       	mov    DWORD PTR [ebp-0x50],eax
D:\OneDrive\Study\Operating Systems\实验\project7\codes/./lib/utilsC.c:347
		tmp.deleted = 0;
    34dd:	67 66 c7 45 b8 00 00 	mov    DWORD PTR [ebp-0x48],0x0
    34e4:	00 00 
D:\OneDrive\Study\Operating Systems\实验\project7\codes/./lib/utilsC.c:348
		tmp.start = place / Cluster;
    34e6:	67 66 8b 45 e8       	mov    eax,DWORD PTR [ebp-0x18]
    34eb:	66 85 c0             	test   eax,eax
    34ee:	79 06                	jns    34f6 <_loadFiles+0x1f6>
    34f0:	66 05 ff 01 00 00    	add    eax,0x1ff
    34f6:	66 c1 f8 09          	sar    eax,0x9
    34fa:	67 66 89 45 bc       	mov    DWORD PTR [ebp-0x44],eax
D:\OneDrive\Study\Operating Systems\实验\project7\codes/./lib/utilsC.c:349
		setFAT(place, size);
    34ff:	67 66 8b 45 ec       	mov    eax,DWORD PTR [ebp-0x14]
    3504:	67 66 89 44 24 04    	mov    DWORD PTR [esp+0x4],eax
    350a:	67 66 8b 45 e8       	mov    eax,DWORD PTR [ebp-0x18]
    350f:	67 66 89 04 24       	mov    DWORD PTR [esp],eax
    3514:	66 e8 81 00 00 00    	call   359b <_setFAT>
D:\OneDrive\Study\Operating Systems\实验\project7\codes/./lib/utilsC.c:350
		strncpy(name, tmp.name, strlen(name));
    351a:	67 66 8d 45 c2       	lea    eax,[ebp-0x3e]
    351f:	67 66 89 04 24       	mov    DWORD PTR [esp],eax
    3524:	66 e8 ef f6 ff ff    	call   2c19 <_strlen>
    352a:	67 66 89 44 24 08    	mov    DWORD PTR [esp+0x8],eax
    3530:	67 66 8d 45 8c       	lea    eax,[ebp-0x74]
    3535:	67 66 89 44 24 04    	mov    DWORD PTR [esp+0x4],eax
    353b:	67 66 8d 45 c2       	lea    eax,[ebp-0x3e]
    3540:	67 66 89 04 24       	mov    DWORD PTR [esp],eax
    3545:	66 e8 b4 f8 ff ff    	call   2dff <_strncpy>
D:\OneDrive\Study\Operating Systems\实验\project7\codes/./lib/utilsC.c:351
		hash(name, tmp);
    354b:	67 66 8d 44 24 04    	lea    eax,[esp+0x4]
    3551:	67 66 8d 55 8c       	lea    edx,[ebp-0x74]
    3556:	66 b9 0d 00 00 00    	mov    ecx,0xd
    355c:	66 89 c7             	mov    edi,eax
    355f:	66 89 d6             	mov    esi,edx
    3562:	66 f3 a5             	rep movs DWORD PTR es:[di],DWORD PTR ds:[si]
    3565:	67 66 8d 45 c2       	lea    eax,[ebp-0x3e]
    356a:	67 66 89 04 24       	mov    DWORD PTR [esp],eax
    356f:	66 e8 85 fa ff ff    	call   2ffa <_hash>
D:\OneDrive\Study\Operating Systems\实验\project7\codes/./lib/utilsC.c:315
	while (rawRecords[i] != '\n')
    3575:	67 66 8b 55 f4       	mov    edx,DWORD PTR [ebp-0xc]
    357a:	67 66 8b 45 e4       	mov    eax,DWORD PTR [ebp-0x1c]
    357f:	66 01 d0             	add    eax,edx
    3582:	67 8a 00             	mov    al,BYTE PTR [eax]
    3585:	3c 0a                	cmp    al,0xa
    3587:	0f 85 d3 fd          	jne    335e <_loadFiles+0x5e>
D:\OneDrive\Study\Operating Systems\实验\project7\codes/./lib/utilsC.c:353
	}
}
    358b:	90                   	nop
    358c:	66 81 c4 a4 00 00 00 	add    esp,0xa4
    3593:	66 5e                	pop    esi
    3595:	66 5f                	pop    edi
    3597:	66 5d                	pop    ebp
    3599:	66 c3                	ret    

0000359b <_setFAT>:
setFAT():
D:\OneDrive\Study\Operating Systems\实验\project7\codes/./lib/utilsC.c:356
// 娉ㄦFAT浠0寮濮
void setFAT(int lmaddress, int size)
{
    359b:	66 55                	push   ebp
    359d:	66 89 e5             	mov    ebp,esp
    35a0:	66 83 ec 0c          	sub    esp,0xc
D:\OneDrive\Study\Operating Systems\实验\project7\codes/./lib/utilsC.c:357
	int begin = lmaddress / Cluster;
    35a4:	67 66 8b 45 08       	mov    eax,DWORD PTR [ebp+0x8]
    35a9:	66 85 c0             	test   eax,eax
    35ac:	79 06                	jns    35b4 <_setFAT+0x19>
    35ae:	66 05 ff 01 00 00    	add    eax,0x1ff
    35b4:	66 c1 f8 09          	sar    eax,0x9
    35b8:	67 66 89 45 f8       	mov    DWORD PTR [ebp-0x8],eax
D:\OneDrive\Study\Operating Systems\实验\project7\codes/./lib/utilsC.c:358
	int num = size / Cluster;
    35bd:	67 66 8b 45 0c       	mov    eax,DWORD PTR [ebp+0xc]
    35c2:	66 85 c0             	test   eax,eax
    35c5:	79 06                	jns    35cd <_setFAT+0x32>
    35c7:	66 05 ff 01 00 00    	add    eax,0x1ff
    35cd:	66 c1 f8 09          	sar    eax,0x9
    35d1:	67 66 89 45 f4       	mov    DWORD PTR [ebp-0xc],eax
D:\OneDrive\Study\Operating Systems\实验\project7\codes/./lib/utilsC.c:359
	for (int i = 0; i < num - 1; ++i)
    35d6:	67 66 c7 45 fc 00 00 	mov    DWORD PTR [ebp-0x4],0x0
    35dd:	00 00 
    35df:	eb 33                	jmp    3614 <_setFAT+0x79>
D:\OneDrive\Study\Operating Systems\实验\project7\codes/./lib/utilsC.c:361
	{
		FAT[i + begin] = i + begin + 1;
    35e1:	66 a1 00 97          	mov    eax,ds:0x9700
    35e5:	67 66 8b 4d fc       	mov    ecx,DWORD PTR [ebp-0x4]
    35ea:	67 66 8b 55 f8       	mov    edx,DWORD PTR [ebp-0x8]
    35ef:	66 01 ca             	add    edx,ecx
    35f2:	66 01 d2             	add    edx,edx
    35f5:	67 66 8d 0c 10       	lea    ecx,[eax+edx*1]
    35fa:	67 66 8b 45 fc       	mov    eax,DWORD PTR [ebp-0x4]
    35ff:	66 89 c2             	mov    edx,eax
    3602:	67 66 8b 45 f8       	mov    eax,DWORD PTR [ebp-0x8]
    3607:	66 01 d0             	add    eax,edx
    360a:	66 40                	inc    eax
    360c:	67 89 01             	mov    WORD PTR [ecx],ax
D:\OneDrive\Study\Operating Systems\实验\project7\codes/./lib/utilsC.c:359
	for (int i = 0; i < num - 1; ++i)
    360f:	67 66 ff 45 fc       	inc    DWORD PTR [ebp-0x4]
    3614:	67 66 8b 45 f4       	mov    eax,DWORD PTR [ebp-0xc]
    3619:	66 48                	dec    eax
    361b:	67 66 3b 45 fc       	cmp    eax,DWORD PTR [ebp-0x4]
    3620:	7f bf                	jg     35e1 <_setFAT+0x46>
D:\OneDrive\Study\Operating Systems\实验\project7\codes/./lib/utilsC.c:363
	}
	FAT[num + begin - 1] = 0xffff;
    3622:	66 a1 00 97          	mov    eax,ds:0x9700
    3626:	67 66 8b 4d f4       	mov    ecx,DWORD PTR [ebp-0xc]
    362b:	67 66 8b 55 f8       	mov    edx,DWORD PTR [ebp-0x8]
    3630:	66 01 ca             	add    edx,ecx
    3633:	66 81 c2 ff ff ff 7f 	add    edx,0x7fffffff
    363a:	66 01 d2             	add    edx,edx
    363d:	66 01 d0             	add    eax,edx
    3640:	67 c7 00 ff ff       	mov    WORD PTR [eax],0xffff
D:\OneDrive\Study\Operating Systems\实验\project7\codes/./lib/utilsC.c:364
}
    3645:	90                   	nop
    3646:	66 c9                	leave  
    3648:	66 c3                	ret    

0000364a <_resetFAT>:
resetFAT():
D:\OneDrive\Study\Operating Systems\实验\project7\codes/./lib/utilsC.c:367

void resetFAT(int lmaddress, int size)
{
    364a:	66 55                	push   ebp
    364c:	66 89 e5             	mov    ebp,esp
    364f:	66 83 ec 0c          	sub    esp,0xc
D:\OneDrive\Study\Operating Systems\实验\project7\codes/./lib/utilsC.c:368
	int begin = lmaddress / Cluster;
    3653:	67 66 8b 45 08       	mov    eax,DWORD PTR [ebp+0x8]
    3658:	66 85 c0             	test   eax,eax
    365b:	79 06                	jns    3663 <_resetFAT+0x19>
    365d:	66 05 ff 01 00 00    	add    eax,0x1ff
    3663:	66 c1 f8 09          	sar    eax,0x9
    3667:	67 66 89 45 f8       	mov    DWORD PTR [ebp-0x8],eax
D:\OneDrive\Study\Operating Systems\实验\project7\codes/./lib/utilsC.c:369
	int num = size / Cluster;
    366c:	67 66 8b 45 0c       	mov    eax,DWORD PTR [ebp+0xc]
    3671:	66 85 c0             	test   eax,eax
    3674:	79 06                	jns    367c <_resetFAT+0x32>
    3676:	66 05 ff 01 00 00    	add    eax,0x1ff
    367c:	66 c1 f8 09          	sar    eax,0x9
    3680:	67 66 89 45 f4       	mov    DWORD PTR [ebp-0xc],eax
D:\OneDrive\Study\Operating Systems\实验\project7\codes/./lib/utilsC.c:370
	for (int i = 0; i < num; ++i)
    3685:	67 66 c7 45 fc 00 00 	mov    DWORD PTR [ebp-0x4],0x0
    368c:	00 00 
    368e:	eb 21                	jmp    36b1 <_resetFAT+0x67>
D:\OneDrive\Study\Operating Systems\实验\project7\codes/./lib/utilsC.c:372
	{
		FAT[i + begin] = 0;
    3690:	66 a1 00 97          	mov    eax,ds:0x9700
    3694:	67 66 8b 4d fc       	mov    ecx,DWORD PTR [ebp-0x4]
    3699:	67 66 8b 55 f8       	mov    edx,DWORD PTR [ebp-0x8]
    369e:	66 01 ca             	add    edx,ecx
    36a1:	66 01 d2             	add    edx,edx
    36a4:	66 01 d0             	add    eax,edx
    36a7:	67 c7 00 00 00       	mov    WORD PTR [eax],0x0
D:\OneDrive\Study\Operating Systems\实验\project7\codes/./lib/utilsC.c:370
	for (int i = 0; i < num; ++i)
    36ac:	67 66 ff 45 fc       	inc    DWORD PTR [ebp-0x4]
    36b1:	67 66 8b 45 fc       	mov    eax,DWORD PTR [ebp-0x4]
    36b6:	67 66 3b 45 f4       	cmp    eax,DWORD PTR [ebp-0xc]
    36bb:	7c d3                	jl     3690 <_resetFAT+0x46>
D:\OneDrive\Study\Operating Systems\实验\project7\codes/./lib/utilsC.c:374
	}
}
    36bd:	90                   	nop
    36be:	66 c9                	leave  
    36c0:	66 c3                	ret    

000036c2 <_findNextProcessItem>:
findNextProcessItem():
D:\OneDrive\Study\Operating Systems\实验\project7\codes/./lib/utilsC.c:382



///////////// process ////////////////
int findNextProcessItem()
{
    36c2:	66 55                	push   ebp
    36c4:	66 89 e5             	mov    ebp,esp
    36c7:	66 83 ec 08          	sub    esp,0x8
D:\OneDrive\Study\Operating Systems\实验\project7\codes/./lib/utilsC.c:383
	int id = -1;
    36cb:	67 66 c7 45 fc ff ff 	mov    DWORD PTR [ebp-0x4],0xffffffff
    36d2:	ff ff 
D:\OneDrive\Study\Operating Systems\实验\project7\codes/./lib/utilsC.c:384
	while (id == -1) {
    36d4:	eb 43                	jmp    3719 <_findNextProcessItem+0x57>
D:\OneDrive\Study\Operating Systems\实验\project7\codes/./lib/utilsC.c:385
		int tmpProcessID = (curProcessId + 1) % Len;
    36d6:	66 a1 a0 be          	mov    eax,ds:0xbea0
    36da:	66 40                	inc    eax
    36dc:	66 b9 14 00 00 00    	mov    ecx,0x14
    36e2:	66 99                	cdq    
    36e4:	66 f7 f9             	idiv   ecx
    36e7:	67 66 89 55 f8       	mov    DWORD PTR [ebp-0x8],edx
D:\OneDrive\Study\Operating Systems\实验\project7\codes/./lib/utilsC.c:386
		if (processTable[tmpProcessID].id == -1) {
    36ec:	67 66 8b 55 f8       	mov    edx,DWORD PTR [ebp-0x8]
    36f1:	66 89 d0             	mov    eax,edx
    36f4:	66 c1 e0 03          	shl    eax,0x3
    36f8:	66 01 d0             	add    eax,edx
    36fb:	66 c1 e0 04          	shl    eax,0x4
    36ff:	66 05 84 b3 00 00    	add    eax,0xb384
    3705:	67 66 8b 00          	mov    eax,DWORD PTR [eax]
    3709:	66 83 f8 ff          	cmp    eax,0xffffffff
    370d:	75 0a                	jne    3719 <_findNextProcessItem+0x57>
D:\OneDrive\Study\Operating Systems\实验\project7\codes/./lib/utilsC.c:387
			id = tmpProcessID;
    370f:	67 66 8b 45 f8       	mov    eax,DWORD PTR [ebp-0x8]
    3714:	67 66 89 45 fc       	mov    DWORD PTR [ebp-0x4],eax
D:\OneDrive\Study\Operating Systems\实验\project7\codes/./lib/utilsC.c:384
	while (id == -1) {
    3719:	67 66 83 7d fc ff    	cmp    DWORD PTR [ebp-0x4],0xffffffff
    371f:	74 b5                	je     36d6 <_findNextProcessItem+0x14>
D:\OneDrive\Study\Operating Systems\实验\project7\codes/./lib/utilsC.c:390
		}
	}
	return id;
    3721:	67 66 8b 45 fc       	mov    eax,DWORD PTR [ebp-0x4]
D:\OneDrive\Study\Operating Systems\实验\project7\codes/./lib/utilsC.c:391
}
    3726:	66 c9                	leave  
    3728:	66 c3                	ret    

0000372a <_initialProcessTable>:
initialProcessTable():
D:\OneDrive\Study\Operating Systems\实验\project7\codes/./lib/utilsC.c:395


void initialProcessTable()
{
    372a:	66 55                	push   ebp
    372c:	66 89 e5             	mov    ebp,esp
    372f:	66 83 ec 14          	sub    esp,0x14
D:\OneDrive\Study\Operating Systems\实验\project7\codes/./lib/utilsC.c:396
	for (int i = 0; i < Len; ++i)
    3733:	67 66 c7 45 fc 00 00 	mov    DWORD PTR [ebp-0x4],0x0
    373a:	00 00 
    373c:	e9 ee 00             	jmp    382d <_initialProcessTable+0x103>
D:\OneDrive\Study\Operating Systems\实验\project7\codes/./lib/utilsC.c:398
	{
		processTable[i].id = -1;
    373f:	67 66 8b 55 fc       	mov    edx,DWORD PTR [ebp-0x4]
    3744:	66 89 d0             	mov    eax,edx
    3747:	66 c1 e0 03          	shl    eax,0x3
    374b:	66 01 d0             	add    eax,edx
    374e:	66 c1 e0 04          	shl    eax,0x4
    3752:	66 05 84 b3 00 00    	add    eax,0xb384
    3758:	67 66 c7 00 ff ff ff 	mov    DWORD PTR [eax],0xffffffff
    375f:	ff 
D:\OneDrive\Study\Operating Systems\实验\project7\codes/./lib/utilsC.c:399
		processTable[i].status = Origin;
    3760:	67 66 8b 55 fc       	mov    edx,DWORD PTR [ebp-0x4]
    3765:	66 89 d0             	mov    eax,edx
    3768:	66 c1 e0 03          	shl    eax,0x3
    376c:	66 01 d0             	add    eax,edx
    376f:	66 c1 e0 04          	shl    eax,0x4
    3773:	66 05 ec b3 00 00    	add    eax,0xb3ec
    3779:	67 66 c7 00 00 00 00 	mov    DWORD PTR [eax],0x0
    3780:	00 
D:\OneDrive\Study\Operating Systems\实验\project7\codes/./lib/utilsC.c:400
		processTable[i].fatherID = -1;
    3781:	67 66 8b 55 fc       	mov    edx,DWORD PTR [ebp-0x4]
    3786:	66 89 d0             	mov    eax,edx
    3789:	66 c1 e0 03          	shl    eax,0x3
    378d:	66 01 d0             	add    eax,edx
    3790:	66 c1 e0 04          	shl    eax,0x4
    3794:	66 05 b8 b3 00 00    	add    eax,0xb3b8
    379a:	67 66 c7 00 ff ff ff 	mov    DWORD PTR [eax],0xffffffff
    37a1:	ff 
D:\OneDrive\Study\Operating Systems\实验\project7\codes/./lib/utilsC.c:401
		processTable[i].sonID = -1;
    37a2:	67 66 8b 55 fc       	mov    edx,DWORD PTR [ebp-0x4]
    37a7:	66 89 d0             	mov    eax,edx
    37aa:	66 c1 e0 03          	shl    eax,0x3
    37ae:	66 01 d0             	add    eax,edx
    37b1:	66 c1 e0 04          	shl    eax,0x4
    37b5:	66 05 c0 b3 00 00    	add    eax,0xb3c0
    37bb:	67 66 c7 00 ff ff ff 	mov    DWORD PTR [eax],0xffffffff
    37c2:	ff 
D:\OneDrive\Study\Operating Systems\实验\project7\codes/./lib/utilsC.c:402
		processTable[i].waitProcess = -1;
    37c3:	67 66 8b 55 fc       	mov    edx,DWORD PTR [ebp-0x4]
    37c8:	66 89 d0             	mov    eax,edx
    37cb:	66 c1 e0 03          	shl    eax,0x3
    37cf:	66 01 d0             	add    eax,edx
    37d2:	66 c1 e0 04          	shl    eax,0x4
    37d6:	66 05 bc b3 00 00    	add    eax,0xb3bc
    37dc:	67 66 c7 00 ff ff ff 	mov    DWORD PTR [eax],0xffffffff
    37e3:	ff 
D:\OneDrive\Study\Operating Systems\实验\project7\codes/./lib/utilsC.c:403
		for (int j = 0; j < HeapLimit; ++j)
    37e4:	67 66 c7 45 f8 00 00 	mov    DWORD PTR [ebp-0x8],0x0
    37eb:	00 00 
    37ed:	eb 31                	jmp    3820 <_initialProcessTable+0xf6>
D:\OneDrive\Study\Operating Systems\实验\project7\codes/./lib/utilsC.c:405
		{
			processTable[i].heapArray[j] = -1;
    37ef:	67 66 8b 55 fc       	mov    edx,DWORD PTR [ebp-0x4]
    37f4:	66 89 d0             	mov    eax,edx
    37f7:	66 c1 e0 03          	shl    eax,0x3
    37fb:	66 01 d0             	add    eax,edx
    37fe:	66 c1 e0 02          	shl    eax,0x2
    3802:	67 66 8b 55 f8       	mov    edx,DWORD PTR [ebp-0x8]
    3807:	66 01 d0             	add    eax,edx
    380a:	66 83 c0 18          	add    eax,0x18
    380e:	67 66 c7 04 85 64 b3 	mov    DWORD PTR [eax*4+0xb364],0xffffffff
    3815:	00 00 ff ff ff ff 
D:\OneDrive\Study\Operating Systems\实验\project7\codes/./lib/utilsC.c:403
		for (int j = 0; j < HeapLimit; ++j)
    381b:	67 66 ff 45 f8       	inc    DWORD PTR [ebp-0x8]
    3820:	67 66 83 7d f8 04    	cmp    DWORD PTR [ebp-0x8],0x4
    3826:	7e c7                	jle    37ef <_initialProcessTable+0xc5>
D:\OneDrive\Study\Operating Systems\实验\project7\codes/./lib/utilsC.c:396
	for (int i = 0; i < Len; ++i)
    3828:	67 66 ff 45 fc       	inc    DWORD PTR [ebp-0x4]
    382d:	67 66 83 7d fc 13    	cmp    DWORD PTR [ebp-0x4],0x13
    3833:	0f 8e 08 ff          	jle    373f <_initialProcessTable+0x15>
D:\OneDrive\Study\Operating Systems\实验\project7\codes/./lib/utilsC.c:410
		}

	}

	processTable[0].status = running;
    3837:	66 c7 06 ec b3 02 00 	mov    DWORD PTR ds:0xb3ec,0x2
    383e:	00 00 
D:\OneDrive\Study\Operating Systems\实验\project7\codes/./lib/utilsC.c:411
	strncpy("kernel", processTable[0].name, 6);
    3840:	67 66 c7 44 24 08 06 	mov    DWORD PTR [esp+0x8],0x6
    3847:	00 00 00 
    384a:	67 66 c7 44 24 04 94 	mov    DWORD PTR [esp+0x4],0xb394
    3851:	b3 00 00 
    3854:	67 66 c7 04 24 c4 70 	mov    DWORD PTR [esp],0x70c4
    385b:	00 00 
    385d:	66 e8 9c f5 ff ff    	call   2dff <_strncpy>
D:\OneDrive\Study\Operating Systems\实验\project7\codes/./lib/utilsC.c:412
	processTable[0].id = 0;
    3863:	66 c7 06 84 b3 00 00 	mov    DWORD PTR ds:0xb384,0x0
    386a:	00 00 
D:\OneDrive\Study\Operating Systems\实验\project7\codes/./lib/utilsC.c:413
	processTable[0].pcb.cs = 0x2000;
    386c:	c7 06 7a b3 00 20    	mov    WORD PTR ds:0xb37a,0x2000
D:\OneDrive\Study\Operating Systems\实验\project7\codes/./lib/utilsC.c:414
	processTable[0].pcb.ip = 0x0;
    3872:	c7 06 78 b3 00 00    	mov    WORD PTR ds:0xb378,0x0
D:\OneDrive\Study\Operating Systems\实验\project7\codes/./lib/utilsC.c:415
	processTable[0].pcb.ss_now = 0x2000;
    3878:	c7 06 80 b3 00 20    	mov    WORD PTR ds:0xb380,0x2000
D:\OneDrive\Study\Operating Systems\实验\project7\codes/./lib/utilsC.c:416
	processTable[0].pcb.sp_now = 0xffff;
    387e:	c7 06 7e b3 ff ff    	mov    WORD PTR ds:0xb37e,0xffff
D:\OneDrive\Study\Operating Systems\实验\project7\codes/./lib/utilsC.c:418
	// curProcessId = 1;
}
    3884:	90                   	nop
    3885:	66 c9                	leave  
    3887:	66 c3                	ret    

00003889 <_createProcess>:
createProcess():
D:\OneDrive\Study\Operating Systems\实验\project7\codes/./lib/utilsC.c:423


//size瑕澶у
void createProcess(int id, char * name, int size, int cs, int ip, int ss, int sp, int blockNum)
{
    3889:	66 55                	push   ebp
    388b:	66 89 e5             	mov    ebp,esp
    388e:	66 83 ec 0c          	sub    esp,0xc
D:\OneDrive\Study\Operating Systems\实验\project7\codes/./lib/utilsC.c:424
	processTable[id].id = id;
    3892:	67 66 8b 55 08       	mov    edx,DWORD PTR [ebp+0x8]
    3897:	66 89 d0             	mov    eax,edx
    389a:	66 c1 e0 03          	shl    eax,0x3
    389e:	66 01 d0             	add    eax,edx
    38a1:	66 c1 e0 04          	shl    eax,0x4
    38a5:	67 66 8d 90 84 b3 00 	lea    edx,[eax+0xb384]
    38ac:	00 
    38ad:	67 66 8b 45 08       	mov    eax,DWORD PTR [ebp+0x8]
    38b2:	67 66 89 02          	mov    DWORD PTR [edx],eax
D:\OneDrive\Study\Operating Systems\实验\project7\codes/./lib/utilsC.c:425
	processTable[id].status = ready;
    38b6:	67 66 8b 55 08       	mov    edx,DWORD PTR [ebp+0x8]
    38bb:	66 89 d0             	mov    eax,edx
    38be:	66 c1 e0 03          	shl    eax,0x3
    38c2:	66 01 d0             	add    eax,edx
    38c5:	66 c1 e0 04          	shl    eax,0x4
    38c9:	66 05 ec b3 00 00    	add    eax,0xb3ec
    38cf:	67 66 c7 00 01 00 00 	mov    DWORD PTR [eax],0x1
    38d6:	00 
D:\OneDrive\Study\Operating Systems\实验\project7\codes/./lib/utilsC.c:428
	// int blockNum = findEnoughBlock(size);
	// blockNum = require(size, blockNum);
	processTable[id].blockNum = blockNum;
    38d7:	67 66 8b 55 08       	mov    edx,DWORD PTR [ebp+0x8]
    38dc:	66 89 d0             	mov    eax,edx
    38df:	66 c1 e0 03          	shl    eax,0x3
    38e3:	66 01 d0             	add    eax,edx
    38e6:	66 c1 e0 04          	shl    eax,0x4
    38ea:	67 66 8d 90 88 b3 00 	lea    edx,[eax+0xb388]
    38f1:	00 
    38f2:	67 66 8b 45 24       	mov    eax,DWORD PTR [ebp+0x24]
    38f7:	67 66 89 02          	mov    DWORD PTR [edx],eax
D:\OneDrive\Study\Operating Systems\实验\project7\codes/./lib/utilsC.c:429
	strncpy(name, processTable[id].name, strlen(name));
    38fb:	67 66 8b 45 0c       	mov    eax,DWORD PTR [ebp+0xc]
    3900:	67 66 89 04 24       	mov    DWORD PTR [esp],eax
    3905:	66 e8 0e f3 ff ff    	call   2c19 <_strlen>
    390b:	66 89 c2             	mov    edx,eax
    390e:	67 66 8b 4d 08       	mov    ecx,DWORD PTR [ebp+0x8]
    3913:	66 89 c8             	mov    eax,ecx
    3916:	66 c1 e0 03          	shl    eax,0x3
    391a:	66 01 c8             	add    eax,ecx
    391d:	66 c1 e0 04          	shl    eax,0x4
    3921:	66 83 c0 30          	add    eax,0x30
    3925:	66 05 60 b3 00 00    	add    eax,0xb360
    392b:	66 83 c0 04          	add    eax,0x4
    392f:	67 66 89 54 24 08    	mov    DWORD PTR [esp+0x8],edx
    3935:	67 66 89 44 24 04    	mov    DWORD PTR [esp+0x4],eax
    393b:	67 66 8b 45 0c       	mov    eax,DWORD PTR [ebp+0xc]
    3940:	67 66 89 04 24       	mov    DWORD PTR [esp],eax
    3945:	66 e8 b4 f4 ff ff    	call   2dff <_strncpy>
D:\OneDrive\Study\Operating Systems\实验\project7\codes/./lib/utilsC.c:441
	//浠ヤㄥ浠ｇ宸э规存ユ瑰csss娈碉涓绉婚崇Щ4浣硷浠ヤ娇寰绋搴锛org 0h锛涓瑕org绉婚
	// processTable[id].pcb.cs = segOfPrg + (offsetOfPrg >> 4);
	// processTable[id].pcb.ip = 0;
	// processTable[id].pcb.ss_now = segOfPrg + (offsetOfPrg >> 4);
	// processTable[id].pcb.sp_now = size-1;
	processTable[id].pcb.cs = cs;
    394b:	67 66 8b 45 14       	mov    eax,DWORD PTR [ebp+0x14]
    3950:	66 89 c2             	mov    edx,eax
    3953:	67 66 8b 4d 08       	mov    ecx,DWORD PTR [ebp+0x8]
    3958:	66 89 c8             	mov    eax,ecx
    395b:	66 c1 e0 03          	shl    eax,0x3
    395f:	66 01 c8             	add    eax,ecx
    3962:	66 c1 e0 04          	shl    eax,0x4
    3966:	66 05 7a b3 00 00    	add    eax,0xb37a
    396c:	67 89 10             	mov    WORD PTR [eax],dx
D:\OneDrive\Study\Operating Systems\实验\project7\codes/./lib/utilsC.c:442
	processTable[id].pcb.ip = ip;
    396f:	67 66 8b 45 18       	mov    eax,DWORD PTR [ebp+0x18]
    3974:	66 89 c2             	mov    edx,eax
    3977:	67 66 8b 4d 08       	mov    ecx,DWORD PTR [ebp+0x8]
    397c:	66 89 c8             	mov    eax,ecx
    397f:	66 c1 e0 03          	shl    eax,0x3
    3983:	66 01 c8             	add    eax,ecx
    3986:	66 c1 e0 04          	shl    eax,0x4
    398a:	66 05 78 b3 00 00    	add    eax,0xb378
    3990:	67 89 10             	mov    WORD PTR [eax],dx
D:\OneDrive\Study\Operating Systems\实验\project7\codes/./lib/utilsC.c:443
	processTable[id].pcb.ss_now = ss;
    3993:	67 66 8b 45 1c       	mov    eax,DWORD PTR [ebp+0x1c]
    3998:	66 89 c2             	mov    edx,eax
    399b:	67 66 8b 4d 08       	mov    ecx,DWORD PTR [ebp+0x8]
    39a0:	66 89 c8             	mov    eax,ecx
    39a3:	66 c1 e0 03          	shl    eax,0x3
    39a7:	66 01 c8             	add    eax,ecx
    39aa:	66 c1 e0 04          	shl    eax,0x4
    39ae:	66 05 80 b3 00 00    	add    eax,0xb380
    39b4:	67 89 10             	mov    WORD PTR [eax],dx
D:\OneDrive\Study\Operating Systems\实验\project7\codes/./lib/utilsC.c:444
	processTable[id].pcb.sp_now = sp;
    39b7:	67 66 8b 45 20       	mov    eax,DWORD PTR [ebp+0x20]
    39bc:	66 89 c2             	mov    edx,eax
    39bf:	67 66 8b 4d 08       	mov    ecx,DWORD PTR [ebp+0x8]
    39c4:	66 89 c8             	mov    eax,ecx
    39c7:	66 c1 e0 03          	shl    eax,0x3
    39cb:	66 01 c8             	add    eax,ecx
    39ce:	66 c1 e0 04          	shl    eax,0x4
    39d2:	66 05 7e b3 00 00    	add    eax,0xb37e
    39d8:	67 89 10             	mov    WORD PTR [eax],dx
D:\OneDrive\Study\Operating Systems\实验\project7\codes/./lib/utilsC.c:445
	processTable[id].size = size;
    39db:	67 66 8b 55 08       	mov    edx,DWORD PTR [ebp+0x8]
    39e0:	66 89 d0             	mov    eax,edx
    39e3:	66 c1 e0 03          	shl    eax,0x3
    39e7:	66 01 d0             	add    eax,edx
    39ea:	66 c1 e0 04          	shl    eax,0x4
    39ee:	67 66 8d 90 90 b3 00 	lea    edx,[eax+0xb390]
    39f5:	00 
    39f6:	67 66 8b 45 10       	mov    eax,DWORD PTR [ebp+0x10]
    39fb:	67 66 89 02          	mov    DWORD PTR [edx],eax
D:\OneDrive\Study\Operating Systems\实验\project7\codes/./lib/utilsC.c:447
	// loadReal(lmaddress, fileSize, offsetOfPrg, segOfPrg);
}
    39ff:	90                   	nop
    3a00:	66 c9                	leave  
    3a02:	66 c3                	ret    

00003a04 <_block>:
block():
D:\OneDrive\Study\Operating Systems\实验\project7\codes/./lib/utilsC.c:452

// 琚搁诲 waitProcess = -1
int quesize, tmp;
void block(int id)
{
    3a04:	66 55                	push   ebp
    3a06:	66 89 e5             	mov    ebp,esp
    3a09:	66 83 ec 0c          	sub    esp,0xc
D:\OneDrive\Study\Operating Systems\实验\project7\codes/./lib/utilsC.c:453
	__asm__("cli\n");
    3a0d:	fa                   	cli    
D:\OneDrive\Study\Operating Systems\实验\project7\codes/./lib/utilsC.c:454
	processTable[id].status = blocked;
    3a0e:	67 66 8b 55 08       	mov    edx,DWORD PTR [ebp+0x8]
    3a13:	66 89 d0             	mov    eax,edx
    3a16:	66 c1 e0 03          	shl    eax,0x3
    3a1a:	66 01 d0             	add    eax,edx
    3a1d:	66 c1 e0 04          	shl    eax,0x4
    3a21:	66 05 ec b3 00 00    	add    eax,0xb3ec
    3a27:	67 66 c7 00 03 00 00 	mov    DWORD PTR [eax],0x3
    3a2e:	00 
D:\OneDrive\Study\Operating Systems\实验\project7\codes/./lib/utilsC.c:455
	enqueue(&BlockedQue, id);
    3a2f:	67 66 8b 45 08       	mov    eax,DWORD PTR [ebp+0x8]
    3a34:	67 66 89 44 24 04    	mov    DWORD PTR [esp+0x4],eax
    3a3a:	67 66 c7 04 24 a0 96 	mov    DWORD PTR [esp],0x96a0
    3a41:	00 00 
    3a43:	66 e8 24 28 00 00    	call   626d <_enqueue>
D:\OneDrive\Study\Operating Systems\实验\project7\codes/./lib/utilsC.c:456
	quesize = size(&ReadyQue);
    3a49:	67 66 c7 04 24 c0 be 	mov    DWORD PTR [esp],0xbec0
    3a50:	00 00 
    3a52:	66 e8 cf 27 00 00    	call   6227 <_size>
    3a58:	66 a3 20 bf          	mov    ds:0xbf20,eax
D:\OneDrive\Study\Operating Systems\实验\project7\codes/./lib/utilsC.c:457
	for (int i = 0; i < quesize; ++i)
    3a5c:	67 66 c7 45 fc 00 00 	mov    DWORD PTR [ebp-0x4],0x0
    3a63:	00 00 
    3a65:	eb 42                	jmp    3aa9 <_block+0xa5>
D:\OneDrive\Study\Operating Systems\实验\project7\codes/./lib/utilsC.c:459
	{
		dequeue(&ReadyQue, &tmp);
    3a67:	67 66 c7 44 24 04 28 	mov    DWORD PTR [esp+0x4],0xbf28
    3a6e:	bf 00 00 
    3a71:	67 66 c7 04 24 c0 be 	mov    DWORD PTR [esp],0xbec0
    3a78:	00 00 
    3a7a:	66 e8 5a 28 00 00    	call   62da <_dequeue>
D:\OneDrive\Study\Operating Systems\实验\project7\codes/./lib/utilsC.c:460
		if (id != tmp)
    3a80:	66 a1 28 bf          	mov    eax,ds:0xbf28
    3a84:	67 66 39 45 08       	cmp    DWORD PTR [ebp+0x8],eax
    3a89:	74 19                	je     3aa4 <_block+0xa0>
D:\OneDrive\Study\Operating Systems\实验\project7\codes/./lib/utilsC.c:461
			enqueue(&ReadyQue, tmp);
    3a8b:	66 a1 28 bf          	mov    eax,ds:0xbf28
    3a8f:	67 66 89 44 24 04    	mov    DWORD PTR [esp+0x4],eax
    3a95:	67 66 c7 04 24 c0 be 	mov    DWORD PTR [esp],0xbec0
    3a9c:	00 00 
    3a9e:	66 e8 c9 27 00 00    	call   626d <_enqueue>
D:\OneDrive\Study\Operating Systems\实验\project7\codes/./lib/utilsC.c:457
	for (int i = 0; i < quesize; ++i)
    3aa4:	67 66 ff 45 fc       	inc    DWORD PTR [ebp-0x4]
    3aa9:	66 a1 20 bf          	mov    eax,ds:0xbf20
    3aad:	67 66 39 45 fc       	cmp    DWORD PTR [ebp-0x4],eax
    3ab2:	7c b3                	jl     3a67 <_block+0x63>
D:\OneDrive\Study\Operating Systems\实验\project7\codes/./lib/utilsC.c:463
	}
	__asm__("sti\n");
    3ab4:	fb                   	sti    
D:\OneDrive\Study\Operating Systems\实验\project7\codes/./lib/utilsC.c:464
}
    3ab5:	90                   	nop
    3ab6:	66 c9                	leave  
    3ab8:	66 c3                	ret    

00003aba <_wakeup>:
wakeup():
D:\OneDrive\Study\Operating Systems\实验\project7\codes/./lib/utilsC.c:467

void wakeup(int id)
{
    3aba:	66 55                	push   ebp
    3abc:	66 89 e5             	mov    ebp,esp
    3abf:	66 83 ec 0c          	sub    esp,0xc
D:\OneDrive\Study\Operating Systems\实验\project7\codes/./lib/utilsC.c:468
	__asm__("cli\n");
    3ac3:	fa                   	cli    
D:\OneDrive\Study\Operating Systems\实验\project7\codes/./lib/utilsC.c:469
	processTable[id].status = ready;
    3ac4:	67 66 8b 55 08       	mov    edx,DWORD PTR [ebp+0x8]
    3ac9:	66 89 d0             	mov    eax,edx
    3acc:	66 c1 e0 03          	shl    eax,0x3
    3ad0:	66 01 d0             	add    eax,edx
    3ad3:	66 c1 e0 04          	shl    eax,0x4
    3ad7:	66 05 ec b3 00 00    	add    eax,0xb3ec
    3add:	67 66 c7 00 01 00 00 	mov    DWORD PTR [eax],0x1
    3ae4:	00 
D:\OneDrive\Study\Operating Systems\实验\project7\codes/./lib/utilsC.c:470
	enqueue(&ReadyQue, id);
    3ae5:	67 66 8b 45 08       	mov    eax,DWORD PTR [ebp+0x8]
    3aea:	67 66 89 44 24 04    	mov    DWORD PTR [esp+0x4],eax
    3af0:	67 66 c7 04 24 c0 be 	mov    DWORD PTR [esp],0xbec0
    3af7:	00 00 
    3af9:	66 e8 6e 27 00 00    	call   626d <_enqueue>
D:\OneDrive\Study\Operating Systems\实验\project7\codes/./lib/utilsC.c:471
	quesize = size(&BlockedQue);
    3aff:	67 66 c7 04 24 a0 96 	mov    DWORD PTR [esp],0x96a0
    3b06:	00 00 
    3b08:	66 e8 19 27 00 00    	call   6227 <_size>
    3b0e:	66 a3 20 bf          	mov    ds:0xbf20,eax
D:\OneDrive\Study\Operating Systems\实验\project7\codes/./lib/utilsC.c:472
	for (int i = 0; i < quesize; ++i)
    3b12:	67 66 c7 45 fc 00 00 	mov    DWORD PTR [ebp-0x4],0x0
    3b19:	00 00 
    3b1b:	eb 42                	jmp    3b5f <_wakeup+0xa5>
D:\OneDrive\Study\Operating Systems\实验\project7\codes/./lib/utilsC.c:474
	{
		dequeue(&BlockedQue, &tmp);
    3b1d:	67 66 c7 44 24 04 28 	mov    DWORD PTR [esp+0x4],0xbf28
    3b24:	bf 00 00 
    3b27:	67 66 c7 04 24 a0 96 	mov    DWORD PTR [esp],0x96a0
    3b2e:	00 00 
    3b30:	66 e8 a4 27 00 00    	call   62da <_dequeue>
D:\OneDrive\Study\Operating Systems\实验\project7\codes/./lib/utilsC.c:475
		if (id != tmp)
    3b36:	66 a1 28 bf          	mov    eax,ds:0xbf28
    3b3a:	67 66 39 45 08       	cmp    DWORD PTR [ebp+0x8],eax
    3b3f:	74 19                	je     3b5a <_wakeup+0xa0>
D:\OneDrive\Study\Operating Systems\实验\project7\codes/./lib/utilsC.c:476
			enqueue(&BlockedQue, tmp);
    3b41:	66 a1 28 bf          	mov    eax,ds:0xbf28
    3b45:	67 66 89 44 24 04    	mov    DWORD PTR [esp+0x4],eax
    3b4b:	67 66 c7 04 24 a0 96 	mov    DWORD PTR [esp],0x96a0
    3b52:	00 00 
    3b54:	66 e8 13 27 00 00    	call   626d <_enqueue>
D:\OneDrive\Study\Operating Systems\实验\project7\codes/./lib/utilsC.c:472
	for (int i = 0; i < quesize; ++i)
    3b5a:	67 66 ff 45 fc       	inc    DWORD PTR [ebp-0x4]
    3b5f:	66 a1 20 bf          	mov    eax,ds:0xbf20
    3b63:	67 66 39 45 fc       	cmp    DWORD PTR [ebp-0x4],eax
    3b68:	7c b3                	jl     3b1d <_wakeup+0x63>
D:\OneDrive\Study\Operating Systems\实验\project7\codes/./lib/utilsC.c:478
	}
	__asm__("sti\n");
    3b6a:	fb                   	sti    
D:\OneDrive\Study\Operating Systems\实验\project7\codes/./lib/utilsC.c:479
}
    3b6b:	90                   	nop
    3b6c:	66 c9                	leave  
    3b6e:	66 c3                	ret    

00003b70 <_schedule>:
schedule():
D:\OneDrive\Study\Operating Systems\实验\project7\codes/./lib/utilsC.c:485

// 娉ㄦ褰舵锛诲洪撅
// 褰舵芥runningblocked
int next;
void schedule()
{
    3b70:	66 55                	push   ebp
    3b72:	66 89 e5             	mov    ebp,esp
    3b75:	66 83 ec 0c          	sub    esp,0xc
D:\OneDrive\Study\Operating Systems\实验\project7\codes/./lib/utilsC.c:486
	int i = 0;
    3b79:	67 66 c7 45 fc 00 00 	mov    DWORD PTR [ebp-0x4],0x0
    3b80:	00 00 
D:\OneDrive\Study\Operating Systems\实验\project7\codes/./lib/utilsC.c:487
	if (runSub == 1 && size(&ReadyQue) > 1)
    3b82:	66 a1 d8 92          	mov    eax,ds:0x92d8
    3b86:	66 83 f8 01          	cmp    eax,0x1
    3b8a:	0f 85 e4 00          	jne    3c72 <_schedule+0x102>
    3b8e:	67 66 c7 04 24 c0 be 	mov    DWORD PTR [esp],0xbec0
    3b95:	00 00 
    3b97:	66 e8 8a 26 00 00    	call   6227 <_size>
    3b9d:	66 83 f8 01          	cmp    eax,0x1
    3ba1:	0f 8e cd 00          	jle    3c72 <_schedule+0x102>
D:\OneDrive\Study\Operating Systems\实验\project7\codes/./lib/utilsC.c:491
	{
		// 娉ㄦ哄舵
		do {
			dequeue(&ReadyQue, &next);
    3ba5:	67 66 c7 44 24 04 68 	mov    DWORD PTR [esp+0x4],0xbf68
    3bac:	bf 00 00 
    3baf:	67 66 c7 04 24 c0 be 	mov    DWORD PTR [esp],0xbec0
    3bb6:	00 00 
    3bb8:	66 e8 1c 27 00 00    	call   62da <_dequeue>
D:\OneDrive\Study\Operating Systems\实验\project7\codes/./lib/utilsC.c:492
			if (next == 0) {
    3bbe:	66 a1 68 bf          	mov    eax,ds:0xbf68
    3bc2:	66 85 c0             	test   eax,eax
    3bc5:	75 19                	jne    3be0 <_schedule+0x70>
D:\OneDrive\Study\Operating Systems\实验\project7\codes/./lib/utilsC.c:493
				enqueue(&ReadyQue, next);
    3bc7:	66 a1 68 bf          	mov    eax,ds:0xbf68
    3bcb:	67 66 89 44 24 04    	mov    DWORD PTR [esp+0x4],eax
    3bd1:	67 66 c7 04 24 c0 be 	mov    DWORD PTR [esp],0xbec0
    3bd8:	00 00 
    3bda:	66 e8 8d 26 00 00    	call   626d <_enqueue>
D:\OneDrive\Study\Operating Systems\实验\project7\codes/./lib/utilsC.c:495
			}
		} while (next == 0);
    3be0:	66 a1 68 bf          	mov    eax,ds:0xbf68
    3be4:	66 85 c0             	test   eax,eax
    3be7:	74 bc                	je     3ba5 <_schedule+0x35>
D:\OneDrive\Study\Operating Systems\实验\project7\codes/./lib/utilsC.c:496
		processTable[next].status = running;
    3be9:	66 8b 16 68 bf       	mov    edx,DWORD PTR ds:0xbf68
    3bee:	66 89 d0             	mov    eax,edx
    3bf1:	66 c1 e0 03          	shl    eax,0x3
    3bf5:	66 01 d0             	add    eax,edx
    3bf8:	66 c1 e0 04          	shl    eax,0x4
    3bfc:	66 05 ec b3 00 00    	add    eax,0xb3ec
    3c02:	67 66 c7 00 02 00 00 	mov    DWORD PTR [eax],0x2
    3c09:	00 
D:\OneDrive\Study\Operating Systems\实验\project7\codes/./lib/utilsC.c:497
		if (processTable[curProcessId].status == running) {
    3c0a:	66 8b 16 a0 be       	mov    edx,DWORD PTR ds:0xbea0
    3c0f:	66 89 d0             	mov    eax,edx
    3c12:	66 c1 e0 03          	shl    eax,0x3
    3c16:	66 01 d0             	add    eax,edx
    3c19:	66 c1 e0 04          	shl    eax,0x4
    3c1d:	66 05 ec b3 00 00    	add    eax,0xb3ec
    3c23:	67 66 8b 00          	mov    eax,DWORD PTR [eax]
    3c27:	66 83 f8 02          	cmp    eax,0x2
    3c2b:	75 3a                	jne    3c67 <_schedule+0xf7>
D:\OneDrive\Study\Operating Systems\实验\project7\codes/./lib/utilsC.c:498
			processTable[curProcessId].status = ready;
    3c2d:	66 8b 16 a0 be       	mov    edx,DWORD PTR ds:0xbea0
    3c32:	66 89 d0             	mov    eax,edx
    3c35:	66 c1 e0 03          	shl    eax,0x3
    3c39:	66 01 d0             	add    eax,edx
    3c3c:	66 c1 e0 04          	shl    eax,0x4
    3c40:	66 05 ec b3 00 00    	add    eax,0xb3ec
    3c46:	67 66 c7 00 01 00 00 	mov    DWORD PTR [eax],0x1
    3c4d:	00 
D:\OneDrive\Study\Operating Systems\实验\project7\codes/./lib/utilsC.c:499
			enqueue(&ReadyQue, curProcessId);
    3c4e:	66 a1 a0 be          	mov    eax,ds:0xbea0
    3c52:	67 66 89 44 24 04    	mov    DWORD PTR [esp+0x4],eax
    3c58:	67 66 c7 04 24 c0 be 	mov    DWORD PTR [esp],0xbec0
    3c5f:	00 00 
    3c61:	66 e8 06 26 00 00    	call   626d <_enqueue>
D:\OneDrive\Study\Operating Systems\实验\project7\codes/./lib/utilsC.c:501
		}
		curProcessId = next;
    3c67:	66 a1 68 bf          	mov    eax,ds:0xbf68
    3c6b:	66 a3 a0 be          	mov    ds:0xbea0,eax
    3c6f:	e9 1e 01             	jmp    3d90 <_schedule+0x220>
D:\OneDrive\Study\Operating Systems\实验\project7\codes/./lib/utilsC.c:503
	}
	else if (runSub == 1 && size(&ReadyQue) == 1)
    3c72:	66 a1 d8 92          	mov    eax,ds:0x92d8
    3c76:	66 83 f8 01          	cmp    eax,0x1
    3c7a:	0f 85 e8 00          	jne    3d66 <_schedule+0x1f6>
    3c7e:	67 66 c7 04 24 c0 be 	mov    DWORD PTR [esp],0xbec0
    3c85:	00 00 
    3c87:	66 e8 9a 25 00 00    	call   6227 <_size>
    3c8d:	66 83 f8 01          	cmp    eax,0x1
    3c91:	0f 85 d1 00          	jne    3d66 <_schedule+0x1f6>
D:\OneDrive\Study\Operating Systems\实验\project7\codes/./lib/utilsC.c:506
	{
		// 浠ring0ring1锛浠ring1ring0涓
		dequeue(&ReadyQue, &next);
    3c95:	67 66 c7 44 24 04 68 	mov    DWORD PTR [esp+0x4],0xbf68
    3c9c:	bf 00 00 
    3c9f:	67 66 c7 04 24 c0 be 	mov    DWORD PTR [esp],0xbec0
    3ca6:	00 00 
    3ca8:	66 e8 2c 26 00 00    	call   62da <_dequeue>
D:\OneDrive\Study\Operating Systems\实验\project7\codes/./lib/utilsC.c:507
		if (next != 0) {
    3cae:	66 a1 68 bf          	mov    eax,ds:0xbf68
    3cb2:	66 85 c0             	test   eax,eax
    3cb5:	74 45                	je     3cfc <_schedule+0x18c>
D:\OneDrive\Study\Operating Systems\实验\project7\codes/./lib/utilsC.c:508
			processTable[next].status = running;
    3cb7:	66 8b 16 68 bf       	mov    edx,DWORD PTR ds:0xbf68
    3cbc:	66 89 d0             	mov    eax,edx
    3cbf:	66 c1 e0 03          	shl    eax,0x3
    3cc3:	66 01 d0             	add    eax,edx
    3cc6:	66 c1 e0 04          	shl    eax,0x4
    3cca:	66 05 ec b3 00 00    	add    eax,0xb3ec
    3cd0:	67 66 c7 00 02 00 00 	mov    DWORD PTR [eax],0x2
    3cd7:	00 
D:\OneDrive\Study\Operating Systems\实验\project7\codes/./lib/utilsC.c:509
			enqueue(&ReadyQue, curProcessId);
    3cd8:	66 a1 a0 be          	mov    eax,ds:0xbea0
    3cdc:	67 66 89 44 24 04    	mov    DWORD PTR [esp+0x4],eax
    3ce2:	67 66 c7 04 24 c0 be 	mov    DWORD PTR [esp],0xbec0
    3ce9:	00 00 
    3ceb:	66 e8 7c 25 00 00    	call   626d <_enqueue>
D:\OneDrive\Study\Operating Systems\实验\project7\codes/./lib/utilsC.c:510
			curProcessId = next;
    3cf1:	66 a1 68 bf          	mov    eax,ds:0xbf68
    3cf5:	66 a3 a0 be          	mov    ds:0xbea0,eax
D:\OneDrive\Study\Operating Systems\实验\project7\codes/./lib/utilsC.c:507
		if (next != 0) {
    3cf9:	e9 94 00             	jmp    3d90 <_schedule+0x220>
D:\OneDrive\Study\Operating Systems\实验\project7\codes/./lib/utilsC.c:511
		} else if (processTable[curProcessId].status == running) {
    3cfc:	66 8b 16 a0 be       	mov    edx,DWORD PTR ds:0xbea0
    3d01:	66 89 d0             	mov    eax,edx
    3d04:	66 c1 e0 03          	shl    eax,0x3
    3d08:	66 01 d0             	add    eax,edx
    3d0b:	66 c1 e0 04          	shl    eax,0x4
    3d0f:	66 05 ec b3 00 00    	add    eax,0xb3ec
    3d15:	67 66 8b 00          	mov    eax,DWORD PTR [eax]
    3d19:	66 83 f8 02          	cmp    eax,0x2
    3d1d:	75 1b                	jne    3d3a <_schedule+0x1ca>
D:\OneDrive\Study\Operating Systems\实验\project7\codes/./lib/utilsC.c:512
			enqueue(&ReadyQue, next);
    3d1f:	66 a1 68 bf          	mov    eax,ds:0xbf68
    3d23:	67 66 89 44 24 04    	mov    DWORD PTR [esp+0x4],eax
    3d29:	67 66 c7 04 24 c0 be 	mov    DWORD PTR [esp],0xbec0
    3d30:	00 00 
    3d32:	66 e8 35 25 00 00    	call   626d <_enqueue>
D:\OneDrive\Study\Operating Systems\实验\project7\codes/./lib/utilsC.c:507
		if (next != 0) {
    3d38:	eb 56                	jmp    3d90 <_schedule+0x220>
D:\OneDrive\Study\Operating Systems\实验\project7\codes/./lib/utilsC.c:514
		} else {
			curProcessId = 0;
    3d3a:	66 c7 06 a0 be 00 00 	mov    DWORD PTR ds:0xbea0,0x0
    3d41:	00 00 
D:\OneDrive\Study\Operating Systems\实验\project7\codes/./lib/utilsC.c:515
			processTable[curProcessId].status = running;
    3d43:	66 8b 16 a0 be       	mov    edx,DWORD PTR ds:0xbea0
    3d48:	66 89 d0             	mov    eax,edx
    3d4b:	66 c1 e0 03          	shl    eax,0x3
    3d4f:	66 01 d0             	add    eax,edx
    3d52:	66 c1 e0 04          	shl    eax,0x4
    3d56:	66 05 ec b3 00 00    	add    eax,0xb3ec
    3d5c:	67 66 c7 00 02 00 00 	mov    DWORD PTR [eax],0x2
    3d63:	00 
D:\OneDrive\Study\Operating Systems\实验\project7\codes/./lib/utilsC.c:507
		if (next != 0) {
    3d64:	eb 2a                	jmp    3d90 <_schedule+0x220>
D:\OneDrive\Study\Operating Systems\实验\project7\codes/./lib/utilsC.c:520
		}
	}
	else
	{
		curProcessId = 0;
    3d66:	66 c7 06 a0 be 00 00 	mov    DWORD PTR ds:0xbea0,0x0
    3d6d:	00 00 
D:\OneDrive\Study\Operating Systems\实验\project7\codes/./lib/utilsC.c:521
		processTable[curProcessId].status = running;
    3d6f:	66 8b 16 a0 be       	mov    edx,DWORD PTR ds:0xbea0
    3d74:	66 89 d0             	mov    eax,edx
    3d77:	66 c1 e0 03          	shl    eax,0x3
    3d7b:	66 01 d0             	add    eax,edx
    3d7e:	66 c1 e0 04          	shl    eax,0x4
    3d82:	66 05 ec b3 00 00    	add    eax,0xb3ec
    3d88:	67 66 c7 00 02 00 00 	mov    DWORD PTR [eax],0x2
    3d8f:	00 
D:\OneDrive\Study\Operating Systems\实验\project7\codes/./lib/utilsC.c:523
	}
}
    3d90:	90                   	nop
    3d91:	66 c9                	leave  
    3d93:	66 c3                	ret    

00003d95 <_do_fork>:
do_fork():
D:\OneDrive\Study\Operating Systems\实验\project7\codes/./lib/utilsC.c:530

//璁板充腑
//杩ヤ宸茬save宸憋哄讳restart板澶杩绋
char name[40];
void do_fork()
{
    3d95:	66 55                	push   ebp
    3d97:	66 89 e5             	mov    ebp,esp
    3d9a:	66 83 ec 48          	sub    esp,0x48
D:\OneDrive\Study\Operating Systems\实验\project7\codes/./lib/utilsC.c:531
	int stackSize = 0x300;
    3d9e:	67 66 c7 45 fc 00 03 	mov    DWORD PTR [ebp-0x4],0x300
    3da5:	00 00 
D:\OneDrive\Study\Operating Systems\实验\project7\codes/./lib/utilsC.c:532
	strncpy(processTable[curProcessId].name, name, strlen(processTable[curProcessId].name));
    3da7:	66 8b 16 a0 be       	mov    edx,DWORD PTR ds:0xbea0
    3dac:	66 89 d0             	mov    eax,edx
    3daf:	66 c1 e0 03          	shl    eax,0x3
    3db3:	66 01 d0             	add    eax,edx
    3db6:	66 c1 e0 04          	shl    eax,0x4
    3dba:	66 83 c0 30          	add    eax,0x30
    3dbe:	66 05 60 b3 00 00    	add    eax,0xb360
    3dc4:	66 83 c0 04          	add    eax,0x4
    3dc8:	67 66 89 04 24       	mov    DWORD PTR [esp],eax
    3dcd:	66 e8 46 ee ff ff    	call   2c19 <_strlen>
    3dd3:	66 89 c2             	mov    edx,eax
    3dd6:	66 8b 0e a0 be       	mov    ecx,DWORD PTR ds:0xbea0
    3ddb:	66 89 c8             	mov    eax,ecx
    3dde:	66 c1 e0 03          	shl    eax,0x3
    3de2:	66 01 c8             	add    eax,ecx
    3de5:	66 c1 e0 04          	shl    eax,0x4
    3de9:	66 83 c0 30          	add    eax,0x30
    3ded:	66 05 60 b3 00 00    	add    eax,0xb360
    3df3:	66 83 c0 04          	add    eax,0x4
    3df7:	67 66 89 54 24 08    	mov    DWORD PTR [esp+0x8],edx
    3dfd:	67 66 c7 44 24 04 40 	mov    DWORD PTR [esp+0x4],0xbf40
    3e04:	bf 00 00 
    3e07:	67 66 89 04 24       	mov    DWORD PTR [esp],eax
    3e0c:	66 e8 ed ef ff ff    	call   2dff <_strncpy>
D:\OneDrive\Study\Operating Systems\实验\project7\codes/./lib/utilsC.c:533
	concate(name, "Sub");
    3e12:	67 66 c7 44 24 04 cb 	mov    DWORD PTR [esp+0x4],0x70cb
    3e19:	70 00 00 
    3e1c:	67 66 c7 04 24 40 bf 	mov    DWORD PTR [esp],0xbf40
    3e23:	00 00 
    3e25:	66 e8 24 ee ff ff    	call   2c4f <_concate>
D:\OneDrive\Study\Operating Systems\实验\project7\codes/./lib/utilsC.c:534
	int blockNum = findEnoughBlock(stackSize);
    3e2b:	67 66 8b 45 fc       	mov    eax,DWORD PTR [ebp-0x4]
    3e30:	67 66 89 04 24       	mov    DWORD PTR [esp],eax
    3e35:	66 e8 31 1c 00 00    	call   5a6c <_findEnoughBlock>
    3e3b:	67 66 89 45 f8       	mov    DWORD PTR [ebp-0x8],eax
D:\OneDrive\Study\Operating Systems\实验\project7\codes/./lib/utilsC.c:535
	blockNum = require(stackSize, blockNum);
    3e40:	67 66 8b 45 f8       	mov    eax,DWORD PTR [ebp-0x8]
    3e45:	67 66 89 44 24 04    	mov    DWORD PTR [esp+0x4],eax
    3e4b:	67 66 8b 45 fc       	mov    eax,DWORD PTR [ebp-0x4]
    3e50:	67 66 89 04 24       	mov    DWORD PTR [esp],eax
    3e55:	66 e8 ba 1c 00 00    	call   5b15 <_require>
    3e5b:	67 66 89 45 f8       	mov    DWORD PTR [ebp-0x8],eax
D:\OneDrive\Study\Operating Systems\实验\project7\codes/./lib/utilsC.c:537
	int segOfSour, segOfDes;
	int segMask = 0xf0000;
    3e60:	67 66 c7 45 f4 00 00 	mov    DWORD PTR [ebp-0xc],0xf0000
    3e67:	0f 00 
D:\OneDrive\Study\Operating Systems\实验\project7\codes/./lib/utilsC.c:538
	int offsetMask = 0x0000ffff;
    3e69:	67 66 c7 45 f0 ff ff 	mov    DWORD PTR [ebp-0x10],0xffff
    3e70:	00 00 
D:\OneDrive\Study\Operating Systems\实验\project7\codes/./lib/utilsC.c:539
	segOfDes = (memoryTable[blockNum].beginAddr & segMask) >> 4;
    3e72:	67 66 8b 55 f8       	mov    edx,DWORD PTR [ebp-0x8]
    3e77:	66 89 d0             	mov    eax,edx
    3e7a:	66 01 c0             	add    eax,eax
    3e7d:	66 01 d0             	add    eax,edx
    3e80:	66 c1 e0 03          	shl    eax,0x3
    3e84:	66 05 e0 92 00 00    	add    eax,0x92e0
    3e8a:	67 66 8b 00          	mov    eax,DWORD PTR [eax]
    3e8e:	67 66 23 45 f4       	and    eax,DWORD PTR [ebp-0xc]
    3e93:	66 c1 f8 04          	sar    eax,0x4
    3e97:	67 66 89 45 ec       	mov    DWORD PTR [ebp-0x14],eax
D:\OneDrive\Study\Operating Systems\实验\project7\codes/./lib/utilsC.c:540
	segOfSour = ((memoryTable[processTable[curProcessId].blockNum].endAddr - stackSize + 1) & segMask) >> 4;
    3e9c:	66 8b 16 a0 be       	mov    edx,DWORD PTR ds:0xbea0
    3ea1:	66 89 d0             	mov    eax,edx
    3ea4:	66 c1 e0 03          	shl    eax,0x3
    3ea8:	66 01 d0             	add    eax,edx
    3eab:	66 c1 e0 04          	shl    eax,0x4
    3eaf:	66 05 88 b3 00 00    	add    eax,0xb388
    3eb5:	67 66 8b 10          	mov    edx,DWORD PTR [eax]
    3eb9:	66 89 d0             	mov    eax,edx
    3ebc:	66 01 c0             	add    eax,eax
    3ebf:	66 01 d0             	add    eax,edx
    3ec2:	66 c1 e0 03          	shl    eax,0x3
    3ec6:	66 05 e4 92 00 00    	add    eax,0x92e4
    3ecc:	67 66 8b 00          	mov    eax,DWORD PTR [eax]
    3ed0:	67 66 2b 45 fc       	sub    eax,DWORD PTR [ebp-0x4]
    3ed5:	66 40                	inc    eax
    3ed7:	67 66 23 45 f4       	and    eax,DWORD PTR [ebp-0xc]
    3edc:	66 c1 f8 04          	sar    eax,0x4
    3ee0:	67 66 89 45 e8       	mov    DWORD PTR [ebp-0x18],eax
D:\OneDrive\Study\Operating Systems\实验\project7\codes/./lib/utilsC.c:541
	int cs = processTable[curProcessId].pcb.cs, ip = processTable[curProcessId].pcb.ip;
    3ee5:	66 8b 16 a0 be       	mov    edx,DWORD PTR ds:0xbea0
    3eea:	66 89 d0             	mov    eax,edx
    3eed:	66 c1 e0 03          	shl    eax,0x3
    3ef1:	66 01 d0             	add    eax,edx
    3ef4:	66 c1 e0 04          	shl    eax,0x4
    3ef8:	66 05 7a b3 00 00    	add    eax,0xb37a
    3efe:	67 8b 00             	mov    ax,WORD PTR [eax]
    3f01:	66 98                	cwde   
    3f03:	67 66 89 45 e4       	mov    DWORD PTR [ebp-0x1c],eax
    3f08:	66 8b 16 a0 be       	mov    edx,DWORD PTR ds:0xbea0
    3f0d:	66 89 d0             	mov    eax,edx
    3f10:	66 c1 e0 03          	shl    eax,0x3
    3f14:	66 01 d0             	add    eax,edx
    3f17:	66 c1 e0 04          	shl    eax,0x4
    3f1b:	66 05 78 b3 00 00    	add    eax,0xb378
    3f21:	67 66 8b 00          	mov    eax,DWORD PTR [eax]
    3f25:	66 98                	cwde   
    3f27:	67 66 89 45 e0       	mov    DWORD PTR [ebp-0x20],eax
D:\OneDrive\Study\Operating Systems\实验\project7\codes/./lib/utilsC.c:542
	int ss = segOfDes,
    3f2c:	67 66 8b 45 ec       	mov    eax,DWORD PTR [ebp-0x14]
    3f31:	67 66 89 45 dc       	mov    DWORD PTR [ebp-0x24],eax
D:\OneDrive\Study\Operating Systems\实验\project7\codes/./lib/utilsC.c:543
	    sp = ((memoryTable[blockNum].beginAddr)&offsetMask) + processTable[curProcessId].pcb.sp_now - ((memoryTable[processTable[curProcessId].blockNum].endAddr - stackSize + 1)&offsetMask);
    3f36:	67 66 8b 55 f8       	mov    edx,DWORD PTR [ebp-0x8]
    3f3b:	66 89 d0             	mov    eax,edx
    3f3e:	66 01 c0             	add    eax,eax
    3f41:	66 01 d0             	add    eax,edx
    3f44:	66 c1 e0 03          	shl    eax,0x3
    3f48:	66 05 e0 92 00 00    	add    eax,0x92e0
    3f4e:	67 66 8b 00          	mov    eax,DWORD PTR [eax]
    3f52:	67 66 23 45 f0       	and    eax,DWORD PTR [ebp-0x10]
    3f57:	66 89 c1             	mov    ecx,eax
    3f5a:	66 8b 16 a0 be       	mov    edx,DWORD PTR ds:0xbea0
    3f5f:	66 89 d0             	mov    eax,edx
    3f62:	66 c1 e0 03          	shl    eax,0x3
    3f66:	66 01 d0             	add    eax,edx
    3f69:	66 c1 e0 04          	shl    eax,0x4
    3f6d:	66 05 7e b3 00 00    	add    eax,0xb37e
    3f73:	67 8b 00             	mov    ax,WORD PTR [eax]
    3f76:	66 98                	cwde   
    3f78:	66 01 c1             	add    ecx,eax
    3f7b:	66 8b 16 a0 be       	mov    edx,DWORD PTR ds:0xbea0
    3f80:	66 89 d0             	mov    eax,edx
    3f83:	66 c1 e0 03          	shl    eax,0x3
    3f87:	66 01 d0             	add    eax,edx
    3f8a:	66 c1 e0 04          	shl    eax,0x4
    3f8e:	66 05 88 b3 00 00    	add    eax,0xb388
    3f94:	67 66 8b 10          	mov    edx,DWORD PTR [eax]
    3f98:	66 89 d0             	mov    eax,edx
    3f9b:	66 01 c0             	add    eax,eax
    3f9e:	66 01 d0             	add    eax,edx
    3fa1:	66 c1 e0 03          	shl    eax,0x3
    3fa5:	66 05 e4 92 00 00    	add    eax,0x92e4
    3fab:	67 66 8b 00          	mov    eax,DWORD PTR [eax]
    3faf:	67 66 2b 45 fc       	sub    eax,DWORD PTR [ebp-0x4]
    3fb4:	66 40                	inc    eax
    3fb6:	67 66 23 45 f0       	and    eax,DWORD PTR [ebp-0x10]
    3fbb:	66 29 c1             	sub    ecx,eax
    3fbe:	66 89 c8             	mov    eax,ecx
    3fc1:	67 66 89 45 d8       	mov    DWORD PTR [ebp-0x28],eax
D:\OneDrive\Study\Operating Systems\实验\project7\codes/./lib/utilsC.c:544
	memcpy(segOfOs, (int)&processTable[curProcessId].pcb, segOfOs, (int)&processTable[ProcessSize].pcb, sizeof(struct PCB));
    3fc6:	66 8b 16 fc 96       	mov    edx,DWORD PTR ds:0x96fc
    3fcb:	66 89 d0             	mov    eax,edx
    3fce:	66 c1 e0 03          	shl    eax,0x3
    3fd2:	66 01 d0             	add    eax,edx
    3fd5:	66 c1 e0 04          	shl    eax,0x4
    3fd9:	66 05 60 b3 00 00    	add    eax,0xb360
    3fdf:	66 89 c1             	mov    ecx,eax
    3fe2:	66 8b 16 a0 be       	mov    edx,DWORD PTR ds:0xbea0
    3fe7:	66 89 d0             	mov    eax,edx
    3fea:	66 c1 e0 03          	shl    eax,0x3
    3fee:	66 01 d0             	add    eax,edx
    3ff1:	66 c1 e0 04          	shl    eax,0x4
    3ff5:	66 05 60 b3 00 00    	add    eax,0xb360
    3ffb:	67 66 c7 44 24 10 22 	mov    DWORD PTR [esp+0x10],0x22
    4002:	00 00 00 
    4005:	67 66 89 4c 24 0c    	mov    DWORD PTR [esp+0xc],ecx
    400b:	67 66 c7 44 24 08 00 	mov    DWORD PTR [esp+0x8],0x2000
    4012:	20 00 00 
    4015:	67 66 89 44 24 04    	mov    DWORD PTR [esp+0x4],eax
    401b:	67 66 c7 04 24 00 20 	mov    DWORD PTR [esp],0x2000
    4022:	00 00 
    4024:	66 e8 bf e0 ff ff    	call   20e9 <_memcpy>
D:\OneDrive\Study\Operating Systems\实验\project7\codes/./lib/utilsC.c:545
	memcpy(segOfSour, (memoryTable[processTable[curProcessId].blockNum].endAddr - stackSize + 1)&offsetMask, segOfDes, (memoryTable[blockNum].beginAddr)&offsetMask, stackSize);
    402a:	67 66 8b 55 f8       	mov    edx,DWORD PTR [ebp-0x8]
    402f:	66 89 d0             	mov    eax,edx
    4032:	66 01 c0             	add    eax,eax
    4035:	66 01 d0             	add    eax,edx
    4038:	66 c1 e0 03          	shl    eax,0x3
    403c:	66 05 e0 92 00 00    	add    eax,0x92e0
    4042:	67 66 8b 00          	mov    eax,DWORD PTR [eax]
    4046:	67 66 23 45 f0       	and    eax,DWORD PTR [ebp-0x10]
    404b:	66 89 c2             	mov    edx,eax
    404e:	66 8b 0e a0 be       	mov    ecx,DWORD PTR ds:0xbea0
    4053:	66 89 c8             	mov    eax,ecx
    4056:	66 c1 e0 03          	shl    eax,0x3
    405a:	66 01 c8             	add    eax,ecx
    405d:	66 c1 e0 04          	shl    eax,0x4
    4061:	66 05 88 b3 00 00    	add    eax,0xb388
    4067:	67 66 8b 08          	mov    ecx,DWORD PTR [eax]
    406b:	66 89 c8             	mov    eax,ecx
    406e:	66 01 c0             	add    eax,eax
    4071:	66 01 c8             	add    eax,ecx
    4074:	66 c1 e0 03          	shl    eax,0x3
    4078:	66 05 e4 92 00 00    	add    eax,0x92e4
    407e:	67 66 8b 00          	mov    eax,DWORD PTR [eax]
    4082:	67 66 2b 45 fc       	sub    eax,DWORD PTR [ebp-0x4]
    4087:	66 40                	inc    eax
    4089:	67 66 23 45 f0       	and    eax,DWORD PTR [ebp-0x10]
    408e:	67 66 8b 4d fc       	mov    ecx,DWORD PTR [ebp-0x4]
    4093:	67 66 89 4c 24 10    	mov    DWORD PTR [esp+0x10],ecx
    4099:	67 66 89 54 24 0c    	mov    DWORD PTR [esp+0xc],edx
    409f:	67 66 8b 55 ec       	mov    edx,DWORD PTR [ebp-0x14]
    40a4:	67 66 89 54 24 08    	mov    DWORD PTR [esp+0x8],edx
    40aa:	67 66 89 44 24 04    	mov    DWORD PTR [esp+0x4],eax
    40b0:	67 66 8b 45 e8       	mov    eax,DWORD PTR [ebp-0x18]
    40b5:	67 66 89 04 24       	mov    DWORD PTR [esp],eax
    40ba:	66 e8 29 e0 ff ff    	call   20e9 <_memcpy>
D:\OneDrive\Study\Operating Systems\实验\project7\codes/./lib/utilsC.c:546
	createProcess(ProcessSize++, name, stackSize, cs, ip, ss, sp, blockNum);
    40c0:	66 a1 fc 96          	mov    eax,ds:0x96fc
    40c4:	67 66 8d 50 01       	lea    edx,[eax+0x1]
    40c9:	66 89 16 fc 96       	mov    DWORD PTR ds:0x96fc,edx
    40ce:	67 66 8b 55 f8       	mov    edx,DWORD PTR [ebp-0x8]
