
..\imgs\boot.tmp:     file format pei-i386


Disassembly of section .text:

00000000 <.text>:
       0:	66 8c c8             	mov    eax,cs
       3:	8e d8                	mov    ds,ax
       5:	8e c0                	mov    es,ax
       7:	8e d0                	mov    ss,ax
       9:	8e e8                	mov    gs,ax
       b:	66 e8 74 10 00 00    	call   1085 <_inisys>
      11:	eb 00                	jmp    13 <__main>

00000013 <__main>:
_main():
D:\OneDrive\Study\Operating Systems\实验\project7\codes/./kernel/os.c:39
{
	int i;
	struct testMalloc * next;
};

int _main() {
      13:	66 55                	push   ebp
      15:	66 89 e5             	mov    ebp,esp
      18:	66 56                	push   esi
      1a:	66 53                	push   ebx
      1c:	66 81 ec b8 00 00 00 	sub    esp,0xb8
D:\OneDrive\Study\Operating Systems\实验\project7\codes/./kernel/os.c:40
	runSub = 0;
      23:	66 c7 06 d8 92 00 00 	mov    DWORD PTR ds:0x92d8,0x0
      2a:	00 00 
D:\OneDrive\Study\Operating Systems\实验\project7\codes/./kernel/os.c:41
	curProcessId = 0;
      2c:	66 c7 06 a0 be 00 00 	mov    DWORD PTR ds:0xbea0,0x0
      33:	00 00 
D:\OneDrive\Study\Operating Systems\实验\project7\codes/./kernel/os.c:42
	ProcessSize = 1;
      35:	66 c7 06 fc 96 01 00 	mov    DWORD PTR ds:0x96fc,0x1
      3c:	00 00 
D:\OneDrive\Study\Operating Systems\实验\project7\codes/./kernel/os.c:43
	SizeOfProcessStruct = sizeof(struct Process);
      3e:	66 c7 06 04 97 90 00 	mov    DWORD PTR ds:0x9704,0x90
      45:	00 00 
D:\OneDrive\Study\Operating Systems\实验\project7\codes/./kernel/os.c:44
	initial();
      47:	66 e8 97 2b 00 00    	call   2be4 <_initial>
D:\OneDrive\Study\Operating Systems\实验\project7\codes/./kernel/os.c:47
	char * in;
	char * str;
	int tmp = -1;
      4d:	67 66 c7 85 60 ff ff 	mov    DWORD PTR [ebp-0xa0],0xffffffff
      54:	ff ff ff ff ff 
D:\OneDrive\Study\Operating Systems\实验\project7\codes/./kernel/os.c:48
	init(&ReadyQue);
      59:	67 66 c7 04 24 c0 be 	mov    DWORD PTR [esp],0xbec0
      60:	00 00 
      62:	66 e8 d2 61 00 00    	call   623a <_init>
D:\OneDrive\Study\Operating Systems\实验\project7\codes/./kernel/os.c:49
	init(&BlockedQue);
      68:	67 66 c7 04 24 a0 96 	mov    DWORD PTR [esp],0x96a0
      6f:	00 00 
      71:	66 e8 c3 61 00 00    	call   623a <_init>
D:\OneDrive\Study\Operating Systems\实验\project7\codes/./kernel/os.c:50
	init(&SuspendQue);
      77:	67 66 c7 04 24 00 b3 	mov    DWORD PTR [esp],0xb300
      7e:	00 00 
      80:	66 e8 b4 61 00 00    	call   623a <_init>
D:\OneDrive\Study\Operating Systems\实验\project7\codes/./kernel/os.c:53

	do {
		in = getInput();
      86:	66 e8 65 15 00 00    	call   15f1 <_getInput>
      8c:	67 66 89 45 f0       	mov    DWORD PTR [ebp-0x10],eax
D:\OneDrive\Study\Operating Systems\实验\project7\codes/./kernel/os.c:54
		if (strcmp(in, "testFork") == 0) {
      91:	67 66 c7 44 24 04 00 	mov    DWORD PTR [esp+0x4],0x7000
      98:	70 00 00 
      9b:	67 66 8b 45 f0       	mov    eax,DWORD PTR [ebp-0x10]
      a0:	67 66 89 04 24       	mov    DWORD PTR [esp],eax
      a5:	66 e8 3f 2c 00 00    	call   2cea <_strcmp>
      ab:	66 85 c0             	test   eax,eax
      ae:	0f 85 a7 01          	jne    259 <__file_alignment__+0x59>
D:\OneDrive\Study\Operating Systems\实验\project7\codes/./kernel/os.c:55
			tmp = find(in);
      b2:	67 66 8b 45 f0       	mov    eax,DWORD PTR [ebp-0x10]
      b7:	67 66 89 04 24       	mov    DWORD PTR [esp],eax
      bc:	66 e8 b5 30 00 00    	call   3177 <_find>
      c2:	67 66 89 85 60 ff ff 	mov    DWORD PTR [ebp-0xa0],eax
      c9:	ff 
D:\OneDrive\Study\Operating Systems\实验\project7\codes/./kernel/os.c:57
			int offsetOfPrg, segOfPrg;
			int offsetMask = 0x0000ffff;
      ca:	67 66 c7 45 ec ff ff 	mov    DWORD PTR [ebp-0x14],0xffff
      d1:	00 00 
D:\OneDrive\Study\Operating Systems\实验\project7\codes/./kernel/os.c:58
			int segMask = 0xf0000;
      d3:	67 66 c7 45 e8 00 00 	mov    DWORD PTR [ebp-0x18],0xf0000
      da:	0f 00 
D:\OneDrive\Study\Operating Systems\实验\project7\codes/./kernel/os.c:59
			offsetOfPrg = 0x80000 & offsetMask;
      dc:	67 66 8b 45 ec       	mov    eax,DWORD PTR [ebp-0x14]
      e1:	66 25 00 00 08 00    	and    eax,0x80000
      e7:	67 66 89 45 e4       	mov    DWORD PTR [ebp-0x1c],eax
D:\OneDrive\Study\Operating Systems\实验\project7\codes/./kernel/os.c:60
			segOfPrg = (0x80000 & segMask) >> 4;
      ec:	67 66 8b 45 e8       	mov    eax,DWORD PTR [ebp-0x18]
      f1:	66 c1 f8 04          	sar    eax,0x4
      f5:	66 25 00 80 00 00    	and    eax,0x8000
      fb:	67 66 89 45 e0       	mov    DWORD PTR [ebp-0x20],eax
D:\OneDrive\Study\Operating Systems\实验\project7\codes/./kernel/os.c:61
			int cs = segOfPrg + (offsetOfPrg >> 4), ip = 0, ss = segOfPrg + (offsetOfPrg >> 4), sp = information[tmp].size + 1024 - 1;
     100:	67 66 8b 45 e4       	mov    eax,DWORD PTR [ebp-0x1c]
     105:	66 c1 f8 04          	sar    eax,0x4
     109:	66 89 c2             	mov    edx,eax
     10c:	67 66 8b 45 e0       	mov    eax,DWORD PTR [ebp-0x20]
     111:	66 01 d0             	add    eax,edx
     114:	67 66 89 45 dc       	mov    DWORD PTR [ebp-0x24],eax
     119:	67 66 c7 45 d8 00 00 	mov    DWORD PTR [ebp-0x28],0x0
     120:	00 00 
     122:	67 66 8b 45 e4       	mov    eax,DWORD PTR [ebp-0x1c]
     127:	66 c1 f8 04          	sar    eax,0x4
     12b:	66 89 c2             	mov    edx,eax
     12e:	67 66 8b 45 e0       	mov    eax,DWORD PTR [ebp-0x20]
     133:	66 01 d0             	add    eax,edx
     136:	67 66 89 45 d4       	mov    DWORD PTR [ebp-0x2c],eax
     13b:	67 66 8b 95 60 ff ff 	mov    edx,DWORD PTR [ebp-0xa0]
     142:	ff 
     143:	66 89 d0             	mov    eax,edx
     146:	66 01 c0             	add    eax,eax
     149:	66 01 d0             	add    eax,edx
     14c:	66 c1 e0 02          	shl    eax,0x2
     150:	66 01 d0             	add    eax,edx
     153:	66 c1 e0 02          	shl    eax,0x2
     157:	66 05 08 af 00 00    	add    eax,0xaf08
     15d:	67 66 8b 00          	mov    eax,DWORD PTR [eax]
     161:	66 05 ff 03 00 00    	add    eax,0x3ff
     167:	67 66 89 45 d0       	mov    DWORD PTR [ebp-0x30],eax
D:\OneDrive\Study\Operating Systems\实验\project7\codes/./kernel/os.c:62
			createProcess(findNextProcessItem(), information[tmp].name, information[tmp].size + 1024, cs, ip, ss, sp, 9);
     16c:	67 66 8b 95 60 ff ff 	mov    edx,DWORD PTR [ebp-0xa0]
     173:	ff 
     174:	66 89 d0             	mov    eax,edx
     177:	66 01 c0             	add    eax,eax
     17a:	66 01 d0             	add    eax,edx
     17d:	66 c1 e0 02          	shl    eax,0x2
     181:	66 01 d0             	add    eax,edx
     184:	66 c1 e0 02          	shl    eax,0x2
     188:	66 05 08 af 00 00    	add    eax,0xaf08
     18e:	67 66 8b 00          	mov    eax,DWORD PTR [eax]
     192:	67 66 8d b0 00 04 00 	lea    esi,[eax+0x400]
     199:	00 
     19a:	67 66 8b 95 60 ff ff 	mov    edx,DWORD PTR [ebp-0xa0]
     1a1:	ff 
     1a2:	66 89 d0             	mov    eax,edx
     1a5:	66 01 c0             	add    eax,eax
     1a8:	66 01 d0             	add    eax,edx
     1ab:	66 c1 e0 02          	shl    eax,0x2
     1af:	66 01 d0             	add    eax,edx
     1b2:	66 c1 e0 02          	shl    eax,0x2
     1b6:	67 66 8d 98 e0 ae 00 	lea    ebx,[eax+0xaee0]
     1bd:	00 
     1be:	66 e8 fe 34 00 00    	call   36c2 <_findNextProcessItem>
     1c4:	67 66 c7 44 24 1c 09 	mov    DWORD PTR [esp+0x1c],0x9
     1cb:	00 00 00 
     1ce:	67 66 8b 55 d0       	mov    edx,DWORD PTR [ebp-0x30]
     1d3:	67 66 89 54 24 18    	mov    DWORD PTR [esp+0x18],edx
     1d9:	67 66 8b 55 d4       	mov    edx,DWORD PTR [ebp-0x2c]
     1de:	67 66 89 54 24 14    	mov    DWORD PTR [esp+0x14],edx
     1e4:	67 66 8b 55 d8       	mov    edx,DWORD PTR [ebp-0x28]
     1e9:	67 66 89 54 24 10    	mov    DWORD PTR [esp+0x10],edx
     1ef:	67 66 8b 55 dc       	mov    edx,DWORD PTR [ebp-0x24]
     1f4:	67 66 89 54 24 0c    	mov    DWORD PTR [esp+0xc],edx
     1fa:	67 66 89 74 24 08    	mov    DWORD PTR [esp+0x8],esi
     200:	67 66 89 5c 24 04    	mov    DWORD PTR [esp+0x4],ebx
     206:	67 66 89 04 24       	mov    DWORD PTR [esp],eax
     20b:	66 e8 78 36 00 00    	call   3889 <_createProcess>
D:\OneDrive\Study\Operating Systems\实验\project7\codes/./kernel/os.c:63
			ProcessSize += 1;
     211:	66 a1 fc 96          	mov    eax,ds:0x96fc
     215:	66 40                	inc    eax
     217:	66 a3 fc 96          	mov    ds:0x96fc,eax
D:\OneDrive\Study\Operating Systems\实验\project7\codes/./kernel/os.c:64
			enqueue(&ReadyQue, ProcessSize - 1);
     21b:	66 a1 fc 96          	mov    eax,ds:0x96fc
     21f:	66 48                	dec    eax
     221:	67 66 89 44 24 04    	mov    DWORD PTR [esp+0x4],eax
     227:	67 66 c7 04 24 c0 be 	mov    DWORD PTR [esp],0xbec0
     22e:	00 00 
     230:	66 e8 37 60 00 00    	call   626d <_enqueue>
D:\OneDrive\Study\Operating Systems\实验\project7\codes/./kernel/os.c:65
			clear();
     236:	66 e8 83 20 00 00    	call   22bf <_clear>
D:\OneDrive\Study\Operating Systems\实验\project7\codes/./kernel/os.c:66
			runSub = 1;
     23c:	66 c7 06 d8 92 01 00 	mov    DWORD PTR ds:0x92d8,0x1
     243:	00 00 
D:\OneDrive\Study\Operating Systems\实验\project7\codes/./kernel/os.c:67
			__asm__("int $0x8\n");
     245:	cd 08                	int    0x8
D:\OneDrive\Study\Operating Systems\实验\project7\codes/./kernel/os.c:68
			runSub = 0;
     247:	66 c7 06 d8 92 00 00 	mov    DWORD PTR ds:0x92d8,0x0
     24e:	00 00 
D:\OneDrive\Study\Operating Systems\实验\project7\codes/./kernel/os.c:69
			clear();
     250:	66 e8 69 20 00 00    	call   22bf <_clear>
     256:	e9 15 0e             	jmp    106e <__section_alignment__+0x6e>
D:\OneDrive\Study\Operating Systems\实验\project7\codes/./kernel/os.c:71
		}
		else if (in[0] == 'r' && in[1] == 'u' && in[2] == 'n')
     259:	67 66 8b 45 f0       	mov    eax,DWORD PTR [ebp-0x10]
     25e:	67 8a 00             	mov    al,BYTE PTR [eax]
     261:	3c 72                	cmp    al,0x72
     263:	0f 85 c1 04          	jne    728 <__file_alignment__+0x528>
     267:	67 66 8b 45 f0       	mov    eax,DWORD PTR [ebp-0x10]
     26c:	66 40                	inc    eax
     26e:	67 8a 00             	mov    al,BYTE PTR [eax]
     271:	3c 75                	cmp    al,0x75
     273:	0f 85 b1 04          	jne    728 <__file_alignment__+0x528>
     277:	67 66 8b 45 f0       	mov    eax,DWORD PTR [ebp-0x10]
     27c:	66 83 c0 02          	add    eax,0x2
     280:	67 8a 00             	mov    al,BYTE PTR [eax]
     283:	3c 6e                	cmp    al,0x6e
     285:	0f 85 9f 04          	jne    728 <__file_alignment__+0x528>
D:\OneDrive\Study\Operating Systems\实验\project7\codes/./kernel/os.c:73
		{
			printSentence("\n", line++, 0, strlen("\n"), white);
     289:	67 66 c7 04 24 09 70 	mov    DWORD PTR [esp],0x7009
     290:	00 00 
     292:	66 e8 81 29 00 00    	call   2c19 <_strlen>
     298:	66 89 c2             	mov    edx,eax
     29b:	66 a1 00 92          	mov    eax,ds:0x9200
     29f:	67 66 8d 48 01       	lea    ecx,[eax+0x1]
     2a4:	66 89 0e 00 92       	mov    DWORD PTR ds:0x9200,ecx
     2a9:	67 66 c7 44 24 10 0f 	mov    DWORD PTR [esp+0x10],0xf
     2b0:	00 00 00 
     2b3:	67 66 89 54 24 0c    	mov    DWORD PTR [esp+0xc],edx
     2b9:	67 66 c7 44 24 08 00 	mov    DWORD PTR [esp+0x8],0x0
     2c0:	00 00 00 
     2c3:	67 66 89 44 24 04    	mov    DWORD PTR [esp+0x4],eax
     2c9:	67 66 c7 04 24 09 70 	mov    DWORD PTR [esp],0x7009
     2d0:	00 00 
     2d2:	66 e8 cd 12 00 00    	call   15a5 <_printSentence>
D:\OneDrive\Study\Operating Systems\实验\project7\codes/./kernel/os.c:75
			do {
				str = getInput();
     2d8:	66 e8 13 13 00 00    	call   15f1 <_getInput>
     2de:	67 66 89 45 cc       	mov    DWORD PTR [ebp-0x34],eax
D:\OneDrive\Study\Operating Systems\实验\project7\codes/./kernel/os.c:76
				printSentence("\n", line++, 0, strlen("\n"), white);
     2e3:	67 66 c7 04 24 09 70 	mov    DWORD PTR [esp],0x7009
     2ea:	00 00 
     2ec:	66 e8 27 29 00 00    	call   2c19 <_strlen>
     2f2:	66 89 c2             	mov    edx,eax
     2f5:	66 a1 00 92          	mov    eax,ds:0x9200
     2f9:	67 66 8d 48 01       	lea    ecx,[eax+0x1]
     2fe:	66 89 0e 00 92       	mov    DWORD PTR ds:0x9200,ecx
     303:	67 66 c7 44 24 10 0f 	mov    DWORD PTR [esp+0x10],0xf
     30a:	00 00 00 
     30d:	67 66 89 54 24 0c    	mov    DWORD PTR [esp+0xc],edx
     313:	67 66 c7 44 24 08 00 	mov    DWORD PTR [esp+0x8],0x0
     31a:	00 00 00 
     31d:	67 66 89 44 24 04    	mov    DWORD PTR [esp+0x4],eax
     323:	67 66 c7 04 24 09 70 	mov    DWORD PTR [esp],0x7009
     32a:	00 00 
     32c:	66 e8 73 12 00 00    	call   15a5 <_printSentence>
D:\OneDrive\Study\Operating Systems\实验\project7\codes/./kernel/os.c:77
				if (str[0]) {
     332:	67 66 8b 45 cc       	mov    eax,DWORD PTR [ebp-0x34]
     337:	67 8a 00             	mov    al,BYTE PTR [eax]
     33a:	84 c0                	test   al,al
     33c:	0f 84 e7 02          	je     627 <__file_alignment__+0x427>
D:\OneDrive\Study\Operating Systems\实验\project7\codes/./kernel/os.c:78
					tmp = find(str);
     340:	67 66 8b 45 cc       	mov    eax,DWORD PTR [ebp-0x34]
     345:	67 66 89 04 24       	mov    DWORD PTR [esp],eax
     34a:	66 e8 27 2e 00 00    	call   3177 <_find>
     350:	67 66 89 85 60 ff ff 	mov    DWORD PTR [ebp-0xa0],eax
     357:	ff 
D:\OneDrive\Study\Operating Systems\实验\project7\codes/./kernel/os.c:79
					if (tmp != -1 && information[tmp].deleted != 1) {
     358:	67 66 8b 85 60 ff ff 	mov    eax,DWORD PTR [ebp-0xa0]
     35f:	ff 
     360:	66 83 f8 ff          	cmp    eax,0xffffffff
     364:	0f 84 bf 02          	je     627 <__file_alignment__+0x427>
     368:	67 66 8b 95 60 ff ff 	mov    edx,DWORD PTR [ebp-0xa0]
     36f:	ff 
     370:	66 89 d0             	mov    eax,edx
     373:	66 01 c0             	add    eax,eax
     376:	66 01 d0             	add    eax,edx
     379:	66 c1 e0 02          	shl    eax,0x2
     37d:	66 01 d0             	add    eax,edx
     380:	66 c1 e0 02          	shl    eax,0x2
     384:	66 05 0c af 00 00    	add    eax,0xaf0c
     38a:	67 66 8b 00          	mov    eax,DWORD PTR [eax]
     38e:	66 83 f8 01          	cmp    eax,0x1
     392:	0f 84 91 02          	je     627 <__file_alignment__+0x427>
D:\OneDrive\Study\Operating Systems\实验\project7\codes/./kernel/os.c:80
						int blockNum = findEnoughBlock(information[tmp].size + 1024);
     396:	67 66 8b 95 60 ff ff 	mov    edx,DWORD PTR [ebp-0xa0]
     39d:	ff 
     39e:	66 89 d0             	mov    eax,edx
     3a1:	66 01 c0             	add    eax,eax
     3a4:	66 01 d0             	add    eax,edx
     3a7:	66 c1 e0 02          	shl    eax,0x2
     3ab:	66 01 d0             	add    eax,edx
     3ae:	66 c1 e0 02          	shl    eax,0x2
     3b2:	66 05 08 af 00 00    	add    eax,0xaf08
     3b8:	67 66 8b 00          	mov    eax,DWORD PTR [eax]
     3bc:	66 05 00 04 00 00    	add    eax,0x400
     3c2:	67 66 89 04 24       	mov    DWORD PTR [esp],eax
     3c7:	66 e8 9f 56 00 00    	call   5a6c <_findEnoughBlock>
     3cd:	67 66 89 45 c8       	mov    DWORD PTR [ebp-0x38],eax
D:\OneDrive\Study\Operating Systems\实验\project7\codes/./kernel/os.c:81
						blockNum = require(information[tmp].size + 1024, blockNum);
     3d2:	67 66 8b 95 60 ff ff 	mov    edx,DWORD PTR [ebp-0xa0]
     3d9:	ff 
     3da:	66 89 d0             	mov    eax,edx
     3dd:	66 01 c0             	add    eax,eax
     3e0:	66 01 d0             	add    eax,edx
     3e3:	66 c1 e0 02          	shl    eax,0x2
     3e7:	66 01 d0             	add    eax,edx
     3ea:	66 c1 e0 02          	shl    eax,0x2
     3ee:	66 05 08 af 00 00    	add    eax,0xaf08
     3f4:	67 66 8b 00          	mov    eax,DWORD PTR [eax]
     3f8:	67 66 8d 90 00 04 00 	lea    edx,[eax+0x400]
     3ff:	00 
     400:	67 66 8b 45 c8       	mov    eax,DWORD PTR [ebp-0x38]
     405:	67 66 89 44 24 04    	mov    DWORD PTR [esp+0x4],eax
     40b:	67 66 89 14 24       	mov    DWORD PTR [esp],edx
     410:	66 e8 ff 56 00 00    	call   5b15 <_require>
     416:	67 66 89 45 c8       	mov    DWORD PTR [ebp-0x38],eax
D:\OneDrive\Study\Operating Systems\实验\project7\codes/./kernel/os.c:83
						int offsetOfPrg, segOfPrg;
						int offsetMask = 0x0000ffff;
     41b:	67 66 c7 45 c4 ff ff 	mov    DWORD PTR [ebp-0x3c],0xffff
     422:	00 00 
D:\OneDrive\Study\Operating Systems\实验\project7\codes/./kernel/os.c:84
						int segMask = 0xf0000;
     424:	67 66 c7 45 c0 00 00 	mov    DWORD PTR [ebp-0x40],0xf0000
     42b:	0f 00 
D:\OneDrive\Study\Operating Systems\实验\project7\codes/./kernel/os.c:85
						offsetOfPrg = memoryTable[blockNum].beginAddr & offsetMask;
     42d:	67 66 8b 55 c8       	mov    edx,DWORD PTR [ebp-0x38]
     432:	66 89 d0             	mov    eax,edx
     435:	66 01 c0             	add    eax,eax
     438:	66 01 d0             	add    eax,edx
     43b:	66 c1 e0 03          	shl    eax,0x3
     43f:	66 05 e0 92 00 00    	add    eax,0x92e0
     445:	67 66 8b 00          	mov    eax,DWORD PTR [eax]
     449:	67 66 23 45 c4       	and    eax,DWORD PTR [ebp-0x3c]
     44e:	67 66 89 45 bc       	mov    DWORD PTR [ebp-0x44],eax
D:\OneDrive\Study\Operating Systems\实验\project7\codes/./kernel/os.c:86
						segOfPrg = (memoryTable[blockNum].beginAddr & segMask) >> 4;
     453:	67 66 8b 55 c8       	mov    edx,DWORD PTR [ebp-0x38]
     458:	66 89 d0             	mov    eax,edx
     45b:	66 01 c0             	add    eax,eax
     45e:	66 01 d0             	add    eax,edx
     461:	66 c1 e0 03          	shl    eax,0x3
     465:	66 05 e0 92 00 00    	add    eax,0x92e0
     46b:	67 66 8b 00          	mov    eax,DWORD PTR [eax]
     46f:	67 66 23 45 c0       	and    eax,DWORD PTR [ebp-0x40]
     474:	66 c1 f8 04          	sar    eax,0x4
     478:	67 66 89 45 b8       	mov    DWORD PTR [ebp-0x48],eax
D:\OneDrive\Study\Operating Systems\实验\project7\codes/./kernel/os.c:87
						int cs = segOfPrg + (offsetOfPrg >> 4), ip = 0, ss = segOfPrg + (offsetOfPrg >> 4), sp = information[tmp].size + 1024 - 1;
     47d:	67 66 8b 45 bc       	mov    eax,DWORD PTR [ebp-0x44]
     482:	66 c1 f8 04          	sar    eax,0x4
     486:	66 89 c2             	mov    edx,eax
     489:	67 66 8b 45 b8       	mov    eax,DWORD PTR [ebp-0x48]
     48e:	66 01 d0             	add    eax,edx
     491:	67 66 89 45 b4       	mov    DWORD PTR [ebp-0x4c],eax
     496:	67 66 c7 45 b0 00 00 	mov    DWORD PTR [ebp-0x50],0x0
     49d:	00 00 
     49f:	67 66 8b 45 bc       	mov    eax,DWORD PTR [ebp-0x44]
     4a4:	66 c1 f8 04          	sar    eax,0x4
     4a8:	66 89 c2             	mov    edx,eax
     4ab:	67 66 8b 45 b8       	mov    eax,DWORD PTR [ebp-0x48]
     4b0:	66 01 d0             	add    eax,edx
     4b3:	67 66 89 45 ac       	mov    DWORD PTR [ebp-0x54],eax
     4b8:	67 66 8b 95 60 ff ff 	mov    edx,DWORD PTR [ebp-0xa0]
     4bf:	ff 
     4c0:	66 89 d0             	mov    eax,edx
     4c3:	66 01 c0             	add    eax,eax
     4c6:	66 01 d0             	add    eax,edx
     4c9:	66 c1 e0 02          	shl    eax,0x2
     4cd:	66 01 d0             	add    eax,edx
     4d0:	66 c1 e0 02          	shl    eax,0x2
     4d4:	66 05 08 af 00 00    	add    eax,0xaf08
     4da:	67 66 8b 00          	mov    eax,DWORD PTR [eax]
     4de:	66 05 ff 03 00 00    	add    eax,0x3ff
     4e4:	67 66 89 45 a8       	mov    DWORD PTR [ebp-0x58],eax
D:\OneDrive\Study\Operating Systems\实验\project7\codes/./kernel/os.c:88
						createProcess(findNextProcessItem(), information[tmp].name, information[tmp].size + 1024, cs, ip, ss, sp, blockNum);
     4e9:	67 66 8b 95 60 ff ff 	mov    edx,DWORD PTR [ebp-0xa0]
     4f0:	ff 
     4f1:	66 89 d0             	mov    eax,edx
     4f4:	66 01 c0             	add    eax,eax
     4f7:	66 01 d0             	add    eax,edx
     4fa:	66 c1 e0 02          	shl    eax,0x2
     4fe:	66 01 d0             	add    eax,edx
     501:	66 c1 e0 02          	shl    eax,0x2
     505:	66 05 08 af 00 00    	add    eax,0xaf08
     50b:	67 66 8b 00          	mov    eax,DWORD PTR [eax]
     50f:	67 66 8d b0 00 04 00 	lea    esi,[eax+0x400]
     516:	00 
     517:	67 66 8b 95 60 ff ff 	mov    edx,DWORD PTR [ebp-0xa0]
     51e:	ff 
     51f:	66 89 d0             	mov    eax,edx
     522:	66 01 c0             	add    eax,eax
     525:	66 01 d0             	add    eax,edx
     528:	66 c1 e0 02          	shl    eax,0x2
     52c:	66 01 d0             	add    eax,edx
     52f:	66 c1 e0 02          	shl    eax,0x2
     533:	67 66 8d 98 e0 ae 00 	lea    ebx,[eax+0xaee0]
     53a:	00 
     53b:	66 e8 81 31 00 00    	call   36c2 <_findNextProcessItem>
     541:	67 66 8b 55 c8       	mov    edx,DWORD PTR [ebp-0x38]
     546:	67 66 89 54 24 1c    	mov    DWORD PTR [esp+0x1c],edx
     54c:	67 66 8b 55 a8       	mov    edx,DWORD PTR [ebp-0x58]
     551:	67 66 89 54 24 18    	mov    DWORD PTR [esp+0x18],edx
     557:	67 66 8b 55 ac       	mov    edx,DWORD PTR [ebp-0x54]
     55c:	67 66 89 54 24 14    	mov    DWORD PTR [esp+0x14],edx
     562:	67 66 8b 55 b0       	mov    edx,DWORD PTR [ebp-0x50]
     567:	67 66 89 54 24 10    	mov    DWORD PTR [esp+0x10],edx
     56d:	67 66 8b 55 b4       	mov    edx,DWORD PTR [ebp-0x4c]
     572:	67 66 89 54 24 0c    	mov    DWORD PTR [esp+0xc],edx
     578:	67 66 89 74 24 08    	mov    DWORD PTR [esp+0x8],esi
     57e:	67 66 89 5c 24 04    	mov    DWORD PTR [esp+0x4],ebx
     584:	67 66 89 04 24       	mov    DWORD PTR [esp],eax
     589:	66 e8 fa 32 00 00    	call   3889 <_createProcess>
D:\OneDrive\Study\Operating Systems\实验\project7\codes/./kernel/os.c:89
						ProcessSize += 1;
     58f:	66 a1 fc 96          	mov    eax,ds:0x96fc
     593:	66 40                	inc    eax
     595:	66 a3 fc 96          	mov    ds:0x96fc,eax
D:\OneDrive\Study\Operating Systems\实验\project7\codes/./kernel/os.c:90
						loadReal(information[tmp].lmaddress, information[tmp].size, offsetOfPrg, segOfPrg);
     599:	67 66 8b 95 60 ff ff 	mov    edx,DWORD PTR [ebp-0xa0]
     5a0:	ff 
     5a1:	66 89 d0             	mov    eax,edx
     5a4:	66 01 c0             	add    eax,eax
     5a7:	66 01 d0             	add    eax,edx
     5aa:	66 c1 e0 02          	shl    eax,0x2
     5ae:	66 01 d0             	add    eax,edx
     5b1:	66 c1 e0 02          	shl    eax,0x2
     5b5:	66 05 08 af 00 00    	add    eax,0xaf08
     5bb:	67 66 8b 08          	mov    ecx,DWORD PTR [eax]
     5bf:	67 66 8b 95 60 ff ff 	mov    edx,DWORD PTR [ebp-0xa0]
     5c6:	ff 
     5c7:	66 89 d0             	mov    eax,edx
     5ca:	66 01 c0             	add    eax,eax
     5cd:	66 01 d0             	add    eax,edx
     5d0:	66 c1 e0 02          	shl    eax,0x2
     5d4:	66 01 d0             	add    eax,edx
     5d7:	66 c1 e0 02          	shl    eax,0x2
     5db:	66 05 04 af 00 00    	add    eax,0xaf04
     5e1:	67 66 8b 00          	mov    eax,DWORD PTR [eax]
     5e5:	67 66 8b 55 b8       	mov    edx,DWORD PTR [ebp-0x48]
     5ea:	67 66 89 54 24 0c    	mov    DWORD PTR [esp+0xc],edx
     5f0:	67 66 8b 55 bc       	mov    edx,DWORD PTR [ebp-0x44]
     5f5:	67 66 89 54 24 08    	mov    DWORD PTR [esp+0x8],edx
     5fb:	67 66 89 4c 24 04    	mov    DWORD PTR [esp+0x4],ecx
     601:	67 66 89 04 24       	mov    DWORD PTR [esp],eax
     606:	66 e8 46 11 00 00    	call   1752 <_loadReal>
D:\OneDrive\Study\Operating Systems\实验\project7\codes/./kernel/os.c:91
						enqueue(&ReadyQue, ProcessSize - 1);
     60c:	66 a1 fc 96          	mov    eax,ds:0x96fc
     610:	66 48                	dec    eax
     612:	67 66 89 44 24 04    	mov    DWORD PTR [esp+0x4],eax
     618:	67 66 c7 04 24 c0 be 	mov    DWORD PTR [esp],0xbec0
     61f:	00 00 
     621:	66 e8 46 5c 00 00    	call   626d <_enqueue>
D:\OneDrive\Study\Operating Systems\实验\project7\codes/./kernel/os.c:94
					}
				}
			} while (str[0] != '\0');
     627:	67 66 8b 45 cc       	mov    eax,DWORD PTR [ebp-0x34]
     62c:	67 8a 00             	mov    al,BYTE PTR [eax]
     62f:	84 c0                	test   al,al
     631:	0f 85 a3 fc          	jne    2d8 <__file_alignment__+0xd8>
D:\OneDrive\Study\Operating Systems\实验\project7\codes/./kernel/os.c:95
			int queSize = size(&BlockedQue);
     635:	67 66 c7 04 24 a0 96 	mov    DWORD PTR [esp],0x96a0
     63c:	00 00 
     63e:	66 e8 e3 5b 00 00    	call   6227 <_size>
     644:	67 66 89 45 a4       	mov    DWORD PTR [ebp-0x5c],eax
D:\OneDrive\Study\Operating Systems\实验\project7\codes/./kernel/os.c:96
			for (int i = 0; i < queSize; ++i)
     649:	67 66 c7 45 f4 00 00 	mov    DWORD PTR [ebp-0xc],0x0
     650:	00 00 
     652:	e9 a8 00             	jmp    6fd <__file_alignment__+0x4fd>
D:\OneDrive\Study\Operating Systems\实验\project7\codes/./kernel/os.c:98
			{
				dequeue(&BlockedQue, &tmp);
     655:	67 66 8d 85 60 ff ff 	lea    eax,[ebp-0xa0]
     65c:	ff 
     65d:	67 66 89 44 24 04    	mov    DWORD PTR [esp+0x4],eax
     663:	67 66 c7 04 24 a0 96 	mov    DWORD PTR [esp],0x96a0
     66a:	00 00 
     66c:	66 e8 68 5c 00 00    	call   62da <_dequeue>
D:\OneDrive\Study\Operating Systems\实验\project7\codes/./kernel/os.c:99
				if (processTable[tmp].waitProcess == -1) {
     672:	67 66 8b 95 60 ff ff 	mov    edx,DWORD PTR [ebp-0xa0]
     679:	ff 
     67a:	66 89 d0             	mov    eax,edx
     67d:	66 c1 e0 03          	shl    eax,0x3
     681:	66 01 d0             	add    eax,edx
     684:	66 c1 e0 04          	shl    eax,0x4
     688:	66 05 bc b3 00 00    	add    eax,0xb3bc
     68e:	67 66 8b 00          	mov    eax,DWORD PTR [eax]
     692:	66 83 f8 ff          	cmp    eax,0xffffffff
     696:	75 43                	jne    6db <__file_alignment__+0x4db>
D:\OneDrive\Study\Operating Systems\实验\project7\codes/./kernel/os.c:100
					processTable[tmp].status = ready;
     698:	67 66 8b 95 60 ff ff 	mov    edx,DWORD PTR [ebp-0xa0]
     69f:	ff 
     6a0:	66 89 d0             	mov    eax,edx
     6a3:	66 c1 e0 03          	shl    eax,0x3
     6a7:	66 01 d0             	add    eax,edx
     6aa:	66 c1 e0 04          	shl    eax,0x4
     6ae:	66 05 ec b3 00 00    	add    eax,0xb3ec
     6b4:	67 66 c7 00 01 00 00 	mov    DWORD PTR [eax],0x1
     6bb:	00 
D:\OneDrive\Study\Operating Systems\实验\project7\codes/./kernel/os.c:101
					enqueue(&ReadyQue, tmp);
     6bc:	67 66 8b 85 60 ff ff 	mov    eax,DWORD PTR [ebp-0xa0]
     6c3:	ff 
     6c4:	67 66 89 44 24 04    	mov    DWORD PTR [esp+0x4],eax
     6ca:	67 66 c7 04 24 c0 be 	mov    DWORD PTR [esp],0xbec0
     6d1:	00 00 
     6d3:	66 e8 94 5b 00 00    	call   626d <_enqueue>
     6d9:	eb 1d                	jmp    6f8 <__file_alignment__+0x4f8>
D:\OneDrive\Study\Operating Systems\实验\project7\codes/./kernel/os.c:103
				} else {
					enqueue(&BlockedQue, tmp);
     6db:	67 66 8b 85 60 ff ff 	mov    eax,DWORD PTR [ebp-0xa0]
     6e2:	ff 
     6e3:	67 66 89 44 24 04    	mov    DWORD PTR [esp+0x4],eax
     6e9:	67 66 c7 04 24 a0 96 	mov    DWORD PTR [esp],0x96a0
     6f0:	00 00 
     6f2:	66 e8 75 5b 00 00    	call   626d <_enqueue>
D:\OneDrive\Study\Operating Systems\实验\project7\codes/./kernel/os.c:96
			for (int i = 0; i < queSize; ++i)
     6f8:	67 66 ff 45 f4       	inc    DWORD PTR [ebp-0xc]
     6fd:	67 66 8b 45 f4       	mov    eax,DWORD PTR [ebp-0xc]
     702:	67 66 3b 45 a4       	cmp    eax,DWORD PTR [ebp-0x5c]
     707:	0f 8c 4a ff          	jl     655 <__file_alignment__+0x455>
D:\OneDrive\Study\Operating Systems\实验\project7\codes/./kernel/os.c:106
				}
			}
			runSub = 1;
     70b:	66 c7 06 d8 92 01 00 	mov    DWORD PTR ds:0x92d8,0x1
     712:	00 00 
D:\OneDrive\Study\Operating Systems\实验\project7\codes/./kernel/os.c:107
			__asm__("int $0x8\n");
     714:	cd 08                	int    0x8
D:\OneDrive\Study\Operating Systems\实验\project7\codes/./kernel/os.c:108
			runSub = 0;
     716:	66 c7 06 d8 92 00 00 	mov    DWORD PTR ds:0x92d8,0x0
     71d:	00 00 
D:\OneDrive\Study\Operating Systems\实验\project7\codes/./kernel/os.c:109
			clear();
     71f:	66 e8 9a 1b 00 00    	call   22bf <_clear>
D:\OneDrive\Study\Operating Systems\实验\project7\codes/./kernel/os.c:72
		{
     725:	e9 46 09             	jmp    106e <__section_alignment__+0x6e>
D:\OneDrive\Study\Operating Systems\实验\project7\codes/./kernel/os.c:111
		}
		else if (in[0] == '.' && in[1] == '/')
     728:	67 66 8b 45 f0       	mov    eax,DWORD PTR [ebp-0x10]
     72d:	67 8a 00             	mov    al,BYTE PTR [eax]
     730:	3c 2e                	cmp    al,0x2e
     732:	0f 85 18 03          	jne    a4e <.debug_info+0xfc>
     736:	67 66 8b 45 f0       	mov    eax,DWORD PTR [ebp-0x10]
     73b:	66 40                	inc    eax
     73d:	67 8a 00             	mov    al,BYTE PTR [eax]
     740:	3c 2f                	cmp    al,0x2f
     742:	0f 85 08 03          	jne    a4e <.debug_info+0xfc>
D:\OneDrive\Study\Operating Systems\实验\project7\codes/./kernel/os.c:113
		{
			tmp = find(in + 2);
     746:	67 66 8b 45 f0       	mov    eax,DWORD PTR [ebp-0x10]
     74b:	66 83 c0 02          	add    eax,0x2
     74f:	67 66 89 04 24       	mov    DWORD PTR [esp],eax
     754:	66 e8 1d 2a 00 00    	call   3177 <_find>
     75a:	67 66 89 85 60 ff ff 	mov    DWORD PTR [ebp-0xa0],eax
     761:	ff 
D:\OneDrive\Study\Operating Systems\实验\project7\codes/./kernel/os.c:114
			if (tmp != -1 && information[tmp].deleted != 1) {
     762:	67 66 8b 85 60 ff ff 	mov    eax,DWORD PTR [ebp-0xa0]
     769:	ff 
     76a:	66 83 f8 ff          	cmp    eax,0xffffffff
     76e:	0f 84 f5 08          	je     1067 <__section_alignment__+0x67>
     772:	67 66 8b 95 60 ff ff 	mov    edx,DWORD PTR [ebp-0xa0]
     779:	ff 
     77a:	66 89 d0             	mov    eax,edx
     77d:	66 01 c0             	add    eax,eax
     780:	66 01 d0             	add    eax,edx
     783:	66 c1 e0 02          	shl    eax,0x2
     787:	66 01 d0             	add    eax,edx
     78a:	66 c1 e0 02          	shl    eax,0x2
     78e:	66 05 0c af 00 00    	add    eax,0xaf0c
     794:	67 66 8b 00          	mov    eax,DWORD PTR [eax]
     798:	66 83 f8 01          	cmp    eax,0x1
     79c:	0f 84 c7 08          	je     1067 <__section_alignment__+0x67>
D:\OneDrive\Study\Operating Systems\实验\project7\codes/./kernel/os.c:115
				int blockNum = findEnoughBlock(information[tmp].size + 1024);
     7a0:	67 66 8b 95 60 ff ff 	mov    edx,DWORD PTR [ebp-0xa0]
     7a7:	ff 
     7a8:	66 89 d0             	mov    eax,edx
     7ab:	66 01 c0             	add    eax,eax
     7ae:	66 01 d0             	add    eax,edx
     7b1:	66 c1 e0 02          	shl    eax,0x2
     7b5:	66 01 d0             	add    eax,edx
     7b8:	66 c1 e0 02          	shl    eax,0x2
     7bc:	66 05 08 af 00 00    	add    eax,0xaf08
     7c2:	67 66 8b 00          	mov    eax,DWORD PTR [eax]
     7c6:	66 05 00 04 00 00    	add    eax,0x400
     7cc:	67 66 89 04 24       	mov    DWORD PTR [esp],eax
     7d1:	66 e8 95 52 00 00    	call   5a6c <_findEnoughBlock>
     7d7:	67 66 89 45 a0       	mov    DWORD PTR [ebp-0x60],eax
D:\OneDrive\Study\Operating Systems\实验\project7\codes/./kernel/os.c:116
				blockNum = require(information[tmp].size + 1024, blockNum);
     7dc:	67 66 8b 95 60 ff ff 	mov    edx,DWORD PTR [ebp-0xa0]
     7e3:	ff 
     7e4:	66 89 d0             	mov    eax,edx
     7e7:	66 01 c0             	add    eax,eax
     7ea:	66 01 d0             	add    eax,edx
     7ed:	66 c1 e0 02          	shl    eax,0x2
     7f1:	66 01 d0             	add    eax,edx
     7f4:	66 c1 e0 02          	shl    eax,0x2
     7f8:	66 05 08 af 00 00    	add    eax,0xaf08
     7fe:	67 66 8b 00          	mov    eax,DWORD PTR [eax]
     802:	67 66 8d 90 00 04 00 	lea    edx,[eax+0x400]
     809:	00 
     80a:	67 66 8b 45 a0       	mov    eax,DWORD PTR [ebp-0x60]
     80f:	67 66 89 44 24 04    	mov    DWORD PTR [esp+0x4],eax
     815:	67 66 89 14 24       	mov    DWORD PTR [esp],edx
     81a:	66 e8 f5 52 00 00    	call   5b15 <_require>
     820:	67 66 89 45 a0       	mov    DWORD PTR [ebp-0x60],eax
D:\OneDrive\Study\Operating Systems\实验\project7\codes/./kernel/os.c:118
				int offsetOfPrg, segOfPrg;
				int offsetMask = 0x0000ffff;
     825:	67 66 c7 45 9c ff ff 	mov    DWORD PTR [ebp-0x64],0xffff
     82c:	00 00 
D:\OneDrive\Study\Operating Systems\实验\project7\codes/./kernel/os.c:119
				int segMask = 0xf0000;
     82e:	67 66 c7 45 98 00 00 	mov    DWORD PTR [ebp-0x68],0xf0000
     835:	0f 00 
D:\OneDrive\Study\Operating Systems\实验\project7\codes/./kernel/os.c:120
				offsetOfPrg = memoryTable[blockNum].beginAddr & offsetMask;
     837:	67 66 8b 55 a0       	mov    edx,DWORD PTR [ebp-0x60]
     83c:	66 89 d0             	mov    eax,edx
     83f:	66 01 c0             	add    eax,eax
     842:	66 01 d0             	add    eax,edx
     845:	66 c1 e0 03          	shl    eax,0x3
     849:	66 05 e0 92 00 00    	add    eax,0x92e0
     84f:	67 66 8b 00          	mov    eax,DWORD PTR [eax]
     853:	67 66 23 45 9c       	and    eax,DWORD PTR [ebp-0x64]
     858:	67 66 89 45 94       	mov    DWORD PTR [ebp-0x6c],eax
D:\OneDrive\Study\Operating Systems\实验\project7\codes/./kernel/os.c:121
				segOfPrg = (memoryTable[blockNum].beginAddr & segMask) >> 4;
     85d:	67 66 8b 55 a0       	mov    edx,DWORD PTR [ebp-0x60]
     862:	66 89 d0             	mov    eax,edx
     865:	66 01 c0             	add    eax,eax
     868:	66 01 d0             	add    eax,edx
     86b:	66 c1 e0 03          	shl    eax,0x3
     86f:	66 05 e0 92 00 00    	add    eax,0x92e0
     875:	67 66 8b 00          	mov    eax,DWORD PTR [eax]
     879:	67 66 23 45 98       	and    eax,DWORD PTR [ebp-0x68]
     87e:	66 c1 f8 04          	sar    eax,0x4
     882:	67 66 89 45 90       	mov    DWORD PTR [ebp-0x70],eax
D:\OneDrive\Study\Operating Systems\实验\project7\codes/./kernel/os.c:122
				int cs = segOfPrg + (offsetOfPrg >> 4), ip = 0, ss = segOfPrg + (offsetOfPrg >> 4), sp = information[tmp].size + 1024 - 1;
     887:	67 66 8b 45 94       	mov    eax,DWORD PTR [ebp-0x6c]
     88c:	66 c1 f8 04          	sar    eax,0x4
     890:	66 89 c2             	mov    edx,eax
     893:	67 66 8b 45 90       	mov    eax,DWORD PTR [ebp-0x70]
     898:	66 01 d0             	add    eax,edx
     89b:	67 66 89 45 8c       	mov    DWORD PTR [ebp-0x74],eax
     8a0:	67 66 c7 45 88 00 00 	mov    DWORD PTR [ebp-0x78],0x0
     8a7:	00 00 
     8a9:	67 66 8b 45 94       	mov    eax,DWORD PTR [ebp-0x6c]
     8ae:	66 c1 f8 04          	sar    eax,0x4
     8b2:	66 89 c2             	mov    edx,eax
     8b5:	67 66 8b 45 90       	mov    eax,DWORD PTR [ebp-0x70]
     8ba:	66 01 d0             	add    eax,edx
     8bd:	67 66 89 45 84       	mov    DWORD PTR [ebp-0x7c],eax
     8c2:	67 66 8b 95 60 ff ff 	mov    edx,DWORD PTR [ebp-0xa0]
     8c9:	ff 
     8ca:	66 89 d0             	mov    eax,edx
     8cd:	66 01 c0             	add    eax,eax
     8d0:	66 01 d0             	add    eax,edx
     8d3:	66 c1 e0 02          	shl    eax,0x2
     8d7:	66 01 d0             	add    eax,edx
     8da:	66 c1 e0 02          	shl    eax,0x2
     8de:	66 05 08 af 00 00    	add    eax,0xaf08
     8e4:	67 66 8b 00          	mov    eax,DWORD PTR [eax]
     8e8:	66 05 ff 03 00 00    	add    eax,0x3ff
     8ee:	67 66 89 45 80       	mov    DWORD PTR [ebp-0x80],eax
D:\OneDrive\Study\Operating Systems\实验\project7\codes/./kernel/os.c:123
				createProcess(findNextProcessItem(), information[tmp].name, information[tmp].size + 1024, cs, ip, ss, sp, blockNum);
     8f3:	67 66 8b 95 60 ff ff 	mov    edx,DWORD PTR [ebp-0xa0]
     8fa:	ff 
     8fb:	66 89 d0             	mov    eax,edx
     8fe:	66 01 c0             	add    eax,eax
     901:	66 01 d0             	add    eax,edx
     904:	66 c1 e0 02          	shl    eax,0x2
     908:	66 01 d0             	add    eax,edx
     90b:	66 c1 e0 02          	shl    eax,0x2
     90f:	66 05 08 af 00 00    	add    eax,0xaf08
     915:	67 66 8b 00          	mov    eax,DWORD PTR [eax]
     919:	67 66 8d b0 00 04 00 	lea    esi,[eax+0x400]
     920:	00 
     921:	67 66 8b 95 60 ff ff 	mov    edx,DWORD PTR [ebp-0xa0]
     928:	ff 
     929:	66 89 d0             	mov    eax,edx
     92c:	66 01 c0             	add    eax,eax
     92f:	66 01 d0             	add    eax,edx
     932:	66 c1 e0 02          	shl    eax,0x2
     936:	66 01 d0             	add    eax,edx
     939:	66 c1 e0 02          	shl    eax,0x2
     93d:	67 66 8d 98 e0 ae 00 	lea    ebx,[eax+0xaee0]
     944:	00 
     945:	66 e8 77 2d 00 00    	call   36c2 <_findNextProcessItem>
     94b:	67 66 8b 55 a0       	mov    edx,DWORD PTR [ebp-0x60]
     950:	67 66 89 54 24 1c    	mov    DWORD PTR [esp+0x1c],edx
     956:	67 66 8b 55 80       	mov    edx,DWORD PTR [ebp-0x80]
     95b:	67 66 89 54 24 18    	mov    DWORD PTR [esp+0x18],edx
     961:	67 66 8b 55 84       	mov    edx,DWORD PTR [ebp-0x7c]
     966:	67 66 89 54 24 14    	mov    DWORD PTR [esp+0x14],edx
     96c:	67 66 8b 55 88       	mov    edx,DWORD PTR [ebp-0x78]
     971:	67 66 89 54 24 10    	mov    DWORD PTR [esp+0x10],edx
     977:	67 66 8b 55 8c       	mov    edx,DWORD PTR [ebp-0x74]
     97c:	67 66 89 54 24 0c    	mov    DWORD PTR [esp+0xc],edx
     982:	67 66 89 74 24 08    	mov    DWORD PTR [esp+0x8],esi
     988:	67 66 89 5c 24 04    	mov    DWORD PTR [esp+0x4],ebx
     98e:	67 66 89 04 24       	mov    DWORD PTR [esp],eax
     993:	66 e8 f0 2e 00 00    	call   3889 <_createProcess>
D:\OneDrive\Study\Operating Systems\实验\project7\codes/./kernel/os.c:124
				ProcessSize += 1;
     999:	66 a1 fc 96          	mov    eax,ds:0x96fc
     99d:	66 40                	inc    eax
     99f:	66 a3 fc 96          	mov    ds:0x96fc,eax
D:\OneDrive\Study\Operating Systems\实验\project7\codes/./kernel/os.c:125
				loadReal(information[tmp].lmaddress, information[tmp].size, offsetOfPrg, segOfPrg);
     9a3:	67 66 8b 95 60 ff ff 	mov    edx,DWORD PTR [ebp-0xa0]
     9aa:	ff 
     9ab:	66 89 d0             	mov    eax,edx
     9ae:	66 01 c0             	add    eax,eax
     9b1:	66 01 d0             	add    eax,edx
     9b4:	66 c1 e0 02          	shl    eax,0x2
     9b8:	66 01 d0             	add    eax,edx
     9bb:	66 c1 e0 02          	shl    eax,0x2
     9bf:	66 05 08 af 00 00    	add    eax,0xaf08
     9c5:	67 66 8b 08          	mov    ecx,DWORD PTR [eax]
     9c9:	67 66 8b 95 60 ff ff 	mov    edx,DWORD PTR [ebp-0xa0]
     9d0:	ff 
     9d1:	66 89 d0             	mov    eax,edx
     9d4:	66 01 c0             	add    eax,eax
     9d7:	66 01 d0             	add    eax,edx
     9da:	66 c1 e0 02          	shl    eax,0x2
     9de:	66 01 d0             	add    eax,edx
     9e1:	66 c1 e0 02          	shl    eax,0x2
     9e5:	66 05 04 af 00 00    	add    eax,0xaf04
     9eb:	67 66 8b 00          	mov    eax,DWORD PTR [eax]
     9ef:	67 66 8b 55 90       	mov    edx,DWORD PTR [ebp-0x70]
     9f4:	67 66 89 54 24 0c    	mov    DWORD PTR [esp+0xc],edx
     9fa:	67 66 8b 55 94       	mov    edx,DWORD PTR [ebp-0x6c]
     9ff:	67 66 89 54 24 08    	mov    DWORD PTR [esp+0x8],edx
     a05:	67 66 89 4c 24 04    	mov    DWORD PTR [esp+0x4],ecx
     a0b:	67 66 89 04 24       	mov    DWORD PTR [esp],eax
     a10:	66 e8 3c 0d 00 00    	call   1752 <_loadReal>
D:\OneDrive\Study\Operating Systems\实验\project7\codes/./kernel/os.c:126
				enqueue(&ReadyQue, ProcessSize - 1);
     a16:	66 a1 fc 96          	mov    eax,ds:0x96fc
     a1a:	66 48                	dec    eax
     a1c:	67 66 89 44 24 04    	mov    DWORD PTR [esp+0x4],eax
     a22:	67 66 c7 04 24 c0 be 	mov    DWORD PTR [esp],0xbec0
     a29:	00 00 
     a2b:	66 e8 3c 58 00 00    	call   626d <_enqueue>
D:\OneDrive\Study\Operating Systems\实验\project7\codes/./kernel/os.c:127
				runSub = 1;
     a31:	66 c7 06 d8 92 01 00 	mov    DWORD PTR ds:0x92d8,0x1
     a38:	00 00 
D:\OneDrive\Study\Operating Systems\实验\project7\codes/./kernel/os.c:128
				__asm__("int $0x8\n");
     a3a:	cd 08                	int    0x8
D:\OneDrive\Study\Operating Systems\实验\project7\codes/./kernel/os.c:129
				runSub = 0;
     a3c:	66 c7 06 d8 92 00 00 	mov    DWORD PTR ds:0x92d8,0x0
     a43:	00 00 
D:\OneDrive\Study\Operating Systems\实验\project7\codes/./kernel/os.c:130
				clear();
     a45:	66 e8 74 18 00 00    	call   22bf <_clear>
D:\OneDrive\Study\Operating Systems\实验\project7\codes/./kernel/os.c:114
			if (tmp != -1 && information[tmp].deleted != 1) {
     a4b:	e9 19 06             	jmp    1067 <__section_alignment__+0x67>
D:\OneDrive\Study\Operating Systems\实验\project7\codes/./kernel/os.c:133
			}
		}
		else if (in[0] == 't' && in[1] == 'y' &&
     a4e:	67 66 8b 45 f0       	mov    eax,DWORD PTR [ebp-0x10]
     a53:	67 8a 00             	mov    al,BYTE PTR [eax]
     a56:	3c 74                	cmp    al,0x74
     a58:	0f 85 85 01          	jne    be1 <.debug_info+0x28f>
     a5c:	67 66 8b 45 f0       	mov    eax,DWORD PTR [ebp-0x10]
     a61:	66 40                	inc    eax
     a63:	67 8a 00             	mov    al,BYTE PTR [eax]
     a66:	3c 79                	cmp    al,0x79
     a68:	0f 85 75 01          	jne    be1 <.debug_info+0x28f>
D:\OneDrive\Study\Operating Systems\实验\project7\codes/./kernel/os.c:134
		         in[2] == 'p' && in[3] == 'e') {
     a6c:	67 66 8b 45 f0       	mov    eax,DWORD PTR [ebp-0x10]
     a71:	66 83 c0 02          	add    eax,0x2
     a75:	67 8a 00             	mov    al,BYTE PTR [eax]
D:\OneDrive\Study\Operating Systems\实验\project7\codes/./kernel/os.c:133
		else if (in[0] == 't' && in[1] == 'y' &&
     a78:	3c 70                	cmp    al,0x70
     a7a:	0f 85 63 01          	jne    be1 <.debug_info+0x28f>
D:\OneDrive\Study\Operating Systems\实验\project7\codes/./kernel/os.c:134
		         in[2] == 'p' && in[3] == 'e') {
     a7e:	67 66 8b 45 f0       	mov    eax,DWORD PTR [ebp-0x10]
     a83:	66 83 c0 03          	add    eax,0x3
     a87:	67 8a 00             	mov    al,BYTE PTR [eax]
     a8a:	3c 65                	cmp    al,0x65
     a8c:	0f 85 51 01          	jne    be1 <.debug_info+0x28f>
D:\OneDrive\Study\Operating Systems\实验\project7\codes/./kernel/os.c:135
			tmp = find(in + 5);
     a90:	67 66 8b 45 f0       	mov    eax,DWORD PTR [ebp-0x10]
     a95:	66 83 c0 05          	add    eax,0x5
     a99:	67 66 89 04 24       	mov    DWORD PTR [esp],eax
     a9e:	66 e8 d3 26 00 00    	call   3177 <_find>
     aa4:	67 66 89 85 60 ff ff 	mov    DWORD PTR [ebp-0xa0],eax
     aab:	ff 
D:\OneDrive\Study\Operating Systems\实验\project7\codes/./kernel/os.c:136
			if (tmp != -1 && information[tmp].deleted != 1) {
     aac:	67 66 8b 85 60 ff ff 	mov    eax,DWORD PTR [ebp-0xa0]
     ab3:	ff 
     ab4:	66 83 f8 ff          	cmp    eax,0xffffffff
     ab8:	0f 84 ae 05          	je     106a <__section_alignment__+0x6a>
     abc:	67 66 8b 95 60 ff ff 	mov    edx,DWORD PTR [ebp-0xa0]
     ac3:	ff 
     ac4:	66 89 d0             	mov    eax,edx
     ac7:	66 01 c0             	add    eax,eax
     aca:	66 01 d0             	add    eax,edx
     acd:	66 c1 e0 02          	shl    eax,0x2
     ad1:	66 01 d0             	add    eax,edx
     ad4:	66 c1 e0 02          	shl    eax,0x2
     ad8:	66 05 0c af 00 00    	add    eax,0xaf0c
     ade:	67 66 8b 00          	mov    eax,DWORD PTR [eax]
     ae2:	66 83 f8 01          	cmp    eax,0x1
     ae6:	0f 84 80 05          	je     106a <__section_alignment__+0x6a>
D:\OneDrive\Study\Operating Systems\实验\project7\codes/./kernel/os.c:137
				loadReal(information[tmp].lmaddress, information[tmp].size, offsetOfUserPrg, segOfOs);
     aea:	67 66 8b 95 60 ff ff 	mov    edx,DWORD PTR [ebp-0xa0]
     af1:	ff 
     af2:	66 89 d0             	mov    eax,edx
     af5:	66 01 c0             	add    eax,eax
     af8:	66 01 d0             	add    eax,edx
     afb:	66 c1 e0 02          	shl    eax,0x2
     aff:	66 01 d0             	add    eax,edx
     b02:	66 c1 e0 02          	shl    eax,0x2
     b06:	66 05 08 af 00 00    	add    eax,0xaf08
     b0c:	67 66 8b 08          	mov    ecx,DWORD PTR [eax]
     b10:	67 66 8b 95 60 ff ff 	mov    edx,DWORD PTR [ebp-0xa0]
     b17:	ff 
     b18:	66 89 d0             	mov    eax,edx
     b1b:	66 01 c0             	add    eax,eax
     b1e:	66 01 d0             	add    eax,edx
     b21:	66 c1 e0 02          	shl    eax,0x2
     b25:	66 01 d0             	add    eax,edx
     b28:	66 c1 e0 02          	shl    eax,0x2
     b2c:	66 05 04 af 00 00    	add    eax,0xaf04
     b32:	67 66 8b 00          	mov    eax,DWORD PTR [eax]
     b36:	67 66 c7 44 24 0c 00 	mov    DWORD PTR [esp+0xc],0x2000
     b3d:	20 00 00 
     b40:	67 66 c7 44 24 08 00 	mov    DWORD PTR [esp+0x8],0xe000
     b47:	e0 00 00 
     b4a:	67 66 89 4c 24 04    	mov    DWORD PTR [esp+0x4],ecx
     b50:	67 66 89 04 24       	mov    DWORD PTR [esp],eax
     b55:	66 e8 f7 0b 00 00    	call   1752 <_loadReal>
D:\OneDrive\Study\Operating Systems\实验\project7\codes/./kernel/os.c:138
				str = getRecords(segOfUser, offsetOfUserPrg);
     b5b:	67 66 c7 44 24 04 00 	mov    DWORD PTR [esp+0x4],0xe000
     b62:	e0 00 00 
     b65:	67 66 c7 04 24 00 00 	mov    DWORD PTR [esp],0x0
     b6c:	00 00 
     b6e:	66 e8 22 15 00 00    	call   2096 <_getRecords>
     b74:	67 66 89 45 cc       	mov    DWORD PTR [ebp-0x34],eax
D:\OneDrive\Study\Operating Systems\实验\project7\codes/./kernel/os.c:139
				printSentence(str, line, 0, strlen(str), purple);
     b79:	67 66 8b 45 cc       	mov    eax,DWORD PTR [ebp-0x34]
     b7e:	67 66 89 04 24       	mov    DWORD PTR [esp],eax
     b83:	66 e8 90 20 00 00    	call   2c19 <_strlen>
     b89:	66 89 c2             	mov    edx,eax
     b8c:	66 a1 00 92          	mov    eax,ds:0x9200
     b90:	67 66 c7 44 24 10 0d 	mov    DWORD PTR [esp+0x10],0xd
     b97:	00 00 00 
     b9a:	67 66 89 54 24 0c    	mov    DWORD PTR [esp+0xc],edx
     ba0:	67 66 c7 44 24 08 00 	mov    DWORD PTR [esp+0x8],0x0
     ba7:	00 00 00 
     baa:	67 66 89 44 24 04    	mov    DWORD PTR [esp+0x4],eax
     bb0:	67 66 8b 45 cc       	mov    eax,DWORD PTR [ebp-0x34]
     bb5:	67 66 89 04 24       	mov    DWORD PTR [esp],eax
     bba:	66 e8 e5 09 00 00    	call   15a5 <_printSentence>
D:\OneDrive\Study\Operating Systems\实验\project7\codes/./kernel/os.c:140
				line += countLines(str);
     bc0:	67 66 8b 45 cc       	mov    eax,DWORD PTR [ebp-0x34]
     bc5:	67 66 89 04 24       	mov    DWORD PTR [esp],eax
     bca:	66 e8 b0 15 00 00    	call   2180 <_countLines>
     bd0:	66 89 c2             	mov    edx,eax
     bd3:	66 a1 00 92          	mov    eax,ds:0x9200
     bd7:	66 01 d0             	add    eax,edx
     bda:	66 a3 00 92          	mov    ds:0x9200,eax
D:\OneDrive\Study\Operating Systems\实验\project7\codes/./kernel/os.c:136
			if (tmp != -1 && information[tmp].deleted != 1) {
     bde:	e9 89 04             	jmp    106a <__section_alignment__+0x6a>
D:\OneDrive\Study\Operating Systems\实验\project7\codes/./kernel/os.c:143
			}
		}
		else if (in[0] == 'r' && in[1] == 'm') {
     be1:	67 66 8b 45 f0       	mov    eax,DWORD PTR [ebp-0x10]
     be6:	67 8a 00             	mov    al,BYTE PTR [eax]
     be9:	3c 72                	cmp    al,0x72
     beb:	0f 85 97 00          	jne    c86 <.debug_info+0x334>
     bef:	67 66 8b 45 f0       	mov    eax,DWORD PTR [ebp-0x10]
     bf4:	66 40                	inc    eax
     bf6:	67 8a 00             	mov    al,BYTE PTR [eax]
     bf9:	3c 6d                	cmp    al,0x6d
     bfb:	0f 85 87 00          	jne    c86 <.debug_info+0x334>
D:\OneDrive\Study\Operating Systems\实验\project7\codes/./kernel/os.c:144
			tmp = find(in + 3);
     bff:	67 66 8b 45 f0       	mov    eax,DWORD PTR [ebp-0x10]
     c04:	66 83 c0 03          	add    eax,0x3
     c08:	67 66 89 04 24       	mov    DWORD PTR [esp],eax
     c0d:	66 e8 64 25 00 00    	call   3177 <_find>
     c13:	67 66 89 85 60 ff ff 	mov    DWORD PTR [ebp-0xa0],eax
     c1a:	ff 
D:\OneDrive\Study\Operating Systems\实验\project7\codes/./kernel/os.c:145
			if (tmp != -1 && information[tmp].deleted != 1) {
     c1b:	67 66 8b 85 60 ff ff 	mov    eax,DWORD PTR [ebp-0xa0]
     c22:	ff 
     c23:	66 83 f8 ff          	cmp    eax,0xffffffff
     c27:	0f 84 42 04          	je     106d <__section_alignment__+0x6d>
     c2b:	67 66 8b 95 60 ff ff 	mov    edx,DWORD PTR [ebp-0xa0]
     c32:	ff 
     c33:	66 89 d0             	mov    eax,edx
     c36:	66 01 c0             	add    eax,eax
     c39:	66 01 d0             	add    eax,edx
     c3c:	66 c1 e0 02          	shl    eax,0x2
     c40:	66 01 d0             	add    eax,edx
     c43:	66 c1 e0 02          	shl    eax,0x2
     c47:	66 05 0c af 00 00    	add    eax,0xaf0c
     c4d:	67 66 8b 00          	mov    eax,DWORD PTR [eax]
     c51:	66 83 f8 01          	cmp    eax,0x1
     c55:	0f 84 14 04          	je     106d <__section_alignment__+0x6d>
D:\OneDrive\Study\Operating Systems\实验\project7\codes/./kernel/os.c:146
				information[tmp].deleted = 1;
     c59:	67 66 8b 95 60 ff ff 	mov    edx,DWORD PTR [ebp-0xa0]
     c60:	ff 
     c61:	66 89 d0             	mov    eax,edx
     c64:	66 01 c0             	add    eax,eax
     c67:	66 01 d0             	add    eax,edx
     c6a:	66 c1 e0 02          	shl    eax,0x2
     c6e:	66 01 d0             	add    eax,edx
     c71:	66 c1 e0 02          	shl    eax,0x2
     c75:	66 05 0c af 00 00    	add    eax,0xaf0c
     c7b:	67 66 c7 00 01 00 00 	mov    DWORD PTR [eax],0x1
     c82:	00 
D:\OneDrive\Study\Operating Systems\实验\project7\codes/./kernel/os.c:145
			if (tmp != -1 && information[tmp].deleted != 1) {
     c83:	e9 e7 03             	jmp    106d <__section_alignment__+0x6d>
D:\OneDrive\Study\Operating Systems\实验\project7\codes/./kernel/os.c:149
			}
		}
		else if (in[0] == 'k' && in[1] == 'i' &&
     c86:	67 66 8b 45 f0       	mov    eax,DWORD PTR [ebp-0x10]
     c8b:	67 8a 00             	mov    al,BYTE PTR [eax]
     c8e:	3c 6b                	cmp    al,0x6b
     c90:	75 50                	jne    ce2 <.debug_info+0x390>
     c92:	67 66 8b 45 f0       	mov    eax,DWORD PTR [ebp-0x10]
     c97:	66 40                	inc    eax
     c99:	67 8a 00             	mov    al,BYTE PTR [eax]
     c9c:	3c 69                	cmp    al,0x69
     c9e:	75 42                	jne    ce2 <.debug_info+0x390>
D:\OneDrive\Study\Operating Systems\实验\project7\codes/./kernel/os.c:150
		         in[2] == 'l' && in[3] == 'l') {
     ca0:	67 66 8b 45 f0       	mov    eax,DWORD PTR [ebp-0x10]
     ca5:	66 83 c0 02          	add    eax,0x2
     ca9:	67 8a 00             	mov    al,BYTE PTR [eax]
D:\OneDrive\Study\Operating Systems\实验\project7\codes/./kernel/os.c:149
		else if (in[0] == 'k' && in[1] == 'i' &&
     cac:	3c 6c                	cmp    al,0x6c
     cae:	75 32                	jne    ce2 <.debug_info+0x390>
D:\OneDrive\Study\Operating Systems\实验\project7\codes/./kernel/os.c:150
		         in[2] == 'l' && in[3] == 'l') {
     cb0:	67 66 8b 45 f0       	mov    eax,DWORD PTR [ebp-0x10]
     cb5:	66 83 c0 03          	add    eax,0x3
     cb9:	67 8a 00             	mov    al,BYTE PTR [eax]
     cbc:	3c 6c                	cmp    al,0x6c
     cbe:	75 22                	jne    ce2 <.debug_info+0x390>
D:\OneDrive\Study\Operating Systems\实验\project7\codes/./kernel/os.c:151
			kill(in[5] - '0');
     cc0:	67 66 8b 45 f0       	mov    eax,DWORD PTR [ebp-0x10]
     cc5:	66 83 c0 05          	add    eax,0x5
     cc9:	67 8a 00             	mov    al,BYTE PTR [eax]
     ccc:	66 0f be c0          	movsx  eax,al
     cd0:	66 83 e8 30          	sub    eax,0x30
     cd4:	67 66 89 04 24       	mov    DWORD PTR [esp],eax
     cd9:	66 e8 28 1e 00 00    	call   2b07 <_kill>
     cdf:	e9 8c 03             	jmp    106e <__section_alignment__+0x6e>
D:\OneDrive\Study\Operating Systems\实验\project7\codes/./kernel/os.c:153
		}
		else if (in[0] == 's' && in[1] == 'u' &&
     ce2:	67 66 8b 45 f0       	mov    eax,DWORD PTR [ebp-0x10]
     ce7:	67 8a 00             	mov    al,BYTE PTR [eax]
     cea:	3c 73                	cmp    al,0x73
     cec:	75 50                	jne    d3e <.debug_info+0x3ec>
     cee:	67 66 8b 45 f0       	mov    eax,DWORD PTR [ebp-0x10]
     cf3:	66 40                	inc    eax
     cf5:	67 8a 00             	mov    al,BYTE PTR [eax]
     cf8:	3c 75                	cmp    al,0x75
     cfa:	75 42                	jne    d3e <.debug_info+0x3ec>
D:\OneDrive\Study\Operating Systems\实验\project7\codes/./kernel/os.c:154
		         in[2] == 's' && in[3] == 'p') {
     cfc:	67 66 8b 45 f0       	mov    eax,DWORD PTR [ebp-0x10]
     d01:	66 83 c0 02          	add    eax,0x2
     d05:	67 8a 00             	mov    al,BYTE PTR [eax]
D:\OneDrive\Study\Operating Systems\实验\project7\codes/./kernel/os.c:153
		else if (in[0] == 's' && in[1] == 'u' &&
     d08:	3c 73                	cmp    al,0x73
     d0a:	75 32                	jne    d3e <.debug_info+0x3ec>
D:\OneDrive\Study\Operating Systems\实验\project7\codes/./kernel/os.c:154
		         in[2] == 's' && in[3] == 'p') {
     d0c:	67 66 8b 45 f0       	mov    eax,DWORD PTR [ebp-0x10]
     d11:	66 83 c0 03          	add    eax,0x3
     d15:	67 8a 00             	mov    al,BYTE PTR [eax]
     d18:	3c 70                	cmp    al,0x70
     d1a:	75 22                	jne    d3e <.debug_info+0x3ec>
D:\OneDrive\Study\Operating Systems\实验\project7\codes/./kernel/os.c:155
			Tosuspend(in[5] - '0');
     d1c:	67 66 8b 45 f0       	mov    eax,DWORD PTR [ebp-0x10]
     d21:	66 83 c0 05          	add    eax,0x5
     d25:	67 8a 00             	mov    al,BYTE PTR [eax]
     d28:	66 0f be c0          	movsx  eax,al
     d2c:	66 83 e8 30          	sub    eax,0x30
     d30:	67 66 89 04 24       	mov    DWORD PTR [esp],eax
     d35:	66 e8 2d 36 00 00    	call   4368 <_Tosuspend>
     d3b:	e9 30 03             	jmp    106e <__section_alignment__+0x6e>
D:\OneDrive\Study\Operating Systems\实验\project7\codes/./kernel/os.c:157
		}
		else if (in[0] == 'a' && in[1] == 'c' &&
     d3e:	67 66 8b 45 f0       	mov    eax,DWORD PTR [ebp-0x10]
     d43:	67 8a 00             	mov    al,BYTE PTR [eax]
     d46:	3c 61                	cmp    al,0x61
     d48:	0f 85 16 02          	jne    f62 <.debug_info+0x610>
     d4c:	67 66 8b 45 f0       	mov    eax,DWORD PTR [ebp-0x10]
     d51:	66 40                	inc    eax
     d53:	67 8a 00             	mov    al,BYTE PTR [eax]
     d56:	3c 63                	cmp    al,0x63
     d58:	0f 85 06 02          	jne    f62 <.debug_info+0x610>
D:\OneDrive\Study\Operating Systems\实验\project7\codes/./kernel/os.c:158
		         in[2] == 't' && in[3] == 'i') {
     d5c:	67 66 8b 45 f0       	mov    eax,DWORD PTR [ebp-0x10]
     d61:	66 83 c0 02          	add    eax,0x2
     d65:	67 8a 00             	mov    al,BYTE PTR [eax]
D:\OneDrive\Study\Operating Systems\实验\project7\codes/./kernel/os.c:157
		else if (in[0] == 'a' && in[1] == 'c' &&
     d68:	3c 74                	cmp    al,0x74
     d6a:	0f 85 f4 01          	jne    f62 <.debug_info+0x610>
D:\OneDrive\Study\Operating Systems\实验\project7\codes/./kernel/os.c:158
		         in[2] == 't' && in[3] == 'i') {
     d6e:	67 66 8b 45 f0       	mov    eax,DWORD PTR [ebp-0x10]
     d73:	66 83 c0 03          	add    eax,0x3
     d77:	67 8a 00             	mov    al,BYTE PTR [eax]
     d7a:	3c 69                	cmp    al,0x69
     d7c:	0f 85 e2 01          	jne    f62 <.debug_info+0x610>
D:\OneDrive\Study\Operating Systems\实验\project7\codes/./kernel/os.c:159
			tmp = in[5] - '0';
     d80:	67 66 8b 45 f0       	mov    eax,DWORD PTR [ebp-0x10]
     d85:	66 83 c0 05          	add    eax,0x5
     d89:	67 8a 00             	mov    al,BYTE PTR [eax]
     d8c:	66 0f be c0          	movsx  eax,al
     d90:	66 83 e8 30          	sub    eax,0x30
     d94:	67 66 89 85 60 ff ff 	mov    DWORD PTR [ebp-0xa0],eax
     d9b:	ff 
D:\OneDrive\Study\Operating Systems\实验\project7\codes/./kernel/os.c:160
			int blockNum = findEnoughBlock(processTable[tmp].size);
     d9c:	67 66 8b 95 60 ff ff 	mov    edx,DWORD PTR [ebp-0xa0]
     da3:	ff 
     da4:	66 89 d0             	mov    eax,edx
     da7:	66 c1 e0 03          	shl    eax,0x3
     dab:	66 01 d0             	add    eax,edx
     dae:	66 c1 e0 04          	shl    eax,0x4
     db2:	66 05 90 b3 00 00    	add    eax,0xb390
     db8:	67 66 8b 00          	mov    eax,DWORD PTR [eax]
     dbc:	67 66 89 04 24       	mov    DWORD PTR [esp],eax
     dc1:	66 e8 a5 4c 00 00    	call   5a6c <_findEnoughBlock>
     dc7:	67 66 89 85 7c ff ff 	mov    DWORD PTR [ebp-0x84],eax
     dce:	ff 
D:\OneDrive\Study\Operating Systems\实验\project7\codes/./kernel/os.c:161
			blockNum = require(processTable[tmp].size, blockNum);
     dcf:	67 66 8b 95 60 ff ff 	mov    edx,DWORD PTR [ebp-0xa0]
     dd6:	ff 
     dd7:	66 89 d0             	mov    eax,edx
     dda:	66 c1 e0 03          	shl    eax,0x3
     dde:	66 01 d0             	add    eax,edx
     de1:	66 c1 e0 04          	shl    eax,0x4
     de5:	66 05 90 b3 00 00    	add    eax,0xb390
     deb:	67 66 8b 00          	mov    eax,DWORD PTR [eax]
     def:	67 66 8b 95 7c ff ff 	mov    edx,DWORD PTR [ebp-0x84]
     df6:	ff 
     df7:	67 66 89 54 24 04    	mov    DWORD PTR [esp+0x4],edx
     dfd:	67 66 89 04 24       	mov    DWORD PTR [esp],eax
     e02:	66 e8 0d 4d 00 00    	call   5b15 <_require>
     e08:	67 66 89 85 7c ff ff 	mov    DWORD PTR [ebp-0x84],eax
     e0f:	ff 
D:\OneDrive\Study\Operating Systems\实验\project7\codes/./kernel/os.c:162
			processTable[tmp].blockNum = blockNum;
     e10:	67 66 8b 95 60 ff ff 	mov    edx,DWORD PTR [ebp-0xa0]
     e17:	ff 
     e18:	66 89 d0             	mov    eax,edx
     e1b:	66 c1 e0 03          	shl    eax,0x3
     e1f:	66 01 d0             	add    eax,edx
     e22:	66 c1 e0 04          	shl    eax,0x4
     e26:	67 66 8d 90 88 b3 00 	lea    edx,[eax+0xb388]
     e2d:	00 
     e2e:	67 66 8b 85 7c ff ff 	mov    eax,DWORD PTR [ebp-0x84]
     e35:	ff 
     e36:	67 66 89 02          	mov    DWORD PTR [edx],eax
D:\OneDrive\Study\Operating Systems\实验\project7\codes/./kernel/os.c:164
			int offsetOfPrg, segOfPrg;
			int offsetMask = 0x0000ffff;
     e3a:	67 66 c7 85 78 ff ff 	mov    DWORD PTR [ebp-0x88],0xffff
     e41:	ff ff ff 00 00 
D:\OneDrive\Study\Operating Systems\实验\project7\codes/./kernel/os.c:165
			int segMask = 0xf0000;
     e46:	67 66 c7 85 74 ff ff 	mov    DWORD PTR [ebp-0x8c],0xf0000
     e4d:	ff 00 00 0f 00 
D:\OneDrive\Study\Operating Systems\实验\project7\codes/./kernel/os.c:166
			offsetOfPrg = memoryTable[blockNum].beginAddr & offsetMask;
     e52:	67 66 8b 95 7c ff ff 	mov    edx,DWORD PTR [ebp-0x84]
     e59:	ff 
     e5a:	66 89 d0             	mov    eax,edx
     e5d:	66 01 c0             	add    eax,eax
     e60:	66 01 d0             	add    eax,edx
     e63:	66 c1 e0 03          	shl    eax,0x3
     e67:	66 05 e0 92 00 00    	add    eax,0x92e0
     e6d:	67 66 8b 00          	mov    eax,DWORD PTR [eax]
     e71:	67 66 23 85 78 ff ff 	and    eax,DWORD PTR [ebp-0x88]
     e78:	ff 
     e79:	67 66 89 85 70 ff ff 	mov    DWORD PTR [ebp-0x90],eax
     e80:	ff 
D:\OneDrive\Study\Operating Systems\实验\project7\codes/./kernel/os.c:167
			segOfPrg = (memoryTable[blockNum].beginAddr & segMask) >> 4;
     e81:	67 66 8b 95 7c ff ff 	mov    edx,DWORD PTR [ebp-0x84]
     e88:	ff 
     e89:	66 89 d0             	mov    eax,edx
     e8c:	66 01 c0             	add    eax,eax
     e8f:	66 01 d0             	add    eax,edx
     e92:	66 c1 e0 03          	shl    eax,0x3
     e96:	66 05 e0 92 00 00    	add    eax,0x92e0
     e9c:	67 66 8b 00          	mov    eax,DWORD PTR [eax]
     ea0:	67 66 23 85 74 ff ff 	and    eax,DWORD PTR [ebp-0x8c]
     ea7:	ff 
     ea8:	66 c1 f8 04          	sar    eax,0x4
     eac:	67 66 89 85 6c ff ff 	mov    DWORD PTR [ebp-0x94],eax
     eb3:	ff 
D:\OneDrive\Study\Operating Systems\实验\project7\codes/./kernel/os.c:168
			int cs = segOfPrg + (offsetOfPrg >> 4), ss = segOfPrg + (offsetOfPrg >> 4);
     eb4:	67 66 8b 85 70 ff ff 	mov    eax,DWORD PTR [ebp-0x90]
     ebb:	ff 
     ebc:	66 c1 f8 04          	sar    eax,0x4
     ec0:	66 89 c2             	mov    edx,eax
     ec3:	67 66 8b 85 6c ff ff 	mov    eax,DWORD PTR [ebp-0x94]
     eca:	ff 
     ecb:	66 01 d0             	add    eax,edx
     ece:	67 66 89 85 68 ff ff 	mov    DWORD PTR [ebp-0x98],eax
     ed5:	ff 
     ed6:	67 66 8b 85 70 ff ff 	mov    eax,DWORD PTR [ebp-0x90]
     edd:	ff 
     ede:	66 c1 f8 04          	sar    eax,0x4
     ee2:	66 89 c2             	mov    edx,eax
     ee5:	67 66 8b 85 6c ff ff 	mov    eax,DWORD PTR [ebp-0x94]
     eec:	ff 
     eed:	66 01 d0             	add    eax,edx
     ef0:	67 66 89 85 64 ff ff 	mov    DWORD PTR [ebp-0x9c],eax
     ef7:	ff 
D:\OneDrive\Study\Operating Systems\实验\project7\codes/./kernel/os.c:169
			processTable[tmp].pcb.cs = cs;
     ef8:	67 66 8b 8d 60 ff ff 	mov    ecx,DWORD PTR [ebp-0xa0]
     eff:	ff 
     f00:	67 66 8b 85 68 ff ff 	mov    eax,DWORD PTR [ebp-0x98]
     f07:	ff 
     f08:	66 89 c2             	mov    edx,eax
     f0b:	66 89 c8             	mov    eax,ecx
     f0e:	66 c1 e0 03          	shl    eax,0x3
     f12:	66 01 c8             	add    eax,ecx
     f15:	66 c1 e0 04          	shl    eax,0x4
     f19:	66 05 7a b3 00 00    	add    eax,0xb37a
     f1f:	67 89 10             	mov    WORD PTR [eax],dx
D:\OneDrive\Study\Operating Systems\实验\project7\codes/./kernel/os.c:170
			processTable[tmp].pcb.ss_now = ss;
     f22:	67 66 8b 8d 60 ff ff 	mov    ecx,DWORD PTR [ebp-0xa0]
     f29:	ff 
     f2a:	67 66 8b 85 64 ff ff 	mov    eax,DWORD PTR [ebp-0x9c]
     f31:	ff 
     f32:	66 89 c2             	mov    edx,eax
     f35:	66 89 c8             	mov    eax,ecx
     f38:	66 c1 e0 03          	shl    eax,0x3
     f3c:	66 01 c8             	add    eax,ecx
     f3f:	66 c1 e0 04          	shl    eax,0x4
     f43:	66 05 80 b3 00 00    	add    eax,0xb380
     f49:	67 89 10             	mov    WORD PTR [eax],dx
D:\OneDrive\Study\Operating Systems\实验\project7\codes/./kernel/os.c:171
			activate(tmp);
     f4c:	67 66 8b 85 60 ff ff 	mov    eax,DWORD PTR [ebp-0xa0]
     f53:	ff 
     f54:	67 66 89 04 24       	mov    DWORD PTR [esp],eax
     f59:	66 e8 9f 37 00 00    	call   46fe <_activate>
D:\OneDrive\Study\Operating Systems\实验\project7\codes/./kernel/os.c:158
		         in[2] == 't' && in[3] == 'i') {
     f5f:	e9 0c 01             	jmp    106e <__section_alignment__+0x6e>
D:\OneDrive\Study\Operating Systems\实验\project7\codes/./kernel/os.c:174
		}
		else {
			if (strcmp(in, "reboot") == 0)
     f62:	67 66 c7 44 24 04 0b 	mov    DWORD PTR [esp+0x4],0x700b
     f69:	70 00 00 
     f6c:	67 66 8b 45 f0       	mov    eax,DWORD PTR [ebp-0x10]
     f71:	67 66 89 04 24       	mov    DWORD PTR [esp],eax
     f76:	66 e8 6e 1d 00 00    	call   2cea <_strcmp>
     f7c:	66 85 c0             	test   eax,eax
     f7f:	75 06                	jne    f87 <.debug_info+0x635>
D:\OneDrive\Study\Operating Systems\实验\project7\codes/./kernel/os.c:175
				reboot();
     f81:	66 e8 0d 09 00 00    	call   1894 <_reboot>
D:\OneDrive\Study\Operating Systems\实验\project7\codes/./kernel/os.c:176
			if (strcmp(in, "clear") == 0)
     f87:	67 66 c7 44 24 04 12 	mov    DWORD PTR [esp+0x4],0x7012
     f8e:	70 00 00 
     f91:	67 66 8b 45 f0       	mov    eax,DWORD PTR [ebp-0x10]
     f96:	67 66 89 04 24       	mov    DWORD PTR [esp],eax
     f9b:	66 e8 49 1d 00 00    	call   2cea <_strcmp>
     fa1:	66 85 c0             	test   eax,eax
     fa4:	75 06                	jne    fac <.debug_info+0x65a>
D:\OneDrive\Study\Operating Systems\实验\project7\codes/./kernel/os.c:177
				clear();
     fa6:	66 e8 13 13 00 00    	call   22bf <_clear>
D:\OneDrive\Study\Operating Systems\实验\project7\codes/./kernel/os.c:178
			if (strcmp(in, "date") == 0)
     fac:	67 66 c7 44 24 04 18 	mov    DWORD PTR [esp+0x4],0x7018
     fb3:	70 00 00 
     fb6:	67 66 8b 45 f0       	mov    eax,DWORD PTR [ebp-0x10]
     fbb:	67 66 89 04 24       	mov    DWORD PTR [esp],eax
     fc0:	66 e8 24 1d 00 00    	call   2cea <_strcmp>
     fc6:	66 85 c0             	test   eax,eax
     fc9:	75 06                	jne    fd1 <.debug_info+0x67f>
D:\OneDrive\Study\Operating Systems\实验\project7\codes/./kernel/os.c:179
				date();
     fcb:	66 e8 07 13 00 00    	call   22d8 <_date>
D:\OneDrive\Study\Operating Systems\实验\project7\codes/./kernel/os.c:180
			if (strcmp(in, "man") == 0)
     fd1:	67 66 c7 44 24 04 1d 	mov    DWORD PTR [esp+0x4],0x701d
     fd8:	70 00 00 
     fdb:	67 66 8b 45 f0       	mov    eax,DWORD PTR [ebp-0x10]
     fe0:	67 66 89 04 24       	mov    DWORD PTR [esp],eax
     fe5:	66 e8 ff 1c 00 00    	call   2cea <_strcmp>
     feb:	66 85 c0             	test   eax,eax
     fee:	75 06                	jne    ff6 <.debug_info+0x6a4>
D:\OneDrive\Study\Operating Systems\实验\project7\codes/./kernel/os.c:181
				man();
     ff0:	66 e8 66 13 00 00    	call   235c <_man>
D:\OneDrive\Study\Operating Systems\实验\project7\codes/./kernel/os.c:182
			if (strcmp(in, "ls") == 0)
     ff6:	67 66 c7 44 24 04 21 	mov    DWORD PTR [esp+0x4],0x7021
     ffd:	70 00 00 
    1000:	67 66 8b 45 f0       	mov    eax,DWORD PTR [ebp-0x10]
    1005:	67 66 89 04 24       	mov    DWORD PTR [esp],eax
    100a:	66 e8 da 1c 00 00    	call   2cea <_strcmp>
    1010:	66 85 c0             	test   eax,eax
    1013:	75 06                	jne    101b <__section_alignment__+0x1b>
D:\OneDrive\Study\Operating Systems\实验\project7\codes/./kernel/os.c:183
				ls();
    1015:	66 e8 6b 14 00 00    	call   2486 <_ls>
D:\OneDrive\Study\Operating Systems\实验\project7\codes/./kernel/os.c:184
			if (strcmp(in, "exit") == 0)
    101b:	67 66 c7 44 24 04 24 	mov    DWORD PTR [esp+0x4],0x7024
    1022:	70 00 00 
    1025:	67 66 8b 45 f0       	mov    eax,DWORD PTR [ebp-0x10]
    102a:	67 66 89 04 24       	mov    DWORD PTR [esp],eax
    102f:	66 e8 b5 1c 00 00    	call   2cea <_strcmp>
    1035:	66 85 c0             	test   eax,eax
    1038:	75 06                	jne    1040 <__section_alignment__+0x40>
D:\OneDrive\Study\Operating Systems\实验\project7\codes/./kernel/os.c:185
				shutdown();
    103a:	66 e8 f3 06 00 00    	call   1733 <_shutdown>
D:\OneDrive\Study\Operating Systems\实验\project7\codes/./kernel/os.c:186
			if (strcmp(in, "ps") == 0)
    1040:	67 66 c7 44 24 04 29 	mov    DWORD PTR [esp+0x4],0x7029
    1047:	70 00 00 
    104a:	67 66 8b 45 f0       	mov    eax,DWORD PTR [ebp-0x10]
    104f:	67 66 89 04 24       	mov    DWORD PTR [esp],eax
    1054:	66 e8 90 1c 00 00    	call   2cea <_strcmp>
    105a:	66 85 c0             	test   eax,eax
    105d:	75 0f                	jne    106e <__section_alignment__+0x6e>
D:\OneDrive\Study\Operating Systems\实验\project7\codes/./kernel/os.c:187
				ps();
    105f:	66 e8 e8 17 00 00    	call   284d <_ps>
    1065:	eb 07                	jmp    106e <__section_alignment__+0x6e>
D:\OneDrive\Study\Operating Systems\实验\project7\codes/./kernel/os.c:114
			if (tmp != -1 && information[tmp].deleted != 1) {
    1067:	90                   	nop
    1068:	eb 04                	jmp    106e <__section_alignment__+0x6e>
D:\OneDrive\Study\Operating Systems\实验\project7\codes/./kernel/os.c:136
			if (tmp != -1 && information[tmp].deleted != 1) {
    106a:	90                   	nop
    106b:	eb 01                	jmp    106e <__section_alignment__+0x6e>
D:\OneDrive\Study\Operating Systems\实验\project7\codes/./kernel/os.c:145
			if (tmp != -1 && information[tmp].deleted != 1) {
    106d:	90                   	nop
D:\OneDrive\Study\Operating Systems\实验\project7\codes/./kernel/os.c:189
		}
		newline();
    106e:	66 e8 88 13 00 00    	call   23fc <_newline>
D:\OneDrive\Study\Operating Systems\实验\project7\codes/./kernel/os.c:53
		in = getInput();
    1074:	e9 0f f0             	jmp    86 <.debug_str+0x4b>
    1077:	00 66 90             	add    BYTE PTR [bp-0x70],ah
    107a:	66 90                	xchg   eax,eax
    107c:	66 90                	xchg   eax,eax
    107e:	66 90                	xchg   eax,eax

00001080 <_test>:
    1080:	ea 00 00 50 00       	jmp    0x50:0x0

00001085 <_inisys>:
    1085:	60                   	pusha  
    1086:	e8 52 03             	call   13db <installInt8h>
    1089:	e8 e9 02             	call   1375 <installInt9h>
    108c:	e8 93 02             	call   1322 <installInt2Bh>
    108f:	e8 05 00             	call   1097 <installInt21h>
    1092:	e8 96 04             	call   152b <installInt34_37h>
    1095:	61                   	popa   
    1096:	c3                   	ret    

00001097 <installInt21h>:
    1097:	50                   	push   ax
    1098:	06                   	push   es
    1099:	b8 00 00             	mov    ax,0x0
    109c:	8e c0                	mov    es,ax
    109e:	26 c7 06 84 00 ad 10 	mov    WORD PTR es:0x84,0x10ad
    10a5:	26 8c 0e 86 00       	mov    WORD PTR es:0x86,cs
    10aa:	07                   	pop    es
    10ab:	58                   	pop    ax
    10ac:	c3                   	ret    

000010ad <int21h>:
    10ad:	2e 89 1e 6b 11       	mov    WORD PTR cs:0x116b,bx
    10b2:	53                   	push   bx
    10b3:	1e                   	push   ds
    10b4:	0e                   	push   cs
    10b5:	1f                   	pop    ds
    10b6:	bb 00 00             	mov    bx,0x0
    10b9:	50                   	push   ax
    10ba:	88 e0                	mov    al,ah
    10bc:	b3 02                	mov    bl,0x2
    10be:	f6 e3                	mul    bl
    10c0:	88 c3                	mov    bl,al
    10c2:	58                   	pop    ax
    10c3:	2e ff 97 cb 10       	call   WORD PTR cs:[bx+0x10cb]

000010c8 <int21hre>:
    10c8:	1f                   	pop    ds
    10c9:	5b                   	pop    bx
    10ca:	cf                   	iret   

000010cb <int21hTable>:
    10cb:	a2 11 b0             	mov    ds:0xb011,al
    10ce:	11 f5                	adc    bp,si
    10d0:	11 ce                	adc    si,cx
    10d2:	11 d9                	adc    cx,bx
    10d4:	11 29                	adc    WORD PTR [bx+di],bp
    10d6:	12 40 12             	adc    al,BYTE PTR [bx+si+0x12]
    10d9:	59                   	pop    cx
    10da:	12 68 12             	adc    ch,BYTE PTR [bx+si+0x12]
    10dd:	8c 11                	mov    WORD PTR [bx+di],ss
    10df:	cc                   	int3   
    10e0:	12 da                	adc    bl,dl
    10e2:	12 ec                	adc    ch,ah
    10e4:	12 fe                	adc    bh,dh
    10e6:	12 10                	adc    dl,BYTE PTR [bx+si]
    10e8:	13 71 11             	adc    si,WORD PTR [bx+di+0x11]
	...
    1163:	e7 11                	out    0x11,ax

00001165 <int21h_store_ip>:
	...

00001167 <int21h_store_cs>:
	...

00001169 <int21h_store_flags>:
	...

0000116b <int21h_store_ebx>:
    116b:	00 00                	add    BYTE PTR [bx+si],al
	...

0000116f <int21_store_retaddr>:
	...

00001171 <int21hFree>:
    1171:	66 50                	push   eax
    1173:	66 b8 00 00 00 00    	mov    eax,0x0
    1179:	8c e8                	mov    ax,gs
    117b:	66 50                	push   eax
    117d:	66 51                	push   ecx
    117f:	b8 ea 4b             	mov    ax,0x4bea
    1182:	66 ff d0             	call   eax
    1185:	66 59                	pop    ecx
    1187:	66 58                	pop    eax
    1189:	66 58                	pop    eax
    118b:	c3                   	ret    

0000118c <int21hMalloc>:
    118c:	66 53                	push   ebx
    118e:	1e                   	push   ds
    118f:	0e                   	push   cs
    1190:	1f                   	pop    ds
    1191:	66 53                	push   ebx
    1193:	66 b8 43 4a 00 00    	mov    eax,0x4a43
    1199:	66 ff d0             	call   eax
    119c:	66 5b                	pop    ebx
    119e:	1f                   	pop    ds
    119f:	66 5b                	pop    ebx
    11a1:	c3                   	ret    

000011a2 <int21hps>:
    11a2:	66 50                	push   eax
    11a4:	66 31 c0             	xor    eax,eax
    11a7:	b8 4d 28             	mov    ax,0x284d
    11aa:	66 ff d0             	call   eax
    11ad:	66 58                	pop    eax
    11af:	c3                   	ret    

000011b0 <int21hkill>:
    11b0:	66 50                	push   eax
    11b2:	66 53                	push   ebx
    11b4:	66 bb 00 00 00 00    	mov    ebx,0x0
    11ba:	88 c3                	mov    bl,al
    11bc:	66 53                	push   ebx
    11be:	66 31 c0             	xor    eax,eax
    11c1:	b8 07 2b             	mov    ax,0x2b07
    11c4:	66 ff d0             	call   eax
    11c7:	66 5b                	pop    ebx
    11c9:	66 5b                	pop    ebx
    11cb:	66 58                	pop    eax
    11cd:	c3                   	ret    

000011ce <int21hshowDate>:
    11ce:	fb                   	sti    
    11cf:	66 31 c0             	xor    eax,eax
    11d2:	b8 d8 22             	mov    ax,0x22d8
    11d5:	66 ff d0             	call   eax
    11d8:	c3                   	ret    

000011d9 <int21hClear>:
    11d9:	66 50                	push   eax
    11db:	66 31 c0             	xor    eax,eax
    11de:	b8 d0 15             	mov    ax,0x15d0
    11e1:	66 ff d0             	call   eax
    11e4:	66 58                	pop    eax
    11e6:	c3                   	ret    

000011e7 <int21hexit>:
    11e7:	66 50                	push   eax
    11e9:	66 31 c0             	xor    eax,eax
    11ec:	b8 33 17             	mov    ax,0x1733
    11ef:	66 ff d0             	call   eax
    11f2:	66 58                	pop    eax
    11f4:	c3                   	ret    

000011f5 <int21hPrintString>:
    11f5:	60                   	pusha  
    11f6:	1e                   	push   ds
    11f7:	66 50                	push   eax
    11f9:	8c e8                	mov    ax,gs
    11fb:	8e d8                	mov    ds,ax
    11fd:	66 53                	push   ebx
    11ff:	66 51                	push   ecx
    1201:	66 b8 00 00 00 00    	mov    eax,0x0
    1207:	88 d0                	mov    al,dl
    1209:	66 50                	push   eax
    120b:	88 f0                	mov    al,dh
    120d:	66 50                	push   eax
    120f:	66 57                	push   edi
    1211:	66 31 c0             	xor    eax,eax
    1214:	b8 a5 15             	mov    ax,0x15a5
    1217:	66 ff d0             	call   eax
    121a:	66 5f                	pop    edi
    121c:	66 58                	pop    eax
    121e:	66 58                	pop    eax
    1220:	66 59                	pop    ecx
    1222:	66 5b                	pop    ebx
    1224:	66 58                	pop    eax
    1226:	1f                   	pop    ds
    1227:	61                   	popa   
    1228:	c3                   	ret    

00001229 <int21hint2str>:
    1229:	60                   	pusha  
    122a:	1e                   	push   ds
    122b:	8c e8                	mov    ax,gs
    122d:	8e d8                	mov    ds,ax
    122f:	66 57                	push   edi
    1231:	66 53                	push   ebx
    1233:	b8 6e 2e             	mov    ax,0x2e6e
    1236:	66 ff d0             	call   eax
    1239:	66 5b                	pop    ebx
    123b:	66 5f                	pop    edi
    123d:	1f                   	pop    ds
    123e:	61                   	popa   
    123f:	c3                   	ret    

00001240 <int21hexitprg>:
    1240:	60                   	pusha  
    1241:	1e                   	push   ds
    1242:	2e 66 ff 36 6b 11    	push   DWORD PTR cs:0x116b
    1248:	66 b8 00 00 00 00    	mov    eax,0x0
    124e:	b8 d8 41             	mov    ax,0x41d8
    1251:	66 ff d0             	call   eax
    1254:	66 5b                	pop    ebx
    1256:	1f                   	pop    ds
    1257:	61                   	popa   
    1258:	c3                   	ret    

00001259 <int21hwait>:
    1259:	1e                   	push   ds
    125a:	66 b8 00 00 00 00    	mov    eax,0x0
    1260:	b8 ac 42             	mov    ax,0x42ac
    1263:	66 ff d0             	call   eax
    1266:	1f                   	pop    ds
    1267:	c3                   	ret    

00001268 <int21hfork>:
    1268:	fa                   	cli    
    1269:	0e                   	push   cs
    126a:	53                   	push   bx
    126b:	50                   	push   ax
    126c:	1e                   	push   ds
    126d:	8c c8                	mov    ax,cs
    126f:	8e d8                	mov    ds,ax
    1271:	2e 8b 1e a0 be       	mov    bx,WORD PTR cs:0xbea0
    1276:	2e a1 04 97          	mov    ax,cs:0x9704
    127a:	f6 e3                	mul    bl
    127c:	89 c3                	mov    bx,ax
    127e:	81 c3 60 b3          	add    bx,0xb360
    1282:	2e 89 1e 80 18       	mov    WORD PTR cs:0x1880,bx
    1287:	1f                   	pop    ds
    1288:	58                   	pop    ax
    1289:	5b                   	pop    bx
    128a:	fb                   	sti    
    128b:	e8 1e 05             	call   17ac <save>
    128e:	fa                   	cli    
    128f:	60                   	pusha  
    1290:	1e                   	push   ds
    1291:	66 b8 00 00 00 00    	mov    eax,0x0
    1297:	8c c8                	mov    ax,cs
    1299:	8e d8                	mov    ds,ax
    129b:	b8 95 3d             	mov    ax,0x3d95
    129e:	66 ff d0             	call   eax
    12a1:	1f                   	pop    ds
    12a2:	61                   	popa   
    12a3:	53                   	push   bx
    12a4:	50                   	push   ax
    12a5:	1e                   	push   ds
    12a6:	8c c8                	mov    ax,cs
    12a8:	8e d8                	mov    ds,ax
    12aa:	2e 8b 1e a0 be       	mov    bx,WORD PTR cs:0xbea0
    12af:	2e a1 04 97          	mov    ax,cs:0x9704
    12b3:	f6 e3                	mul    bl
    12b5:	89 c3                	mov    bx,ax
    12b7:	81 c3 60 b3          	add    bx,0xb360
    12bb:	2e 89 1e 7e 18       	mov    WORD PTR cs:0x187e,bx
    12c0:	1f                   	pop    ds
    12c1:	58                   	pop    ax
    12c2:	5b                   	pop    bx
    12c3:	e8 65 05             	call   182b <restart>

000012c6 <int21hfork_store_cs>:
	...

000012c8 <int21hfork_store_ip>:
	...

000012ca <int21hfork_store_flags>:
	...

000012cc <int21hGetSem>:
    12cc:	66 31 c0             	xor    eax,eax
    12cf:	b8 bc 5e             	mov    ax,0x5ebc
    12d2:	66 51                	push   ecx
    12d4:	66 ff d0             	call   eax
    12d7:	66 59                	pop    ecx
    12d9:	c3                   	ret    

000012da <int21hFreeSem>:
    12da:	66 50                	push   eax
    12dc:	66 31 c0             	xor    eax,eax
    12df:	b8 7a 5f             	mov    ax,0x5f7a
    12e2:	66 51                	push   ecx
    12e4:	66 ff d0             	call   eax
    12e7:	66 59                	pop    ecx
    12e9:	66 58                	pop    eax
    12eb:	c3                   	ret    

000012ec <int21hP>:
    12ec:	66 50                	push   eax
    12ee:	66 31 c0             	xor    eax,eax
    12f1:	b8 e9 5f             	mov    ax,0x5fe9
    12f4:	66 51                	push   ecx
    12f6:	66 ff d0             	call   eax
    12f9:	66 59                	pop    ecx
    12fb:	66 58                	pop    eax
    12fd:	c3                   	ret    

000012fe <int21hV>:
    12fe:	66 50                	push   eax
    1300:	66 31 c0             	xor    eax,eax
    1303:	b8 fd 60             	mov    ax,0x60fd
    1306:	66 51                	push   ecx
    1308:	66 ff d0             	call   eax
    130b:	66 59                	pop    ecx
    130d:	66 58                	pop    eax
    130f:	c3                   	ret    

00001310 <int21hDelay>:
    1310:	66 50                	push   eax
    1312:	66 31 c0             	xor    eax,eax
    1315:	b8 8e 48             	mov    ax,0x488e
    1318:	66 51                	push   ecx
    131a:	66 ff d0             	call   eax
    131d:	66 59                	pop    ecx
    131f:	66 58                	pop    eax
    1321:	c3                   	ret    

00001322 <installInt2Bh>:
    1322:	60                   	pusha  
    1323:	06                   	push   es
    1324:	b8 00 00             	mov    ax,0x0
    1327:	8e c0                	mov    es,ax
    1329:	26 c7 06 ac 00 38 13 	mov    WORD PTR es:0xac,0x1338
    1330:	26 8c 0e ae 00       	mov    WORD PTR es:0xae,cs
    1335:	07                   	pop    es
    1336:	61                   	popa   
    1337:	c3                   	ret    

00001338 <int2Bh>:
    1338:	2e 8f 06 71 13       	pop    WORD PTR cs:0x1371
    133d:	2e 8f 06 73 13       	pop    WORD PTR cs:0x1373
    1342:	9d                   	popf   
    1343:	2e 8f 06 71 13       	pop    WORD PTR cs:0x1371
    1348:	60                   	pusha  
    1349:	1e                   	push   ds
    134a:	66 b8 00 00 00 00    	mov    eax,0x0
    1350:	8c c8                	mov    ax,cs
    1352:	8e d8                	mov    ds,ax
    1354:	a1 a0 be             	mov    ax,ds:0xbea0
    1357:	66 50                	push   eax
    1359:	b8 04 3a             	mov    ax,0x3a04
    135c:	66 ff d0             	call   eax
    135f:	66 58                	pop    eax
    1361:	1f                   	pop    ds
    1362:	61                   	popa   
    1363:	9c                   	pushf  
    1364:	2e ff 36 73 13       	push   WORD PTR cs:0x1373
    1369:	2e ff 36 71 13       	push   WORD PTR cs:0x1371
    136e:	e9 a9 00             	jmp    141a <int8h>

00001371 <in2b_store_ip>:
	...

00001373 <in2b_store_cs>:
	...

00001375 <installInt9h>:
    1375:	60                   	pusha  
    1376:	06                   	push   es
    1377:	1e                   	push   ds
    1378:	31 c0                	xor    ax,ax
    137a:	8e c0                	mov    es,ax
    137c:	8c c8                	mov    ax,cs
    137e:	8e d8                	mov    ds,ax
    1380:	26 a1 26 00          	mov    ax,es:0x26
    1384:	2e a3 a4 13          	mov    cs:0x13a4,ax
    1388:	26 a1 24 00          	mov    ax,es:0x24
    138c:	2e a3 a2 13          	mov    cs:0x13a2,ax
    1390:	fa                   	cli    
    1391:	26 8c 0e 26 00       	mov    WORD PTR es:0x26,cs
    1396:	26 c7 06 24 00 a6 13 	mov    WORD PTR es:0x24,0x13a6
    139d:	fb                   	sti    
    139e:	1f                   	pop    ds
    139f:	07                   	pop    es
    13a0:	61                   	popa   
    13a1:	c3                   	ret    

000013a2 <tmp9>:
    13a2:	00 00                	add    BYTE PTR [bx+si],al
	...

000013a6 <int9h>:
    13a6:	60                   	pusha  
    13a7:	06                   	push   es
    13a8:	1e                   	push   ds
    13a9:	8c c8                	mov    ax,cs
    13ab:	8e d8                	mov    ds,ax
    13ad:	8e c0                	mov    es,ax
    13af:	9c                   	pushf  
    13b0:	2e ff 1e a2 13       	call   DWORD PTR cs:0x13a2

000013b5 <showInsert>:
    13b5:	b9 09 00             	mov    cx,0x9
    13b8:	bd d2 13             	mov    bp,0x13d2
    13bb:	ba 45 18             	mov    dx,0x1845
    13be:	b3 0f                	mov    bl,0xf
    13c0:	b7 00                	mov    bh,0x0
    13c2:	b4 13                	mov    ah,0x13
    13c4:	b0 00                	mov    al,0x0
    13c6:	cd 10                	int    0x10
    13c8:	b0 20                	mov    al,0x20
    13ca:	e6 20                	out    0x20,al
    13cc:	e6 a0                	out    0xa0,al
    13ce:	1f                   	pop    ds
    13cf:	07                   	pop    es
    13d0:	61                   	popa   
    13d1:	cf                   	iret   

000013d2 <inserting>:
    13d2:	69 6e 73 65 72       	imul   bp,WORD PTR [bp+0x73],0x7265
    13d7:	74 69                	je     1442 <int8h+0x28>
    13d9:	6e                   	outs   dx,BYTE PTR ds:[si]
    13da:	67                   	addr32

000013db <installInt8h>:
    13db:	06                   	push   es
    13dc:	50                   	push   ax
    13dd:	31 c0                	xor    ax,ax
    13df:	8e c0                	mov    es,ax
    13e1:	26 a1 22 00          	mov    ax,es:0x22
    13e5:	2e a3 18 14          	mov    cs:0x1418,ax
    13e9:	26 a1 20 00          	mov    ax,es:0x20
    13ed:	2e a3 16 14          	mov    cs:0x1416,ax
    13f1:	fa                   	cli    
    13f2:	26 8c 0e 22 00       	mov    WORD PTR es:0x22,cs
    13f7:	26 c7 06 20 00 1a 14 	mov    WORD PTR es:0x20,0x141a
    13fe:	2e c7 06 18 15 28 00 	mov    WORD PTR cs:0x1518,0x28
    1405:	fb                   	sti    

00001406 <SetTimer>:
    1406:	b0 34                	mov    al,0x34
    1408:	e6 43                	out    0x43,al
    140a:	b8 0b e9             	mov    ax,0xe90b
    140d:	e6 40                	out    0x40,al
    140f:	88 e0                	mov    al,ah
    1411:	e6 40                	out    0x40,al
    1413:	58                   	pop    ax
    1414:	07                   	pop    es
    1415:	c3                   	ret    

00001416 <tmp8>:
    1416:	00 00                	add    BYTE PTR [bx+si],al
	...

0000141a <int8h>:
    141a:	60                   	pusha  
    141b:	1e                   	push   ds
    141c:	06                   	push   es
    141d:	8c c8                	mov    ax,cs
    141f:	8e d8                	mov    ds,ax
    1421:	9c                   	pushf  
    1422:	ff 1e 16 14          	call   DWORD PTR ds:0x1416
    1426:	ff 0e 18 15          	dec    WORD PTR ds:0x1518
    142a:	83 3e 18 15 00       	cmp    WORD PTR ds:0x1518,0x0
    142f:	75 67                	jne    1498 <int8hret>
    1431:	c7 06 18 15 28 00    	mov    WORD PTR ds:0x1518,0x28
    1437:	b8 00 b8             	mov    ax,0xb800
    143a:	8e c0                	mov    es,ax
    143c:	b4 04                	mov    ah,0x4
    143e:	b7 00                	mov    bh,0x0
    1440:	b4 03                	mov    ah,0x3
    1442:	cd 10                	int    0x10
    1444:	b8 00 00             	mov    ax,0x0
    1447:	88 f0                	mov    al,dh
    1449:	b3 50                	mov    bl,0x50
    144b:	f6 e3                	mul    bl
    144d:	b6 00                	mov    dh,0x0
    144f:	01 d0                	add    ax,dx
    1451:	bb 02 00             	mov    bx,0x2
    1454:	f7 e3                	mul    bx
    1456:	89 c5                	mov    bp,ax
    1458:	bb 1c 15             	mov    bx,0x151c
    145b:	03 1e 1a 15          	add    bx,WORD PTR ds:0x151a
    145f:	8a 07                	mov    al,BYTE PTR [bx]
    1461:	b4 0f                	mov    ah,0xf
    1463:	26 89 46 00          	mov    WORD PTR es:[bp+0x0],ax
    1467:	b8 20 0f             	mov    ax,0xf20
    146a:	26 89 46 02          	mov    WORD PTR es:[bp+0x2],ax
    146e:	ff 06 1a 15          	inc    WORD PTR ds:0x151a
    1472:	83 3e 1a 15 04       	cmp    WORD PTR ds:0x151a,0x4
    1477:	7c 06                	jl     147f <insertShow>
    1479:	c7 06 1a 15 00 00    	mov    WORD PTR ds:0x151a,0x0

0000147f <insertShow>:
    147f:	06                   	push   es
    1480:	8c c8                	mov    ax,cs
    1482:	8e c0                	mov    es,ax
    1484:	b9 09 00             	mov    cx,0x9
    1487:	bd 20 15             	mov    bp,0x1520
    148a:	ba 45 18             	mov    dx,0x1845
    148d:	b3 0f                	mov    bl,0xf
    148f:	b7 00                	mov    bh,0x0
    1491:	b4 13                	mov    ah,0x13
    1493:	b0 00                	mov    al,0x0
    1495:	cd 10                	int    0x10
    1497:	07                   	pop    es

00001498 <int8hret>:
    1498:	fa                   	cli    
    1499:	b0 20                	mov    al,0x20
    149b:	e6 20                	out    0x20,al
    149d:	e6 a0                	out    0xa0,al
    149f:	07                   	pop    es
    14a0:	1f                   	pop    ds
    14a1:	61                   	popa   
    14a2:	53                   	push   bx
    14a3:	50                   	push   ax
    14a4:	1e                   	push   ds
    14a5:	8c c8                	mov    ax,cs
    14a7:	8e d8                	mov    ds,ax
    14a9:	2e 8b 1e a0 be       	mov    bx,WORD PTR cs:0xbea0
    14ae:	2e a1 04 97          	mov    ax,cs:0x9704
    14b2:	f6 e3                	mul    bl
    14b4:	89 c3                	mov    bx,ax
    14b6:	81 c3 60 b3          	add    bx,0xb360
    14ba:	2e 89 1e 80 18       	mov    WORD PTR cs:0x1880,bx
    14bf:	1f                   	pop    ds
    14c0:	58                   	pop    ax
    14c1:	5b                   	pop    bx
    14c2:	50                   	push   ax
    14c3:	1e                   	push   ds
    14c4:	0e                   	push   cs
    14c5:	1f                   	pop    ds
    14c6:	60                   	pusha  
    14c7:	66 31 c0             	xor    eax,eax
    14ca:	b8 28 49             	mov    ax,0x4928
    14cd:	66 ff d0             	call   eax
    14d0:	66 31 c0             	xor    eax,eax
    14d3:	b8 70 3b             	mov    ax,0x3b70
    14d6:	66 ff d0             	call   eax
    14d9:	61                   	popa   
    14da:	1f                   	pop    ds
    14db:	58                   	pop    ax
    14dc:	2e 8f 06 71 13       	pop    WORD PTR cs:0x1371
    14e1:	2e 8f 06 73 13       	pop    WORD PTR cs:0x1373
    14e6:	9d                   	popf   
    14e7:	2e ff 36 71 13       	push   WORD PTR cs:0x1371
    14ec:	2e ff 36 73 13       	push   WORD PTR cs:0x1373
    14f1:	53                   	push   bx
    14f2:	50                   	push   ax
    14f3:	1e                   	push   ds
    14f4:	8c c8                	mov    ax,cs
    14f6:	8e d8                	mov    ds,ax
    14f8:	2e 8b 1e a0 be       	mov    bx,WORD PTR cs:0xbea0
    14fd:	2e a1 04 97          	mov    ax,cs:0x9704
    1501:	f6 e3                	mul    bl
    1503:	89 c3                	mov    bx,ax
    1505:	81 c3 60 b3          	add    bx,0xb360
    1509:	2e 89 1e 7e 18       	mov    WORD PTR cs:0x187e,bx
    150e:	1f                   	pop    ds
    150f:	58                   	pop    ax
    1510:	5b                   	pop    bx
    1511:	e8 98 02             	call   17ac <save>
    1514:	e8 14 03             	call   182b <restart>
    1517:	cf                   	iret   

00001518 <count>:
    1518:	28 00                	sub    BYTE PTR [bx+si],al

0000151a <k>:
	...

0000151c <char>:
    151c:	7c 5c                	jl     157a <int34h+0xd>
    151e:	2d                   	.byte 0x2d
    151f:	2f                   	das    

00001520 <inserted>:
    1520:	69 6e 73 65 72       	imul   bp,WORD PTR [bp+0x73],0x7265
    1525:	74 65                	je     158c <int36h+0x3>
    1527:	64                   	fs
    1528:	20                   	.byte 0x20

00001529 <int8h_store_ss>:
	...

0000152b <installInt34_37h>:
    152b:	06                   	push   es
    152c:	50                   	push   ax
    152d:	b8 00 00             	mov    ax,0x0
    1530:	8e c0                	mov    es,ax
    1532:	fa                   	cli    
    1533:	26 8c 0e d2 00       	mov    WORD PTR es:0xd2,cs
    1538:	26 c7 06 d0 00 6d 15 	mov    WORD PTR es:0xd0,0x156d
    153f:	fb                   	sti    
    1540:	fa                   	cli    
    1541:	26 8c 0e d6 00       	mov    WORD PTR es:0xd6,cs
    1546:	26 c7 06 d4 00 7b 15 	mov    WORD PTR es:0xd4,0x157b
    154d:	fb                   	sti    
    154e:	fa                   	cli    
    154f:	26 8c 0e da 00       	mov    WORD PTR es:0xda,cs
    1554:	26 c7 06 d8 00 89 15 	mov    WORD PTR es:0xd8,0x1589
    155b:	fb                   	sti    
    155c:	fa                   	cli    
    155d:	26 8c 0e de 00       	mov    WORD PTR es:0xde,cs
    1562:	26 c7 06 dc 00 97 15 	mov    WORD PTR es:0xdc,0x1597
    1569:	fb                   	sti    
    156a:	58                   	pop    ax
    156b:	07                   	pop    es
    156c:	c3                   	ret    

0000156d <int34h>:
    156d:	8c c8                	mov    ax,cs
    156f:	8e d8                	mov    ds,ax
    1571:	66 31 c0             	xor    eax,eax
    1574:	b8 15 64             	mov    ax,0x6415
    1577:	66 ff d0             	call   eax
    157a:	cf                   	iret   

0000157b <int35h>:
    157b:	8c c8                	mov    ax,cs
    157d:	8e d8                	mov    ds,ax
    157f:	66 31 c0             	xor    eax,eax
    1582:	b8 70 64             	mov    ax,0x6470
    1585:	66 ff d0             	call   eax
    1588:	cf                   	iret   

00001589 <int36h>:
    1589:	8c c8                	mov    ax,cs
    158b:	8e d8                	mov    ds,ax
    158d:	66 31 c0             	xor    eax,eax
    1590:	b8 cb 64             	mov    ax,0x64cb
    1593:	66 ff d0             	call   eax
    1596:	cf                   	iret   

00001597 <int37h>:
    1597:	8c c8                	mov    ax,cs
    1599:	8e d8                	mov    ds,ax
    159b:	66 31 c0             	xor    eax,eax
    159e:	b8 26 65             	mov    ax,0x6526
    15a1:	66 ff d0             	call   eax
    15a4:	cf                   	iret   

000015a5 <_printSentence>:
    15a5:	66 55                	push   ebp
    15a7:	67 8a 5c 24 18       	mov    bl,BYTE PTR [esp+0x18]
    15ac:	67 8b 4c 24 14       	mov    cx,WORD PTR [esp+0x14]
    15b1:	67 8a 54 24 10       	mov    dl,BYTE PTR [esp+0x10]
    15b6:	67 8a 74 24 0c       	mov    dh,BYTE PTR [esp+0xc]
    15bb:	67 8b 6c 24 08       	mov    bp,WORD PTR [esp+0x8]
    15c0:	b0 01                	mov    al,0x1
    15c2:	b7 00                	mov    bh,0x0
    15c4:	1e                   	push   ds
    15c5:	07                   	pop    es
    15c6:	b4 13                	mov    ah,0x13
    15c8:	cd 10                	int    0x10
    15ca:	66 5d                	pop    ebp
    15cc:	66 59                	pop    ecx
    15ce:	ff e1                	jmp    cx

000015d0 <_ClearScreen>:
    15d0:	60                   	pusha  
    15d1:	b4 06                	mov    ah,0x6
    15d3:	b0 00                	mov    al,0x0
    15d5:	b7 0f                	mov    bh,0xf
    15d7:	b5 00                	mov    ch,0x0
    15d9:	b1 00                	mov    cl,0x0
    15db:	b6 18                	mov    dh,0x18
    15dd:	b2 4f                	mov    dl,0x4f
    15df:	cd 10                	int    0x10
    15e1:	61                   	popa   
    15e2:	2e 66 8f 06 ed 15    	pop    DWORD PTR cs:0x15ed
    15e8:	2e ff 26 ed 15       	jmp    WORD PTR cs:0x15ed

000015ed <retaddr>:
    15ed:	00 00                	add    BYTE PTR [bx+si],al
	...

000015f1 <_getInput>:
    15f1:	c7 06 2b 17 00 00    	mov    WORD PTR ds:0x172b,0x0

000015f7 <getStr>:
    15f7:	b4 00                	mov    ah,0x0
    15f9:	cd 16                	int    0x16
    15fb:	3c 20                	cmp    al,0x20
    15fd:	7c 07                	jl     1606 <nochar>
    15ff:	b4 00                	mov    ah,0x0
    1601:	e8 26 00             	call   162a <Charmini>
    1604:	eb f1                	jmp    15f7 <getStr>

00001606 <nochar>:
    1606:	80 fc 0e             	cmp    ah,0xe
    1609:	74 07                	je     1612 <backspace>
    160b:	80 fc 1c             	cmp    ah,0x1c
    160e:	74 09                	je     1619 <enter>
    1610:	eb e5                	jmp    15f7 <getStr>

00001612 <backspace>:
    1612:	b4 01                	mov    ah,0x1
    1614:	e8 13 00             	call   162a <Charmini>
    1617:	eb de                	jmp    15f7 <getStr>

00001619 <enter>:
    1619:	b0 00                	mov    al,0x0
    161b:	b4 00                	mov    ah,0x0
    161d:	e8 0a 00             	call   162a <Charmini>
    1620:	66 29 c0             	sub    eax,eax
    1623:	b8 c6 16             	mov    ax,0x16c6
    1626:	66 59                	pop    ecx
    1628:	ff e1                	jmp    cx

0000162a <Charmini>:
    162a:	53                   	push   bx
    162b:	52                   	push   dx
    162c:	57                   	push   di
    162d:	06                   	push   es
    162e:	80 fc 01             	cmp    ah,0x1
    1631:	0f 8f 8c 00          	jg     16c1 <Charminiret>
    1635:	88 e3                	mov    bl,ah
    1637:	b7 00                	mov    bh,0x0
    1639:	01 db                	add    bx,bx
    163b:	ff a7 2d 17          	jmp    WORD PTR [bx+0x172d]

0000163f <charpush>:
    163f:	80 3e 2b 17 64       	cmp    BYTE PTR ds:0x172b,0x64
    1644:	7d 7b                	jge    16c1 <Charminiret>
    1646:	8b 1e 2b 17          	mov    bx,WORD PTR ds:0x172b
    164a:	fe 06 2b 17          	inc    BYTE PTR ds:0x172b
    164e:	88 87 c6 16          	mov    BYTE PTR [bx+0x16c6],al
    1652:	e8 1a 00             	call   166f <charshow>
    1655:	eb 6a                	jmp    16c1 <Charminiret>

00001657 <charpop>:
    1657:	80 3e 2b 17 00       	cmp    BYTE PTR ds:0x172b,0x0
    165c:	7e 63                	jle    16c1 <Charminiret>
    165e:	fe 0e 2b 17          	dec    BYTE PTR ds:0x172b
    1662:	8b 1e 2b 17          	mov    bx,WORD PTR ds:0x172b
    1666:	8a 87 c6 16          	mov    al,BYTE PTR [bx+0x16c6]
    166a:	e8 24 00             	call   1691 <coverLast>
    166d:	eb 52                	jmp    16c1 <Charminiret>

0000166f <charshow>:
    166f:	66 55                	push   ebp
    1671:	b7 00                	mov    bh,0x0
    1673:	b4 03                	mov    ah,0x3
    1675:	cd 10                	int    0x10
    1677:	b0 01                	mov    al,0x1
    1679:	b4 13                	mov    ah,0x13
    167b:	b7 00                	mov    bh,0x0
    167d:	b3 0e                	mov    bl,0xe
    167f:	b9 01 00             	mov    cx,0x1
    1682:	0e                   	push   cs
    1683:	07                   	pop    es
    1684:	bd c6 16             	mov    bp,0x16c6
    1687:	03 2e 2b 17          	add    bp,WORD PTR ds:0x172b
    168b:	4d                   	dec    bp
    168c:	cd 10                	int    0x10
    168e:	66 5d                	pop    ebp
    1690:	c3                   	ret    

00001691 <coverLast>:
    1691:	b8 00 b8             	mov    ax,0xb800
    1694:	8e c0                	mov    es,ax
    1696:	b4 03                	mov    ah,0x3
    1698:	cd 10                	int    0x10
    169a:	80 fa 00             	cmp    dl,0x0
    169d:	7f 04                	jg     16a3 <noEndofLine>
    169f:	b2 50                	mov    dl,0x50
    16a1:	fe ce                	dec    dh

000016a3 <noEndofLine>:
    16a3:	fe ca                	dec    dl
    16a5:	b4 02                	mov    ah,0x2
    16a7:	b7 00                	mov    bh,0x0
    16a9:	cd 10                	int    0x10
    16ab:	b8 50 00             	mov    ax,0x50
    16ae:	f6 e6                	mul    dh
    16b0:	b6 00                	mov    dh,0x0
    16b2:	01 d0                	add    ax,dx
    16b4:	ba 02 00             	mov    dx,0x2
    16b7:	f7 e2                	mul    dx
    16b9:	89 c3                	mov    bx,ax
    16bb:	26 c7 07 20 0f       	mov    WORD PTR es:[bx],0xf20
    16c0:	c3                   	ret    

000016c1 <Charminiret>:
    16c1:	07                   	pop    es
    16c2:	5f                   	pop    di
    16c3:	5a                   	pop    dx
    16c4:	5b                   	pop    bx
    16c5:	c3                   	ret    

000016c6 <input>:
	...

0000172b <top>:
	...

0000172d <getInputTable>:
    172d:	3f                   	aas    
    172e:	16                   	push   ss
    172f:	57                   	push   di
    1730:	16                   	push   ss
    1731:	6f                   	outs   dx,WORD PTR ds:[si]
    1732:	16                   	push   ss

00001733 <_shutdown>:
    1733:	60                   	pusha  
    1734:	b8 01 53             	mov    ax,0x5301
    1737:	31 db                	xor    bx,bx
    1739:	cd 15                	int    0x15
    173b:	b8 0e 53             	mov    ax,0x530e
    173e:	b9 02 01             	mov    cx,0x102
    1741:	cd 15                	int    0x15
    1743:	b8 07 53             	mov    ax,0x5307
    1746:	b3 01                	mov    bl,0x1
    1748:	b9 03 00             	mov    cx,0x3
    174b:	cd 15                	int    0x15
    174d:	61                   	popa   
    174e:	66 59                	pop    ecx
    1750:	ff e1                	jmp    cx

00001752 <_loadReal>:
    1752:	66 55                	push   ebp
    1754:	06                   	push   es
    1755:	1e                   	push   ds
    1756:	50                   	push   ax
    1757:	52                   	push   dx
    1758:	51                   	push   cx
    1759:	53                   	push   bx
    175a:	8c c8                	mov    ax,cs
    175c:	8e d8                	mov    ds,ax
    175e:	67 8b 44 24 20       	mov    ax,WORD PTR [esp+0x20]
    1763:	8e c0                	mov    es,ax
    1765:	67 8b 44 24 14       	mov    ax,WORD PTR [esp+0x14]
    176a:	ba 00 00             	mov    dx,0x0
    176d:	b9 00 02             	mov    cx,0x200
    1770:	f7 f1                	div    cx
    1772:	b9 12 00             	mov    cx,0x12
    1775:	f7 f1                	div    cx
    1777:	88 d1                	mov    cl,dl
    1779:	fe c1                	inc    cl
    177b:	89 c2                	mov    dx,ax
    177d:	d1 e8                	shr    ax,1
    177f:	88 c5                	mov    ch,al
    1781:	88 d6                	mov    dh,dl
    1783:	80 e6 01             	and    dh,0x1
    1786:	b2 00                	mov    dl,0x0
    1788:	51                   	push   cx
    1789:	67 8b 44 24 1a       	mov    ax,WORD PTR [esp+0x1a]
    178e:	b9 00 02             	mov    cx,0x200
    1791:	ba 00 00             	mov    dx,0x0
    1794:	f7 f1                	div    cx
    1796:	59                   	pop    cx
    1797:	67 8b 5c 24 1c       	mov    bx,WORD PTR [esp+0x1c]
    179c:	b4 02                	mov    ah,0x2
    179e:	cd 13                	int    0x13
    17a0:	5b                   	pop    bx
    17a1:	59                   	pop    cx
    17a2:	5a                   	pop    dx
    17a3:	58                   	pop    ax
    17a4:	1f                   	pop    ds
    17a5:	07                   	pop    es
    17a6:	66 5d                	pop    ebp
    17a8:	66 59                	pop    ecx
    17aa:	ff e1                	jmp    cx

000017ac <save>:
    17ac:	83 c4 06             	add    sp,0x6
    17af:	2e 89 26 78 18       	mov    WORD PTR cs:0x1878,sp
    17b4:	2e 8c 16 7a 18       	mov    WORD PTR cs:0x187a,ss
    17b9:	83 ec 06             	sub    sp,0x6
    17bc:	2e 8f 06 92 18       	pop    WORD PTR cs:0x1892
    17c1:	1e                   	push   ds
    17c2:	0e                   	push   cs
    17c3:	1f                   	pop    ds
    17c4:	56                   	push   si
    17c5:	57                   	push   di
    17c6:	2e 8b 3e 80 18       	mov    di,WORD PTR cs:0x1880
    17cb:	2e 8f 06 84 18       	pop    WORD PTR cs:0x1884
    17d0:	2e 8f 06 86 18       	pop    WORD PTR cs:0x1886
    17d5:	2e 8f 06 88 18       	pop    WORD PTR cs:0x1888
    17da:	2e 8f 06 8c 18       	pop    WORD PTR cs:0x188c
    17df:	2e 8f 06 8a 18       	pop    WORD PTR cs:0x188a
    17e4:	8c 55 20             	mov    WORD PTR [di+0x20],ss
    17e7:	89 65 1e             	mov    WORD PTR [di+0x1e],sp
    17ea:	0e                   	push   cs
    17eb:	17                   	pop    ss
    17ec:	83 c7 1e             	add    di,0x1e
    17ef:	89 fc                	mov    sp,di
    17f1:	9c                   	pushf  
    17f2:	2e ff 36 8c 18       	push   WORD PTR cs:0x188c
    17f7:	2e ff 36 8a 18       	push   WORD PTR cs:0x188a
    17fc:	60                   	pusha  
    17fd:	5f                   	pop    di
    17fe:	5f                   	pop    di
    17ff:	2e ff 36 86 18       	push   WORD PTR cs:0x1886
    1804:	2e ff 36 84 18       	push   WORD PTR cs:0x1884
    1809:	2e ff 36 88 18       	push   WORD PTR cs:0x1888
    180e:	06                   	push   es
    180f:	0f a0                	push   fs
    1811:	0f a8                	push   gs
    1813:	2e 8e 16 7a 18       	mov    ss,WORD PTR cs:0x187a
    1818:	2e a3 7c 18          	mov    cs:0x187c,ax
    181c:	2e a1 78 18          	mov    ax,cs:0x1878
    1820:	89 c4                	mov    sp,ax
    1822:	2e a1 7c 18          	mov    ax,cs:0x187c
    1826:	2e ff 26 92 18       	jmp    WORD PTR cs:0x1892

0000182b <restart>:
    182b:	0e                   	push   cs
    182c:	17                   	pop    ss
    182d:	2e 8f 06 92 18       	pop    WORD PTR cs:0x1892
    1832:	2e 8b 26 7e 18       	mov    sp,WORD PTR cs:0x187e
    1837:	89 e0                	mov    ax,sp
    1839:	83 c0 18             	add    ax,0x18
    183c:	2e a3 90 18          	mov    cs:0x1890,ax
    1840:	0f a9                	pop    gs
    1842:	0f a1                	pop    fs
    1844:	07                   	pop    es
    1845:	1f                   	pop    ds
    1846:	61                   	popa   
    1847:	2e 8b 26 90 18       	mov    sp,WORD PTR cs:0x1890
    184c:	2e 8f 06 8a 18       	pop    WORD PTR cs:0x188a
    1851:	2e 8f 06 8c 18       	pop    WORD PTR cs:0x188c
    1856:	9d                   	popf   
    1857:	2e 8f 06 90 18       	pop    WORD PTR cs:0x1890
    185c:	17                   	pop    ss
    185d:	2e a3 82 18          	mov    cs:0x1882,ax
    1861:	2e a1 90 18          	mov    ax,cs:0x1890
    1865:	89 c4                	mov    sp,ax
    1867:	2e a1 82 18          	mov    ax,cs:0x1882
    186b:	fb                   	sti    
    186c:	9c                   	pushf  
    186d:	2e ff 36 8c 18       	push   WORD PTR cs:0x188c
    1872:	2e ff 36 8a 18       	push   WORD PTR cs:0x188a
    1877:	cf                   	iret   

00001878 <store_sp_dispatch>:
	...

0000187a <store_ss_dispatch>:
	...

0000187c <store_ax_dispatch>:
	...

0000187e <new_process>:
	...

00001880 <old_process>:
	...

00001882 <store_ax>:
	...

00001884 <store_di>:
	...

00001886 <store_si>:
	...

00001888 <store_ds>:
	...

0000188a <store_ip>:
	...

0000188c <store_cs>:
	...

0000188e <store_ss>:
	...

00001890 <store_sp>:
	...

00001892 <store_retaddr>:
	...

00001894 <_reboot>:
    1894:	cd 19                	int    0x19

00001896 <_getDate>:
    1896:	60                   	pusha  
    1897:	b4 04                	mov    ah,0x4
    1899:	cd 1a                	int    0x1a
    189b:	88 cb                	mov    bl,cl
    189d:	88 d8                	mov    al,bl
    189f:	24 f0                	and    al,0xf0
    18a1:	b1 04                	mov    cl,0x4
    18a3:	d2 e8                	shr    al,cl
    18a5:	80 e3 0f             	and    bl,0xf
    18a8:	88 dc                	mov    ah,bl
    18aa:	05 30 30             	add    ax,0x3030
    18ad:	c7 06 fb 18 32 30    	mov    WORD PTR ds:0x18fb,0x3032
    18b3:	a3 fd 18             	mov    ds:0x18fd,ax
    18b6:	88 f3                	mov    bl,dh
    18b8:	88 d8                	mov    al,bl
    18ba:	24 f0                	and    al,0xf0
    18bc:	b1 04                	mov    cl,0x4
    18be:	d2 e8                	shr    al,cl
    18c0:	80 e3 0f             	and    bl,0xf
    18c3:	88 dc                	mov    ah,bl
    18c5:	05 30 30             	add    ax,0x3030
    18c8:	a3 f8 18             	mov    ds:0x18f8,ax
    18cb:	c6 06 fa 18 2f       	mov    BYTE PTR ds:0x18fa,0x2f
    18d0:	88 d3                	mov    bl,dl
    18d2:	88 d8                	mov    al,bl
    18d4:	24 f0                	and    al,0xf0
    18d6:	b1 04                	mov    cl,0x4
    18d8:	d2 e8                	shr    al,cl
    18da:	80 e3 0f             	and    bl,0xf
    18dd:	88 dc                	mov    ah,bl
    18df:	05 30 30             	add    ax,0x3030
    18e2:	a3 f5 18             	mov    ds:0x18f5,ax
    18e5:	c6 06 f7 18 2f       	mov    BYTE PTR ds:0x18f7,0x2f
    18ea:	61                   	popa   
    18eb:	66 31 c0             	xor    eax,eax
    18ee:	b8 f5 18             	mov    ax,0x18f5
    18f1:	66 59                	pop    ecx
    18f3:	ff e1                	jmp    cx

000018f5 <date>:
	...

00001900 <_roll>:
    1900:	66 55                	push   ebp
    1902:	b4 06                	mov    ah,0x6
    1904:	b0 01                	mov    al,0x1
    1906:	b7 0f                	mov    bh,0xf
    1908:	b9 00 00             	mov    cx,0x0
    190b:	ba 4f 18             	mov    dx,0x184f
    190e:	cd 10                	int    0x10
    1910:	66 5d                	pop    ebp
    1912:	66 59                	pop    ecx
    1914:	ff e1                	jmp    cx

00001916 <lastline>:
	...

00002096 <_getRecords>:
    2096:	66 55                	push   ebp
    2098:	8c c8                	mov    ax,cs
    209a:	67 8b 44 24 08       	mov    ax,WORD PTR [esp+0x8]
    209f:	8e c0                	mov    es,ax
    20a1:	66 31 db             	xor    ebx,ebx
    20a4:	66 67 8b 5c 24 0c    	mov    ebx,DWORD PTR [esp+0xc]
    20aa:	66 31 c0             	xor    eax,eax
    20ad:	66 89 d8             	mov    eax,ebx
    20b0:	66 5d                	pop    ebp
    20b2:	66 59                	pop    ecx
    20b4:	ff e1                	jmp    cx

000020b6 <_fork>:
    20b6:	60                   	pusha  
    20b7:	b4 08                	mov    ah,0x8
    20b9:	cd 21                	int    0x21
    20bb:	61                   	popa   
    20bc:	c3                   	ret    

000020bd <_exitprg>:
    20bd:	66 55                	push   ebp
    20bf:	66 89 e5             	mov    ebp,esp
    20c2:	60                   	pusha  
    20c3:	36 67 8b 5d 08       	mov    bx,WORD PTR ss:[ebp+0x8]
    20c8:	b4 06                	mov    ah,0x6
    20ca:	cd 21                	int    0x21
    20cc:	61                   	popa   
    20cd:	66 89 ec             	mov    esp,ebp
    20d0:	66 5d                	pop    ebp
    20d2:	c3                   	ret    

000020d3 <_wait>:
    20d3:	66 55                	push   ebp
    20d5:	66 89 e5             	mov    ebp,esp
    20d8:	60                   	pusha  
    20d9:	36 67 8b 5d 08       	mov    bx,WORD PTR ss:[ebp+0x8]
    20de:	b4 07                	mov    ah,0x7
    20e0:	cd 21                	int    0x21
    20e2:	61                   	popa   
    20e3:	66 89 ec             	mov    esp,ebp
    20e6:	66 5d                	pop    ebp
    20e8:	c3                   	ret    

000020e9 <_memcpy>:
    20e9:	66 55                	push   ebp
    20eb:	66 89 e5             	mov    ebp,esp
    20ee:	60                   	pusha  
    20ef:	1e                   	push   ds
    20f0:	06                   	push   es
    20f1:	36 67 8b 45 08       	mov    ax,WORD PTR ss:[ebp+0x8]
    20f6:	8e d8                	mov    ds,ax
    20f8:	36 67 8b 75 0c       	mov    si,WORD PTR ss:[ebp+0xc]
    20fd:	36 67 8b 45 10       	mov    ax,WORD PTR ss:[ebp+0x10]
    2102:	8e c0                	mov    es,ax
    2104:	36 67 8b 7d 14       	mov    di,WORD PTR ss:[ebp+0x14]
    2109:	36 67 8b 4d 18       	mov    cx,WORD PTR ss:[ebp+0x18]
    210e:	f3 a4                	rep movs BYTE PTR es:[di],BYTE PTR ds:[si]
    2110:	07                   	pop    es
    2111:	1f                   	pop    ds
    2112:	61                   	popa   
    2113:	66 89 ec             	mov    esp,ebp
    2116:	66 5d                	pop    ebp
    2118:	66 59                	pop    ecx
    211a:	ff e1                	jmp    cx

0000211c <_write>:
    211c:	66 55                	push   ebp
    211e:	06                   	push   es
    211f:	1e                   	push   ds
    2120:	50                   	push   ax
    2121:	52                   	push   dx
    2122:	51                   	push   cx
    2123:	53                   	push   bx
    2124:	8c c8                	mov    ax,cs
    2126:	8e d8                	mov    ds,ax
    2128:	67 8b 44 24 20       	mov    ax,WORD PTR [esp+0x20]
    212d:	8e c0                	mov    es,ax
    212f:	67 8b 44 24 14       	mov    ax,WORD PTR [esp+0x14]
    2134:	ba 00 00             	mov    dx,0x0
    2137:	b9 00 02             	mov    cx,0x200
    213a:	f7 f1                	div    cx
    213c:	b9 12 00             	mov    cx,0x12
    213f:	f7 f1                	div    cx
    2141:	88 d1                	mov    cl,dl
    2143:	fe c1                	inc    cl
    2145:	89 c2                	mov    dx,ax
    2147:	d1 e8                	shr    ax,1
    2149:	88 c5                	mov    ch,al
    214b:	88 d6                	mov    dh,dl
    214d:	80 e6 01             	and    dh,0x1
    2150:	b2 00                	mov    dl,0x0
    2152:	51                   	push   cx
    2153:	67 8b 44 24 1a       	mov    ax,WORD PTR [esp+0x1a]
    2158:	b9 00 02             	mov    cx,0x200
    215b:	ba 00 00             	mov    dx,0x0
    215e:	f7 f1                	div    cx
    2160:	59                   	pop    cx
    2161:	67 8b 5c 24 1c       	mov    bx,WORD PTR [esp+0x1c]
    2166:	b4 03                	mov    ah,0x3
    2168:	cd 13                	int    0x13
    216a:	5b                   	pop    bx
    216b:	59                   	pop    cx
    216c:	5a                   	pop    dx
    216d:	58                   	pop    ax
    216e:	1f                   	pop    ds
    216f:	07                   	pop    es
    2170:	66 5d                	pop    ebp
    2172:	66 59                	pop    ecx
    2174:	ff e1                	jmp    cx
    2176:	66 90                	xchg   eax,eax
    2178:	66 90                	xchg   eax,eax
    217a:	66 90                	xchg   eax,eax
    217c:	66 90                	xchg   eax,eax
    217e:	66 90                	xchg   eax,eax

00002180 <_countLines>:
countLines():
D:\OneDrive\Study\Operating Systems\实验\project7\codes/./lib/utilsC.c:47
void initialProcessTable();
/////////// inside declarations end ////////////

//////////// IO ////////////////////
int countLines(char * sen)
{
    2180:	66 55                	push   ebp
    2182:	66 89 e5             	mov    ebp,esp
    2185:	66 83 ec 08          	sub    esp,0x8
D:\OneDrive\Study\Operating Systems\实验\project7\codes/./lib/utilsC.c:48
	int lines = 0;
    2189:	67 66 c7 45 fc 00 00 	mov    DWORD PTR [ebp-0x4],0x0
    2190:	00 00 
D:\OneDrive\Study\Operating Systems\实验\project7\codes/./lib/utilsC.c:49
	for (int i = 0; sen[i]; ++i) {
    2192:	67 66 c7 45 f8 00 00 	mov    DWORD PTR [ebp-0x8],0x0
    2199:	00 00 
    219b:	eb 1e                	jmp    21bb <_countLines+0x3b>
D:\OneDrive\Study\Operating Systems\实验\project7\codes/./lib/utilsC.c:50
		if (sen[i] == '\n') {
    219d:	67 66 8b 55 f8       	mov    edx,DWORD PTR [ebp-0x8]
    21a2:	67 66 8b 45 08       	mov    eax,DWORD PTR [ebp+0x8]
    21a7:	66 01 d0             	add    eax,edx
    21aa:	67 8a 00             	mov    al,BYTE PTR [eax]
    21ad:	3c 0a                	cmp    al,0xa
    21af:	75 05                	jne    21b6 <_countLines+0x36>
D:\OneDrive\Study\Operating Systems\实验\project7\codes/./lib/utilsC.c:51
			++lines;
    21b1:	67 66 ff 45 fc       	inc    DWORD PTR [ebp-0x4]
D:\OneDrive\Study\Operating Systems\实验\project7\codes/./lib/utilsC.c:49
	for (int i = 0; sen[i]; ++i) {
    21b6:	67 66 ff 45 f8       	inc    DWORD PTR [ebp-0x8]
    21bb:	67 66 8b 55 f8       	mov    edx,DWORD PTR [ebp-0x8]
    21c0:	67 66 8b 45 08       	mov    eax,DWORD PTR [ebp+0x8]
    21c5:	66 01 d0             	add    eax,edx
    21c8:	67 8a 00             	mov    al,BYTE PTR [eax]
    21cb:	84 c0                	test   al,al
    21cd:	75 ce                	jne    219d <_countLines+0x1d>
D:\OneDrive\Study\Operating Systems\实验\project7\codes/./lib/utilsC.c:54
		}
	}
	lines += 1;
    21cf:	67 66 ff 45 fc       	inc    DWORD PTR [ebp-0x4]
D:\OneDrive\Study\Operating Systems\实验\project7\codes/./lib/utilsC.c:55
	return lines;
    21d4:	67 66 8b 45 fc       	mov    eax,DWORD PTR [ebp-0x4]
D:\OneDrive\Study\Operating Systems\实验\project7\codes/./lib/utilsC.c:56
}
    21d9:	66 c9                	leave  
    21db:	66 c3                	ret    

000021dd <_initialScreen>:
initialScreen():
D:\OneDrive\Study\Operating Systems\实验\project7\codes/./lib/utilsC.c:59

void initialScreen(int welcome)
{
    21dd:	66 55                	push   ebp
    21df:	66 89 e5             	mov    ebp,esp
    21e2:	66 83 ec 14          	sub    esp,0x14
D:\OneDrive\Study\Operating Systems\实验\project7\codes/./lib/utilsC.c:60
	clear();
    21e6:	66 e8 d3 00 00 00    	call   22bf <_clear>
D:\OneDrive\Study\Operating Systems\实验\project7\codes/./lib/utilsC.c:61
	if (welcome) {
    21ec:	67 66 83 7d 08 00    	cmp    DWORD PTR [ebp+0x8],0x0
    21f2:	74 63                	je     2257 <_initialScreen+0x7a>
D:\OneDrive\Study\Operating Systems\实验\project7\codes/./lib/utilsC.c:62
		printSentence(WelcomeSentence, line, 0, strlen(WelcomeSentence), white);
    21f4:	66 a1 84 65          	mov    eax,ds:0x6584
    21f8:	67 66 89 04 24       	mov    DWORD PTR [esp],eax
    21fd:	66 e8 16 0a 00 00    	call   2c19 <_strlen>
    2203:	66 89 c1             	mov    ecx,eax
    2206:	66 8b 16 00 92       	mov    edx,DWORD PTR ds:0x9200
    220b:	66 a1 84 65          	mov    eax,ds:0x6584
    220f:	67 66 c7 44 24 10 0f 	mov    DWORD PTR [esp+0x10],0xf
    2216:	00 00 00 
    2219:	67 66 89 4c 24 0c    	mov    DWORD PTR [esp+0xc],ecx
    221f:	67 66 c7 44 24 08 00 	mov    DWORD PTR [esp+0x8],0x0
    2226:	00 00 00 
    2229:	67 66 89 54 24 04    	mov    DWORD PTR [esp+0x4],edx
    222f:	67 66 89 04 24       	mov    DWORD PTR [esp],eax
    2234:	66 e8 6b f3 ff ff    	call   15a5 <_printSentence>
D:\OneDrive\Study\Operating Systems\实验\project7\codes/./lib/utilsC.c:63
		line += countLines(WelcomeSentence);
    223a:	66 a1 84 65          	mov    eax,ds:0x6584
    223e:	67 66 89 04 24       	mov    DWORD PTR [esp],eax
    2243:	66 e8 37 ff ff ff    	call   2180 <_countLines>
    2249:	66 89 c2             	mov    edx,eax
    224c:	66 a1 00 92          	mov    eax,ds:0x9200
    2250:	66 01 d0             	add    eax,edx
    2253:	66 a3 00 92          	mov    ds:0x9200,eax
D:\OneDrive\Study\Operating Systems\实验\project7\codes/./lib/utilsC.c:65
	}
	printSentence(prompt, line, 0, strlen(prompt), white);
    2257:	66 a1 88 65          	mov    eax,ds:0x6588
    225b:	67 66 89 04 24       	mov    DWORD PTR [esp],eax
    2260:	66 e8 b3 09 00 00    	call   2c19 <_strlen>
    2266:	66 89 c1             	mov    ecx,eax
    2269:	66 8b 16 00 92       	mov    edx,DWORD PTR ds:0x9200
    226e:	66 a1 88 65          	mov    eax,ds:0x6588
    2272:	67 66 c7 44 24 10 0f 	mov    DWORD PTR [esp+0x10],0xf
    2279:	00 00 00 
    227c:	67 66 89 4c 24 0c    	mov    DWORD PTR [esp+0xc],ecx
    2282:	67 66 c7 44 24 08 00 	mov    DWORD PTR [esp+0x8],0x0
    2289:	00 00 00 
    228c:	67 66 89 54 24 04    	mov    DWORD PTR [esp+0x4],edx
    2292:	67 66 89 04 24       	mov    DWORD PTR [esp],eax
    2297:	66 e8 08 f3 ff ff    	call   15a5 <_printSentence>
D:\OneDrive\Study\Operating Systems\实验\project7\codes/./lib/utilsC.c:66
	line += countLines(prompt);
    229d:	66 a1 88 65          	mov    eax,ds:0x6588
    22a1:	67 66 89 04 24       	mov    DWORD PTR [esp],eax
    22a6:	66 e8 d4 fe ff ff    	call   2180 <_countLines>
    22ac:	66 89 c2             	mov    edx,eax
    22af:	66 a1 00 92          	mov    eax,ds:0x9200
    22b3:	66 01 d0             	add    eax,edx
    22b6:	66 a3 00 92          	mov    ds:0x9200,eax
D:\OneDrive\Study\Operating Systems\实验\project7\codes/./lib/utilsC.c:67
}
    22ba:	90                   	nop
    22bb:	66 c9                	leave  
    22bd:	66 c3                	ret    

000022bf <_clear>:
clear():
D:\OneDrive\Study\Operating Systems\实验\project7\codes/./lib/utilsC.c:70

void clear()
{
    22bf:	66 55                	push   ebp
    22c1:	66 89 e5             	mov    ebp,esp
D:\OneDrive\Study\Operating Systems\实验\project7\codes/./lib/utilsC.c:71
	line = 0;
    22c4:	66 c7 06 00 92 00 00 	mov    DWORD PTR ds:0x9200,0x0
    22cb:	00 00 
D:\OneDrive\Study\Operating Systems\实验\project7\codes/./lib/utilsC.c:72
	ClearScreen();
    22cd:	66 e8 fd f2 ff ff    	call   15d0 <_ClearScreen>
D:\OneDrive\Study\Operating Systems\实验\project7\codes/./lib/utilsC.c:73
}
    22d3:	90                   	nop
    22d4:	66 5d                	pop    ebp
    22d6:	66 c3                	ret    

000022d8 <_date>:
date():
D:\OneDrive\Study\Operating Systems\实验\project7\codes/./lib/utilsC.c:76

void date()
{
    22d8:	66 55                	push   ebp
    22da:	66 89 e5             	mov    ebp,esp
    22dd:	66 83 ec 18          	sub    esp,0x18
D:\OneDrive\Study\Operating Systems\实验\project7\codes/./lib/utilsC.c:77
	char * dateSen = getDate();
    22e1:	66 e8 af f5 ff ff    	call   1896 <_getDate>
    22e7:	67 66 89 45 fc       	mov    DWORD PTR [ebp-0x4],eax
D:\OneDrive\Study\Operating Systems\实验\project7\codes/./lib/utilsC.c:78
	printSentence(dateSen, line, 30, strlen(dateSen), purple);
    22ec:	67 66 8b 45 fc       	mov    eax,DWORD PTR [ebp-0x4]
    22f1:	67 66 89 04 24       	mov    DWORD PTR [esp],eax
    22f6:	66 e8 1d 09 00 00    	call   2c19 <_strlen>
    22fc:	66 89 c2             	mov    edx,eax
    22ff:	66 a1 00 92          	mov    eax,ds:0x9200
    2303:	67 66 c7 44 24 10 0d 	mov    DWORD PTR [esp+0x10],0xd
    230a:	00 00 00 
    230d:	67 66 89 54 24 0c    	mov    DWORD PTR [esp+0xc],edx
    2313:	67 66 c7 44 24 08 1e 	mov    DWORD PTR [esp+0x8],0x1e
    231a:	00 00 00 
    231d:	67 66 89 44 24 04    	mov    DWORD PTR [esp+0x4],eax
    2323:	67 66 8b 45 fc       	mov    eax,DWORD PTR [ebp-0x4]
    2328:	67 66 89 04 24       	mov    DWORD PTR [esp],eax
    232d:	66 e8 72 f2 ff ff    	call   15a5 <_printSentence>
D:\OneDrive\Study\Operating Systems\实验\project7\codes/./lib/utilsC.c:79
	newline();
    2333:	66 e8 c3 00 00 00    	call   23fc <_newline>
D:\OneDrive\Study\Operating Systems\实验\project7\codes/./lib/utilsC.c:80
	line += countLines(dateSen);
    2339:	67 66 8b 45 fc       	mov    eax,DWORD PTR [ebp-0x4]
    233e:	67 66 89 04 24       	mov    DWORD PTR [esp],eax
    2343:	66 e8 37 fe ff ff    	call   2180 <_countLines>
    2349:	66 89 c2             	mov    edx,eax
    234c:	66 a1 00 92          	mov    eax,ds:0x9200
    2350:	66 01 d0             	add    eax,edx
    2353:	66 a3 00 92          	mov    ds:0x9200,eax
D:\OneDrive\Study\Operating Systems\实验\project7\codes/./lib/utilsC.c:81
}
    2357:	90                   	nop
    2358:	66 c9                	leave  
    235a:	66 c3                	ret    

0000235c <_man>:
man():
D:\OneDrive\Study\Operating Systems\实验\project7\codes/./lib/utilsC.c:85


void man()
{
    235c:	66 55                	push   ebp
    235e:	66 89 e5             	mov    ebp,esp
    2361:	66 83 ec 18          	sub    esp,0x18
D:\OneDrive\Study\Operating Systems\实验\project7\codes/./lib/utilsC.c:86
	char * manual = getRecords(segOfOs, offsetOfManual);
    2365:	67 66 c7 44 24 04 00 	mov    DWORD PTR [esp+0x4],0xd500
    236c:	d5 00 00 
    236f:	67 66 c7 04 24 00 20 	mov    DWORD PTR [esp],0x2000
    2376:	00 00 
    2378:	66 e8 18 fd ff ff    	call   2096 <_getRecords>
    237e:	67 66 89 45 fc       	mov    DWORD PTR [ebp-0x4],eax
D:\OneDrive\Study\Operating Systems\实验\project7\codes/./lib/utilsC.c:87
	line = 0;
    2383:	66 c7 06 00 92 00 00 	mov    DWORD PTR ds:0x9200,0x0
    238a:	00 00 
D:\OneDrive\Study\Operating Systems\实验\project7\codes/./lib/utilsC.c:88
	ClearScreen();
    238c:	66 e8 3e f2 ff ff    	call   15d0 <_ClearScreen>
D:\OneDrive\Study\Operating Systems\实验\project7\codes/./lib/utilsC.c:89
	printSentence(manual, line, 0, strlen(manual), purple);
    2392:	67 66 8b 45 fc       	mov    eax,DWORD PTR [ebp-0x4]
    2397:	67 66 89 04 24       	mov    DWORD PTR [esp],eax
    239c:	66 e8 77 08 00 00    	call   2c19 <_strlen>
    23a2:	66 89 c2             	mov    edx,eax
    23a5:	66 a1 00 92          	mov    eax,ds:0x9200
    23a9:	67 66 c7 44 24 10 0d 	mov    DWORD PTR [esp+0x10],0xd
    23b0:	00 00 00 
    23b3:	67 66 89 54 24 0c    	mov    DWORD PTR [esp+0xc],edx
    23b9:	67 66 c7 44 24 08 00 	mov    DWORD PTR [esp+0x8],0x0
    23c0:	00 00 00 
    23c3:	67 66 89 44 24 04    	mov    DWORD PTR [esp+0x4],eax
    23c9:	67 66 8b 45 fc       	mov    eax,DWORD PTR [ebp-0x4]
    23ce:	67 66 89 04 24       	mov    DWORD PTR [esp],eax
    23d3:	66 e8 cc f1 ff ff    	call   15a5 <_printSentence>
D:\OneDrive\Study\Operating Systems\实验\project7\codes/./lib/utilsC.c:90
	line += countLines(manual);
    23d9:	67 66 8b 45 fc       	mov    eax,DWORD PTR [ebp-0x4]
    23de:	67 66 89 04 24       	mov    DWORD PTR [esp],eax
    23e3:	66 e8 97 fd ff ff    	call   2180 <_countLines>
    23e9:	66 89 c2             	mov    edx,eax
    23ec:	66 a1 00 92          	mov    eax,ds:0x9200
    23f0:	66 01 d0             	add    eax,edx
    23f3:	66 a3 00 92          	mov    ds:0x9200,eax
D:\OneDrive\Study\Operating Systems\实验\project7\codes/./lib/utilsC.c:91
}
    23f7:	90                   	nop
    23f8:	66 c9                	leave  
    23fa:	66 c3                	ret    

000023fc <_newline>:
newline():
D:\OneDrive\Study\Operating Systems\实验\project7\codes/./lib/utilsC.c:94

void newline()
{
    23fc:	66 55                	push   ebp
    23fe:	66 89 e5             	mov    ebp,esp
    2401:	66 83 ec 14          	sub    esp,0x14
D:\OneDrive\Study\Operating Systems\实验\project7\codes/./lib/utilsC.c:95
	if (line >= 25) {
    2405:	66 a1 00 92          	mov    eax,ds:0x9200
    2409:	66 83 f8 18          	cmp    eax,0x18
    240d:	7e 0f                	jle    241e <_newline+0x22>
D:\OneDrive\Study\Operating Systems\实验\project7\codes/./lib/utilsC.c:96
		roll();
    240f:	66 e8 eb f4 ff ff    	call   1900 <_roll>
D:\OneDrive\Study\Operating Systems\实验\project7\codes/./lib/utilsC.c:97
		line = 24;
    2415:	66 c7 06 00 92 18 00 	mov    DWORD PTR ds:0x9200,0x18
    241c:	00 00 
D:\OneDrive\Study\Operating Systems\实验\project7\codes/./lib/utilsC.c:99
	}
	printSentence(prompt, line, 0, strlen(prompt), white);
    241e:	66 a1 88 65          	mov    eax,ds:0x6588
    2422:	67 66 89 04 24       	mov    DWORD PTR [esp],eax
    2427:	66 e8 ec 07 00 00    	call   2c19 <_strlen>
    242d:	66 89 c1             	mov    ecx,eax
    2430:	66 8b 16 00 92       	mov    edx,DWORD PTR ds:0x9200
    2435:	66 a1 88 65          	mov    eax,ds:0x6588
    2439:	67 66 c7 44 24 10 0f 	mov    DWORD PTR [esp+0x10],0xf
    2440:	00 00 00 
    2443:	67 66 89 4c 24 0c    	mov    DWORD PTR [esp+0xc],ecx
    2449:	67 66 c7 44 24 08 00 	mov    DWORD PTR [esp+0x8],0x0
    2450:	00 00 00 
    2453:	67 66 89 54 24 04    	mov    DWORD PTR [esp+0x4],edx
    2459:	67 66 89 04 24       	mov    DWORD PTR [esp],eax
    245e:	66 e8 41 f1 ff ff    	call   15a5 <_printSentence>
D:\OneDrive\Study\Operating Systems\实验\project7\codes/./lib/utilsC.c:100
	line += countLines(prompt);
    2464:	66 a1 88 65          	mov    eax,ds:0x6588
    2468:	67 66 89 04 24       	mov    DWORD PTR [esp],eax
    246d:	66 e8 0d fd ff ff    	call   2180 <_countLines>
    2473:	66 89 c2             	mov    edx,eax
    2476:	66 a1 00 92          	mov    eax,ds:0x9200
    247a:	66 01 d0             	add    eax,edx
    247d:	66 a3 00 92          	mov    ds:0x9200,eax
D:\OneDrive\Study\Operating Systems\实验\project7\codes/./lib/utilsC.c:101
}
    2481:	90                   	nop
    2482:	66 c9                	leave  
    2484:	66 c3                	ret    

00002486 <_ls>:
ls():
D:\OneDrive\Study\Operating Systems\实验\project7\codes/./lib/utilsC.c:104

void ls()
{
    2486:	66 55                	push   ebp
    2488:	66 89 e5             	mov    ebp,esp
    248b:	66 57                	push   edi
    248d:	66 53                	push   ebx
    248f:	66 83 ec 38          	sub    esp,0x38
D:\OneDrive\Study\Operating Systems\实验\project7\codes/./lib/utilsC.c:105
	char * head = "Name           Size           Lma            Type";
    2493:	67 66 c7 45 f0 70 70 	mov    DWORD PTR [ebp-0x10],0x7070
    249a:	00 00 
D:\OneDrive\Study\Operating Systems\实验\project7\codes/./lib/utilsC.c:106
	printSentence(head, line, 10, strlen(head), green);
    249c:	67 66 8b 45 f0       	mov    eax,DWORD PTR [ebp-0x10]
    24a1:	67 66 89 04 24       	mov    DWORD PTR [esp],eax
    24a6:	66 e8 6d 07 00 00    	call   2c19 <_strlen>
    24ac:	66 89 c2             	mov    edx,eax
    24af:	66 a1 00 92          	mov    eax,ds:0x9200
    24b3:	67 66 c7 44 24 10 0a 	mov    DWORD PTR [esp+0x10],0xa
    24ba:	00 00 00 
    24bd:	67 66 89 54 24 0c    	mov    DWORD PTR [esp+0xc],edx
    24c3:	67 66 c7 44 24 08 0a 	mov    DWORD PTR [esp+0x8],0xa
    24ca:	00 00 00 
    24cd:	67 66 89 44 24 04    	mov    DWORD PTR [esp+0x4],eax
    24d3:	67 66 8b 45 f0       	mov    eax,DWORD PTR [ebp-0x10]
    24d8:	67 66 89 04 24       	mov    DWORD PTR [esp],eax
    24dd:	66 e8 c2 f0 ff ff    	call   15a5 <_printSentence>
D:\OneDrive\Study\Operating Systems\实验\project7\codes/./lib/utilsC.c:107
	char typeTable[10][1] = {"N", "D", "E", "F"};
    24e3:	67 66 8d 55 e6       	lea    edx,[ebp-0x1a]
    24e8:	66 b9 0a 00 00 00    	mov    ecx,0xa
    24ee:	b0 00                	mov    al,0x0
    24f0:	66 89 d7             	mov    edi,edx
    24f3:	f3 aa                	rep stos BYTE PTR es:[di],al
    24f5:	67 c6 45 e6 4e       	mov    BYTE PTR [ebp-0x1a],0x4e
    24fa:	67 c6 45 e7 44       	mov    BYTE PTR [ebp-0x19],0x44
    24ff:	67 c6 45 e8 45       	mov    BYTE PTR [ebp-0x18],0x45
    2504:	67 c6 45 e9 46       	mov    BYTE PTR [ebp-0x17],0x46
D:\OneDrive\Study\Operating Systems\实验\project7\codes/./lib/utilsC.c:108
	line += countLines(head);
    2509:	67 66 8b 45 f0       	mov    eax,DWORD PTR [ebp-0x10]
    250e:	67 66 89 04 24       	mov    DWORD PTR [esp],eax
    2513:	66 e8 67 fc ff ff    	call   2180 <_countLines>
    2519:	66 89 c2             	mov    edx,eax
    251c:	66 a1 00 92          	mov    eax,ds:0x9200
    2520:	66 01 d0             	add    eax,edx
    2523:	66 a3 00 92          	mov    ds:0x9200,eax
D:\OneDrive\Study\Operating Systems\实验\project7\codes/./lib/utilsC.c:110
	char tmp[15];
	for (int i = 0; i < Len; ++i)
    2527:	67 66 c7 45 f4 00 00 	mov    DWORD PTR [ebp-0xc],0x0
    252e:	00 00 
    2530:	e9 03 03             	jmp    2836 <_ls+0x3b0>
D:\OneDrive\Study\Operating Systems\实验\project7\codes/./lib/utilsC.c:112
	{
		if (information[i].type != null && information[i].deleted != 1) {
    2533:	67 66 8b 55 f4       	mov    edx,DWORD PTR [ebp-0xc]
    2538:	66 89 d0             	mov    eax,edx
    253b:	66 01 c0             	add    eax,eax
    253e:	66 01 d0             	add    eax,edx
    2541:	66 c1 e0 02          	shl    eax,0x2
    2545:	66 01 d0             	add    eax,edx
    2548:	66 c1 e0 02          	shl    eax,0x2
    254c:	66 05 00 af 00 00    	add    eax,0xaf00
    2552:	67 66 8b 00          	mov    eax,DWORD PTR [eax]
    2556:	66 85 c0             	test   eax,eax
    2559:	0f 84 d4 02          	je     2831 <_ls+0x3ab>
    255d:	67 66 8b 55 f4       	mov    edx,DWORD PTR [ebp-0xc]
    2562:	66 89 d0             	mov    eax,edx
    2565:	66 01 c0             	add    eax,eax
    2568:	66 01 d0             	add    eax,edx
    256b:	66 c1 e0 02          	shl    eax,0x2
    256f:	66 01 d0             	add    eax,edx
    2572:	66 c1 e0 02          	shl    eax,0x2
    2576:	66 05 0c af 00 00    	add    eax,0xaf0c
    257c:	67 66 8b 00          	mov    eax,DWORD PTR [eax]
    2580:	66 83 f8 01          	cmp    eax,0x1
    2584:	0f 84 a9 02          	je     2831 <_ls+0x3ab>
D:\OneDrive\Study\Operating Systems\实验\project7\codes/./lib/utilsC.c:113
			printSentence(information[i].name, line, 10, strlen(information[i].name), purple);
    2588:	67 66 8b 55 f4       	mov    edx,DWORD PTR [ebp-0xc]
    258d:	66 89 d0             	mov    eax,edx
    2590:	66 01 c0             	add    eax,eax
    2593:	66 01 d0             	add    eax,edx
    2596:	66 c1 e0 02          	shl    eax,0x2
    259a:	66 01 d0             	add    eax,edx
    259d:	66 c1 e0 02          	shl    eax,0x2
    25a1:	66 05 e0 ae 00 00    	add    eax,0xaee0
    25a7:	67 66 89 04 24       	mov    DWORD PTR [esp],eax
    25ac:	66 e8 67 06 00 00    	call   2c19 <_strlen>
    25b2:	66 89 c3             	mov    ebx,eax
    25b5:	66 8b 0e 00 92       	mov    ecx,DWORD PTR ds:0x9200
    25ba:	67 66 8b 55 f4       	mov    edx,DWORD PTR [ebp-0xc]
    25bf:	66 89 d0             	mov    eax,edx
    25c2:	66 01 c0             	add    eax,eax
    25c5:	66 01 d0             	add    eax,edx
    25c8:	66 c1 e0 02          	shl    eax,0x2
    25cc:	66 01 d0             	add    eax,edx
    25cf:	66 c1 e0 02          	shl    eax,0x2
    25d3:	66 05 e0 ae 00 00    	add    eax,0xaee0
    25d9:	67 66 c7 44 24 10 0d 	mov    DWORD PTR [esp+0x10],0xd
    25e0:	00 00 00 
    25e3:	67 66 89 5c 24 0c    	mov    DWORD PTR [esp+0xc],ebx
    25e9:	67 66 c7 44 24 08 0a 	mov    DWORD PTR [esp+0x8],0xa
    25f0:	00 00 00 
    25f3:	67 66 89 4c 24 04    	mov    DWORD PTR [esp+0x4],ecx
    25f9:	67 66 89 04 24       	mov    DWORD PTR [esp],eax
    25fe:	66 e8 a1 ef ff ff    	call   15a5 <_printSentence>
D:\OneDrive\Study\Operating Systems\实验\project7\codes/./lib/utilsC.c:114
			if (information[i].size == 0) {
    2604:	67 66 8b 55 f4       	mov    edx,DWORD PTR [ebp-0xc]
    2609:	66 89 d0             	mov    eax,edx
    260c:	66 01 c0             	add    eax,eax
    260f:	66 01 d0             	add    eax,edx
    2612:	66 c1 e0 02          	shl    eax,0x2
    2616:	66 01 d0             	add    eax,edx
    2619:	66 c1 e0 02          	shl    eax,0x2
    261d:	66 05 08 af 00 00    	add    eax,0xaf08
    2623:	67 66 8b 00          	mov    eax,DWORD PTR [eax]
    2627:	66 85 c0             	test   eax,eax
    262a:	75 3a                	jne    2666 <_ls+0x1e0>
D:\OneDrive\Study\Operating Systems\实验\project7\codes/./lib/utilsC.c:115
				printSentence("--", line, 25, 2, purple);
    262c:	66 a1 00 92          	mov    eax,ds:0x9200
    2630:	67 66 c7 44 24 10 0d 	mov    DWORD PTR [esp+0x10],0xd
    2637:	00 00 00 
    263a:	67 66 c7 44 24 0c 02 	mov    DWORD PTR [esp+0xc],0x2
    2641:	00 00 00 
    2644:	67 66 c7 44 24 08 19 	mov    DWORD PTR [esp+0x8],0x19
    264b:	00 00 00 
    264e:	67 66 89 44 24 04    	mov    DWORD PTR [esp+0x4],eax
    2654:	67 66 c7 04 24 a2 70 	mov    DWORD PTR [esp],0x70a2
    265b:	00 00 
    265d:	66 e8 42 ef ff ff    	call   15a5 <_printSentence>
    2663:	e9 80 00             	jmp    26e6 <_ls+0x260>
D:\OneDrive\Study\Operating Systems\实验\project7\codes/./lib/utilsC.c:117
			} else {
				int2str(information[i].size, tmp);
    2666:	67 66 8b 55 f4       	mov    edx,DWORD PTR [ebp-0xc]
    266b:	66 89 d0             	mov    eax,edx
    266e:	66 01 c0             	add    eax,eax
    2671:	66 01 d0             	add    eax,edx
    2674:	66 c1 e0 02          	shl    eax,0x2
    2678:	66 01 d0             	add    eax,edx
    267b:	66 c1 e0 02          	shl    eax,0x2
    267f:	66 05 08 af 00 00    	add    eax,0xaf08
    2685:	67 66 8b 00          	mov    eax,DWORD PTR [eax]
    2689:	67 66 8d 55 d7       	lea    edx,[ebp-0x29]
    268e:	67 66 89 54 24 04    	mov    DWORD PTR [esp+0x4],edx
    2694:	67 66 89 04 24       	mov    DWORD PTR [esp],eax
    2699:	66 e8 cf 07 00 00    	call   2e6e <_int2str>
D:\OneDrive\Study\Operating Systems\实验\project7\codes/./lib/utilsC.c:118
				printSentence(tmp, line, 25, strlen(tmp), purple);
    269f:	67 66 8d 45 d7       	lea    eax,[ebp-0x29]
    26a4:	67 66 89 04 24       	mov    DWORD PTR [esp],eax
    26a9:	66 e8 6a 05 00 00    	call   2c19 <_strlen>
    26af:	66 89 c2             	mov    edx,eax
    26b2:	66 a1 00 92          	mov    eax,ds:0x9200
    26b6:	67 66 c7 44 24 10 0d 	mov    DWORD PTR [esp+0x10],0xd
    26bd:	00 00 00 
    26c0:	67 66 89 54 24 0c    	mov    DWORD PTR [esp+0xc],edx
    26c6:	67 66 c7 44 24 08 19 	mov    DWORD PTR [esp+0x8],0x19
    26cd:	00 00 00 
    26d0:	67 66 89 44 24 04    	mov    DWORD PTR [esp+0x4],eax
    26d6:	67 66 8d 45 d7       	lea    eax,[ebp-0x29]
    26db:	67 66 89 04 24       	mov    DWORD PTR [esp],eax
    26e0:	66 e8 bf ee ff ff    	call   15a5 <_printSentence>
D:\OneDrive\Study\Operating Systems\实验\project7\codes/./lib/utilsC.c:120
			}
			if (information[i].lmaddress == 0) {
    26e6:	67 66 8b 55 f4       	mov    edx,DWORD PTR [ebp-0xc]
    26eb:	66 89 d0             	mov    eax,edx
    26ee:	66 01 c0             	add    eax,eax
    26f1:	66 01 d0             	add    eax,edx
    26f4:	66 c1 e0 02          	shl    eax,0x2
    26f8:	66 01 d0             	add    eax,edx
    26fb:	66 c1 e0 02          	shl    eax,0x2
    26ff:	66 05 04 af 00 00    	add    eax,0xaf04
    2705:	67 66 8b 00          	mov    eax,DWORD PTR [eax]
    2709:	66 85 c0             	test   eax,eax
    270c:	75 3a                	jne    2748 <_ls+0x2c2>
D:\OneDrive\Study\Operating Systems\实验\project7\codes/./lib/utilsC.c:121
				printSentence("--", line, 40, 2, purple);
    270e:	66 a1 00 92          	mov    eax,ds:0x9200
    2712:	67 66 c7 44 24 10 0d 	mov    DWORD PTR [esp+0x10],0xd
    2719:	00 00 00 
    271c:	67 66 c7 44 24 0c 02 	mov    DWORD PTR [esp+0xc],0x2
    2723:	00 00 00 
    2726:	67 66 c7 44 24 08 28 	mov    DWORD PTR [esp+0x8],0x28
    272d:	00 00 00 
    2730:	67 66 89 44 24 04    	mov    DWORD PTR [esp+0x4],eax
    2736:	67 66 c7 04 24 a2 70 	mov    DWORD PTR [esp],0x70a2
    273d:	00 00 
    273f:	66 e8 60 ee ff ff    	call   15a5 <_printSentence>
    2745:	e9 80 00             	jmp    27c8 <_ls+0x342>
D:\OneDrive\Study\Operating Systems\实验\project7\codes/./lib/utilsC.c:123
			} else {
				int2str(information[i].lmaddress, tmp);
    2748:	67 66 8b 55 f4       	mov    edx,DWORD PTR [ebp-0xc]
    274d:	66 89 d0             	mov    eax,edx
    2750:	66 01 c0             	add    eax,eax
    2753:	66 01 d0             	add    eax,edx
    2756:	66 c1 e0 02          	shl    eax,0x2
    275a:	66 01 d0             	add    eax,edx
    275d:	66 c1 e0 02          	shl    eax,0x2
    2761:	66 05 04 af 00 00    	add    eax,0xaf04
    2767:	67 66 8b 00          	mov    eax,DWORD PTR [eax]
    276b:	67 66 8d 55 d7       	lea    edx,[ebp-0x29]
    2770:	67 66 89 54 24 04    	mov    DWORD PTR [esp+0x4],edx
    2776:	67 66 89 04 24       	mov    DWORD PTR [esp],eax
    277b:	66 e8 ed 06 00 00    	call   2e6e <_int2str>
D:\OneDrive\Study\Operating Systems\实验\project7\codes/./lib/utilsC.c:124
				printSentence(tmp, line, 40, strlen(tmp), purple);
    2781:	67 66 8d 45 d7       	lea    eax,[ebp-0x29]
    2786:	67 66 89 04 24       	mov    DWORD PTR [esp],eax
    278b:	66 e8 88 04 00 00    	call   2c19 <_strlen>
    2791:	66 89 c2             	mov    edx,eax
    2794:	66 a1 00 92          	mov    eax,ds:0x9200
    2798:	67 66 c7 44 24 10 0d 	mov    DWORD PTR [esp+0x10],0xd
    279f:	00 00 00 
    27a2:	67 66 89 54 24 0c    	mov    DWORD PTR [esp+0xc],edx
    27a8:	67 66 c7 44 24 08 28 	mov    DWORD PTR [esp+0x8],0x28
    27af:	00 00 00 
    27b2:	67 66 89 44 24 04    	mov    DWORD PTR [esp+0x4],eax
    27b8:	67 66 8d 45 d7       	lea    eax,[ebp-0x29]
    27bd:	67 66 89 04 24       	mov    DWORD PTR [esp],eax
    27c2:	66 e8 dd ed ff ff    	call   15a5 <_printSentence>
D:\OneDrive\Study\Operating Systems\实验\project7\codes/./lib/utilsC.c:126
			}
			printSentence(typeTable[information[i].type], line, 55, 1, purple);
    27c8:	66 8b 0e 00 92       	mov    ecx,DWORD PTR ds:0x9200
    27cd:	67 66 8b 55 f4       	mov    edx,DWORD PTR [ebp-0xc]
    27d2:	66 89 d0             	mov    eax,edx
    27d5:	66 01 c0             	add    eax,eax
    27d8:	66 01 d0             	add    eax,edx
    27db:	66 c1 e0 02          	shl    eax,0x2
    27df:	66 01 d0             	add    eax,edx
    27e2:	66 c1 e0 02          	shl    eax,0x2
    27e6:	66 05 00 af 00 00    	add    eax,0xaf00
    27ec:	67 66 8b 00          	mov    eax,DWORD PTR [eax]
    27f0:	67 66 8d 55 e6       	lea    edx,[ebp-0x1a]
    27f5:	66 01 d0             	add    eax,edx
    27f8:	67 66 c7 44 24 10 0d 	mov    DWORD PTR [esp+0x10],0xd
    27ff:	00 00 00 
    2802:	67 66 c7 44 24 0c 01 	mov    DWORD PTR [esp+0xc],0x1
    2809:	00 00 00 
    280c:	67 66 c7 44 24 08 37 	mov    DWORD PTR [esp+0x8],0x37
    2813:	00 00 00 
    2816:	67 66 89 4c 24 04    	mov    DWORD PTR [esp+0x4],ecx
    281c:	67 66 89 04 24       	mov    DWORD PTR [esp],eax
    2821:	66 e8 7e ed ff ff    	call   15a5 <_printSentence>
D:\OneDrive\Study\Operating Systems\实验\project7\codes/./lib/utilsC.c:127
			line += 1;
    2827:	66 a1 00 92          	mov    eax,ds:0x9200
    282b:	66 40                	inc    eax
    282d:	66 a3 00 92          	mov    ds:0x9200,eax
D:\OneDrive\Study\Operating Systems\实验\project7\codes/./lib/utilsC.c:110
	for (int i = 0; i < Len; ++i)
    2831:	67 66 ff 45 f4       	inc    DWORD PTR [ebp-0xc]
    2836:	67 66 83 7d f4 13    	cmp    DWORD PTR [ebp-0xc],0x13
    283c:	0f 8e f3 fc          	jle    2533 <_ls+0xad>
D:\OneDrive\Study\Operating Systems\实验\project7\codes/./lib/utilsC.c:130
		}
	}
}
    2840:	90                   	nop
    2841:	66 83 c4 38          	add    esp,0x38
    2845:	66 5b                	pop    ebx
    2847:	66 5f                	pop    edi
    2849:	66 5d                	pop    ebp
    284b:	66 c3                	ret    

0000284d <_ps>:
ps():
D:\OneDrive\Study\Operating Systems\实验\project7\codes/./lib/utilsC.c:133

void ps()
{
    284d:	66 55                	push   ebp
    284f:	66 89 e5             	mov    ebp,esp
    2852:	66 57                	push   edi
    2854:	66 56                	push   esi
    2856:	66 53                	push   ebx
    2858:	66 83 ec 7c          	sub    esp,0x7c
D:\OneDrive\Study\Operating Systems\实验\project7\codes/./lib/utilsC.c:134
	char * head = "Id  ProcessName       Status\n";
    285c:	67 66 c7 45 ec a5 70 	mov    DWORD PTR [ebp-0x14],0x70a5
    2863:	00 00 
D:\OneDrive\Study\Operating Systems\实验\project7\codes/./lib/utilsC.c:135
	char status[6][10] = {"Origin", "ready", "running", "blocked", "suspend", "exit"};
    2865:	67 66 8d 45 ac       	lea    eax,[ebp-0x54]
    286a:	66 bb a0 65 00 00    	mov    ebx,0x65a0
    2870:	66 ba 0f 00 00 00    	mov    edx,0xf
    2876:	66 89 c7             	mov    edi,eax
    2879:	66 89 de             	mov    esi,ebx
    287c:	66 89 d1             	mov    ecx,edx
    287f:	66 f3 a5             	rep movs DWORD PTR es:[di],DWORD PTR ds:[si]
D:\OneDrive\Study\Operating Systems\实验\project7\codes/./lib/utilsC.c:136
	int begin = 20;
    2882:	67 66 c7 45 e8 14 00 	mov    DWORD PTR [ebp-0x18],0x14
    2889:	00 00 
D:\OneDrive\Study\Operating Systems\实验\project7\codes/./lib/utilsC.c:137
	printSentence(head, line++, begin, strlen(head), purple);
    288b:	67 66 8b 45 ec       	mov    eax,DWORD PTR [ebp-0x14]
    2890:	67 66 89 04 24       	mov    DWORD PTR [esp],eax
    2895:	66 e8 7e 03 00 00    	call   2c19 <_strlen>
    289b:	66 89 c2             	mov    edx,eax
    289e:	66 a1 00 92          	mov    eax,ds:0x9200
    28a2:	67 66 8d 48 01       	lea    ecx,[eax+0x1]
    28a7:	66 89 0e 00 92       	mov    DWORD PTR ds:0x9200,ecx
    28ac:	67 66 c7 44 24 10 0d 	mov    DWORD PTR [esp+0x10],0xd
    28b3:	00 00 00 
    28b6:	67 66 89 54 24 0c    	mov    DWORD PTR [esp+0xc],edx
    28bc:	67 66 8b 55 e8       	mov    edx,DWORD PTR [ebp-0x18]
    28c1:	67 66 89 54 24 08    	mov    DWORD PTR [esp+0x8],edx
    28c7:	67 66 89 44 24 04    	mov    DWORD PTR [esp+0x4],eax
    28cd:	67 66 8b 45 ec       	mov    eax,DWORD PTR [ebp-0x14]
    28d2:	67 66 89 04 24       	mov    DWORD PTR [esp],eax
    28d7:	66 e8 c8 ec ff ff    	call   15a5 <_printSentence>
D:\OneDrive\Study\Operating Systems\实验\project7\codes/./lib/utilsC.c:139
	char str[30];
	for (int i = 0; i < Len; ++i)
    28dd:	67 66 c7 45 f0 00 00 	mov    DWORD PTR [ebp-0x10],0x0
    28e4:	00 00 
    28e6:	e9 05 02             	jmp    2aee <_ps+0x2a1>
D:\OneDrive\Study\Operating Systems\实验\project7\codes/./lib/utilsC.c:141
	{
		if (processTable[i].id != -1 && processTable[i].status != Origin)
    28e9:	67 66 8b 55 f0       	mov    edx,DWORD PTR [ebp-0x10]
    28ee:	66 89 d0             	mov    eax,edx
    28f1:	66 c1 e0 03          	shl    eax,0x3
    28f5:	66 01 d0             	add    eax,edx
    28f8:	66 c1 e0 04          	shl    eax,0x4
    28fc:	66 05 84 b3 00 00    	add    eax,0xb384
    2902:	67 66 8b 00          	mov    eax,DWORD PTR [eax]
    2906:	66 83 f8 ff          	cmp    eax,0xffffffff
    290a:	0f 84 db 01          	je     2ae9 <_ps+0x29c>
    290e:	67 66 8b 55 f0       	mov    edx,DWORD PTR [ebp-0x10]
    2913:	66 89 d0             	mov    eax,edx
    2916:	66 c1 e0 03          	shl    eax,0x3
    291a:	66 01 d0             	add    eax,edx
    291d:	66 c1 e0 04          	shl    eax,0x4
    2921:	66 05 ec b3 00 00    	add    eax,0xb3ec
    2927:	67 66 8b 00          	mov    eax,DWORD PTR [eax]
    292b:	66 85 c0             	test   eax,eax
    292e:	0f 84 b7 01          	je     2ae9 <_ps+0x29c>
D:\OneDrive\Study\Operating Systems\实验\project7\codes/./lib/utilsC.c:143
		{
			int2str(processTable[i].id, str);
    2932:	67 66 8b 55 f0       	mov    edx,DWORD PTR [ebp-0x10]
    2937:	66 89 d0             	mov    eax,edx
    293a:	66 c1 e0 03          	shl    eax,0x3
    293e:	66 01 d0             	add    eax,edx
    2941:	66 c1 e0 04          	shl    eax,0x4
    2945:	66 05 84 b3 00 00    	add    eax,0xb384
    294b:	67 66 8b 00          	mov    eax,DWORD PTR [eax]
    294f:	67 66 8d 55 8e       	lea    edx,[ebp-0x72]
    2954:	67 66 89 54 24 04    	mov    DWORD PTR [esp+0x4],edx
    295a:	67 66 89 04 24       	mov    DWORD PTR [esp],eax
    295f:	66 e8 09 05 00 00    	call   2e6e <_int2str>
D:\OneDrive\Study\Operating Systems\实验\project7\codes/./lib/utilsC.c:144
			printSentence(str, line, begin + 1, strlen(str), purple);
    2965:	67 66 8d 45 8e       	lea    eax,[ebp-0x72]
    296a:	67 66 89 04 24       	mov    DWORD PTR [esp],eax
    296f:	66 e8 a4 02 00 00    	call   2c19 <_strlen>
    2975:	66 89 c2             	mov    edx,eax
    2978:	67 66 8b 45 e8       	mov    eax,DWORD PTR [ebp-0x18]
    297d:	67 66 8d 48 01       	lea    ecx,[eax+0x1]
    2982:	66 a1 00 92          	mov    eax,ds:0x9200
    2986:	67 66 c7 44 24 10 0d 	mov    DWORD PTR [esp+0x10],0xd
    298d:	00 00 00 
    2990:	67 66 89 54 24 0c    	mov    DWORD PTR [esp+0xc],edx
    2996:	67 66 89 4c 24 08    	mov    DWORD PTR [esp+0x8],ecx
    299c:	67 66 89 44 24 04    	mov    DWORD PTR [esp+0x4],eax
    29a2:	67 66 8d 45 8e       	lea    eax,[ebp-0x72]
    29a7:	67 66 89 04 24       	mov    DWORD PTR [esp],eax
    29ac:	66 e8 f3 eb ff ff    	call   15a5 <_printSentence>
D:\OneDrive\Study\Operating Systems\实验\project7\codes/./lib/utilsC.c:145
			printSentence(processTable[i].name, line, begin + 5, strlen(processTable[i].name), purple);
    29b2:	67 66 8b 55 f0       	mov    edx,DWORD PTR [ebp-0x10]
    29b7:	66 89 d0             	mov    eax,edx
    29ba:	66 c1 e0 03          	shl    eax,0x3
    29be:	66 01 d0             	add    eax,edx
    29c1:	66 c1 e0 04          	shl    eax,0x4
    29c5:	66 83 c0 30          	add    eax,0x30
    29c9:	66 05 60 b3 00 00    	add    eax,0xb360
    29cf:	66 83 c0 04          	add    eax,0x4
    29d3:	67 66 89 04 24       	mov    DWORD PTR [esp],eax
    29d8:	66 e8 3b 02 00 00    	call   2c19 <_strlen>
    29de:	66 89 c1             	mov    ecx,eax
    29e1:	67 66 8b 45 e8       	mov    eax,DWORD PTR [ebp-0x18]
    29e6:	67 66 8d 70 05       	lea    esi,[eax+0x5]
    29eb:	66 8b 16 00 92       	mov    edx,DWORD PTR ds:0x9200
    29f0:	67 66 8b 5d f0       	mov    ebx,DWORD PTR [ebp-0x10]
    29f5:	66 89 d8             	mov    eax,ebx
    29f8:	66 c1 e0 03          	shl    eax,0x3
    29fc:	66 01 d8             	add    eax,ebx
    29ff:	66 c1 e0 04          	shl    eax,0x4
    2a03:	66 83 c0 30          	add    eax,0x30
    2a07:	66 05 60 b3 00 00    	add    eax,0xb360
    2a0d:	66 83 c0 04          	add    eax,0x4
    2a11:	67 66 c7 44 24 10 0d 	mov    DWORD PTR [esp+0x10],0xd
    2a18:	00 00 00 
    2a1b:	67 66 89 4c 24 0c    	mov    DWORD PTR [esp+0xc],ecx
    2a21:	67 66 89 74 24 08    	mov    DWORD PTR [esp+0x8],esi
    2a27:	67 66 89 54 24 04    	mov    DWORD PTR [esp+0x4],edx
    2a2d:	67 66 89 04 24       	mov    DWORD PTR [esp],eax
    2a32:	66 e8 6d eb ff ff    	call   15a5 <_printSentence>
D:\OneDrive\Study\Operating Systems\实验\project7\codes/./lib/utilsC.c:146
			printSentence(status[processTable[i].status], line++, begin + 23, strlen(status[processTable[i].status]), purple);
    2a38:	67 66 8b 55 f0       	mov    edx,DWORD PTR [ebp-0x10]
    2a3d:	66 89 d0             	mov    eax,edx
    2a40:	66 c1 e0 03          	shl    eax,0x3
    2a44:	66 01 d0             	add    eax,edx
    2a47:	66 c1 e0 04          	shl    eax,0x4
    2a4b:	66 05 ec b3 00 00    	add    eax,0xb3ec
    2a51:	67 66 8b 10          	mov    edx,DWORD PTR [eax]
    2a55:	67 66 8d 4d ac       	lea    ecx,[ebp-0x54]
    2a5a:	66 89 d0             	mov    eax,edx
    2a5d:	66 c1 e0 02          	shl    eax,0x2
    2a61:	66 01 d0             	add    eax,edx
    2a64:	66 01 c0             	add    eax,eax
    2a67:	66 01 c8             	add    eax,ecx
    2a6a:	67 66 89 04 24       	mov    DWORD PTR [esp],eax
    2a6f:	66 e8 a4 01 00 00    	call   2c19 <_strlen>
    2a75:	66 89 c1             	mov    ecx,eax
    2a78:	67 66 8b 45 e8       	mov    eax,DWORD PTR [ebp-0x18]
    2a7d:	67 66 8d 70 17       	lea    esi,[eax+0x17]
    2a82:	66 8b 16 00 92       	mov    edx,DWORD PTR ds:0x9200
    2a87:	67 66 8d 42 01       	lea    eax,[edx+0x1]
    2a8c:	66 a3 00 92          	mov    ds:0x9200,eax
    2a90:	67 66 8b 5d f0       	mov    ebx,DWORD PTR [ebp-0x10]
    2a95:	66 89 d8             	mov    eax,ebx
    2a98:	66 c1 e0 03          	shl    eax,0x3
    2a9c:	66 01 d8             	add    eax,ebx
    2a9f:	66 c1 e0 04          	shl    eax,0x4
    2aa3:	66 05 ec b3 00 00    	add    eax,0xb3ec
    2aa9:	67 66 8b 18          	mov    ebx,DWORD PTR [eax]
    2aad:	67 66 8d 7d ac       	lea    edi,[ebp-0x54]
    2ab2:	66 89 d8             	mov    eax,ebx
    2ab5:	66 c1 e0 02          	shl    eax,0x2
    2ab9:	66 01 d8             	add    eax,ebx
    2abc:	66 01 c0             	add    eax,eax
    2abf:	66 01 f8             	add    eax,edi
    2ac2:	67 66 c7 44 24 10 0d 	mov    DWORD PTR [esp+0x10],0xd
    2ac9:	00 00 00 
    2acc:	67 66 89 4c 24 0c    	mov    DWORD PTR [esp+0xc],ecx
    2ad2:	67 66 89 74 24 08    	mov    DWORD PTR [esp+0x8],esi
    2ad8:	67 66 89 54 24 04    	mov    DWORD PTR [esp+0x4],edx
    2ade:	67 66 89 04 24       	mov    DWORD PTR [esp],eax
    2ae3:	66 e8 bc ea ff ff    	call   15a5 <_printSentence>
D:\OneDrive\Study\Operating Systems\实验\project7\codes/./lib/utilsC.c:139
	for (int i = 0; i < Len; ++i)
    2ae9:	67 66 ff 45 f0       	inc    DWORD PTR [ebp-0x10]
    2aee:	67 66 83 7d f0 13    	cmp    DWORD PTR [ebp-0x10],0x13
    2af4:	0f 8e f1 fd          	jle    28e9 <_ps+0x9c>
D:\OneDrive\Study\Operating Systems\实验\project7\codes/./lib/utilsC.c:149
		}
	}
}
    2af8:	90                   	nop
    2af9:	66 83 c4 7c          	add    esp,0x7c
    2afd:	66 5b                	pop    ebx
    2aff:	66 5e                	pop    esi
    2b01:	66 5f                	pop    edi
    2b03:	66 5d                	pop    ebp
    2b05:	66 c3                	ret    

00002b07 <_kill>:
kill():
D:\OneDrive\Study\Operating Systems\实验\project7\codes/./lib/utilsC.c:152

void kill(int id)
{
    2b07:	66 55                	push   ebp
    2b09:	66 89 e5             	mov    ebp,esp
    2b0c:	66 83 ec 08          	sub    esp,0x8
D:\OneDrive\Study\Operating Systems\实验\project7\codes/./lib/utilsC.c:153
	if (id != 0) {
    2b10:	67 66 83 7d 08 00    	cmp    DWORD PTR [ebp+0x8],0x0
    2b16:	0f 84 c5 00          	je     2bdf <_kill+0xd8>
D:\OneDrive\Study\Operating Systems\实验\project7\codes/./lib/utilsC.c:154
		--ProcessSize;
    2b1a:	66 a1 fc 96          	mov    eax,ds:0x96fc
    2b1e:	66 48                	dec    eax
    2b20:	66 a3 fc 96          	mov    ds:0x96fc,eax
D:\OneDrive\Study\Operating Systems\实验\project7\codes/./lib/utilsC.c:155
		processTable[id].status = exit;
    2b24:	67 66 8b 55 08       	mov    edx,DWORD PTR [ebp+0x8]
    2b29:	66 89 d0             	mov    eax,edx
    2b2c:	66 c1 e0 03          	shl    eax,0x3
    2b30:	66 01 d0             	add    eax,edx
    2b33:	66 c1 e0 04          	shl    eax,0x4
    2b37:	66 05 ec b3 00 00    	add    eax,0xb3ec
    2b3d:	67 66 c7 00 05 00 00 	mov    DWORD PTR [eax],0x5
    2b44:	00 
D:\OneDrive\Study\Operating Systems\实验\project7\codes/./lib/utilsC.c:156
		processTable[id].id = -1;
    2b45:	67 66 8b 55 08       	mov    edx,DWORD PTR [ebp+0x8]
    2b4a:	66 89 d0             	mov    eax,edx
    2b4d:	66 c1 e0 03          	shl    eax,0x3
    2b51:	66 01 d0             	add    eax,edx
    2b54:	66 c1 e0 04          	shl    eax,0x4
    2b58:	66 05 84 b3 00 00    	add    eax,0xb384
    2b5e:	67 66 c7 00 ff ff ff 	mov    DWORD PTR [eax],0xffffffff
    2b65:	ff 
D:\OneDrive\Study\Operating Systems\实验\project7\codes/./lib/utilsC.c:157
		release(memoryTable[processTable[id].blockNum].beginAddr, memoryTable[processTable[id].blockNum].endAddr);
    2b66:	67 66 8b 55 08       	mov    edx,DWORD PTR [ebp+0x8]
    2b6b:	66 89 d0             	mov    eax,edx
    2b6e:	66 c1 e0 03          	shl    eax,0x3
    2b72:	66 01 d0             	add    eax,edx
    2b75:	66 c1 e0 04          	shl    eax,0x4
    2b79:	66 05 88 b3 00 00    	add    eax,0xb388
    2b7f:	67 66 8b 10          	mov    edx,DWORD PTR [eax]
    2b83:	66 89 d0             	mov    eax,edx
    2b86:	66 01 c0             	add    eax,eax
    2b89:	66 01 d0             	add    eax,edx
    2b8c:	66 c1 e0 03          	shl    eax,0x3
    2b90:	66 05 e4 92 00 00    	add    eax,0x92e4
    2b96:	67 66 8b 10          	mov    edx,DWORD PTR [eax]
    2b9a:	67 66 8b 4d 08       	mov    ecx,DWORD PTR [ebp+0x8]
    2b9f:	66 89 c8             	mov    eax,ecx
    2ba2:	66 c1 e0 03          	shl    eax,0x3
    2ba6:	66 01 c8             	add    eax,ecx
    2ba9:	66 c1 e0 04          	shl    eax,0x4
    2bad:	66 05 88 b3 00 00    	add    eax,0xb388
    2bb3:	67 66 8b 08          	mov    ecx,DWORD PTR [eax]
    2bb7:	66 89 c8             	mov    eax,ecx
    2bba:	66 01 c0             	add    eax,eax
    2bbd:	66 01 c8             	add    eax,ecx
    2bc0:	66 c1 e0 03          	shl    eax,0x3
    2bc4:	66 05 e0 92 00 00    	add    eax,0x92e0
    2bca:	67 66 8b 00          	mov    eax,DWORD PTR [eax]
    2bce:	67 66 89 54 24 04    	mov    DWORD PTR [esp+0x4],edx
    2bd4:	67 66 89 04 24       	mov    DWORD PTR [esp],eax
    2bd9:	66 e8 3a 2e 00 00    	call   5a19 <_release>
D:\OneDrive\Study\Operating Systems\实验\project7\codes/./lib/utilsC.c:159
	}
}
    2bdf:	90                   	nop
    2be0:	66 c9                	leave  
    2be2:	66 c3                	ret    

00002be4 <_initial>:
initial():
D:\OneDrive\Study\Operating Systems\实验\project7\codes/./lib/utilsC.c:162

void initial()
{
    2be4:	66 55                	push   ebp
    2be6:	66 89 e5             	mov    ebp,esp
    2be9:	66 83 ec 04          	sub    esp,0x4
D:\OneDrive\Study\Operating Systems\实验\project7\codes/./lib/utilsC.c:163
	initialFile();
    2bed:	66 e8 5f 06 00 00    	call   3252 <_initialFile>
D:\OneDrive\Study\Operating Systems\实验\project7\codes/./lib/utilsC.c:164
	initialScreen(1);
    2bf3:	67 66 c7 04 24 01 00 	mov    DWORD PTR [esp],0x1
    2bfa:	00 00 
    2bfc:	66 e8 db f5 ff ff    	call   21dd <_initialScreen>
D:\OneDrive\Study\Operating Systems\实验\project7\codes/./lib/utilsC.c:165
	initialProcessTable();
    2c02:	66 e8 22 0b 00 00    	call   372a <_initialProcessTable>
D:\OneDrive\Study\Operating Systems\实验\project7\codes/./lib/utilsC.c:166
	initialMemoryTable();
    2c08:	66 e8 b2 20 00 00    	call   4cc0 <_initialMemoryTable>
D:\OneDrive\Study\Operating Systems\实验\project7\codes/./lib/utilsC.c:167
	initSemaphore();
    2c0e:	66 e8 21 32 00 00    	call   5e35 <_initSemaphore>
D:\OneDrive\Study\Operating Systems\实验\project7\codes/./lib/utilsC.c:168
}
    2c14:	90                   	nop
    2c15:	66 c9                	leave  
    2c17:	66 c3                	ret    

00002c19 <_strlen>:
strlen():
D:\OneDrive\Study\Operating Systems\实验\project7\codes/./lib/utilsC.c:175


//////////// string /////////////////
// 垄芒路没麓庐陋'0'陆谩虏隆拢
int strlen(char * sen)
{
    2c19:	66 55                	push   ebp
    2c1b:	66 89 e5             	mov    ebp,esp
    2c1e:	66 83 ec 04          	sub    esp,0x4
D:\OneDrive\Study\Operating Systems\实验\project7\codes/./lib/utilsC.c:176
	int i = 0;
    2c22:	67 66 c7 45 fc 00 00 	mov    DWORD PTR [ebp-0x4],0x0
    2c29:	00 00 
D:\OneDrive\Study\Operating Systems\实验\project7\codes/./lib/utilsC.c:177
	while (sen[i]) { ++i; }
    2c2b:	eb 05                	jmp    2c32 <_strlen+0x19>
    2c2d:	67 66 ff 45 fc       	inc    DWORD PTR [ebp-0x4]
    2c32:	67 66 8b 55 fc       	mov    edx,DWORD PTR [ebp-0x4]
    2c37:	67 66 8b 45 08       	mov    eax,DWORD PTR [ebp+0x8]
    2c3c:	66 01 d0             	add    eax,edx
    2c3f:	67 8a 00             	mov    al,BYTE PTR [eax]
    2c42:	84 c0                	test   al,al
    2c44:	75 e7                	jne    2c2d <_strlen+0x14>
D:\OneDrive\Study\Operating Systems\实验\project7\codes/./lib/utilsC.c:178
	return i;
    2c46:	67 66 8b 45 fc       	mov    eax,DWORD PTR [ebp-0x4]
D:\OneDrive\Study\Operating Systems\实验\project7\codes/./lib/utilsC.c:179
}
    2c4b:	66 c9                	leave  
    2c4d:	66 c3                	ret    

00002c4f <_concate>:
concate():
D:\OneDrive\Study\Operating Systems\实验\project7\codes/./lib/utilsC.c:183


void concate(char * sour, char * append)
{
    2c4f:	66 55                	push   ebp
    2c51:	66 89 e5             	mov    ebp,esp
    2c54:	66 83 ec 10          	sub    esp,0x10
D:\OneDrive\Study\Operating Systems\实验\project7\codes/./lib/utilsC.c:184
	int lenOfAppend = strlen(append);
    2c58:	67 66 8b 45 0c       	mov    eax,DWORD PTR [ebp+0xc]
    2c5d:	67 66 89 04 24       	mov    DWORD PTR [esp],eax
    2c62:	66 e8 b1 ff ff ff    	call   2c19 <_strlen>
    2c68:	67 66 89 45 f8       	mov    DWORD PTR [ebp-0x8],eax
D:\OneDrive\Study\Operating Systems\实验\project7\codes/./lib/utilsC.c:185
	int lenOfSour = strlen(sour);
    2c6d:	67 66 8b 45 08       	mov    eax,DWORD PTR [ebp+0x8]
    2c72:	67 66 89 04 24       	mov    DWORD PTR [esp],eax
    2c77:	66 e8 9c ff ff ff    	call   2c19 <_strlen>
    2c7d:	67 66 89 45 f4       	mov    DWORD PTR [ebp-0xc],eax
D:\OneDrive\Study\Operating Systems\实验\project7\codes/./lib/utilsC.c:186
	for (int i = 0; i < lenOfAppend; ++i)
    2c82:	67 66 c7 45 fc 00 00 	mov    DWORD PTR [ebp-0x4],0x0
    2c89:	00 00 
    2c8b:	eb 30                	jmp    2cbd <_concate+0x6e>
D:\OneDrive\Study\Operating Systems\实验\project7\codes/./lib/utilsC.c:188
	{
		sour[i + lenOfSour] = append[i];
    2c8d:	67 66 8b 55 fc       	mov    edx,DWORD PTR [ebp-0x4]
    2c92:	67 66 8b 45 f4       	mov    eax,DWORD PTR [ebp-0xc]
    2c97:	66 01 d0             	add    eax,edx
    2c9a:	66 89 c2             	mov    edx,eax
    2c9d:	67 66 8b 45 08       	mov    eax,DWORD PTR [ebp+0x8]
    2ca2:	66 01 c2             	add    edx,eax
    2ca5:	67 66 8b 4d fc       	mov    ecx,DWORD PTR [ebp-0x4]
    2caa:	67 66 8b 45 0c       	mov    eax,DWORD PTR [ebp+0xc]
    2caf:	66 01 c8             	add    eax,ecx
    2cb2:	67 8a 00             	mov    al,BYTE PTR [eax]
    2cb5:	67 88 02             	mov    BYTE PTR [edx],al
D:\OneDrive\Study\Operating Systems\实验\project7\codes/./lib/utilsC.c:186
	for (int i = 0; i < lenOfAppend; ++i)
    2cb8:	67 66 ff 45 fc       	inc    DWORD PTR [ebp-0x4]
    2cbd:	67 66 8b 45 fc       	mov    eax,DWORD PTR [ebp-0x4]
    2cc2:	67 66 3b 45 f8       	cmp    eax,DWORD PTR [ebp-0x8]
    2cc7:	7c c4                	jl     2c8d <_concate+0x3e>
D:\OneDrive\Study\Operating Systems\实验\project7\codes/./lib/utilsC.c:190
	}
	sour[lenOfAppend + lenOfSour] = '\0';
    2cc9:	67 66 8b 55 f8       	mov    edx,DWORD PTR [ebp-0x8]
    2cce:	67 66 8b 45 f4       	mov    eax,DWORD PTR [ebp-0xc]
    2cd3:	66 01 d0             	add    eax,edx
    2cd6:	66 89 c2             	mov    edx,eax
    2cd9:	67 66 8b 45 08       	mov    eax,DWORD PTR [ebp+0x8]
    2cde:	66 01 d0             	add    eax,edx
    2ce1:	67 c6 00 00          	mov    BYTE PTR [eax],0x0
D:\OneDrive\Study\Operating Systems\实验\project7\codes/./lib/utilsC.c:191
}
    2ce5:	90                   	nop
    2ce6:	66 c9                	leave  
    2ce8:	66 c3                	ret    

00002cea <_strcmp>:
strcmp():
D:\OneDrive\Study\Operating Systems\实验\project7\codes/./lib/utilsC.c:194

int strcmp(char * l, char * r)
{
    2cea:	66 55                	push   ebp
    2cec:	66 89 e5             	mov    ebp,esp
    2cef:	66 83 ec 08          	sub    esp,0x8
D:\OneDrive\Study\Operating Systems\实验\project7\codes/./lib/utilsC.c:195
	int i = 0, j = 0;
    2cf3:	67 66 c7 45 fc 00 00 	mov    DWORD PTR [ebp-0x4],0x0
    2cfa:	00 00 
    2cfc:	67 66 c7 45 f8 00 00 	mov    DWORD PTR [ebp-0x8],0x0
    2d03:	00 00 
D:\OneDrive\Study\Operating Systems\实验\project7\codes/./lib/utilsC.c:196
	for (; l[i] && r[i]; ++i, ++j)
    2d05:	eb 64                	jmp    2d6b <_strcmp+0x81>
D:\OneDrive\Study\Operating Systems\实验\project7\codes/./lib/utilsC.c:198
	{
		if (l[i] < r[j]) {
    2d07:	67 66 8b 55 fc       	mov    edx,DWORD PTR [ebp-0x4]
    2d0c:	67 66 8b 45 08       	mov    eax,DWORD PTR [ebp+0x8]
    2d11:	66 01 d0             	add    eax,edx
    2d14:	67 8a 10             	mov    dl,BYTE PTR [eax]
    2d17:	67 66 8b 4d f8       	mov    ecx,DWORD PTR [ebp-0x8]
    2d1c:	67 66 8b 45 0c       	mov    eax,DWORD PTR [ebp+0xc]
    2d21:	66 01 c8             	add    eax,ecx
    2d24:	67 8a 00             	mov    al,BYTE PTR [eax]
    2d27:	38 c2                	cmp    dl,al
    2d29:	7d 09                	jge    2d34 <_strcmp+0x4a>
D:\OneDrive\Study\Operating Systems\实验\project7\codes/./lib/utilsC.c:199
			return -1;
    2d2b:	66 b8 ff ff ff ff    	mov    eax,0xffffffff
    2d31:	e9 c7 00             	jmp    2dfb <_strcmp+0x111>
D:\OneDrive\Study\Operating Systems\实验\project7\codes/./lib/utilsC.c:200
		} else if (l[i] > r[j]) {
    2d34:	67 66 8b 55 fc       	mov    edx,DWORD PTR [ebp-0x4]
    2d39:	67 66 8b 45 08       	mov    eax,DWORD PTR [ebp+0x8]
    2d3e:	66 01 d0             	add    eax,edx
    2d41:	67 8a 10             	mov    dl,BYTE PTR [eax]
    2d44:	67 66 8b 4d f8       	mov    ecx,DWORD PTR [ebp-0x8]
    2d49:	67 66 8b 45 0c       	mov    eax,DWORD PTR [ebp+0xc]
    2d4e:	66 01 c8             	add    eax,ecx
    2d51:	67 8a 00             	mov    al,BYTE PTR [eax]
    2d54:	38 c2                	cmp    dl,al
    2d56:	7e 09                	jle    2d61 <_strcmp+0x77>
D:\OneDrive\Study\Operating Systems\实验\project7\codes/./lib/utilsC.c:201
			return 1;
    2d58:	66 b8 01 00 00 00    	mov    eax,0x1
    2d5e:	e9 9a 00             	jmp    2dfb <_strcmp+0x111>
D:\OneDrive\Study\Operating Systems\实验\project7\codes/./lib/utilsC.c:196
	for (; l[i] && r[i]; ++i, ++j)
    2d61:	67 66 ff 45 fc       	inc    DWORD PTR [ebp-0x4]
    2d66:	67 66 ff 45 f8       	inc    DWORD PTR [ebp-0x8]
    2d6b:	67 66 8b 55 fc       	mov    edx,DWORD PTR [ebp-0x4]
    2d70:	67 66 8b 45 08       	mov    eax,DWORD PTR [ebp+0x8]
    2d75:	66 01 d0             	add    eax,edx
    2d78:	67 8a 00             	mov    al,BYTE PTR [eax]
    2d7b:	84 c0                	test   al,al
    2d7d:	74 16                	je     2d95 <_strcmp+0xab>
    2d7f:	67 66 8b 55 fc       	mov    edx,DWORD PTR [ebp-0x4]
    2d84:	67 66 8b 45 0c       	mov    eax,DWORD PTR [ebp+0xc]
    2d89:	66 01 d0             	add    eax,edx
    2d8c:	67 8a 00             	mov    al,BYTE PTR [eax]
    2d8f:	84 c0                	test   al,al
    2d91:	0f 85 72 ff          	jne    2d07 <_strcmp+0x1d>
D:\OneDrive\Study\Operating Systems\实验\project7\codes/./lib/utilsC.c:204
		}
	}
	if (!l[i] && r[j]) {
    2d95:	67 66 8b 55 fc       	mov    edx,DWORD PTR [ebp-0x4]
    2d9a:	67 66 8b 45 08       	mov    eax,DWORD PTR [ebp+0x8]
    2d9f:	66 01 d0             	add    eax,edx
    2da2:	67 8a 00             	mov    al,BYTE PTR [eax]
    2da5:	84 c0                	test   al,al
    2da7:	75 1c                	jne    2dc5 <_strcmp+0xdb>
    2da9:	67 66 8b 55 f8       	mov    edx,DWORD PTR [ebp-0x8]
    2dae:	67 66 8b 45 0c       	mov    eax,DWORD PTR [ebp+0xc]
    2db3:	66 01 d0             	add    eax,edx
    2db6:	67 8a 00             	mov    al,BYTE PTR [eax]
    2db9:	84 c0                	test   al,al
    2dbb:	74 08                	je     2dc5 <_strcmp+0xdb>
D:\OneDrive\Study\Operating Systems\实验\project7\codes/./lib/utilsC.c:205
		return -1;
    2dbd:	66 b8 ff ff ff ff    	mov    eax,0xffffffff
    2dc3:	eb 36                	jmp    2dfb <_strcmp+0x111>
D:\OneDrive\Study\Operating Systems\实验\project7\codes/./lib/utilsC.c:206
	} else if (l[i] && !r[j]) {
    2dc5:	67 66 8b 55 fc       	mov    edx,DWORD PTR [ebp-0x4]
    2dca:	67 66 8b 45 08       	mov    eax,DWORD PTR [ebp+0x8]
    2dcf:	66 01 d0             	add    eax,edx
    2dd2:	67 8a 00             	mov    al,BYTE PTR [eax]
    2dd5:	84 c0                	test   al,al
    2dd7:	74 1c                	je     2df5 <_strcmp+0x10b>
    2dd9:	67 66 8b 55 f8       	mov    edx,DWORD PTR [ebp-0x8]
    2dde:	67 66 8b 45 0c       	mov    eax,DWORD PTR [ebp+0xc]
    2de3:	66 01 d0             	add    eax,edx
    2de6:	67 8a 00             	mov    al,BYTE PTR [eax]
    2de9:	84 c0                	test   al,al
    2deb:	75 08                	jne    2df5 <_strcmp+0x10b>
D:\OneDrive\Study\Operating Systems\实验\project7\codes/./lib/utilsC.c:207
		return 1;
    2ded:	66 b8 01 00 00 00    	mov    eax,0x1
    2df3:	eb 06                	jmp    2dfb <_strcmp+0x111>
D:\OneDrive\Study\Operating Systems\实验\project7\codes/./lib/utilsC.c:209
	} else {
		return 0;
    2df5:	66 b8 00 00 00 00    	mov    eax,0x0
D:\OneDrive\Study\Operating Systems\实验\project7\codes/./lib/utilsC.c:211
	}
}
    2dfb:	66 c9                	leave  
    2dfd:	66 c3                	ret    

00002dff <_strncpy>:
strncpy():
D:\OneDrive\Study\Operating Systems\实验\project7\codes/./lib/utilsC.c:214

void strncpy(char * sour, char * des, int len)
{
    2dff:	66 55                	push   ebp
    2e01:	66 89 e5             	mov    ebp,esp
    2e04:	66 83 ec 04          	sub    esp,0x4
D:\OneDrive\Study\Operating Systems\实验\project7\codes/./lib/utilsC.c:215
	int i = 0;
    2e08:	67 66 c7 45 fc 00 00 	mov    DWORD PTR [ebp-0x4],0x0
    2e0f:	00 00 
D:\OneDrive\Study\Operating Systems\实验\project7\codes/./lib/utilsC.c:216
	while (sour[i] && i < len) {
    2e11:	eb 25                	jmp    2e38 <_strncpy+0x39>
D:\OneDrive\Study\Operating Systems\实验\project7\codes/./lib/utilsC.c:217
		des[i] = sour[i];
    2e13:	67 66 8b 55 fc       	mov    edx,DWORD PTR [ebp-0x4]
    2e18:	67 66 8b 45 0c       	mov    eax,DWORD PTR [ebp+0xc]
    2e1d:	66 01 c2             	add    edx,eax
    2e20:	67 66 8b 4d fc       	mov    ecx,DWORD PTR [ebp-0x4]
    2e25:	67 66 8b 45 08       	mov    eax,DWORD PTR [ebp+0x8]
    2e2a:	66 01 c8             	add    eax,ecx
    2e2d:	67 8a 00             	mov    al,BYTE PTR [eax]
    2e30:	67 88 02             	mov    BYTE PTR [edx],al
D:\OneDrive\Study\Operating Systems\实验\project7\codes/./lib/utilsC.c:218
		++i;
    2e33:	67 66 ff 45 fc       	inc    DWORD PTR [ebp-0x4]
D:\OneDrive\Study\Operating Systems\实验\project7\codes/./lib/utilsC.c:216
	while (sour[i] && i < len) {
    2e38:	67 66 8b 55 fc       	mov    edx,DWORD PTR [ebp-0x4]
    2e3d:	67 66 8b 45 08       	mov    eax,DWORD PTR [ebp+0x8]
    2e42:	66 01 d0             	add    eax,edx
    2e45:	67 8a 00             	mov    al,BYTE PTR [eax]
    2e48:	84 c0                	test   al,al
    2e4a:	74 0c                	je     2e58 <_strncpy+0x59>
    2e4c:	67 66 8b 45 fc       	mov    eax,DWORD PTR [ebp-0x4]
    2e51:	67 66 3b 45 10       	cmp    eax,DWORD PTR [ebp+0x10]
    2e56:	7c bb                	jl     2e13 <_strncpy+0x14>
D:\OneDrive\Study\Operating Systems\实验\project7\codes/./lib/utilsC.c:220
	}
	des[i] = '\0';
    2e58:	67 66 8b 55 fc       	mov    edx,DWORD PTR [ebp-0x4]
    2e5d:	67 66 8b 45 0c       	mov    eax,DWORD PTR [ebp+0xc]
    2e62:	66 01 d0             	add    eax,edx
    2e65:	67 c6 00 00          	mov    BYTE PTR [eax],0x0
D:\OneDrive\Study\Operating Systems\实验\project7\codes/./lib/utilsC.c:221
}
    2e69:	90                   	nop
    2e6a:	66 c9                	leave  
    2e6c:	66 c3                	ret    

00002e6e <_int2str>:
int2str():
D:\OneDrive\Study\Operating Systems\实验\project7\codes/./lib/utilsC.c:224

void int2str(int org, char * str)
{
    2e6e:	66 55                	push   ebp
    2e70:	66 89 e5             	mov    ebp,esp
    2e73:	66 53                	push   ebx
    2e75:	66 83 ec 0c          	sub    esp,0xc
D:\OneDrive\Study\Operating Systems\实验\project7\codes/./lib/utilsC.c:225
	int num = 0;
    2e79:	67 66 c7 45 f8 00 00 	mov    DWORD PTR [ebp-0x8],0x0
    2e80:	00 00 
D:\OneDrive\Study\Operating Systems\实验\project7\codes/./lib/utilsC.c:226
	int cp = org;
    2e82:	67 66 8b 45 08       	mov    eax,DWORD PTR [ebp+0x8]
    2e87:	67 66 89 45 f4       	mov    DWORD PTR [ebp-0xc],eax
D:\OneDrive\Study\Operating Systems\实验\project7\codes/./lib/utilsC.c:227
	while (cp != 0)
    2e8c:	eb 29                	jmp    2eb7 <_int2str+0x49>
D:\OneDrive\Study\Operating Systems\实验\project7\codes/./lib/utilsC.c:229
	{
		cp /= 10;
    2e8e:	67 66 8b 4d f4       	mov    ecx,DWORD PTR [ebp-0xc]
    2e93:	66 b8 67 66 66 66    	mov    eax,0x66666667
    2e99:	66 f7 e9             	imul   ecx
    2e9c:	66 c1 fa 02          	sar    edx,0x2
    2ea0:	66 89 c8             	mov    eax,ecx
    2ea3:	66 c1 f8 1f          	sar    eax,0x1f
    2ea7:	66 29 c2             	sub    edx,eax
    2eaa:	66 89 d0             	mov    eax,edx
    2ead:	67 66 89 45 f4       	mov    DWORD PTR [ebp-0xc],eax
D:\OneDrive\Study\Operating Systems\实验\project7\codes/./lib/utilsC.c:230
		++num;
    2eb2:	67 66 ff 45 f8       	inc    DWORD PTR [ebp-0x8]
D:\OneDrive\Study\Operating Systems\实验\project7\codes/./lib/utilsC.c:227
	while (cp != 0)
    2eb7:	67 66 83 7d f4 00    	cmp    DWORD PTR [ebp-0xc],0x0
    2ebd:	75 cf                	jne    2e8e <_int2str+0x20>
D:\OneDrive\Study\Operating Systems\实验\project7\codes/./lib/utilsC.c:232
	}
	if (org == 0)
    2ebf:	67 66 83 7d 08 00    	cmp    DWORD PTR [ebp+0x8],0x0
    2ec5:	75 09                	jne    2ed0 <_int2str+0x62>
D:\OneDrive\Study\Operating Systems\实验\project7\codes/./lib/utilsC.c:233
		num = 1;
    2ec7:	67 66 c7 45 f8 01 00 	mov    DWORD PTR [ebp-0x8],0x1
    2ece:	00 00 
D:\OneDrive\Study\Operating Systems\实验\project7\codes/./lib/utilsC.c:234
	str[num--] = '\0';
    2ed0:	67 66 8b 45 f8       	mov    eax,DWORD PTR [ebp-0x8]
    2ed5:	67 66 8d 50 ff       	lea    edx,[eax-0x1]
    2eda:	67 66 89 55 f8       	mov    DWORD PTR [ebp-0x8],edx
    2edf:	66 89 c2             	mov    edx,eax
    2ee2:	67 66 8b 45 0c       	mov    eax,DWORD PTR [ebp+0xc]
    2ee7:	66 01 d0             	add    eax,edx
    2eea:	67 c6 00 00          	mov    BYTE PTR [eax],0x0
D:\OneDrive\Study\Operating Systems\实验\project7\codes/./lib/utilsC.c:235
	for (int i = num; i >= 0; --i)
    2eee:	67 66 8b 45 f8       	mov    eax,DWORD PTR [ebp-0x8]
    2ef3:	67 66 89 45 f0       	mov    DWORD PTR [ebp-0x10],eax
    2ef8:	eb 70                	jmp    2f6a <_int2str+0xfc>
D:\OneDrive\Study\Operating Systems\实验\project7\codes/./lib/utilsC.c:237
	{
		str[i] = org % 10 + 48;
    2efa:	67 66 8b 55 f0       	mov    edx,DWORD PTR [ebp-0x10]
    2eff:	67 66 8b 45 0c       	mov    eax,DWORD PTR [ebp+0xc]
    2f04:	67 66 8d 1c 02       	lea    ebx,[edx+eax*1]
    2f09:	67 66 8b 4d 08       	mov    ecx,DWORD PTR [ebp+0x8]
    2f0e:	66 b8 67 66 66 66    	mov    eax,0x66666667
    2f14:	66 f7 e9             	imul   ecx
    2f17:	66 c1 fa 02          	sar    edx,0x2
    2f1b:	66 89 c8             	mov    eax,ecx
    2f1e:	66 c1 f8 1f          	sar    eax,0x1f
    2f22:	66 29 c2             	sub    edx,eax
    2f25:	66 89 d0             	mov    eax,edx
    2f28:	66 c1 e0 02          	shl    eax,0x2
    2f2c:	66 01 d0             	add    eax,edx
    2f2f:	66 01 c0             	add    eax,eax
    2f32:	66 29 c1             	sub    ecx,eax
    2f35:	66 89 ca             	mov    edx,ecx
    2f38:	88 d0                	mov    al,dl
    2f3a:	66 83 c0 30          	add    eax,0x30
    2f3e:	67 88 03             	mov    BYTE PTR [ebx],al
D:\OneDrive\Study\Operating Systems\实验\project7\codes/./lib/utilsC.c:238
		org /= 10;
    2f41:	67 66 8b 4d 08       	mov    ecx,DWORD PTR [ebp+0x8]
    2f46:	66 b8 67 66 66 66    	mov    eax,0x66666667
    2f4c:	66 f7 e9             	imul   ecx
    2f4f:	66 c1 fa 02          	sar    edx,0x2
    2f53:	66 89 c8             	mov    eax,ecx
    2f56:	66 c1 f8 1f          	sar    eax,0x1f
    2f5a:	66 29 c2             	sub    edx,eax
    2f5d:	66 89 d0             	mov    eax,edx
    2f60:	67 66 89 45 08       	mov    DWORD PTR [ebp+0x8],eax
D:\OneDrive\Study\Operating Systems\实验\project7\codes/./lib/utilsC.c:235
	for (int i = num; i >= 0; --i)
    2f65:	67 66 ff 4d f0       	dec    DWORD PTR [ebp-0x10]
    2f6a:	67 66 83 7d f0 00    	cmp    DWORD PTR [ebp-0x10],0x0
    2f70:	79 88                	jns    2efa <_int2str+0x8c>
D:\OneDrive\Study\Operating Systems\实验\project7\codes/./lib/utilsC.c:240
	}
}
    2f72:	90                   	nop
    2f73:	66 83 c4 0c          	add    esp,0xc
    2f77:	66 5b                	pop    ebx
    2f79:	66 5d                	pop    ebp
    2f7b:	66 c3                	ret    

00002f7d <_hashfun>:
hashfun():
D:\OneDrive\Study\Operating Systems\实验\project7\codes/./lib/utilsC.c:249

////////////// File ////////////////



int hashfun(char * key) {
    2f7d:	66 55                	push   ebp
    2f7f:	66 89 e5             	mov    ebp,esp
    2f82:	66 83 ec 0c          	sub    esp,0xc
D:\OneDrive\Study\Operating Systems\实验\project7\codes/./lib/utilsC.c:250
	int weight = 29;
    2f86:	67 66 c7 45 f4 1d 00 	mov    DWORD PTR [ebp-0xc],0x1d
    2f8d:	00 00 
D:\OneDrive\Study\Operating Systems\实验\project7\codes/./lib/utilsC.c:251
	int i = 0;
    2f8f:	67 66 c7 45 fc 00 00 	mov    DWORD PTR [ebp-0x4],0x0
    2f96:	00 00 
D:\OneDrive\Study\Operating Systems\实验\project7\codes/./lib/utilsC.c:252
	int ret = 0;
    2f98:	67 66 c7 45 f8 00 00 	mov    DWORD PTR [ebp-0x8],0x0
    2f9f:	00 00 
D:\OneDrive\Study\Operating Systems\实验\project7\codes/./lib/utilsC.c:253
	while (key[i]) {
    2fa1:	eb 3a                	jmp    2fdd <_hashfun+0x60>
D:\OneDrive\Study\Operating Systems\实验\project7\codes/./lib/utilsC.c:254
		ret = (ret + key[i] * weight) % Len;
    2fa3:	67 66 8b 55 fc       	mov    edx,DWORD PTR [ebp-0x4]
    2fa8:	67 66 8b 45 08       	mov    eax,DWORD PTR [ebp+0x8]
    2fad:	66 01 d0             	add    eax,edx
    2fb0:	67 8a 00             	mov    al,BYTE PTR [eax]
    2fb3:	66 0f be c0          	movsx  eax,al
    2fb7:	67 66 0f af 45 f4    	imul   eax,DWORD PTR [ebp-0xc]
    2fbd:	66 89 c2             	mov    edx,eax
    2fc0:	67 66 8b 45 f8       	mov    eax,DWORD PTR [ebp-0x8]
    2fc5:	66 01 d0             	add    eax,edx
    2fc8:	66 b9 14 00 00 00    	mov    ecx,0x14
    2fce:	66 99                	cdq    
    2fd0:	66 f7 f9             	idiv   ecx
    2fd3:	67 66 89 55 f8       	mov    DWORD PTR [ebp-0x8],edx
D:\OneDrive\Study\Operating Systems\实验\project7\codes/./lib/utilsC.c:255
		++i;
    2fd8:	67 66 ff 45 fc       	inc    DWORD PTR [ebp-0x4]
D:\OneDrive\Study\Operating Systems\实验\project7\codes/./lib/utilsC.c:253
	while (key[i]) {
    2fdd:	67 66 8b 55 fc       	mov    edx,DWORD PTR [ebp-0x4]
    2fe2:	67 66 8b 45 08       	mov    eax,DWORD PTR [ebp+0x8]
    2fe7:	66 01 d0             	add    eax,edx
    2fea:	67 8a 00             	mov    al,BYTE PTR [eax]
    2fed:	84 c0                	test   al,al
    2fef:	75 b2                	jne    2fa3 <_hashfun+0x26>
D:\OneDrive\Study\Operating Systems\实验\project7\codes/./lib/utilsC.c:257
	}
	return ret;
    2ff1:	67 66 8b 45 f8       	mov    eax,DWORD PTR [ebp-0x8]
D:\OneDrive\Study\Operating Systems\实验\project7\codes/./lib/utilsC.c:258
}
    2ff6:	66 c9                	leave  
    2ff8:	66 c3                	ret    

00002ffa <_hash>:
hash():
D:\OneDrive\Study\Operating Systems\实验\project7\codes/./lib/utilsC.c:261

int hash(char * key, struct info record)
{
    2ffa:	66 55                	push   ebp
    2ffc:	66 89 e5             	mov    ebp,esp
    2fff:	66 83 ec 18          	sub    esp,0x18
D:\OneDrive\Study\Operating Systems\实验\project7\codes/./lib/utilsC.c:262
	int inicode = hashfun(key);
    3003:	67 66 8b 45 08       	mov    eax,DWORD PTR [ebp+0x8]
    3008:	67 66 89 04 24       	mov    DWORD PTR [esp],eax
    300d:	66 e8 6a ff ff ff    	call   2f7d <_hashfun>
    3013:	67 66 89 45 f4       	mov    DWORD PTR [ebp-0xc],eax
D:\OneDrive\Study\Operating Systems\实验\project7\codes/./lib/utilsC.c:263
	int code = inicode, i = 1;
    3018:	67 66 8b 45 f4       	mov    eax,DWORD PTR [ebp-0xc]
    301d:	67 66 89 45 fc       	mov    DWORD PTR [ebp-0x4],eax
    3022:	67 66 c7 45 f8 01 00 	mov    DWORD PTR [ebp-0x8],0x1
    3029:	00 00 
D:\OneDrive\Study\Operating Systems\实验\project7\codes/./lib/utilsC.c:264
	while (information[code].type != null) {
    302b:	eb 2b                	jmp    3058 <_hash+0x5e>
D:\OneDrive\Study\Operating Systems\实验\project7\codes/./lib/utilsC.c:265
		code = (inicode + i * i) % Len;
    302d:	67 66 8b 45 f8       	mov    eax,DWORD PTR [ebp-0x8]
    3032:	67 66 0f af 45 f8    	imul   eax,DWORD PTR [ebp-0x8]
    3038:	66 89 c2             	mov    edx,eax
    303b:	67 66 8b 45 f4       	mov    eax,DWORD PTR [ebp-0xc]
    3040:	66 01 d0             	add    eax,edx
    3043:	66 b9 14 00 00 00    	mov    ecx,0x14
    3049:	66 99                	cdq    
    304b:	66 f7 f9             	idiv   ecx
    304e:	67 66 89 55 fc       	mov    DWORD PTR [ebp-0x4],edx
D:\OneDrive\Study\Operating Systems\实验\project7\codes/./lib/utilsC.c:266
		++i;
    3053:	67 66 ff 45 f8       	inc    DWORD PTR [ebp-0x8]
D:\OneDrive\Study\Operating Systems\实验\project7\codes/./lib/utilsC.c:264
	while (information[code].type != null) {
    3058:	67 66 8b 55 fc       	mov    edx,DWORD PTR [ebp-0x4]
    305d:	66 89 d0             	mov    eax,edx
    3060:	66 01 c0             	add    eax,eax
    3063:	66 01 d0             	add    eax,edx
    3066:	66 c1 e0 02          	shl    eax,0x2
    306a:	66 01 d0             	add    eax,edx
    306d:	66 c1 e0 02          	shl    eax,0x2
    3071:	66 05 00 af 00 00    	add    eax,0xaf00
    3077:	67 66 8b 00          	mov    eax,DWORD PTR [eax]
    307b:	66 85 c0             	test   eax,eax
    307e:	75 ad                	jne    302d <_hash+0x33>
D:\OneDrive\Study\Operating Systems\实验\project7\codes/./lib/utilsC.c:270
	}


	information[code].type = record.type;
    3080:	67 66 8b 4d 2c       	mov    ecx,DWORD PTR [ebp+0x2c]
    3085:	67 66 8b 55 fc       	mov    edx,DWORD PTR [ebp-0x4]
    308a:	66 89 d0             	mov    eax,edx
    308d:	66 01 c0             	add    eax,eax
    3090:	66 01 d0             	add    eax,edx
    3093:	66 c1 e0 02          	shl    eax,0x2
    3097:	66 01 d0             	add    eax,edx
    309a:	66 c1 e0 02          	shl    eax,0x2
    309e:	66 05 00 af 00 00    	add    eax,0xaf00
    30a4:	67 66 89 08          	mov    DWORD PTR [eax],ecx
D:\OneDrive\Study\Operating Systems\实验\project7\codes/./lib/utilsC.c:271
	strncpy(record.name, information[code].name, strlen(record.name));
    30a8:	67 66 8d 45 0c       	lea    eax,[ebp+0xc]
    30ad:	67 66 89 04 24       	mov    DWORD PTR [esp],eax
    30b2:	66 e8 61 fb ff ff    	call   2c19 <_strlen>
    30b8:	66 89 c1             	mov    ecx,eax
    30bb:	67 66 8b 55 fc       	mov    edx,DWORD PTR [ebp-0x4]
    30c0:	66 89 d0             	mov    eax,edx
    30c3:	66 01 c0             	add    eax,eax
    30c6:	66 01 d0             	add    eax,edx
    30c9:	66 c1 e0 02          	shl    eax,0x2
    30cd:	66 01 d0             	add    eax,edx
    30d0:	66 c1 e0 02          	shl    eax,0x2
    30d4:	66 05 e0 ae 00 00    	add    eax,0xaee0
    30da:	67 66 89 4c 24 08    	mov    DWORD PTR [esp+0x8],ecx
    30e0:	67 66 89 44 24 04    	mov    DWORD PTR [esp+0x4],eax
    30e6:	67 66 8d 45 0c       	lea    eax,[ebp+0xc]
    30eb:	67 66 89 04 24       	mov    DWORD PTR [esp],eax
    30f0:	66 e8 09 fd ff ff    	call   2dff <_strncpy>
D:\OneDrive\Study\Operating Systems\实验\project7\codes/./lib/utilsC.c:272
	information[code].size = record.size;
    30f6:	67 66 8b 4d 34       	mov    ecx,DWORD PTR [ebp+0x34]
    30fb:	67 66 8b 55 fc       	mov    edx,DWORD PTR [ebp-0x4]
    3100:	66 89 d0             	mov    eax,edx
    3103:	66 01 c0             	add    eax,eax
    3106:	66 01 d0             	add    eax,edx
    3109:	66 c1 e0 02          	shl    eax,0x2
    310d:	66 01 d0             	add    eax,edx
    3110:	66 c1 e0 02          	shl    eax,0x2
    3114:	66 05 08 af 00 00    	add    eax,0xaf08
    311a:	67 66 89 08          	mov    DWORD PTR [eax],ecx
D:\OneDrive\Study\Operating Systems\实验\project7\codes/./lib/utilsC.c:273
	information[code].lmaddress = record.lmaddress;
    311e:	67 66 8b 4d 30       	mov    ecx,DWORD PTR [ebp+0x30]
    3123:	67 66 8b 55 fc       	mov    edx,DWORD PTR [ebp-0x4]
    3128:	66 89 d0             	mov    eax,edx
    312b:	66 01 c0             	add    eax,eax
    312e:	66 01 d0             	add    eax,edx
    3131:	66 c1 e0 02          	shl    eax,0x2
    3135:	66 01 d0             	add    eax,edx
    3138:	66 c1 e0 02          	shl    eax,0x2
    313c:	66 05 04 af 00 00    	add    eax,0xaf04
    3142:	67 66 89 08          	mov    DWORD PTR [eax],ecx
D:\OneDrive\Study\Operating Systems\实验\project7\codes/./lib/utilsC.c:274
	information[code].deleted = record.deleted;
    3146:	67 66 8b 4d 38       	mov    ecx,DWORD PTR [ebp+0x38]
    314b:	67 66 8b 55 fc       	mov    edx,DWORD PTR [ebp-0x4]
    3150:	66 89 d0             	mov    eax,edx
    3153:	66 01 c0             	add    eax,eax
    3156:	66 01 d0             	add    eax,edx
    3159:	66 c1 e0 02          	shl    eax,0x2
    315d:	66 01 d0             	add    eax,edx
    3160:	66 c1 e0 02          	shl    eax,0x2
    3164:	66 05 0c af 00 00    	add    eax,0xaf0c
    316a:	67 66 89 08          	mov    DWORD PTR [eax],ecx
D:\OneDrive\Study\Operating Systems\实验\project7\codes/./lib/utilsC.c:275
	return code;
    316e:	67 66 8b 45 fc       	mov    eax,DWORD PTR [ebp-0x4]
D:\OneDrive\Study\Operating Systems\实验\project7\codes/./lib/utilsC.c:276
}
    3173:	66 c9                	leave  
    3175:	66 c3                	ret    

00003177 <_find>:
find():
D:\OneDrive\Study\Operating Systems\实验\project7\codes/./lib/utilsC.c:279

int find(char * key)
{
    3177:	66 55                	push   ebp
    3179:	66 89 e5             	mov    ebp,esp
    317c:	66 83 ec 14          	sub    esp,0x14
D:\OneDrive\Study\Operating Systems\实验\project7\codes/./lib/utilsC.c:280
	int inicode = hashfun(key);
    3180:	67 66 8b 45 08       	mov    eax,DWORD PTR [ebp+0x8]
    3185:	67 66 89 04 24       	mov    DWORD PTR [esp],eax
    318a:	66 e8 ed fd ff ff    	call   2f7d <_hashfun>
    3190:	67 66 89 45 f4       	mov    DWORD PTR [ebp-0xc],eax
D:\OneDrive\Study\Operating Systems\实验\project7\codes/./lib/utilsC.c:281
	int code = inicode, i = 1;
    3195:	67 66 8b 45 f4       	mov    eax,DWORD PTR [ebp-0xc]
    319a:	67 66 89 45 fc       	mov    DWORD PTR [ebp-0x4],eax
    319f:	67 66 c7 45 f8 01 00 	mov    DWORD PTR [ebp-0x8],0x1
    31a6:	00 00 
D:\OneDrive\Study\Operating Systems\实验\project7\codes/./lib/utilsC.c:282
	while (information[code].type == null || strcmp(key, information[code].name) != 0) {
    31a8:	eb 3b                	jmp    31e5 <_find+0x6e>
D:\OneDrive\Study\Operating Systems\实验\project7\codes/./lib/utilsC.c:283
		code = (inicode + i * i) % Len;
    31aa:	67 66 8b 45 f8       	mov    eax,DWORD PTR [ebp-0x8]
    31af:	67 66 0f af 45 f8    	imul   eax,DWORD PTR [ebp-0x8]
    31b5:	66 89 c2             	mov    edx,eax
    31b8:	67 66 8b 45 f4       	mov    eax,DWORD PTR [ebp-0xc]
    31bd:	66 01 d0             	add    eax,edx
    31c0:	66 b9 14 00 00 00    	mov    ecx,0x14
    31c6:	66 99                	cdq    
    31c8:	66 f7 f9             	idiv   ecx
    31cb:	67 66 89 55 fc       	mov    DWORD PTR [ebp-0x4],edx
D:\OneDrive\Study\Operating Systems\实验\project7\codes/./lib/utilsC.c:284
		++i;
    31d0:	67 66 ff 45 f8       	inc    DWORD PTR [ebp-0x8]
D:\OneDrive\Study\Operating Systems\实验\project7\codes/./lib/utilsC.c:285
		if (i > Len)
    31d5:	67 66 83 7d f8 14    	cmp    DWORD PTR [ebp-0x8],0x14
    31db:	7e 08                	jle    31e5 <_find+0x6e>
D:\OneDrive\Study\Operating Systems\实验\project7\codes/./lib/utilsC.c:286
			return -1;
    31dd:	66 b8 ff ff ff ff    	mov    eax,0xffffffff
    31e3:	eb 69                	jmp    324e <_find+0xd7>
D:\OneDrive\Study\Operating Systems\实验\project7\codes/./lib/utilsC.c:282
	while (information[code].type == null || strcmp(key, information[code].name) != 0) {
    31e5:	67 66 8b 55 fc       	mov    edx,DWORD PTR [ebp-0x4]
    31ea:	66 89 d0             	mov    eax,edx
    31ed:	66 01 c0             	add    eax,eax
    31f0:	66 01 d0             	add    eax,edx
    31f3:	66 c1 e0 02          	shl    eax,0x2
    31f7:	66 01 d0             	add    eax,edx
    31fa:	66 c1 e0 02          	shl    eax,0x2
    31fe:	66 05 00 af 00 00    	add    eax,0xaf00
    3204:	67 66 8b 00          	mov    eax,DWORD PTR [eax]
    3208:	66 85 c0             	test   eax,eax
    320b:	74 9d                	je     31aa <_find+0x33>
    320d:	67 66 8b 55 fc       	mov    edx,DWORD PTR [ebp-0x4]
    3212:	66 89 d0             	mov    eax,edx
    3215:	66 01 c0             	add    eax,eax
    3218:	66 01 d0             	add    eax,edx
    321b:	66 c1 e0 02          	shl    eax,0x2
    321f:	66 01 d0             	add    eax,edx
    3222:	66 c1 e0 02          	shl    eax,0x2
    3226:	66 05 e0 ae 00 00    	add    eax,0xaee0
    322c:	67 66 89 44 24 04    	mov    DWORD PTR [esp+0x4],eax
    3232:	67 66 8b 45 08       	mov    eax,DWORD PTR [ebp+0x8]
    3237:	67 66 89 04 24       	mov    DWORD PTR [esp],eax
    323c:	66 e8 a8 fa ff ff    	call   2cea <_strcmp>
    3242:	66 85 c0             	test   eax,eax
    3245:	0f 85 61 ff          	jne    31aa <_find+0x33>
D:\OneDrive\Study\Operating Systems\实验\project7\codes/./lib/utilsC.c:288
	}
	return code;
    3249:	67 66 8b 45 fc       	mov    eax,DWORD PTR [ebp-0x4]
D:\OneDrive\Study\Operating Systems\实验\project7\codes/./lib/utilsC.c:289
}
    324e:	66 c9                	leave  
    3250:	66 c3                	ret    

00003252 <_initialFile>:
initialFile():
D:\OneDrive\Study\Operating Systems\实验\project7\codes/./lib/utilsC.c:292

void initialFile()
{
    3252:	66 55                	push   ebp
    3254:	66 89 e5             	mov    ebp,esp
    3257:	66 83 ec 10          	sub    esp,0x10
D:\OneDrive\Study\Operating Systems\实验\project7\codes/./lib/utilsC.c:293
	FAT = (short*)getRecords(segOfOs, offsetOfFat);
    325b:	67 66 c7 44 24 04 00 	mov    DWORD PTR [esp+0x4],0xe000
    3262:	e0 00 00 
    3265:	67 66 c7 04 24 00 20 	mov    DWORD PTR [esp],0x2000
    326c:	00 00 
    326e:	66 e8 22 ee ff ff    	call   2096 <_getRecords>
    3274:	66 a3 00 97          	mov    ds:0x9700,eax
D:\OneDrive\Study\Operating Systems\实验\project7\codes/./lib/utilsC.c:294
	for (int i = 0; i < Len; ++i) {
    3278:	67 66 c7 45 fc 00 00 	mov    DWORD PTR [ebp-0x4],0x0
    327f:	00 00 
    3281:	eb 2c                	jmp    32af <_initialFile+0x5d>
D:\OneDrive\Study\Operating Systems\实验\project7\codes/./lib/utilsC.c:295
		information[i].type = null;
    3283:	67 66 8b 55 fc       	mov    edx,DWORD PTR [ebp-0x4]
    3288:	66 89 d0             	mov    eax,edx
    328b:	66 01 c0             	add    eax,eax
    328e:	66 01 d0             	add    eax,edx
    3291:	66 c1 e0 02          	shl    eax,0x2
    3295:	66 01 d0             	add    eax,edx
    3298:	66 c1 e0 02          	shl    eax,0x2
    329c:	66 05 00 af 00 00    	add    eax,0xaf00
    32a2:	67 66 c7 00 00 00 00 	mov    DWORD PTR [eax],0x0
    32a9:	00 
D:\OneDrive\Study\Operating Systems\实验\project7\codes/./lib/utilsC.c:294
	for (int i = 0; i < Len; ++i) {
    32aa:	67 66 ff 45 fc       	inc    DWORD PTR [ebp-0x4]
    32af:	67 66 83 7d fc 13    	cmp    DWORD PTR [ebp-0x4],0x13
    32b5:	7e cc                	jle    3283 <_initialFile+0x31>
D:\OneDrive\Study\Operating Systems\实验\project7\codes/./lib/utilsC.c:297
	}
	no.lmaddress = 0;
    32b7:	66 c7 06 44 97 00 00 	mov    DWORD PTR ds:0x9744,0x0
    32be:	00 00 
D:\OneDrive\Study\Operating Systems\实验\project7\codes/./lib/utilsC.c:298
	no.size = 0;
    32c0:	66 c7 06 48 97 00 00 	mov    DWORD PTR ds:0x9748,0x0
    32c7:	00 00 
D:\OneDrive\Study\Operating Systems\实验\project7\codes/./lib/utilsC.c:299
	no.type = null;
    32c9:	66 c7 06 40 97 00 00 	mov    DWORD PTR ds:0x9740,0x0
    32d0:	00 00 
D:\OneDrive\Study\Operating Systems\实验\project7\codes/./lib/utilsC.c:300
	strncpy("", no.name, 0);
    32d2:	67 66 c7 44 24 08 00 	mov    DWORD PTR [esp+0x8],0x0
    32d9:	00 00 00 
    32dc:	67 66 c7 44 24 04 20 	mov    DWORD PTR [esp+0x4],0x9720
    32e3:	97 00 00 
    32e6:	67 66 c7 04 24 c3 70 	mov    DWORD PTR [esp],0x70c3
    32ed:	00 00 
    32ef:	66 e8 0a fb ff ff    	call   2dff <_strncpy>
D:\OneDrive\Study\Operating Systems\实验\project7\codes/./lib/utilsC.c:301
	loadFiles();
    32f5:	66 e8 05 00 00 00    	call   3300 <_loadFiles>
D:\OneDrive\Study\Operating Systems\实验\project7\codes/./lib/utilsC.c:302
}
    32fb:	90                   	nop
    32fc:	66 c9                	leave  
    32fe:	66 c3                	ret    

00003300 <_loadFiles>:
loadFiles():
D:\OneDrive\Study\Operating Systems\实验\project7\codes/./lib/utilsC.c:306


void loadFiles()
{
    3300:	66 55                	push   ebp
    3302:	66 89 e5             	mov    ebp,esp
    3305:	66 57                	push   edi
    3307:	66 56                	push   esi
    3309:	66 81 ec a4 00 00 00 	sub    esp,0xa4
D:\OneDrive\Study\Operating Systems\实验\project7\codes/./lib/utilsC.c:307
	char * rawRecords = getRecords(segOfOs, offsetOfRecord);
    3310:	67 66 c7 44 24 04 00 	mov    DWORD PTR [esp+0x4],0xd000
    3317:	d0 00 00 
    331a:	67 66 c7 04 24 00 20 	mov    DWORD PTR [esp],0x2000
    3321:	00 00 
    3323:	66 e8 6d ed ff ff    	call   2096 <_getRecords>
    3329:	67 66 89 45 e4       	mov    DWORD PTR [ebp-0x1c],eax
D:\OneDrive\Study\Operating Systems\实验\project7\codes/./lib/utilsC.c:308
	int i = 0;
    332e:	67 66 c7 45 f4 00 00 	mov    DWORD PTR [ebp-0xc],0x0
    3335:	00 00 
D:\OneDrive\Study\Operating Systems\实验\project7\codes/./lib/utilsC.c:309
	int l = 0;
    3337:	67 66 c7 45 f0 00 00 	mov    DWORD PTR [ebp-0x10],0x0
    333e:	00 00 
D:\OneDrive\Study\Operating Systems\实验\project7\codes/./lib/utilsC.c:310
	int size = 0;
    3340:	67 66 c7 45 ec 00 00 	mov    DWORD PTR [ebp-0x14],0x0
    3347:	00 00 
D:\OneDrive\Study\Operating Systems\实验\project7\codes/./lib/utilsC.c:311
	int place = 0;
    3349:	67 66 c7 45 e8 00 00 	mov    DWORD PTR [ebp-0x18],0x0
    3350:	00 00 
D:\OneDrive\Study\Operating Systems\实验\project7\codes/./lib/utilsC.c:313
	char name[30];
	enum fileType t = null;
    3352:	67 66 c7 45 e0 00 00 	mov    DWORD PTR [ebp-0x20],0x0
    3359:	00 00 
D:\OneDrive\Study\Operating Systems\实验\project7\codes/./lib/utilsC.c:315
	struct info tmp;
	while (rawRecords[i] != '\n')
    335b:	e9 17 02             	jmp    3575 <_loadFiles+0x275>
D:\OneDrive\Study\Operating Systems\实验\project7\codes/./lib/utilsC.c:317
	{
		size = 0;
    335e:	67 66 c7 45 ec 00 00 	mov    DWORD PTR [ebp-0x14],0x0
    3365:	00 00 
D:\OneDrive\Study\Operating Systems\实验\project7\codes/./lib/utilsC.c:318
		place = 0;
    3367:	67 66 c7 45 e8 00 00 	mov    DWORD PTR [ebp-0x18],0x0
    336e:	00 00 
D:\OneDrive\Study\Operating Systems\实验\project7\codes/./lib/utilsC.c:320
		// name
		++i;
    3370:	67 66 ff 45 f4       	inc    DWORD PTR [ebp-0xc]
D:\OneDrive\Study\Operating Systems\实验\project7\codes/./lib/utilsC.c:321
		l = 0;
    3375:	67 66 c7 45 f0 00 00 	mov    DWORD PTR [ebp-0x10],0x0
    337c:	00 00 
D:\OneDrive\Study\Operating Systems\实验\project7\codes/./lib/utilsC.c:322
		while (rawRecords[i] != '|') {
    337e:	eb 0a                	jmp    338a <_loadFiles+0x8a>
D:\OneDrive\Study\Operating Systems\实验\project7\codes/./lib/utilsC.c:323
			++i;
    3380:	67 66 ff 45 f4       	inc    DWORD PTR [ebp-0xc]
D:\OneDrive\Study\Operating Systems\实验\project7\codes/./lib/utilsC.c:324
			++l;
    3385:	67 66 ff 45 f0       	inc    DWORD PTR [ebp-0x10]
D:\OneDrive\Study\Operating Systems\实验\project7\codes/./lib/utilsC.c:322
		while (rawRecords[i] != '|') {
    338a:	67 66 8b 55 f4       	mov    edx,DWORD PTR [ebp-0xc]
    338f:	67 66 8b 45 e4       	mov    eax,DWORD PTR [ebp-0x1c]
    3394:	66 01 d0             	add    eax,edx
    3397:	67 8a 00             	mov    al,BYTE PTR [eax]
    339a:	3c 7c                	cmp    al,0x7c
    339c:	75 e2                	jne    3380 <_loadFiles+0x80>
D:\OneDrive\Study\Operating Systems\实验\project7\codes/./lib/utilsC.c:326
		}
		++i;
    339e:	67 66 ff 45 f4       	inc    DWORD PTR [ebp-0xc]
D:\OneDrive\Study\Operating Systems\实验\project7\codes/./lib/utilsC.c:327
		strncpy(rawRecords + i - l - 1, name, l);
    33a3:	67 66 8b 55 f4       	mov    edx,DWORD PTR [ebp-0xc]
    33a8:	67 66 8b 45 f0       	mov    eax,DWORD PTR [ebp-0x10]
    33ad:	66 29 c2             	sub    edx,eax
    33b0:	66 89 d0             	mov    eax,edx
    33b3:	67 66 8d 50 ff       	lea    edx,[eax-0x1]
    33b8:	67 66 8b 45 e4       	mov    eax,DWORD PTR [ebp-0x1c]
    33bd:	66 01 c2             	add    edx,eax
    33c0:	67 66 8b 45 f0       	mov    eax,DWORD PTR [ebp-0x10]
    33c5:	67 66 89 44 24 08    	mov    DWORD PTR [esp+0x8],eax
    33cb:	67 66 8d 45 c2       	lea    eax,[ebp-0x3e]
    33d0:	67 66 89 44 24 04    	mov    DWORD PTR [esp+0x4],eax
    33d6:	67 66 89 14 24       	mov    DWORD PTR [esp],edx
    33db:	66 e8 1e fa ff ff    	call   2dff <_strncpy>
D:\OneDrive\Study\Operating Systems\实验\project7\codes/./lib/utilsC.c:328
		name[l] = '\0';
    33e1:	67 66 8d 55 c2       	lea    edx,[ebp-0x3e]
    33e6:	67 66 8b 45 f0       	mov    eax,DWORD PTR [ebp-0x10]
    33eb:	66 01 d0             	add    eax,edx
    33ee:	67 c6 00 00          	mov    BYTE PTR [eax],0x0
D:\OneDrive\Study\Operating Systems\实验\project7\codes/./lib/utilsC.c:330
		// size
		while (rawRecords[i] != '|') {
    33f2:	eb 3a                	jmp    342e <_loadFiles+0x12e>
D:\OneDrive\Study\Operating Systems\实验\project7\codes/./lib/utilsC.c:331
			size = size * 10 + rawRecords[i] - '0';
    33f4:	67 66 8b 55 ec       	mov    edx,DWORD PTR [ebp-0x14]
    33f9:	66 89 d0             	mov    eax,edx
    33fc:	66 c1 e0 02          	shl    eax,0x2
    3400:	66 01 d0             	add    eax,edx
    3403:	66 01 c0             	add    eax,eax
    3406:	66 89 c1             	mov    ecx,eax
    3409:	67 66 8b 55 f4       	mov    edx,DWORD PTR [ebp-0xc]
    340e:	67 66 8b 45 e4       	mov    eax,DWORD PTR [ebp-0x1c]
    3413:	66 01 d0             	add    eax,edx
    3416:	67 8a 00             	mov    al,BYTE PTR [eax]
    3419:	66 0f be c0          	movsx  eax,al
    341d:	66 01 c8             	add    eax,ecx
    3420:	66 83 e8 30          	sub    eax,0x30
    3424:	67 66 89 45 ec       	mov    DWORD PTR [ebp-0x14],eax
D:\OneDrive\Study\Operating Systems\实验\project7\codes/./lib/utilsC.c:332
			++i;
    3429:	67 66 ff 45 f4       	inc    DWORD PTR [ebp-0xc]
D:\OneDrive\Study\Operating Systems\实验\project7\codes/./lib/utilsC.c:330
		while (rawRecords[i] != '|') {
    342e:	67 66 8b 55 f4       	mov    edx,DWORD PTR [ebp-0xc]
    3433:	67 66 8b 45 e4       	mov    eax,DWORD PTR [ebp-0x1c]
    3438:	66 01 d0             	add    eax,edx
    343b:	67 8a 00             	mov    al,BYTE PTR [eax]
    343e:	3c 7c                	cmp    al,0x7c
    3440:	75 b2                	jne    33f4 <_loadFiles+0xf4>
D:\OneDrive\Study\Operating Systems\实验\project7\codes/./lib/utilsC.c:334
		}
		++i;
    3442:	67 66 ff 45 f4       	inc    DWORD PTR [ebp-0xc]
D:\OneDrive\Study\Operating Systems\实验\project7\codes/./lib/utilsC.c:336
		// place
		while (rawRecords[i] != '|') {
    3447:	eb 3a                	jmp    3483 <_loadFiles+0x183>
D:\OneDrive\Study\Operating Systems\实验\project7\codes/./lib/utilsC.c:337
			place = place * 10 + rawRecords[i] - '0';
    3449:	67 66 8b 55 e8       	mov    edx,DWORD PTR [ebp-0x18]
    344e:	66 89 d0             	mov    eax,edx
    3451:	66 c1 e0 02          	shl    eax,0x2
    3455:	66 01 d0             	add    eax,edx
    3458:	66 01 c0             	add    eax,eax
    345b:	66 89 c1             	mov    ecx,eax
    345e:	67 66 8b 55 f4       	mov    edx,DWORD PTR [ebp-0xc]
    3463:	67 66 8b 45 e4       	mov    eax,DWORD PTR [ebp-0x1c]
    3468:	66 01 d0             	add    eax,edx
    346b:	67 8a 00             	mov    al,BYTE PTR [eax]
    346e:	66 0f be c0          	movsx  eax,al
    3472:	66 01 c8             	add    eax,ecx
    3475:	66 83 e8 30          	sub    eax,0x30
    3479:	67 66 89 45 e8       	mov    DWORD PTR [ebp-0x18],eax
D:\OneDrive\Study\Operating Systems\实验\project7\codes/./lib/utilsC.c:338
			++i;
    347e:	67 66 ff 45 f4       	inc    DWORD PTR [ebp-0xc]
D:\OneDrive\Study\Operating Systems\实验\project7\codes/./lib/utilsC.c:336
		while (rawRecords[i] != '|') {
    3483:	67 66 8b 55 f4       	mov    edx,DWORD PTR [ebp-0xc]
    3488:	67 66 8b 45 e4       	mov    eax,DWORD PTR [ebp-0x1c]
    348d:	66 01 d0             	add    eax,edx
    3490:	67 8a 00             	mov    al,BYTE PTR [eax]
    3493:	3c 7c                	cmp    al,0x7c
    3495:	75 b2                	jne    3449 <_loadFiles+0x149>
D:\OneDrive\Study\Operating Systems\实验\project7\codes/./lib/utilsC.c:340
		}
		++i;
    3497:	67 66 ff 45 f4       	inc    DWORD PTR [ebp-0xc]
D:\OneDrive\Study\Operating Systems\实验\project7\codes/./lib/utilsC.c:342
		//type
		t = rawRecords[i] - '0';
    349c:	67 66 8b 55 f4       	mov    edx,DWORD PTR [ebp-0xc]
    34a1:	67 66 8b 45 e4       	mov    eax,DWORD PTR [ebp-0x1c]
    34a6:	66 01 d0             	add    eax,edx
    34a9:	67 8a 00             	mov    al,BYTE PTR [eax]
    34ac:	66 0f be c0          	movsx  eax,al
    34b0:	66 83 e8 30          	sub    eax,0x30
    34b4:	67 66 89 45 e0       	mov    DWORD PTR [ebp-0x20],eax
D:\OneDrive\Study\Operating Systems\实验\project7\codes/./lib/utilsC.c:343
		i += 3;
    34b9:	67 66 83 45 f4 03    	add    DWORD PTR [ebp-0xc],0x3
D:\OneDrive\Study\Operating Systems\实验\project7\codes/./lib/utilsC.c:344
		tmp.size = size;
    34bf:	67 66 8b 45 ec       	mov    eax,DWORD PTR [ebp-0x14]
    34c4:	67 66 89 45 b4       	mov    DWORD PTR [ebp-0x4c],eax
D:\OneDrive\Study\Operating Systems\实验\project7\codes/./lib/utilsC.c:345
		tmp.type = t;
    34c9:	67 66 8b 45 e0       	mov    eax,DWORD PTR [ebp-0x20]
    34ce:	67 66 89 45 ac       	mov    DWORD PTR [ebp-0x54],eax
D:\OneDrive\Study\Operating Systems\实验\project7\codes/./lib/utilsC.c:346
		tmp.lmaddress = place;
    34d3:	67 66 8b 45 e8       	mov    eax,DWORD PTR [ebp-0x18]
    34d8:	67 66 89 45 b0       	mov    DWORD PTR [ebp-0x50],eax
D:\OneDrive\Study\Operating Systems\实验\project7\codes/./lib/utilsC.c:347
		tmp.deleted = 0;
    34dd:	67 66 c7 45 b8 00 00 	mov    DWORD PTR [ebp-0x48],0x0
    34e4:	00 00 
D:\OneDrive\Study\Operating Systems\实验\project7\codes/./lib/utilsC.c:348
		tmp.start = place / Cluster;
    34e6:	67 66 8b 45 e8       	mov    eax,DWORD PTR [ebp-0x18]
    34eb:	66 85 c0             	test   eax,eax
    34ee:	79 06                	jns    34f6 <_loadFiles+0x1f6>
    34f0:	66 05 ff 01 00 00    	add    eax,0x1ff
    34f6:	66 c1 f8 09          	sar    eax,0x9
    34fa:	67 66 89 45 bc       	mov    DWORD PTR [ebp-0x44],eax
D:\OneDrive\Study\Operating Systems\实验\project7\codes/./lib/utilsC.c:349
		setFAT(place, size);
    34ff:	67 66 8b 45 ec       	mov    eax,DWORD PTR [ebp-0x14]
    3504:	67 66 89 44 24 04    	mov    DWORD PTR [esp+0x4],eax
    350a:	67 66 8b 45 e8       	mov    eax,DWORD PTR [ebp-0x18]
    350f:	67 66 89 04 24       	mov    DWORD PTR [esp],eax
    3514:	66 e8 81 00 00 00    	call   359b <_setFAT>
D:\OneDrive\Study\Operating Systems\实验\project7\codes/./lib/utilsC.c:350
		strncpy(name, tmp.name, strlen(name));
    351a:	67 66 8d 45 c2       	lea    eax,[ebp-0x3e]
    351f:	67 66 89 04 24       	mov    DWORD PTR [esp],eax
    3524:	66 e8 ef f6 ff ff    	call   2c19 <_strlen>
    352a:	67 66 89 44 24 08    	mov    DWORD PTR [esp+0x8],eax
    3530:	67 66 8d 45 8c       	lea    eax,[ebp-0x74]
    3535:	67 66 89 44 24 04    	mov    DWORD PTR [esp+0x4],eax
    353b:	67 66 8d 45 c2       	lea    eax,[ebp-0x3e]
    3540:	67 66 89 04 24       	mov    DWORD PTR [esp],eax
    3545:	66 e8 b4 f8 ff ff    	call   2dff <_strncpy>
D:\OneDrive\Study\Operating Systems\实验\project7\codes/./lib/utilsC.c:351
		hash(name, tmp);
    354b:	67 66 8d 44 24 04    	lea    eax,[esp+0x4]
    3551:	67 66 8d 55 8c       	lea    edx,[ebp-0x74]
    3556:	66 b9 0d 00 00 00    	mov    ecx,0xd
    355c:	66 89 c7             	mov    edi,eax
    355f:	66 89 d6             	mov    esi,edx
    3562:	66 f3 a5             	rep movs DWORD PTR es:[di],DWORD PTR ds:[si]
    3565:	67 66 8d 45 c2       	lea    eax,[ebp-0x3e]
    356a:	67 66 89 04 24       	mov    DWORD PTR [esp],eax
    356f:	66 e8 85 fa ff ff    	call   2ffa <_hash>
D:\OneDrive\Study\Operating Systems\实验\project7\codes/./lib/utilsC.c:315
	while (rawRecords[i] != '\n')
    3575:	67 66 8b 55 f4       	mov    edx,DWORD PTR [ebp-0xc]
    357a:	67 66 8b 45 e4       	mov    eax,DWORD PTR [ebp-0x1c]
    357f:	66 01 d0             	add    eax,edx
    3582:	67 8a 00             	mov    al,BYTE PTR [eax]
    3585:	3c 0a                	cmp    al,0xa
    3587:	0f 85 d3 fd          	jne    335e <_loadFiles+0x5e>
D:\OneDrive\Study\Operating Systems\实验\project7\codes/./lib/utilsC.c:353
	}
}
    358b:	90                   	nop
    358c:	66 81 c4 a4 00 00 00 	add    esp,0xa4
    3593:	66 5e                	pop    esi
    3595:	66 5f                	pop    edi
    3597:	66 5d                	pop    ebp
    3599:	66 c3                	ret    

0000359b <_setFAT>:
setFAT():
D:\OneDrive\Study\Operating Systems\实验\project7\codes/./lib/utilsC.c:356
// 娉ㄦFAT浠0寮濮
void setFAT(int lmaddress, int size)
{
    359b:	66 55                	push   ebp
    359d:	66 89 e5             	mov    ebp,esp
    35a0:	66 83 ec 0c          	sub    esp,0xc
D:\OneDrive\Study\Operating Systems\实验\project7\codes/./lib/utilsC.c:357
	int begin = lmaddress / Cluster;
    35a4:	67 66 8b 45 08       	mov    eax,DWORD PTR [ebp+0x8]
    35a9:	66 85 c0             	test   eax,eax
    35ac:	79 06                	jns    35b4 <_setFAT+0x19>
    35ae:	66 05 ff 01 00 00    	add    eax,0x1ff
    35b4:	66 c1 f8 09          	sar    eax,0x9
    35b8:	67 66 89 45 f8       	mov    DWORD PTR [ebp-0x8],eax
D:\OneDrive\Study\Operating Systems\实验\project7\codes/./lib/utilsC.c:358
	int num = size / Cluster;
    35bd:	67 66 8b 45 0c       	mov    eax,DWORD PTR [ebp+0xc]
    35c2:	66 85 c0             	test   eax,eax
    35c5:	79 06                	jns    35cd <_setFAT+0x32>
    35c7:	66 05 ff 01 00 00    	add    eax,0x1ff
    35cd:	66 c1 f8 09          	sar    eax,0x9
    35d1:	67 66 89 45 f4       	mov    DWORD PTR [ebp-0xc],eax
D:\OneDrive\Study\Operating Systems\实验\project7\codes/./lib/utilsC.c:359
	for (int i = 0; i < num - 1; ++i)
    35d6:	67 66 c7 45 fc 00 00 	mov    DWORD PTR [ebp-0x4],0x0
    35dd:	00 00 
    35df:	eb 33                	jmp    3614 <_setFAT+0x79>
D:\OneDrive\Study\Operating Systems\实验\project7\codes/./lib/utilsC.c:361
	{
		FAT[i + begin] = i + begin + 1;
    35e1:	66 a1 00 97          	mov    eax,ds:0x9700
    35e5:	67 66 8b 4d fc       	mov    ecx,DWORD PTR [ebp-0x4]
    35ea:	67 66 8b 55 f8       	mov    edx,DWORD PTR [ebp-0x8]
    35ef:	66 01 ca             	add    edx,ecx
    35f2:	66 01 d2             	add    edx,edx
    35f5:	67 66 8d 0c 10       	lea    ecx,[eax+edx*1]
    35fa:	67 66 8b 45 fc       	mov    eax,DWORD PTR [ebp-0x4]
    35ff:	66 89 c2             	mov    edx,eax
    3602:	67 66 8b 45 f8       	mov    eax,DWORD PTR [ebp-0x8]
    3607:	66 01 d0             	add    eax,edx
    360a:	66 40                	inc    eax
    360c:	67 89 01             	mov    WORD PTR [ecx],ax
D:\OneDrive\Study\Operating Systems\实验\project7\codes/./lib/utilsC.c:359
	for (int i = 0; i < num - 1; ++i)
    360f:	67 66 ff 45 fc       	inc    DWORD PTR [ebp-0x4]
    3614:	67 66 8b 45 f4       	mov    eax,DWORD PTR [ebp-0xc]
    3619:	66 48                	dec    eax
    361b:	67 66 3b 45 fc       	cmp    eax,DWORD PTR [ebp-0x4]
    3620:	7f bf                	jg     35e1 <_setFAT+0x46>
D:\OneDrive\Study\Operating Systems\实验\project7\codes/./lib/utilsC.c:363
	}
	FAT[num + begin - 1] = 0xffff;
    3622:	66 a1 00 97          	mov    eax,ds:0x9700
    3626:	67 66 8b 4d f4       	mov    ecx,DWORD PTR [ebp-0xc]
    362b:	67 66 8b 55 f8       	mov    edx,DWORD PTR [ebp-0x8]
    3630:	66 01 ca             	add    edx,ecx
    3633:	66 81 c2 ff ff ff 7f 	add    edx,0x7fffffff
    363a:	66 01 d2             	add    edx,edx
    363d:	66 01 d0             	add    eax,edx
    3640:	67 c7 00 ff ff       	mov    WORD PTR [eax],0xffff
D:\OneDrive\Study\Operating Systems\实验\project7\codes/./lib/utilsC.c:364
}
    3645:	90                   	nop
    3646:	66 c9                	leave  
    3648:	66 c3                	ret    

0000364a <_resetFAT>:
resetFAT():
D:\OneDrive\Study\Operating Systems\实验\project7\codes/./lib/utilsC.c:367

void resetFAT(int lmaddress, int size)
{
    364a:	66 55                	push   ebp
    364c:	66 89 e5             	mov    ebp,esp
    364f:	66 83 ec 0c          	sub    esp,0xc
D:\OneDrive\Study\Operating Systems\实验\project7\codes/./lib/utilsC.c:368
	int begin = lmaddress / Cluster;
    3653:	67 66 8b 45 08       	mov    eax,DWORD PTR [ebp+0x8]
    3658:	66 85 c0             	test   eax,eax
    365b:	79 06                	jns    3663 <_resetFAT+0x19>
    365d:	66 05 ff 01 00 00    	add    eax,0x1ff
    3663:	66 c1 f8 09          	sar    eax,0x9
    3667:	67 66 89 45 f8       	mov    DWORD PTR [ebp-0x8],eax
D:\OneDrive\Study\Operating Systems\实验\project7\codes/./lib/utilsC.c:369
	int num = size / Cluster;
    366c:	67 66 8b 45 0c       	mov    eax,DWORD PTR [ebp+0xc]
    3671:	66 85 c0             	test   eax,eax
    3674:	79 06                	jns    367c <_resetFAT+0x32>
    3676:	66 05 ff 01 00 00    	add    eax,0x1ff
    367c:	66 c1 f8 09          	sar    eax,0x9
    3680:	67 66 89 45 f4       	mov    DWORD PTR [ebp-0xc],eax
D:\OneDrive\Study\Operating Systems\实验\project7\codes/./lib/utilsC.c:370
	for (int i = 0; i < num; ++i)
    3685:	67 66 c7 45 fc 00 00 	mov    DWORD PTR [ebp-0x4],0x0
    368c:	00 00 
    368e:	eb 21                	jmp    36b1 <_resetFAT+0x67>
D:\OneDrive\Study\Operating Systems\实验\project7\codes/./lib/utilsC.c:372
	{
		FAT[i + begin] = 0;
    3690:	66 a1 00 97          	mov    eax,ds:0x9700
    3694:	67 66 8b 4d fc       	mov    ecx,DWORD PTR [ebp-0x4]
    3699:	67 66 8b 55 f8       	mov    edx,DWORD PTR [ebp-0x8]
    369e:	66 01 ca             	add    edx,ecx
    36a1:	66 01 d2             	add    edx,edx
    36a4:	66 01 d0             	add    eax,edx
    36a7:	67 c7 00 00 00       	mov    WORD PTR [eax],0x0
D:\OneDrive\Study\Operating Systems\实验\project7\codes/./lib/utilsC.c:370
	for (int i = 0; i < num; ++i)
    36ac:	67 66 ff 45 fc       	inc    DWORD PTR [ebp-0x4]
    36b1:	67 66 8b 45 fc       	mov    eax,DWORD PTR [ebp-0x4]
    36b6:	67 66 3b 45 f4       	cmp    eax,DWORD PTR [ebp-0xc]
    36bb:	7c d3                	jl     3690 <_resetFAT+0x46>
D:\OneDrive\Study\Operating Systems\实验\project7\codes/./lib/utilsC.c:374
	}
}
    36bd:	90                   	nop
    36be:	66 c9                	leave  
    36c0:	66 c3                	ret    

000036c2 <_findNextProcessItem>:
findNextProcessItem():
D:\OneDrive\Study\Operating Systems\实验\project7\codes/./lib/utilsC.c:382



///////////// process ////////////////
int findNextProcessItem()
{
    36c2:	66 55                	push   ebp
    36c4:	66 89 e5             	mov    ebp,esp
    36c7:	66 83 ec 08          	sub    esp,0x8
D:\OneDrive\Study\Operating Systems\实验\project7\codes/./lib/utilsC.c:383
	int id = -1;
    36cb:	67 66 c7 45 fc ff ff 	mov    DWORD PTR [ebp-0x4],0xffffffff
    36d2:	ff ff 
D:\OneDrive\Study\Operating Systems\实验\project7\codes/./lib/utilsC.c:384
	while (id == -1) {
    36d4:	eb 43                	jmp    3719 <_findNextProcessItem+0x57>
D:\OneDrive\Study\Operating Systems\实验\project7\codes/./lib/utilsC.c:385
		int tmpProcessID = (curProcessId + 1) % Len;
    36d6:	66 a1 a0 be          	mov    eax,ds:0xbea0
    36da:	66 40                	inc    eax
    36dc:	66 b9 14 00 00 00    	mov    ecx,0x14
    36e2:	66 99                	cdq    
    36e4:	66 f7 f9             	idiv   ecx
    36e7:	67 66 89 55 f8       	mov    DWORD PTR [ebp-0x8],edx
D:\OneDrive\Study\Operating Systems\实验\project7\codes/./lib/utilsC.c:386
		if (processTable[tmpProcessID].id == -1) {
    36ec:	67 66 8b 55 f8       	mov    edx,DWORD PTR [ebp-0x8]
    36f1:	66 89 d0             	mov    eax,edx
    36f4:	66 c1 e0 03          	shl    eax,0x3
    36f8:	66 01 d0             	add    eax,edx
    36fb:	66 c1 e0 04          	shl    eax,0x4
    36ff:	66 05 84 b3 00 00    	add    eax,0xb384
    3705:	67 66 8b 00          	mov    eax,DWORD PTR [eax]
    3709:	66 83 f8 ff          	cmp    eax,0xffffffff
    370d:	75 0a                	jne    3719 <_findNextProcessItem+0x57>
D:\OneDrive\Study\Operating Systems\实验\project7\codes/./lib/utilsC.c:387
			id = tmpProcessID;
    370f:	67 66 8b 45 f8       	mov    eax,DWORD PTR [ebp-0x8]
    3714:	67 66 89 45 fc       	mov    DWORD PTR [ebp-0x4],eax
D:\OneDrive\Study\Operating Systems\实验\project7\codes/./lib/utilsC.c:384
	while (id == -1) {
    3719:	67 66 83 7d fc ff    	cmp    DWORD PTR [ebp-0x4],0xffffffff
    371f:	74 b5                	je     36d6 <_findNextProcessItem+0x14>
D:\OneDrive\Study\Operating Systems\实验\project7\codes/./lib/utilsC.c:390
		}
	}
	return id;
    3721:	67 66 8b 45 fc       	mov    eax,DWORD PTR [ebp-0x4]
D:\OneDrive\Study\Operating Systems\实验\project7\codes/./lib/utilsC.c:391
}
    3726:	66 c9                	leave  
    3728:	66 c3                	ret    

0000372a <_initialProcessTable>:
initialProcessTable():
D:\OneDrive\Study\Operating Systems\实验\project7\codes/./lib/utilsC.c:395


void initialProcessTable()
{
    372a:	66 55                	push   ebp
    372c:	66 89 e5             	mov    ebp,esp
    372f:	66 83 ec 14          	sub    esp,0x14
D:\OneDrive\Study\Operating Systems\实验\project7\codes/./lib/utilsC.c:396
	for (int i = 0; i < Len; ++i)
    3733:	67 66 c7 45 fc 00 00 	mov    DWORD PTR [ebp-0x4],0x0
    373a:	00 00 
    373c:	e9 ee 00             	jmp    382d <_initialProcessTable+0x103>
D:\OneDrive\Study\Operating Systems\实验\project7\codes/./lib/utilsC.c:398
	{
		processTable[i].id = -1;
    373f:	67 66 8b 55 fc       	mov    edx,DWORD PTR [ebp-0x4]
    3744:	66 89 d0             	mov    eax,edx
    3747:	66 c1 e0 03          	shl    eax,0x3
    374b:	66 01 d0             	add    eax,edx
    374e:	66 c1 e0 04          	shl    eax,0x4
    3752:	66 05 84 b3 00 00    	add    eax,0xb384
    3758:	67 66 c7 00 ff ff ff 	mov    DWORD PTR [eax],0xffffffff
    375f:	ff 
D:\OneDrive\Study\Operating Systems\实验\project7\codes/./lib/utilsC.c:399
		processTable[i].status = Origin;
    3760:	67 66 8b 55 fc       	mov    edx,DWORD PTR [ebp-0x4]
    3765:	66 89 d0             	mov    eax,edx
    3768:	66 c1 e0 03          	shl    eax,0x3
    376c:	66 01 d0             	add    eax,edx
    376f:	66 c1 e0 04          	shl    eax,0x4
    3773:	66 05 ec b3 00 00    	add    eax,0xb3ec
    3779:	67 66 c7 00 00 00 00 	mov    DWORD PTR [eax],0x0
    3780:	00 
D:\OneDrive\Study\Operating Systems\实验\project7\codes/./lib/utilsC.c:400
		processTable[i].fatherID = -1;
    3781:	67 66 8b 55 fc       	mov    edx,DWORD PTR [ebp-0x4]
    3786:	66 89 d0             	mov    eax,edx
    3789:	66 c1 e0 03          	shl    eax,0x3
    378d:	66 01 d0             	add    eax,edx
    3790:	66 c1 e0 04          	shl    eax,0x4
    3794:	66 05 b8 b3 00 00    	add    eax,0xb3b8
    379a:	67 66 c7 00 ff ff ff 	mov    DWORD PTR [eax],0xffffffff
    37a1:	ff 
D:\OneDrive\Study\Operating Systems\实验\project7\codes/./lib/utilsC.c:401
		processTable[i].sonID = -1;
    37a2:	67 66 8b 55 fc       	mov    edx,DWORD PTR [ebp-0x4]
    37a7:	66 89 d0             	mov    eax,edx
    37aa:	66 c1 e0 03          	shl    eax,0x3
    37ae:	66 01 d0             	add    eax,edx
    37b1:	66 c1 e0 04          	shl    eax,0x4
    37b5:	66 05 c0 b3 00 00    	add    eax,0xb3c0
    37bb:	67 66 c7 00 ff ff ff 	mov    DWORD PTR [eax],0xffffffff
    37c2:	ff 
D:\OneDrive\Study\Operating Systems\实验\project7\codes/./lib/utilsC.c:402
		processTable[i].waitProcess = -1;
    37c3:	67 66 8b 55 fc       	mov    edx,DWORD PTR [ebp-0x4]
    37c8:	66 89 d0             	mov    eax,edx
    37cb:	66 c1 e0 03          	shl    eax,0x3
    37cf:	66 01 d0             	add    eax,edx
    37d2:	66 c1 e0 04          	shl    eax,0x4
    37d6:	66 05 bc b3 00 00    	add    eax,0xb3bc
    37dc:	67 66 c7 00 ff ff ff 	mov    DWORD PTR [eax],0xffffffff
    37e3:	ff 
D:\OneDrive\Study\Operating Systems\实验\project7\codes/./lib/utilsC.c:403
		for (int j = 0; j < HeapLimit; ++j)
    37e4:	67 66 c7 45 f8 00 00 	mov    DWORD PTR [ebp-0x8],0x0
    37eb:	00 00 
    37ed:	eb 31                	jmp    3820 <_initialProcessTable+0xf6>
D:\OneDrive\Study\Operating Systems\实验\project7\codes/./lib/utilsC.c:405
		{
			processTable[i].heapArray[j] = -1;
    37ef:	67 66 8b 55 fc       	mov    edx,DWORD PTR [ebp-0x4]
    37f4:	66 89 d0             	mov    eax,edx
    37f7:	66 c1 e0 03          	shl    eax,0x3
    37fb:	66 01 d0             	add    eax,edx
    37fe:	66 c1 e0 02          	shl    eax,0x2
    3802:	67 66 8b 55 f8       	mov    edx,DWORD PTR [ebp-0x8]
    3807:	66 01 d0             	add    eax,edx
    380a:	66 83 c0 18          	add    eax,0x18
    380e:	67 66 c7 04 85 64 b3 	mov    DWORD PTR [eax*4+0xb364],0xffffffff
    3815:	00 00 ff ff ff ff 
D:\OneDrive\Study\Operating Systems\实验\project7\codes/./lib/utilsC.c:403
		for (int j = 0; j < HeapLimit; ++j)
    381b:	67 66 ff 45 f8       	inc    DWORD PTR [ebp-0x8]
    3820:	67 66 83 7d f8 04    	cmp    DWORD PTR [ebp-0x8],0x4
    3826:	7e c7                	jle    37ef <_initialProcessTable+0xc5>
D:\OneDrive\Study\Operating Systems\实验\project7\codes/./lib/utilsC.c:396
	for (int i = 0; i < Len; ++i)
    3828:	67 66 ff 45 fc       	inc    DWORD PTR [ebp-0x4]
    382d:	67 66 83 7d fc 13    	cmp    DWORD PTR [ebp-0x4],0x13
    3833:	0f 8e 08 ff          	jle    373f <_initialProcessTable+0x15>
D:\OneDrive\Study\Operating Systems\实验\project7\codes/./lib/utilsC.c:410
		}

	}

	processTable[0].status = running;
    3837:	66 c7 06 ec b3 02 00 	mov    DWORD PTR ds:0xb3ec,0x2
    383e:	00 00 
D:\OneDrive\Study\Operating Systems\实验\project7\codes/./lib/utilsC.c:411
	strncpy("kernel", processTable[0].name, 6);
    3840:	67 66 c7 44 24 08 06 	mov    DWORD PTR [esp+0x8],0x6
    3847:	00 00 00 
    384a:	67 66 c7 44 24 04 94 	mov    DWORD PTR [esp+0x4],0xb394
    3851:	b3 00 00 
    3854:	67 66 c7 04 24 c4 70 	mov    DWORD PTR [esp],0x70c4
    385b:	00 00 
    385d:	66 e8 9c f5 ff ff    	call   2dff <_strncpy>
D:\OneDrive\Study\Operating Systems\实验\project7\codes/./lib/utilsC.c:412
	processTable[0].id = 0;
    3863:	66 c7 06 84 b3 00 00 	mov    DWORD PTR ds:0xb384,0x0
    386a:	00 00 
D:\OneDrive\Study\Operating Systems\实验\project7\codes/./lib/utilsC.c:413
	processTable[0].pcb.cs = 0x2000;
    386c:	c7 06 7a b3 00 20    	mov    WORD PTR ds:0xb37a,0x2000
D:\OneDrive\Study\Operating Systems\实验\project7\codes/./lib/utilsC.c:414
	processTable[0].pcb.ip = 0x0;
    3872:	c7 06 78 b3 00 00    	mov    WORD PTR ds:0xb378,0x0
D:\OneDrive\Study\Operating Systems\实验\project7\codes/./lib/utilsC.c:415
	processTable[0].pcb.ss_now = 0x2000;
    3878:	c7 06 80 b3 00 20    	mov    WORD PTR ds:0xb380,0x2000
D:\OneDrive\Study\Operating Systems\实验\project7\codes/./lib/utilsC.c:416
	processTable[0].pcb.sp_now = 0xffff;
    387e:	c7 06 7e b3 ff ff    	mov    WORD PTR ds:0xb37e,0xffff
D:\OneDrive\Study\Operating Systems\实验\project7\codes/./lib/utilsC.c:418
	// curProcessId = 1;
}
    3884:	90                   	nop
    3885:	66 c9                	leave  
    3887:	66 c3                	ret    

00003889 <_createProcess>:
createProcess():
D:\OneDrive\Study\Operating Systems\实验\project7\codes/./lib/utilsC.c:423


//size瑕澶у
void createProcess(int id, char * name, int size, int cs, int ip, int ss, int sp, int blockNum)
{
    3889:	66 55                	push   ebp
    388b:	66 89 e5             	mov    ebp,esp
    388e:	66 83 ec 0c          	sub    esp,0xc
D:\OneDrive\Study\Operating Systems\实验\project7\codes/./lib/utilsC.c:424
	processTable[id].id = id;
    3892:	67 66 8b 55 08       	mov    edx,DWORD PTR [ebp+0x8]
    3897:	66 89 d0             	mov    eax,edx
    389a:	66 c1 e0 03          	shl    eax,0x3
    389e:	66 01 d0             	add    eax,edx
    38a1:	66 c1 e0 04          	shl    eax,0x4
    38a5:	67 66 8d 90 84 b3 00 	lea    edx,[eax+0xb384]
    38ac:	00 
    38ad:	67 66 8b 45 08       	mov    eax,DWORD PTR [ebp+0x8]
    38b2:	67 66 89 02          	mov    DWORD PTR [edx],eax
D:\OneDrive\Study\Operating Systems\实验\project7\codes/./lib/utilsC.c:425
	processTable[id].status = ready;
    38b6:	67 66 8b 55 08       	mov    edx,DWORD PTR [ebp+0x8]
    38bb:	66 89 d0             	mov    eax,edx
    38be:	66 c1 e0 03          	shl    eax,0x3
    38c2:	66 01 d0             	add    eax,edx
    38c5:	66 c1 e0 04          	shl    eax,0x4
    38c9:	66 05 ec b3 00 00    	add    eax,0xb3ec
    38cf:	67 66 c7 00 01 00 00 	mov    DWORD PTR [eax],0x1
    38d6:	00 
D:\OneDrive\Study\Operating Systems\实验\project7\codes/./lib/utilsC.c:428
	// int blockNum = findEnoughBlock(size);
	// blockNum = require(size, blockNum);
	processTable[id].blockNum = blockNum;
    38d7:	67 66 8b 55 08       	mov    edx,DWORD PTR [ebp+0x8]
    38dc:	66 89 d0             	mov    eax,edx
    38df:	66 c1 e0 03          	shl    eax,0x3
    38e3:	66 01 d0             	add    eax,edx
    38e6:	66 c1 e0 04          	shl    eax,0x4
    38ea:	67 66 8d 90 88 b3 00 	lea    edx,[eax+0xb388]
    38f1:	00 
    38f2:	67 66 8b 45 24       	mov    eax,DWORD PTR [ebp+0x24]
    38f7:	67 66 89 02          	mov    DWORD PTR [edx],eax
D:\OneDrive\Study\Operating Systems\实验\project7\codes/./lib/utilsC.c:429
	strncpy(name, processTable[id].name, strlen(name));
    38fb:	67 66 8b 45 0c       	mov    eax,DWORD PTR [ebp+0xc]
    3900:	67 66 89 04 24       	mov    DWORD PTR [esp],eax
    3905:	66 e8 0e f3 ff ff    	call   2c19 <_strlen>
    390b:	66 89 c2             	mov    edx,eax
    390e:	67 66 8b 4d 08       	mov    ecx,DWORD PTR [ebp+0x8]
    3913:	66 89 c8             	mov    eax,ecx
    3916:	66 c1 e0 03          	shl    eax,0x3
    391a:	66 01 c8             	add    eax,ecx
    391d:	66 c1 e0 04          	shl    eax,0x4
    3921:	66 83 c0 30          	add    eax,0x30
    3925:	66 05 60 b3 00 00    	add    eax,0xb360
    392b:	66 83 c0 04          	add    eax,0x4
    392f:	67 66 89 54 24 08    	mov    DWORD PTR [esp+0x8],edx
    3935:	67 66 89 44 24 04    	mov    DWORD PTR [esp+0x4],eax
    393b:	67 66 8b 45 0c       	mov    eax,DWORD PTR [ebp+0xc]
    3940:	67 66 89 04 24       	mov    DWORD PTR [esp],eax
    3945:	66 e8 b4 f4 ff ff    	call   2dff <_strncpy>
D:\OneDrive\Study\Operating Systems\实验\project7\codes/./lib/utilsC.c:441
	//浠ヤㄥ浠ｇ宸э规存ユ瑰csss娈碉涓绉婚崇Щ4浣硷浠ヤ娇寰绋搴锛org 0h锛涓瑕org绉婚
	// processTable[id].pcb.cs = segOfPrg + (offsetOfPrg >> 4);
	// processTable[id].pcb.ip = 0;
	// processTable[id].pcb.ss_now = segOfPrg + (offsetOfPrg >> 4);
	// processTable[id].pcb.sp_now = size-1;
	processTable[id].pcb.cs = cs;
    394b:	67 66 8b 45 14       	mov    eax,DWORD PTR [ebp+0x14]
    3950:	66 89 c2             	mov    edx,eax
    3953:	67 66 8b 4d 08       	mov    ecx,DWORD PTR [ebp+0x8]
    3958:	66 89 c8             	mov    eax,ecx
    395b:	66 c1 e0 03          	shl    eax,0x3
    395f:	66 01 c8             	add    eax,ecx
    3962:	66 c1 e0 04          	shl    eax,0x4
    3966:	66 05 7a b3 00 00    	add    eax,0xb37a
    396c:	67 89 10             	mov    WORD PTR [eax],dx
D:\OneDrive\Study\Operating Systems\实验\project7\codes/./lib/utilsC.c:442
	processTable[id].pcb.ip = ip;
    396f:	67 66 8b 45 18       	mov    eax,DWORD PTR [ebp+0x18]
    3974:	66 89 c2             	mov    edx,eax
    3977:	67 66 8b 4d 08       	mov    ecx,DWORD PTR [ebp+0x8]
    397c:	66 89 c8             	mov    eax,ecx
    397f:	66 c1 e0 03          	shl    eax,0x3
    3983:	66 01 c8             	add    eax,ecx
    3986:	66 c1 e0 04          	shl    eax,0x4
    398a:	66 05 78 b3 00 00    	add    eax,0xb378
    3990:	67 89 10             	mov    WORD PTR [eax],dx
D:\OneDrive\Study\Operating Systems\实验\project7\codes/./lib/utilsC.c:443
	processTable[id].pcb.ss_now = ss;
    3993:	67 66 8b 45 1c       	mov    eax,DWORD PTR [ebp+0x1c]
    3998:	66 89 c2             	mov    edx,eax
    399b:	67 66 8b 4d 08       	mov    ecx,DWORD PTR [ebp+0x8]
    39a0:	66 89 c8             	mov    eax,ecx
    39a3:	66 c1 e0 03          	shl    eax,0x3
    39a7:	66 01 c8             	add    eax,ecx
    39aa:	66 c1 e0 04          	shl    eax,0x4
    39ae:	66 05 80 b3 00 00    	add    eax,0xb380
    39b4:	67 89 10             	mov    WORD PTR [eax],dx
D:\OneDrive\Study\Operating Systems\实验\project7\codes/./lib/utilsC.c:444
	processTable[id].pcb.sp_now = sp;
    39b7:	67 66 8b 45 20       	mov    eax,DWORD PTR [ebp+0x20]
    39bc:	66 89 c2             	mov    edx,eax
    39bf:	67 66 8b 4d 08       	mov    ecx,DWORD PTR [ebp+0x8]
    39c4:	66 89 c8             	mov    eax,ecx
    39c7:	66 c1 e0 03          	shl    eax,0x3
    39cb:	66 01 c8             	add    eax,ecx
    39ce:	66 c1 e0 04          	shl    eax,0x4
    39d2:	66 05 7e b3 00 00    	add    eax,0xb37e
    39d8:	67 89 10             	mov    WORD PTR [eax],dx
D:\OneDrive\Study\Operating Systems\实验\project7\codes/./lib/utilsC.c:445
	processTable[id].size = size;
    39db:	67 66 8b 55 08       	mov    edx,DWORD PTR [ebp+0x8]
    39e0:	66 89 d0             	mov    eax,edx
    39e3:	66 c1 e0 03          	shl    eax,0x3
    39e7:	66 01 d0             	add    eax,edx
    39ea:	66 c1 e0 04          	shl    eax,0x4
    39ee:	67 66 8d 90 90 b3 00 	lea    edx,[eax+0xb390]
    39f5:	00 
    39f6:	67 66 8b 45 10       	mov    eax,DWORD PTR [ebp+0x10]
    39fb:	67 66 89 02          	mov    DWORD PTR [edx],eax
D:\OneDrive\Study\Operating Systems\实验\project7\codes/./lib/utilsC.c:447
	// loadReal(lmaddress, fileSize, offsetOfPrg, segOfPrg);
}
    39ff:	90                   	nop
    3a00:	66 c9                	leave  
    3a02:	66 c3                	ret    

00003a04 <_block>:
block():
D:\OneDrive\Study\Operating Systems\实验\project7\codes/./lib/utilsC.c:452

// 琚搁诲 waitProcess = -1
int quesize, tmp;
void block(int id)
{
    3a04:	66 55                	push   ebp
    3a06:	66 89 e5             	mov    ebp,esp
    3a09:	66 83 ec 0c          	sub    esp,0xc
D:\OneDrive\Study\Operating Systems\实验\project7\codes/./lib/utilsC.c:453
	__asm__("cli\n");
    3a0d:	fa                   	cli    
D:\OneDrive\Study\Operating Systems\实验\project7\codes/./lib/utilsC.c:454
	processTable[id].status = blocked;
    3a0e:	67 66 8b 55 08       	mov    edx,DWORD PTR [ebp+0x8]
    3a13:	66 89 d0             	mov    eax,edx
    3a16:	66 c1 e0 03          	shl    eax,0x3
    3a1a:	66 01 d0             	add    eax,edx
    3a1d:	66 c1 e0 04          	shl    eax,0x4
    3a21:	66 05 ec b3 00 00    	add    eax,0xb3ec
    3a27:	67 66 c7 00 03 00 00 	mov    DWORD PTR [eax],0x3
    3a2e:	00 
D:\OneDrive\Study\Operating Systems\实验\project7\codes/./lib/utilsC.c:455
	enqueue(&BlockedQue, id);
    3a2f:	67 66 8b 45 08       	mov    eax,DWORD PTR [ebp+0x8]
    3a34:	67 66 89 44 24 04    	mov    DWORD PTR [esp+0x4],eax
    3a3a:	67 66 c7 04 24 a0 96 	mov    DWORD PTR [esp],0x96a0
    3a41:	00 00 
    3a43:	66 e8 24 28 00 00    	call   626d <_enqueue>
D:\OneDrive\Study\Operating Systems\实验\project7\codes/./lib/utilsC.c:456
	quesize = size(&ReadyQue);
    3a49:	67 66 c7 04 24 c0 be 	mov    DWORD PTR [esp],0xbec0
    3a50:	00 00 
    3a52:	66 e8 cf 27 00 00    	call   6227 <_size>
    3a58:	66 a3 20 bf          	mov    ds:0xbf20,eax
D:\OneDrive\Study\Operating Systems\实验\project7\codes/./lib/utilsC.c:457
	for (int i = 0; i < quesize; ++i)
    3a5c:	67 66 c7 45 fc 00 00 	mov    DWORD PTR [ebp-0x4],0x0
    3a63:	00 00 
    3a65:	eb 42                	jmp    3aa9 <_block+0xa5>
D:\OneDrive\Study\Operating Systems\实验\project7\codes/./lib/utilsC.c:459
	{
		dequeue(&ReadyQue, &tmp);
    3a67:	67 66 c7 44 24 04 28 	mov    DWORD PTR [esp+0x4],0xbf28
    3a6e:	bf 00 00 
    3a71:	67 66 c7 04 24 c0 be 	mov    DWORD PTR [esp],0xbec0
    3a78:	00 00 
    3a7a:	66 e8 5a 28 00 00    	call   62da <_dequeue>
D:\OneDrive\Study\Operating Systems\实验\project7\codes/./lib/utilsC.c:460
		if (id != tmp)
    3a80:	66 a1 28 bf          	mov    eax,ds:0xbf28
    3a84:	67 66 39 45 08       	cmp    DWORD PTR [ebp+0x8],eax
    3a89:	74 19                	je     3aa4 <_block+0xa0>
D:\OneDrive\Study\Operating Systems\实验\project7\codes/./lib/utilsC.c:461
			enqueue(&ReadyQue, tmp);
    3a8b:	66 a1 28 bf          	mov    eax,ds:0xbf28
    3a8f:	67 66 89 44 24 04    	mov    DWORD PTR [esp+0x4],eax
    3a95:	67 66 c7 04 24 c0 be 	mov    DWORD PTR [esp],0xbec0
    3a9c:	00 00 
    3a9e:	66 e8 c9 27 00 00    	call   626d <_enqueue>
D:\OneDrive\Study\Operating Systems\实验\project7\codes/./lib/utilsC.c:457
	for (int i = 0; i < quesize; ++i)
    3aa4:	67 66 ff 45 fc       	inc    DWORD PTR [ebp-0x4]
    3aa9:	66 a1 20 bf          	mov    eax,ds:0xbf20
    3aad:	67 66 39 45 fc       	cmp    DWORD PTR [ebp-0x4],eax
    3ab2:	7c b3                	jl     3a67 <_block+0x63>
D:\OneDrive\Study\Operating Systems\实验\project7\codes/./lib/utilsC.c:463
	}
	__asm__("sti\n");
    3ab4:	fb                   	sti    
D:\OneDrive\Study\Operating Systems\实验\project7\codes/./lib/utilsC.c:464
}
    3ab5:	90                   	nop
    3ab6:	66 c9                	leave  
    3ab8:	66 c3                	ret    

00003aba <_wakeup>:
wakeup():
D:\OneDrive\Study\Operating Systems\实验\project7\codes/./lib/utilsC.c:467

void wakeup(int id)
{
    3aba:	66 55                	push   ebp
    3abc:	66 89 e5             	mov    ebp,esp
    3abf:	66 83 ec 0c          	sub    esp,0xc
D:\OneDrive\Study\Operating Systems\实验\project7\codes/./lib/utilsC.c:468
	__asm__("cli\n");
    3ac3:	fa                   	cli    
D:\OneDrive\Study\Operating Systems\实验\project7\codes/./lib/utilsC.c:469
	processTable[id].status = ready;
    3ac4:	67 66 8b 55 08       	mov    edx,DWORD PTR [ebp+0x8]
    3ac9:	66 89 d0             	mov    eax,edx
    3acc:	66 c1 e0 03          	shl    eax,0x3
    3ad0:	66 01 d0             	add    eax,edx
    3ad3:	66 c1 e0 04          	shl    eax,0x4
    3ad7:	66 05 ec b3 00 00    	add    eax,0xb3ec
    3add:	67 66 c7 00 01 00 00 	mov    DWORD PTR [eax],0x1
    3ae4:	00 
D:\OneDrive\Study\Operating Systems\实验\project7\codes/./lib/utilsC.c:470
	enqueue(&ReadyQue, id);
    3ae5:	67 66 8b 45 08       	mov    eax,DWORD PTR [ebp+0x8]
    3aea:	67 66 89 44 24 04    	mov    DWORD PTR [esp+0x4],eax
    3af0:	67 66 c7 04 24 c0 be 	mov    DWORD PTR [esp],0xbec0
    3af7:	00 00 
    3af9:	66 e8 6e 27 00 00    	call   626d <_enqueue>
D:\OneDrive\Study\Operating Systems\实验\project7\codes/./lib/utilsC.c:471
	quesize = size(&BlockedQue);
    3aff:	67 66 c7 04 24 a0 96 	mov    DWORD PTR [esp],0x96a0
    3b06:	00 00 
    3b08:	66 e8 19 27 00 00    	call   6227 <_size>
    3b0e:	66 a3 20 bf          	mov    ds:0xbf20,eax
D:\OneDrive\Study\Operating Systems\实验\project7\codes/./lib/utilsC.c:472
	for (int i = 0; i < quesize; ++i)
    3b12:	67 66 c7 45 fc 00 00 	mov    DWORD PTR [ebp-0x4],0x0
    3b19:	00 00 
    3b1b:	eb 42                	jmp    3b5f <_wakeup+0xa5>
D:\OneDrive\Study\Operating Systems\实验\project7\codes/./lib/utilsC.c:474
	{
		dequeue(&BlockedQue, &tmp);
    3b1d:	67 66 c7 44 24 04 28 	mov    DWORD PTR [esp+0x4],0xbf28
    3b24:	bf 00 00 
    3b27:	67 66 c7 04 24 a0 96 	mov    DWORD PTR [esp],0x96a0
    3b2e:	00 00 
    3b30:	66 e8 a4 27 00 00    	call   62da <_dequeue>
D:\OneDrive\Study\Operating Systems\实验\project7\codes/./lib/utilsC.c:475
		if (id != tmp)
    3b36:	66 a1 28 bf          	mov    eax,ds:0xbf28
    3b3a:	67 66 39 45 08       	cmp    DWORD PTR [ebp+0x8],eax
    3b3f:	74 19                	je     3b5a <_wakeup+0xa0>
D:\OneDrive\Study\Operating Systems\实验\project7\codes/./lib/utilsC.c:476
			enqueue(&BlockedQue, tmp);
    3b41:	66 a1 28 bf          	mov    eax,ds:0xbf28
    3b45:	67 66 89 44 24 04    	mov    DWORD PTR [esp+0x4],eax
    3b4b:	67 66 c7 04 24 a0 96 	mov    DWORD PTR [esp],0x96a0
    3b52:	00 00 
    3b54:	66 e8 13 27 00 00    	call   626d <_enqueue>
D:\OneDrive\Study\Operating Systems\实验\project7\codes/./lib/utilsC.c:472
	for (int i = 0; i < quesize; ++i)
    3b5a:	67 66 ff 45 fc       	inc    DWORD PTR [ebp-0x4]
    3b5f:	66 a1 20 bf          	mov    eax,ds:0xbf20
    3b63:	67 66 39 45 fc       	cmp    DWORD PTR [ebp-0x4],eax
    3b68:	7c b3                	jl     3b1d <_wakeup+0x63>
D:\OneDrive\Study\Operating Systems\实验\project7\codes/./lib/utilsC.c:478
	}
	__asm__("sti\n");
    3b6a:	fb                   	sti    
D:\OneDrive\Study\Operating Systems\实验\project7\codes/./lib/utilsC.c:479
}
    3b6b:	90                   	nop
    3b6c:	66 c9                	leave  
    3b6e:	66 c3                	ret    

00003b70 <_schedule>:
schedule():
D:\OneDrive\Study\Operating Systems\实验\project7\codes/./lib/utilsC.c:485

// 娉ㄦ褰舵锛诲洪撅
// 褰舵芥runningblocked
int next;
void schedule()
{
    3b70:	66 55                	push   ebp
    3b72:	66 89 e5             	mov    ebp,esp
    3b75:	66 83 ec 0c          	sub    esp,0xc
D:\OneDrive\Study\Operating Systems\实验\project7\codes/./lib/utilsC.c:486
	int i = 0;
    3b79:	67 66 c7 45 fc 00 00 	mov    DWORD PTR [ebp-0x4],0x0
    3b80:	00 00 
D:\OneDrive\Study\Operating Systems\实验\project7\codes/./lib/utilsC.c:487
	if (runSub == 1 && size(&ReadyQue) > 1)
    3b82:	66 a1 d8 92          	mov    eax,ds:0x92d8
    3b86:	66 83 f8 01          	cmp    eax,0x1
    3b8a:	0f 85 e4 00          	jne    3c72 <_schedule+0x102>
    3b8e:	67 66 c7 04 24 c0 be 	mov    DWORD PTR [esp],0xbec0
    3b95:	00 00 
    3b97:	66 e8 8a 26 00 00    	call   6227 <_size>
    3b9d:	66 83 f8 01          	cmp    eax,0x1
    3ba1:	0f 8e cd 00          	jle    3c72 <_schedule+0x102>
D:\OneDrive\Study\Operating Systems\实验\project7\codes/./lib/utilsC.c:491
	{
		// 娉ㄦ哄舵
		do {
			dequeue(&ReadyQue, &next);
    3ba5:	67 66 c7 44 24 04 68 	mov    DWORD PTR [esp+0x4],0xbf68
    3bac:	bf 00 00 
    3baf:	67 66 c7 04 24 c0 be 	mov    DWORD PTR [esp],0xbec0
    3bb6:	00 00 
    3bb8:	66 e8 1c 27 00 00    	call   62da <_dequeue>
D:\OneDrive\Study\Operating Systems\实验\project7\codes/./lib/utilsC.c:492
			if (next == 0) {
    3bbe:	66 a1 68 bf          	mov    eax,ds:0xbf68
    3bc2:	66 85 c0             	test   eax,eax
    3bc5:	75 19                	jne    3be0 <_schedule+0x70>
D:\OneDrive\Study\Operating Systems\实验\project7\codes/./lib/utilsC.c:493
				enqueue(&ReadyQue, next);
    3bc7:	66 a1 68 bf          	mov    eax,ds:0xbf68
    3bcb:	67 66 89 44 24 04    	mov    DWORD PTR [esp+0x4],eax
    3bd1:	67 66 c7 04 24 c0 be 	mov    DWORD PTR [esp],0xbec0
    3bd8:	00 00 
    3bda:	66 e8 8d 26 00 00    	call   626d <_enqueue>
D:\OneDrive\Study\Operating Systems\实验\project7\codes/./lib/utilsC.c:495
			}
		} while (next == 0);
    3be0:	66 a1 68 bf          	mov    eax,ds:0xbf68
    3be4:	66 85 c0             	test   eax,eax
    3be7:	74 bc                	je     3ba5 <_schedule+0x35>
D:\OneDrive\Study\Operating Systems\实验\project7\codes/./lib/utilsC.c:496
		processTable[next].status = running;
    3be9:	66 8b 16 68 bf       	mov    edx,DWORD PTR ds:0xbf68
    3bee:	66 89 d0             	mov    eax,edx
    3bf1:	66 c1 e0 03          	shl    eax,0x3
    3bf5:	66 01 d0             	add    eax,edx
    3bf8:	66 c1 e0 04          	shl    eax,0x4
    3bfc:	66 05 ec b3 00 00    	add    eax,0xb3ec
    3c02:	67 66 c7 00 02 00 00 	mov    DWORD PTR [eax],0x2
    3c09:	00 
D:\OneDrive\Study\Operating Systems\实验\project7\codes/./lib/utilsC.c:497
		if (processTable[curProcessId].status == running) {
    3c0a:	66 8b 16 a0 be       	mov    edx,DWORD PTR ds:0xbea0
    3c0f:	66 89 d0             	mov    eax,edx
    3c12:	66 c1 e0 03          	shl    eax,0x3
    3c16:	66 01 d0             	add    eax,edx
    3c19:	66 c1 e0 04          	shl    eax,0x4
    3c1d:	66 05 ec b3 00 00    	add    eax,0xb3ec
    3c23:	67 66 8b 00          	mov    eax,DWORD PTR [eax]
    3c27:	66 83 f8 02          	cmp    eax,0x2
    3c2b:	75 3a                	jne    3c67 <_schedule+0xf7>
D:\OneDrive\Study\Operating Systems\实验\project7\codes/./lib/utilsC.c:498
			processTable[curProcessId].status = ready;
    3c2d:	66 8b 16 a0 be       	mov    edx,DWORD PTR ds:0xbea0
    3c32:	66 89 d0             	mov    eax,edx
    3c35:	66 c1 e0 03          	shl    eax,0x3
    3c39:	66 01 d0             	add    eax,edx
    3c3c:	66 c1 e0 04          	shl    eax,0x4
    3c40:	66 05 ec b3 00 00    	add    eax,0xb3ec
    3c46:	67 66 c7 00 01 00 00 	mov    DWORD PTR [eax],0x1
    3c4d:	00 
D:\OneDrive\Study\Operating Systems\实验\project7\codes/./lib/utilsC.c:499
			enqueue(&ReadyQue, curProcessId);
    3c4e:	66 a1 a0 be          	mov    eax,ds:0xbea0
    3c52:	67 66 89 44 24 04    	mov    DWORD PTR [esp+0x4],eax
    3c58:	67 66 c7 04 24 c0 be 	mov    DWORD PTR [esp],0xbec0
    3c5f:	00 00 
    3c61:	66 e8 06 26 00 00    	call   626d <_enqueue>
D:\OneDrive\Study\Operating Systems\实验\project7\codes/./lib/utilsC.c:501
		}
		curProcessId = next;
    3c67:	66 a1 68 bf          	mov    eax,ds:0xbf68
    3c6b:	66 a3 a0 be          	mov    ds:0xbea0,eax
    3c6f:	e9 1e 01             	jmp    3d90 <_schedule+0x220>
D:\OneDrive\Study\Operating Systems\实验\project7\codes/./lib/utilsC.c:503
	}
	else if (runSub == 1 && size(&ReadyQue) == 1)
    3c72:	66 a1 d8 92          	mov    eax,ds:0x92d8
    3c76:	66 83 f8 01          	cmp    eax,0x1
    3c7a:	0f 85 e8 00          	jne    3d66 <_schedule+0x1f6>
    3c7e:	67 66 c7 04 24 c0 be 	mov    DWORD PTR [esp],0xbec0
    3c85:	00 00 
    3c87:	66 e8 9a 25 00 00    	call   6227 <_size>
    3c8d:	66 83 f8 01          	cmp    eax,0x1
    3c91:	0f 85 d1 00          	jne    3d66 <_schedule+0x1f6>
D:\OneDrive\Study\Operating Systems\实验\project7\codes/./lib/utilsC.c:506
	{
		// 浠ring0ring1锛浠ring1ring0涓
		dequeue(&ReadyQue, &next);
    3c95:	67 66 c7 44 24 04 68 	mov    DWORD PTR [esp+0x4],0xbf68
    3c9c:	bf 00 00 
    3c9f:	67 66 c7 04 24 c0 be 	mov    DWORD PTR [esp],0xbec0
    3ca6:	00 00 
    3ca8:	66 e8 2c 26 00 00    	call   62da <_dequeue>
D:\OneDrive\Study\Operating Systems\实验\project7\codes/./lib/utilsC.c:507
		if (next != 0) {
    3cae:	66 a1 68 bf          	mov    eax,ds:0xbf68
    3cb2:	66 85 c0             	test   eax,eax
    3cb5:	74 45                	je     3cfc <_schedule+0x18c>
D:\OneDrive\Study\Operating Systems\实验\project7\codes/./lib/utilsC.c:508
			processTable[next].status = running;
    3cb7:	66 8b 16 68 bf       	mov    edx,DWORD PTR ds:0xbf68
    3cbc:	66 89 d0             	mov    eax,edx
    3cbf:	66 c1 e0 03          	shl    eax,0x3
    3cc3:	66 01 d0             	add    eax,edx
    3cc6:	66 c1 e0 04          	shl    eax,0x4
    3cca:	66 05 ec b3 00 00    	add    eax,0xb3ec
    3cd0:	67 66 c7 00 02 00 00 	mov    DWORD PTR [eax],0x2
    3cd7:	00 
D:\OneDrive\Study\Operating Systems\实验\project7\codes/./lib/utilsC.c:509
			enqueue(&ReadyQue, curProcessId);
    3cd8:	66 a1 a0 be          	mov    eax,ds:0xbea0
    3cdc:	67 66 89 44 24 04    	mov    DWORD PTR [esp+0x4],eax
    3ce2:	67 66 c7 04 24 c0 be 	mov    DWORD PTR [esp],0xbec0
    3ce9:	00 00 
    3ceb:	66 e8 7c 25 00 00    	call   626d <_enqueue>
D:\OneDrive\Study\Operating Systems\实验\project7\codes/./lib/utilsC.c:510
			curProcessId = next;
    3cf1:	66 a1 68 bf          	mov    eax,ds:0xbf68
    3cf5:	66 a3 a0 be          	mov    ds:0xbea0,eax
D:\OneDrive\Study\Operating Systems\实验\project7\codes/./lib/utilsC.c:507
		if (next != 0) {
    3cf9:	e9 94 00             	jmp    3d90 <_schedule+0x220>
D:\OneDrive\Study\Operating Systems\实验\project7\codes/./lib/utilsC.c:511
		} else if (processTable[curProcessId].status == running) {
    3cfc:	66 8b 16 a0 be       	mov    edx,DWORD PTR ds:0xbea0
    3d01:	66 89 d0             	mov    eax,edx
    3d04:	66 c1 e0 03          	shl    eax,0x3
    3d08:	66 01 d0             	add    eax,edx
    3d0b:	66 c1 e0 04          	shl    eax,0x4
    3d0f:	66 05 ec b3 00 00    	add    eax,0xb3ec
    3d15:	67 66 8b 00          	mov    eax,DWORD PTR [eax]
    3d19:	66 83 f8 02          	cmp    eax,0x2
    3d1d:	75 1b                	jne    3d3a <_schedule+0x1ca>
D:\OneDrive\Study\Operating Systems\实验\project7\codes/./lib/utilsC.c:512
			enqueue(&ReadyQue, next);
    3d1f:	66 a1 68 bf          	mov    eax,ds:0xbf68
    3d23:	67 66 89 44 24 04    	mov    DWORD PTR [esp+0x4],eax
    3d29:	67 66 c7 04 24 c0 be 	mov    DWORD PTR [esp],0xbec0
    3d30:	00 00 
    3d32:	66 e8 35 25 00 00    	call   626d <_enqueue>
D:\OneDrive\Study\Operating Systems\实验\project7\codes/./lib/utilsC.c:507
		if (next != 0) {
    3d38:	eb 56                	jmp    3d90 <_schedule+0x220>
D:\OneDrive\Study\Operating Systems\实验\project7\codes/./lib/utilsC.c:514
		} else {
			curProcessId = 0;
    3d3a:	66 c7 06 a0 be 00 00 	mov    DWORD PTR ds:0xbea0,0x0
    3d41:	00 00 
D:\OneDrive\Study\Operating Systems\实验\project7\codes/./lib/utilsC.c:515
			processTable[curProcessId].status = running;
    3d43:	66 8b 16 a0 be       	mov    edx,DWORD PTR ds:0xbea0
    3d48:	66 89 d0             	mov    eax,edx
    3d4b:	66 c1 e0 03          	shl    eax,0x3
    3d4f:	66 01 d0             	add    eax,edx
    3d52:	66 c1 e0 04          	shl    eax,0x4
    3d56:	66 05 ec b3 00 00    	add    eax,0xb3ec
    3d5c:	67 66 c7 00 02 00 00 	mov    DWORD PTR [eax],0x2
    3d63:	00 
D:\OneDrive\Study\Operating Systems\实验\project7\codes/./lib/utilsC.c:507
		if (next != 0) {
    3d64:	eb 2a                	jmp    3d90 <_schedule+0x220>
D:\OneDrive\Study\Operating Systems\实验\project7\codes/./lib/utilsC.c:520
		}
	}
	else
	{
		curProcessId = 0;
    3d66:	66 c7 06 a0 be 00 00 	mov    DWORD PTR ds:0xbea0,0x0
    3d6d:	00 00 
D:\OneDrive\Study\Operating Systems\实验\project7\codes/./lib/utilsC.c:521
		processTable[curProcessId].status = running;
    3d6f:	66 8b 16 a0 be       	mov    edx,DWORD PTR ds:0xbea0
    3d74:	66 89 d0             	mov    eax,edx
    3d77:	66 c1 e0 03          	shl    eax,0x3
    3d7b:	66 01 d0             	add    eax,edx
    3d7e:	66 c1 e0 04          	shl    eax,0x4
    3d82:	66 05 ec b3 00 00    	add    eax,0xb3ec
    3d88:	67 66 c7 00 02 00 00 	mov    DWORD PTR [eax],0x2
    3d8f:	00 
D:\OneDrive\Study\Operating Systems\实验\project7\codes/./lib/utilsC.c:523
	}
}
    3d90:	90                   	nop
    3d91:	66 c9                	leave  
    3d93:	66 c3                	ret    

00003d95 <_do_fork>:
do_fork():
D:\OneDrive\Study\Operating Systems\实验\project7\codes/./lib/utilsC.c:530

//璁板充腑
//杩ヤ宸茬save宸憋哄讳restart板澶杩绋
char name[40];
void do_fork()
{
    3d95:	66 55                	push   ebp
    3d97:	66 89 e5             	mov    ebp,esp
    3d9a:	66 83 ec 48          	sub    esp,0x48
D:\OneDrive\Study\Operating Systems\实验\project7\codes/./lib/utilsC.c:531
	int stackSize = 0x300;
    3d9e:	67 66 c7 45 fc 00 03 	mov    DWORD PTR [ebp-0x4],0x300
    3da5:	00 00 
D:\OneDrive\Study\Operating Systems\实验\project7\codes/./lib/utilsC.c:532
	strncpy(processTable[curProcessId].name, name, strlen(processTable[curProcessId].name));
    3da7:	66 8b 16 a0 be       	mov    edx,DWORD PTR ds:0xbea0
    3dac:	66 89 d0             	mov    eax,edx
    3daf:	66 c1 e0 03          	shl    eax,0x3
    3db3:	66 01 d0             	add    eax,edx
    3db6:	66 c1 e0 04          	shl    eax,0x4
    3dba:	66 83 c0 30          	add    eax,0x30
    3dbe:	66 05 60 b3 00 00    	add    eax,0xb360
    3dc4:	66 83 c0 04          	add    eax,0x4
    3dc8:	67 66 89 04 24       	mov    DWORD PTR [esp],eax
    3dcd:	66 e8 46 ee ff ff    	call   2c19 <_strlen>
    3dd3:	66 89 c2             	mov    edx,eax
    3dd6:	66 8b 0e a0 be       	mov    ecx,DWORD PTR ds:0xbea0
    3ddb:	66 89 c8             	mov    eax,ecx
    3dde:	66 c1 e0 03          	shl    eax,0x3
    3de2:	66 01 c8             	add    eax,ecx
    3de5:	66 c1 e0 04          	shl    eax,0x4
    3de9:	66 83 c0 30          	add    eax,0x30
    3ded:	66 05 60 b3 00 00    	add    eax,0xb360
    3df3:	66 83 c0 04          	add    eax,0x4
    3df7:	67 66 89 54 24 08    	mov    DWORD PTR [esp+0x8],edx
    3dfd:	67 66 c7 44 24 04 40 	mov    DWORD PTR [esp+0x4],0xbf40
    3e04:	bf 00 00 
    3e07:	67 66 89 04 24       	mov    DWORD PTR [esp],eax
    3e0c:	66 e8 ed ef ff ff    	call   2dff <_strncpy>
D:\OneDrive\Study\Operating Systems\实验\project7\codes/./lib/utilsC.c:533
	concate(name, "Sub");
    3e12:	67 66 c7 44 24 04 cb 	mov    DWORD PTR [esp+0x4],0x70cb
    3e19:	70 00 00 
    3e1c:	67 66 c7 04 24 40 bf 	mov    DWORD PTR [esp],0xbf40
    3e23:	00 00 
    3e25:	66 e8 24 ee ff ff    	call   2c4f <_concate>
D:\OneDrive\Study\Operating Systems\实验\project7\codes/./lib/utilsC.c:534
	int blockNum = findEnoughBlock(stackSize);
    3e2b:	67 66 8b 45 fc       	mov    eax,DWORD PTR [ebp-0x4]
    3e30:	67 66 89 04 24       	mov    DWORD PTR [esp],eax
    3e35:	66 e8 31 1c 00 00    	call   5a6c <_findEnoughBlock>
    3e3b:	67 66 89 45 f8       	mov    DWORD PTR [ebp-0x8],eax
D:\OneDrive\Study\Operating Systems\实验\project7\codes/./lib/utilsC.c:535
	blockNum = require(stackSize, blockNum);
    3e40:	67 66 8b 45 f8       	mov    eax,DWORD PTR [ebp-0x8]
    3e45:	67 66 89 44 24 04    	mov    DWORD PTR [esp+0x4],eax
    3e4b:	67 66 8b 45 fc       	mov    eax,DWORD PTR [ebp-0x4]
    3e50:	67 66 89 04 24       	mov    DWORD PTR [esp],eax
    3e55:	66 e8 ba 1c 00 00    	call   5b15 <_require>
    3e5b:	67 66 89 45 f8       	mov    DWORD PTR [ebp-0x8],eax
D:\OneDrive\Study\Operating Systems\实验\project7\codes/./lib/utilsC.c:537
	int segOfSour, segOfDes;
	int segMask = 0xf0000;
    3e60:	67 66 c7 45 f4 00 00 	mov    DWORD PTR [ebp-0xc],0xf0000
    3e67:	0f 00 
D:\OneDrive\Study\Operating Systems\实验\project7\codes/./lib/utilsC.c:538
	int offsetMask = 0x0000ffff;
    3e69:	67 66 c7 45 f0 ff ff 	mov    DWORD PTR [ebp-0x10],0xffff
    3e70:	00 00 
D:\OneDrive\Study\Operating Systems\实验\project7\codes/./lib/utilsC.c:539
	segOfDes = (memoryTable[blockNum].beginAddr & segMask) >> 4;
    3e72:	67 66 8b 55 f8       	mov    edx,DWORD PTR [ebp-0x8]
    3e77:	66 89 d0             	mov    eax,edx
    3e7a:	66 01 c0             	add    eax,eax
    3e7d:	66 01 d0             	add    eax,edx
    3e80:	66 c1 e0 03          	shl    eax,0x3
    3e84:	66 05 e0 92 00 00    	add    eax,0x92e0
    3e8a:	67 66 8b 00          	mov    eax,DWORD PTR [eax]
    3e8e:	67 66 23 45 f4       	and    eax,DWORD PTR [ebp-0xc]
    3e93:	66 c1 f8 04          	sar    eax,0x4
    3e97:	67 66 89 45 ec       	mov    DWORD PTR [ebp-0x14],eax
D:\OneDrive\Study\Operating Systems\实验\project7\codes/./lib/utilsC.c:540
	segOfSour = ((memoryTable[processTable[curProcessId].blockNum].endAddr - stackSize + 1) & segMask) >> 4;
    3e9c:	66 8b 16 a0 be       	mov    edx,DWORD PTR ds:0xbea0
    3ea1:	66 89 d0             	mov    eax,edx
    3ea4:	66 c1 e0 03          	shl    eax,0x3
    3ea8:	66 01 d0             	add    eax,edx
    3eab:	66 c1 e0 04          	shl    eax,0x4
    3eaf:	66 05 88 b3 00 00    	add    eax,0xb388
    3eb5:	67 66 8b 10          	mov    edx,DWORD PTR [eax]
    3eb9:	66 89 d0             	mov    eax,edx
    3ebc:	66 01 c0             	add    eax,eax
    3ebf:	66 01 d0             	add    eax,edx
    3ec2:	66 c1 e0 03          	shl    eax,0x3
    3ec6:	66 05 e4 92 00 00    	add    eax,0x92e4
    3ecc:	67 66 8b 00          	mov    eax,DWORD PTR [eax]
    3ed0:	67 66 2b 45 fc       	sub    eax,DWORD PTR [ebp-0x4]
    3ed5:	66 40                	inc    eax
    3ed7:	67 66 23 45 f4       	and    eax,DWORD PTR [ebp-0xc]
    3edc:	66 c1 f8 04          	sar    eax,0x4
    3ee0:	67 66 89 45 e8       	mov    DWORD PTR [ebp-0x18],eax
D:\OneDrive\Study\Operating Systems\实验\project7\codes/./lib/utilsC.c:541
	int cs = processTable[curProcessId].pcb.cs, ip = processTable[curProcessId].pcb.ip;
    3ee5:	66 8b 16 a0 be       	mov    edx,DWORD PTR ds:0xbea0
    3eea:	66 89 d0             	mov    eax,edx
    3eed:	66 c1 e0 03          	shl    eax,0x3
    3ef1:	66 01 d0             	add    eax,edx
    3ef4:	66 c1 e0 04          	shl    eax,0x4
    3ef8:	66 05 7a b3 00 00    	add    eax,0xb37a
    3efe:	67 8b 00             	mov    ax,WORD PTR [eax]
    3f01:	66 98                	cwde   
    3f03:	67 66 89 45 e4       	mov    DWORD PTR [ebp-0x1c],eax
    3f08:	66 8b 16 a0 be       	mov    edx,DWORD PTR ds:0xbea0
    3f0d:	66 89 d0             	mov    eax,edx
    3f10:	66 c1 e0 03          	shl    eax,0x3
    3f14:	66 01 d0             	add    eax,edx
    3f17:	66 c1 e0 04          	shl    eax,0x4
    3f1b:	66 05 78 b3 00 00    	add    eax,0xb378
    3f21:	67 66 8b 00          	mov    eax,DWORD PTR [eax]
    3f25:	66 98                	cwde   
    3f27:	67 66 89 45 e0       	mov    DWORD PTR [ebp-0x20],eax
D:\OneDrive\Study\Operating Systems\实验\project7\codes/./lib/utilsC.c:542
	int ss = segOfDes,
    3f2c:	67 66 8b 45 ec       	mov    eax,DWORD PTR [ebp-0x14]
    3f31:	67 66 89 45 dc       	mov    DWORD PTR [ebp-0x24],eax
D:\OneDrive\Study\Operating Systems\实验\project7\codes/./lib/utilsC.c:543
	    sp = ((memoryTable[blockNum].beginAddr)&offsetMask) + processTable[curProcessId].pcb.sp_now - ((memoryTable[processTable[curProcessId].blockNum].endAddr - stackSize + 1)&offsetMask);
    3f36:	67 66 8b 55 f8       	mov    edx,DWORD PTR [ebp-0x8]
    3f3b:	66 89 d0             	mov    eax,edx
    3f3e:	66 01 c0             	add    eax,eax
    3f41:	66 01 d0             	add    eax,edx
    3f44:	66 c1 e0 03          	shl    eax,0x3
    3f48:	66 05 e0 92 00 00    	add    eax,0x92e0
    3f4e:	67 66 8b 00          	mov    eax,DWORD PTR [eax]
    3f52:	67 66 23 45 f0       	and    eax,DWORD PTR [ebp-0x10]
    3f57:	66 89 c1             	mov    ecx,eax
    3f5a:	66 8b 16 a0 be       	mov    edx,DWORD PTR ds:0xbea0
    3f5f:	66 89 d0             	mov    eax,edx
    3f62:	66 c1 e0 03          	shl    eax,0x3
    3f66:	66 01 d0             	add    eax,edx
    3f69:	66 c1 e0 04          	shl    eax,0x4
    3f6d:	66 05 7e b3 00 00    	add    eax,0xb37e
    3f73:	67 8b 00             	mov    ax,WORD PTR [eax]
    3f76:	66 98                	cwde   
    3f78:	66 01 c1             	add    ecx,eax
    3f7b:	66 8b 16 a0 be       	mov    edx,DWORD PTR ds:0xbea0
    3f80:	66 89 d0             	mov    eax,edx
    3f83:	66 c1 e0 03          	shl    eax,0x3
    3f87:	66 01 d0             	add    eax,edx
    3f8a:	66 c1 e0 04          	shl    eax,0x4
    3f8e:	66 05 88 b3 00 00    	add    eax,0xb388
    3f94:	67 66 8b 10          	mov    edx,DWORD PTR [eax]
    3f98:	66 89 d0             	mov    eax,edx
    3f9b:	66 01 c0             	add    eax,eax
    3f9e:	66 01 d0             	add    eax,edx
    3fa1:	66 c1 e0 03          	shl    eax,0x3
    3fa5:	66 05 e4 92 00 00    	add    eax,0x92e4
    3fab:	67 66 8b 00          	mov    eax,DWORD PTR [eax]
    3faf:	67 66 2b 45 fc       	sub    eax,DWORD PTR [ebp-0x4]
    3fb4:	66 40                	inc    eax
    3fb6:	67 66 23 45 f0       	and    eax,DWORD PTR [ebp-0x10]
    3fbb:	66 29 c1             	sub    ecx,eax
    3fbe:	66 89 c8             	mov    eax,ecx
    3fc1:	67 66 89 45 d8       	mov    DWORD PTR [ebp-0x28],eax
D:\OneDrive\Study\Operating Systems\实验\project7\codes/./lib/utilsC.c:544
	memcpy(segOfOs, (int)&processTable[curProcessId].pcb, segOfOs, (int)&processTable[ProcessSize].pcb, sizeof(struct PCB));
    3fc6:	66 8b 16 fc 96       	mov    edx,DWORD PTR ds:0x96fc
    3fcb:	66 89 d0             	mov    eax,edx
    3fce:	66 c1 e0 03          	shl    eax,0x3
    3fd2:	66 01 d0             	add    eax,edx
    3fd5:	66 c1 e0 04          	shl    eax,0x4
    3fd9:	66 05 60 b3 00 00    	add    eax,0xb360
    3fdf:	66 89 c1             	mov    ecx,eax
    3fe2:	66 8b 16 a0 be       	mov    edx,DWORD PTR ds:0xbea0
    3fe7:	66 89 d0             	mov    eax,edx
    3fea:	66 c1 e0 03          	shl    eax,0x3
    3fee:	66 01 d0             	add    eax,edx
    3ff1:	66 c1 e0 04          	shl    eax,0x4
    3ff5:	66 05 60 b3 00 00    	add    eax,0xb360
    3ffb:	67 66 c7 44 24 10 22 	mov    DWORD PTR [esp+0x10],0x22
    4002:	00 00 00 
    4005:	67 66 89 4c 24 0c    	mov    DWORD PTR [esp+0xc],ecx
    400b:	67 66 c7 44 24 08 00 	mov    DWORD PTR [esp+0x8],0x2000
    4012:	20 00 00 
    4015:	67 66 89 44 24 04    	mov    DWORD PTR [esp+0x4],eax
    401b:	67 66 c7 04 24 00 20 	mov    DWORD PTR [esp],0x2000
    4022:	00 00 
    4024:	66 e8 bf e0 ff ff    	call   20e9 <_memcpy>
D:\OneDrive\Study\Operating Systems\实验\project7\codes/./lib/utilsC.c:545
	memcpy(segOfSour, (memoryTable[processTable[curProcessId].blockNum].endAddr - stackSize + 1)&offsetMask, segOfDes, (memoryTable[blockNum].beginAddr)&offsetMask, stackSize);
    402a:	67 66 8b 55 f8       	mov    edx,DWORD PTR [ebp-0x8]
    402f:	66 89 d0             	mov    eax,edx
    4032:	66 01 c0             	add    eax,eax
    4035:	66 01 d0             	add    eax,edx
    4038:	66 c1 e0 03          	shl    eax,0x3
    403c:	66 05 e0 92 00 00    	add    eax,0x92e0
    4042:	67 66 8b 00          	mov    eax,DWORD PTR [eax]
    4046:	67 66 23 45 f0       	and    eax,DWORD PTR [ebp-0x10]
    404b:	66 89 c2             	mov    edx,eax
    404e:	66 8b 0e a0 be       	mov    ecx,DWORD PTR ds:0xbea0
    4053:	66 89 c8             	mov    eax,ecx
    4056:	66 c1 e0 03          	shl    eax,0x3
    405a:	66 01 c8             	add    eax,ecx
    405d:	66 c1 e0 04          	shl    eax,0x4
    4061:	66 05 88 b3 00 00    	add    eax,0xb388
    4067:	67 66 8b 08          	mov    ecx,DWORD PTR [eax]
    406b:	66 89 c8             	mov    eax,ecx
    406e:	66 01 c0             	add    eax,eax
    4071:	66 01 c8             	add    eax,ecx
    4074:	66 c1 e0 03          	shl    eax,0x3
    4078:	66 05 e4 92 00 00    	add    eax,0x92e4
    407e:	67 66 8b 00          	mov    eax,DWORD PTR [eax]
    4082:	67 66 2b 45 fc       	sub    eax,DWORD PTR [ebp-0x4]
    4087:	66 40                	inc    eax
    4089:	67 66 23 45 f0       	and    eax,DWORD PTR [ebp-0x10]
    408e:	67 66 8b 4d fc       	mov    ecx,DWORD PTR [ebp-0x4]
    4093:	67 66 89 4c 24 10    	mov    DWORD PTR [esp+0x10],ecx
    4099:	67 66 89 54 24 0c    	mov    DWORD PTR [esp+0xc],edx
    409f:	67 66 8b 55 ec       	mov    edx,DWORD PTR [ebp-0x14]
    40a4:	67 66 89 54 24 08    	mov    DWORD PTR [esp+0x8],edx
    40aa:	67 66 89 44 24 04    	mov    DWORD PTR [esp+0x4],eax
    40b0:	67 66 8b 45 e8       	mov    eax,DWORD PTR [ebp-0x18]
    40b5:	67 66 89 04 24       	mov    DWORD PTR [esp],eax
    40ba:	66 e8 29 e0 ff ff    	call   20e9 <_memcpy>
D:\OneDrive\Study\Operating Systems\实验\project7\codes/./lib/utilsC.c:546
	createProcess(ProcessSize++, name, stackSize, cs, ip, ss, sp, blockNum);
    40c0:	66 a1 fc 96          	mov    eax,ds:0x96fc
    40c4:	67 66 8d 50 01       	lea    edx,[eax+0x1]
    40c9:	66 89 16 fc 96       	mov    DWORD PTR ds:0x96fc,edx
    40ce:	67 66 8b 55 f8       	mov    edx,DWORD PTR [ebp-0x8]
    40d3:	67 66 89 54 24 1c    	mov    DWORD PTR [esp+0x1c],edx
    40d9:	67 66 8b 55 d8       	mov    edx,DWORD PTR [ebp-0x28]
    40de:	67 66 89 54 24 18    	mov    DWORD PTR [esp+0x18],edx
    40e4:	67 66 8b 55 dc       	mov    edx,DWORD PTR [ebp-0x24]
    40e9:	67 66 89 54 24 14    	mov    DWORD PTR [esp+0x14],edx
    40ef:	67 66 8b 55 e0       	mov    edx,DWORD PTR [ebp-0x20]
    40f4:	67 66 89 54 24 10    	mov    DWORD PTR [esp+0x10],edx
    40fa:	67 66 8b 55 e4       	mov    edx,DWORD PTR [ebp-0x1c]
    40ff:	67 66 89 54 24 0c    	mov    DWORD PTR [esp+0xc],edx
    4105:	67 66 8b 55 fc       	mov    edx,DWORD PTR [ebp-0x4]
    410a:	67 66 89 54 24 08    	mov    DWORD PTR [esp+0x8],edx
    4110:	67 66 c7 44 24 04 40 	mov    DWORD PTR [esp+0x4],0xbf40
    4117:	bf 00 00 
    411a:	67 66 89 04 24       	mov    DWORD PTR [esp],eax
    411f:	66 e8 64 f7 ff ff    	call   3889 <_createProcess>
D:\OneDrive\Study\Operating Systems\实验\project7\codes/./lib/utilsC.c:547
	enqueue(&ReadyQue, ProcessSize - 1);
    4125:	66 a1 fc 96          	mov    eax,ds:0x96fc
    4129:	66 48                	dec    eax
    412b:	67 66 89 44 24 04    	mov    DWORD PTR [esp+0x4],eax
    4131:	67 66 c7 04 24 c0 be 	mov    DWORD PTR [esp],0xbec0
    4138:	00 00 
    413a:	66 e8 2d 21 00 00    	call   626d <_enqueue>
D:\OneDrive\Study\Operating Systems\实验\project7\codes/./lib/utilsC.c:548
	processTable[ProcessSize - 1].fatherID = curProcessId;
    4140:	66 a1 fc 96          	mov    eax,ds:0x96fc
    4144:	67 66 8d 48 ff       	lea    ecx,[eax-0x1]
    4149:	66 8b 16 a0 be       	mov    edx,DWORD PTR ds:0xbea0
    414e:	66 89 c8             	mov    eax,ecx
    4151:	66 c1 e0 03          	shl    eax,0x3
    4155:	66 01 c8             	add    eax,ecx
    4158:	66 c1 e0 04          	shl    eax,0x4
    415c:	66 05 b8 b3 00 00    	add    eax,0xb3b8
    4162:	67 66 89 10          	mov    DWORD PTR [eax],edx
D:\OneDrive\Study\Operating Systems\实验\project7\codes/./lib/utilsC.c:549
	processTable[curProcessId].sonID = ProcessSize - 1;
    4166:	66 8b 16 a0 be       	mov    edx,DWORD PTR ds:0xbea0
    416b:	66 a1 fc 96          	mov    eax,ds:0x96fc
    416f:	67 66 8d 48 ff       	lea    ecx,[eax-0x1]
    4174:	66 89 d0             	mov    eax,edx
    4177:	66 c1 e0 03          	shl    eax,0x3
    417b:	66 01 d0             	add    eax,edx
    417e:	66 c1 e0 04          	shl    eax,0x4
    4182:	66 05 c0 b3 00 00    	add    eax,0xb3c0
    4188:	67 66 89 08          	mov    DWORD PTR [eax],ecx
D:\OneDrive\Study\Operating Systems\实验\project7\codes/./lib/utilsC.c:550
	processTable[curProcessId].pcb.ax = ProcessSize - 1;
    418c:	66 8b 0e a0 be       	mov    ecx,DWORD PTR ds:0xbea0
    4191:	66 a1 fc 96          	mov    eax,ds:0x96fc
    4195:	66 48                	dec    eax
    4197:	66 89 c2             	mov    edx,eax
    419a:	66 89 c8             	mov    eax,ecx
    419d:	66 c1 e0 03          	shl    eax,0x3
    41a1:	66 01 c8             	add    eax,ecx
    41a4:	66 c1 e0 04          	shl    eax,0x4
    41a8:	66 05 76 b3 00 00    	add    eax,0xb376
    41ae:	67 89 10             	mov    WORD PTR [eax],dx
D:\OneDrive\Study\Operating Systems\实验\project7\codes/./lib/utilsC.c:551
	processTable[ProcessSize - 1].pcb.ax = 0;
    41b1:	66 a1 fc 96          	mov    eax,ds:0x96fc
    41b5:	67 66 8d 50 ff       	lea    edx,[eax-0x1]
    41ba:	66 89 d0             	mov    eax,edx
    41bd:	66 c1 e0 03          	shl    eax,0x3
    41c1:	66 01 d0             	add    eax,edx
    41c4:	66 c1 e0 04          	shl    eax,0x4
    41c8:	66 05 76 b3 00 00    	add    eax,0xb376
    41ce:	67 c7 00 00 00       	mov    WORD PTR [eax],0x0
D:\OneDrive\Study\Operating Systems\实验\project7\codes/./lib/utilsC.c:552
}
    41d3:	90                   	nop
    41d4:	66 c9                	leave  
    41d6:	66 c3                	ret    

000041d8 <_do_exit>:
do_exit():
D:\OneDrive\Study\Operating Systems\实验\project7\codes/./lib/utilsC.c:555

void do_exit(int exit_value)
{
    41d8:	66 55                	push   ebp
    41da:	66 89 e5             	mov    ebp,esp
    41dd:	66 83 ec 0c          	sub    esp,0xc
D:\OneDrive\Study\Operating Systems\实验\project7\codes/./lib/utilsC.c:556
	quesize	= size(&BlockedQue);
    41e1:	67 66 c7 04 24 a0 96 	mov    DWORD PTR [esp],0x96a0
    41e8:	00 00 
    41ea:	66 e8 37 20 00 00    	call   6227 <_size>
    41f0:	66 a3 20 bf          	mov    ds:0xbf20,eax
D:\OneDrive\Study\Operating Systems\实验\project7\codes/./lib/utilsC.c:557
	for (int i = 0; i < quesize; ++i)
    41f4:	67 66 c7 45 fc 00 00 	mov    DWORD PTR [ebp-0x4],0x0
    41fb:	00 00 
    41fd:	eb 64                	jmp    4263 <_do_exit+0x8b>
D:\OneDrive\Study\Operating Systems\实验\project7\codes/./lib/utilsC.c:559
	{
		dequeue(&BlockedQue, &tmp);
    41ff:	67 66 c7 44 24 04 28 	mov    DWORD PTR [esp+0x4],0xbf28
    4206:	bf 00 00 
    4209:	67 66 c7 04 24 a0 96 	mov    DWORD PTR [esp],0x96a0
    4210:	00 00 
    4212:	66 e8 c2 20 00 00    	call   62da <_dequeue>
D:\OneDrive\Study\Operating Systems\实验\project7\codes/./lib/utilsC.c:560
		if (processTable[tmp].waitProcess == curProcessId)
    4218:	66 8b 16 28 bf       	mov    edx,DWORD PTR ds:0xbf28
    421d:	66 89 d0             	mov    eax,edx
    4220:	66 c1 e0 03          	shl    eax,0x3
    4224:	66 01 d0             	add    eax,edx
    4227:	66 c1 e0 04          	shl    eax,0x4
    422b:	66 05 bc b3 00 00    	add    eax,0xb3bc
    4231:	67 66 8b 10          	mov    edx,DWORD PTR [eax]
    4235:	66 a1 a0 be          	mov    eax,ds:0xbea0
    4239:	66 39 c2             	cmp    edx,eax
    423c:	75 11                	jne    424f <_do_exit+0x77>
D:\OneDrive\Study\Operating Systems\实验\project7\codes/./lib/utilsC.c:562
		{
			wakeup(tmp);
    423e:	66 a1 28 bf          	mov    eax,ds:0xbf28
    4242:	67 66 89 04 24       	mov    DWORD PTR [esp],eax
    4247:	66 e8 6d f8 ff ff    	call   3aba <_wakeup>
    424d:	eb 0f                	jmp    425e <_do_exit+0x86>
D:\OneDrive\Study\Operating Systems\实验\project7\codes/./lib/utilsC.c:565
		}
		else {
			block(tmp);
    424f:	66 a1 28 bf          	mov    eax,ds:0xbf28
    4253:	67 66 89 04 24       	mov    DWORD PTR [esp],eax
    4258:	66 e8 a6 f7 ff ff    	call   3a04 <_block>
D:\OneDrive\Study\Operating Systems\实验\project7\codes/./lib/utilsC.c:557
	for (int i = 0; i < quesize; ++i)
    425e:	67 66 ff 45 fc       	inc    DWORD PTR [ebp-0x4]
    4263:	66 a1 20 bf          	mov    eax,ds:0xbf20
    4267:	67 66 39 45 fc       	cmp    DWORD PTR [ebp-0x4],eax
    426c:	7c 91                	jl     41ff <_do_exit+0x27>
D:\OneDrive\Study\Operating Systems\实验\project7\codes/./lib/utilsC.c:568
		}
	}
	processTable[curProcessId].retValue = exit_value;
    426e:	66 8b 16 a0 be       	mov    edx,DWORD PTR ds:0xbea0
    4273:	66 89 d0             	mov    eax,edx
    4276:	66 c1 e0 03          	shl    eax,0x3
    427a:	66 01 d0             	add    eax,edx
    427d:	66 c1 e0 04          	shl    eax,0x4
    4281:	67 66 8d 90 b4 b3 00 	lea    edx,[eax+0xb3b4]
    4288:	00 
    4289:	67 66 8b 45 08       	mov    eax,DWORD PTR [ebp+0x8]
    428e:	67 66 89 02          	mov    DWORD PTR [edx],eax
D:\OneDrive\Study\Operating Systems\实验\project7\codes/./lib/utilsC.c:569
	kill(curProcessId);
    4292:	66 a1 a0 be          	mov    eax,ds:0xbea0
    4296:	67 66 89 04 24       	mov    DWORD PTR [esp],eax
    429b:	66 e8 66 e8 ff ff    	call   2b07 <_kill>
D:\OneDrive\Study\Operating Systems\实验\project7\codes/./lib/utilsC.c:570
	processSwitch();
    42a1:	66 e8 8e 07 00 00    	call   4a35 <_processSwitch>
D:\OneDrive\Study\Operating Systems\实验\project7\codes/./lib/utilsC.c:571
}
    42a7:	90                   	nop
    42a8:	66 c9                	leave  
    42aa:	66 c3                	ret    

000042ac <_do_wait>:
do_wait():
D:\OneDrive\Study\Operating Systems\实验\project7\codes/./lib/utilsC.c:574

int do_wait()
{
    42ac:	66 55                	push   ebp
    42ae:	66 89 e5             	mov    ebp,esp
    42b1:	66 83 ec 08          	sub    esp,0x8
D:\OneDrive\Study\Operating Systems\实验\project7\codes/./lib/utilsC.c:575
	processTable[curProcessId].waitProcess = processTable[curProcessId].sonID;
    42b5:	66 8b 0e a0 be       	mov    ecx,DWORD PTR ds:0xbea0
    42ba:	66 8b 16 a0 be       	mov    edx,DWORD PTR ds:0xbea0
    42bf:	66 89 d0             	mov    eax,edx
    42c2:	66 c1 e0 03          	shl    eax,0x3
    42c6:	66 01 d0             	add    eax,edx
    42c9:	66 c1 e0 04          	shl    eax,0x4
    42cd:	66 05 c0 b3 00 00    	add    eax,0xb3c0
    42d3:	67 66 8b 10          	mov    edx,DWORD PTR [eax]
    42d7:	66 89 c8             	mov    eax,ecx
    42da:	66 c1 e0 03          	shl    eax,0x3
    42de:	66 01 c8             	add    eax,ecx
    42e1:	66 c1 e0 04          	shl    eax,0x4
    42e5:	66 05 bc b3 00 00    	add    eax,0xb3bc
    42eb:	67 66 89 10          	mov    DWORD PTR [eax],edx
D:\OneDrive\Study\Operating Systems\实验\project7\codes/./lib/utilsC.c:576
	block(curProcessId);
    42ef:	66 a1 a0 be          	mov    eax,ds:0xbea0
    42f3:	67 66 89 04 24       	mov    DWORD PTR [esp],eax
    42f8:	66 e8 06 f7 ff ff    	call   3a04 <_block>
D:\OneDrive\Study\Operating Systems\实验\project7\codes/./lib/utilsC.c:577
	processSwitch();
    42fe:	66 e8 31 07 00 00    	call   4a35 <_processSwitch>
D:\OneDrive\Study\Operating Systems\实验\project7\codes/./lib/utilsC.c:578
	int ret = processTable[processTable[curProcessId].sonID].retValue;
    4304:	66 8b 16 a0 be       	mov    edx,DWORD PTR ds:0xbea0
    4309:	66 89 d0             	mov    eax,edx
    430c:	66 c1 e0 03          	shl    eax,0x3
    4310:	66 01 d0             	add    eax,edx
    4313:	66 c1 e0 04          	shl    eax,0x4
    4317:	66 05 c0 b3 00 00    	add    eax,0xb3c0
    431d:	67 66 8b 10          	mov    edx,DWORD PTR [eax]
    4321:	66 89 d0             	mov    eax,edx
    4324:	66 c1 e0 03          	shl    eax,0x3
    4328:	66 01 d0             	add    eax,edx
    432b:	66 c1 e0 04          	shl    eax,0x4
    432f:	66 05 b4 b3 00 00    	add    eax,0xb3b4
    4335:	67 66 8b 00          	mov    eax,DWORD PTR [eax]
    4339:	67 66 89 45 fc       	mov    DWORD PTR [ebp-0x4],eax
D:\OneDrive\Study\Operating Systems\实验\project7\codes/./lib/utilsC.c:579
	processTable[curProcessId].sonID = -1;
    433e:	66 8b 16 a0 be       	mov    edx,DWORD PTR ds:0xbea0
    4343:	66 89 d0             	mov    eax,edx
    4346:	66 c1 e0 03          	shl    eax,0x3
    434a:	66 01 d0             	add    eax,edx
    434d:	66 c1 e0 04          	shl    eax,0x4
    4351:	66 05 c0 b3 00 00    	add    eax,0xb3c0
    4357:	67 66 c7 00 ff ff ff 	mov    DWORD PTR [eax],0xffffffff
    435e:	ff 
D:\OneDrive\Study\Operating Systems\实验\project7\codes/./lib/utilsC.c:580
	return ret;
    435f:	67 66 8b 45 fc       	mov    eax,DWORD PTR [ebp-0x4]
D:\OneDrive\Study\Operating Systems\实验\project7\codes/./lib/utilsC.c:581
}
    4364:	66 c9                	leave  
    4366:	66 c3                	ret    

00004368 <_Tosuspend>:
Tosuspend():
D:\OneDrive\Study\Operating Systems\实验\project7\codes/./lib/utilsC.c:584

void Tosuspend(int processID)
{
    4368:	66 55                	push   ebp
    436a:	66 89 e5             	mov    ebp,esp
    436d:	66 83 ec 28          	sub    esp,0x28
D:\OneDrive\Study\Operating Systems\实验\project7\codes/./lib/utilsC.c:585
	int Size = memoryTable[processTable[processID].blockNum].endAddr - memoryTable[processTable[processID].blockNum].beginAddr + 1;
    4371:	67 66 8b 55 08       	mov    edx,DWORD PTR [ebp+0x8]
    4376:	66 89 d0             	mov    eax,edx
    4379:	66 c1 e0 03          	shl    eax,0x3
    437d:	66 01 d0             	add    eax,edx
    4380:	66 c1 e0 04          	shl    eax,0x4
    4384:	66 05 88 b3 00 00    	add    eax,0xb388
    438a:	67 66 8b 10          	mov    edx,DWORD PTR [eax]
    438e:	66 89 d0             	mov    eax,edx
    4391:	66 01 c0             	add    eax,eax
    4394:	66 01 d0             	add    eax,edx
    4397:	66 c1 e0 03          	shl    eax,0x3
    439b:	66 05 e4 92 00 00    	add    eax,0x92e4
    43a1:	67 66 8b 08          	mov    ecx,DWORD PTR [eax]
    43a5:	67 66 8b 55 08       	mov    edx,DWORD PTR [ebp+0x8]
    43aa:	66 89 d0             	mov    eax,edx
    43ad:	66 c1 e0 03          	shl    eax,0x3
    43b1:	66 01 d0             	add    eax,edx
    43b4:	66 c1 e0 04          	shl    eax,0x4
    43b8:	66 05 88 b3 00 00    	add    eax,0xb388
    43be:	67 66 8b 10          	mov    edx,DWORD PTR [eax]
    43c2:	66 89 d0             	mov    eax,edx
    43c5:	66 01 c0             	add    eax,eax
    43c8:	66 01 d0             	add    eax,edx
    43cb:	66 c1 e0 03          	shl    eax,0x3
    43cf:	66 05 e0 92 00 00    	add    eax,0x92e0
    43d5:	67 66 8b 00          	mov    eax,DWORD PTR [eax]
    43d9:	66 29 c1             	sub    ecx,eax
    43dc:	66 89 c8             	mov    eax,ecx
    43df:	66 40                	inc    eax
    43e1:	67 66 89 45 e8       	mov    DWORD PTR [ebp-0x18],eax
D:\OneDrive\Study\Operating Systems\实验\project7\codes/./lib/utilsC.c:586
	int count = 0;
    43e6:	67 66 c7 45 fc 00 00 	mov    DWORD PTR [ebp-0x4],0x0
    43ed:	00 00 
D:\OneDrive\Study\Operating Systems\实验\project7\codes/./lib/utilsC.c:587
	int begin = 0;
    43ef:	67 66 c7 45 f8 00 00 	mov    DWORD PTR [ebp-0x8],0x0
    43f6:	00 00 
D:\OneDrive\Study\Operating Systems\实验\project7\codes/./lib/utilsC.c:588
	for (int i = 0; i < LenOfFat; ++i)
    43f8:	67 66 c7 45 f4 00 00 	mov    DWORD PTR [ebp-0xc],0x0
    43ff:	00 00 
    4401:	eb 48                	jmp    444b <_Tosuspend+0xe3>
D:\OneDrive\Study\Operating Systems\实验\project7\codes/./lib/utilsC.c:590
	{
		if (FAT[begin] == 0)
    4403:	66 8b 16 00 97       	mov    edx,DWORD PTR ds:0x9700
    4408:	67 66 8b 45 f8       	mov    eax,DWORD PTR [ebp-0x8]
    440d:	66 01 c0             	add    eax,eax
    4410:	66 01 d0             	add    eax,edx
    4413:	67 8b 00             	mov    ax,WORD PTR [eax]
    4416:	85 c0                	test   ax,ax
    4418:	75 07                	jne    4421 <_Tosuspend+0xb9>
D:\OneDrive\Study\Operating Systems\实验\project7\codes/./lib/utilsC.c:592
		{
			++count;
    441a:	67 66 ff 45 fc       	inc    DWORD PTR [ebp-0x4]
    441f:	eb 15                	jmp    4436 <_Tosuspend+0xce>
D:\OneDrive\Study\Operating Systems\实验\project7\codes/./lib/utilsC.c:595
		}
		else {
			begin = i + 1;
    4421:	67 66 8b 45 f4       	mov    eax,DWORD PTR [ebp-0xc]
    4426:	66 40                	inc    eax
    4428:	67 66 89 45 f8       	mov    DWORD PTR [ebp-0x8],eax
D:\OneDrive\Study\Operating Systems\实验\project7\codes/./lib/utilsC.c:596
			count = 0;
    442d:	67 66 c7 45 fc 00 00 	mov    DWORD PTR [ebp-0x4],0x0
    4434:	00 00 
D:\OneDrive\Study\Operating Systems\实验\project7\codes/./lib/utilsC.c:598
		}
		if (count * Cluster >= Size)
    4436:	67 66 8b 45 fc       	mov    eax,DWORD PTR [ebp-0x4]
    443b:	66 c1 e0 09          	shl    eax,0x9
    443f:	67 66 3b 45 e8       	cmp    eax,DWORD PTR [ebp-0x18]
    4444:	7d 12                	jge    4458 <_Tosuspend+0xf0>
D:\OneDrive\Study\Operating Systems\实验\project7\codes/./lib/utilsC.c:588
	for (int i = 0; i < LenOfFat; ++i)
    4446:	67 66 ff 45 f4       	inc    DWORD PTR [ebp-0xc]
    444b:	67 66 81 7d f4 c7 00 	cmp    DWORD PTR [ebp-0xc],0xc7
    4452:	00 00 
    4454:	7e ad                	jle    4403 <_Tosuspend+0x9b>
    4456:	eb 01                	jmp    4459 <_Tosuspend+0xf1>
D:\OneDrive\Study\Operating Systems\实验\project7\codes/./lib/utilsC.c:600
		{
			break;
    4458:	90                   	nop
D:\OneDrive\Study\Operating Systems\实验\project7\codes/./lib/utilsC.c:603
		}
	}
	write(begin * Cluster, Size, (memoryTable[processTable[processID].blockNum].beginAddr & 0x0000ffff), (memoryTable[processTable[processID].blockNum].beginAddr & 0xf0000) >> 4);
    4459:	67 66 8b 55 08       	mov    edx,DWORD PTR [ebp+0x8]
    445e:	66 89 d0             	mov    eax,edx
    4461:	66 c1 e0 03          	shl    eax,0x3
    4465:	66 01 d0             	add    eax,edx
    4468:	66 c1 e0 04          	shl    eax,0x4
    446c:	66 05 88 b3 00 00    	add    eax,0xb388
    4472:	67 66 8b 10          	mov    edx,DWORD PTR [eax]
    4476:	66 89 d0             	mov    eax,edx
    4479:	66 01 c0             	add    eax,eax
    447c:	66 01 d0             	add    eax,edx
    447f:	66 c1 e0 03          	shl    eax,0x3
    4483:	66 05 e0 92 00 00    	add    eax,0x92e0
    4489:	67 66 8b 00          	mov    eax,DWORD PTR [eax]
    448d:	66 c1 f8 04          	sar    eax,0x4
    4491:	66 25 00 f0 00 00    	and    eax,0xf000
    4497:	66 89 c1             	mov    ecx,eax
    449a:	67 66 8b 55 08       	mov    edx,DWORD PTR [ebp+0x8]
    449f:	66 89 d0             	mov    eax,edx
    44a2:	66 c1 e0 03          	shl    eax,0x3
    44a6:	66 01 d0             	add    eax,edx
    44a9:	66 c1 e0 04          	shl    eax,0x4
    44ad:	66 05 88 b3 00 00    	add    eax,0xb388
    44b3:	67 66 8b 10          	mov    edx,DWORD PTR [eax]
    44b7:	66 89 d0             	mov    eax,edx
    44ba:	66 01 c0             	add    eax,eax
    44bd:	66 01 d0             	add    eax,edx
    44c0:	66 c1 e0 03          	shl    eax,0x3
    44c4:	66 05 e0 92 00 00    	add    eax,0x92e0
    44ca:	67 66 8b 00          	mov    eax,DWORD PTR [eax]
    44ce:	66 0f b7 c0          	movzx  eax,ax
    44d2:	67 66 8b 55 f8       	mov    edx,DWORD PTR [ebp-0x8]
    44d7:	66 c1 e2 09          	shl    edx,0x9
    44db:	67 66 89 4c 24 0c    	mov    DWORD PTR [esp+0xc],ecx
    44e1:	67 66 89 44 24 08    	mov    DWORD PTR [esp+0x8],eax
    44e7:	67 66 8b 45 e8       	mov    eax,DWORD PTR [ebp-0x18]
    44ec:	67 66 89 44 24 04    	mov    DWORD PTR [esp+0x4],eax
    44f2:	67 66 89 14 24       	mov    DWORD PTR [esp],edx
    44f7:	66 e8 1f dc ff ff    	call   211c <_write>
D:\OneDrive\Study\Operating Systems\实验\project7\codes/./lib/utilsC.c:604
	processTable[processID].lmaddress = begin * Cluster;
    44fd:	67 66 8b 45 f8       	mov    eax,DWORD PTR [ebp-0x8]
    4502:	66 c1 e0 09          	shl    eax,0x9
    4506:	66 89 c1             	mov    ecx,eax
    4509:	67 66 8b 55 08       	mov    edx,DWORD PTR [ebp+0x8]
    450e:	66 89 d0             	mov    eax,edx
    4511:	66 c1 e0 03          	shl    eax,0x3
    4515:	66 01 d0             	add    eax,edx
    4518:	66 c1 e0 04          	shl    eax,0x4
    451c:	66 05 8c b3 00 00    	add    eax,0xb38c
    4522:	67 66 89 08          	mov    DWORD PTR [eax],ecx
D:\OneDrive\Study\Operating Systems\实验\project7\codes/./lib/utilsC.c:605
	enqueue(&SuspendQue, processID);
    4526:	67 66 8b 45 08       	mov    eax,DWORD PTR [ebp+0x8]
    452b:	67 66 89 44 24 04    	mov    DWORD PTR [esp+0x4],eax
    4531:	67 66 c7 04 24 00 b3 	mov    DWORD PTR [esp],0xb300
    4538:	00 00 
    453a:	66 e8 2d 1d 00 00    	call   626d <_enqueue>
D:\OneDrive\Study\Operating Systems\实验\project7\codes/./lib/utilsC.c:607
	///////////////////////////
	if (processTable[processID].status == ready)
    4540:	67 66 8b 55 08       	mov    edx,DWORD PTR [ebp+0x8]
    4545:	66 89 d0             	mov    eax,edx
    4548:	66 c1 e0 03          	shl    eax,0x3
    454c:	66 01 d0             	add    eax,edx
    454f:	66 c1 e0 04          	shl    eax,0x4
    4553:	66 05 ec b3 00 00    	add    eax,0xb3ec
    4559:	67 66 8b 00          	mov    eax,DWORD PTR [eax]
    455d:	66 83 f8 01          	cmp    eax,0x1
    4561:	75 6e                	jne    45d1 <_Tosuspend+0x269>
D:\OneDrive\Study\Operating Systems\实验\project7\codes/./lib/utilsC.c:610
		////////////////////////////
	{
		quesize = size(&ReadyQue);
    4563:	67 66 c7 04 24 c0 be 	mov    DWORD PTR [esp],0xbec0
    456a:	00 00 
    456c:	66 e8 b5 1c 00 00    	call   6227 <_size>
    4572:	66 a3 20 bf          	mov    ds:0xbf20,eax
D:\OneDrive\Study\Operating Systems\实验\project7\codes/./lib/utilsC.c:611
		for (int i = 0; i < quesize; ++i)
    4576:	67 66 c7 45 f0 00 00 	mov    DWORD PTR [ebp-0x10],0x0
    457d:	00 00 
    457f:	eb 42                	jmp    45c3 <_Tosuspend+0x25b>
D:\OneDrive\Study\Operating Systems\实验\project7\codes/./lib/utilsC.c:613
		{
			dequeue(&ReadyQue, &tmp);
    4581:	67 66 c7 44 24 04 28 	mov    DWORD PTR [esp+0x4],0xbf28
    4588:	bf 00 00 
    458b:	67 66 c7 04 24 c0 be 	mov    DWORD PTR [esp],0xbec0
    4592:	00 00 
    4594:	66 e8 40 1d 00 00    	call   62da <_dequeue>
D:\OneDrive\Study\Operating Systems\实验\project7\codes/./lib/utilsC.c:614
			if (tmp != processID)
    459a:	66 a1 28 bf          	mov    eax,ds:0xbf28
    459e:	67 66 3b 45 08       	cmp    eax,DWORD PTR [ebp+0x8]
    45a3:	74 19                	je     45be <_Tosuspend+0x256>
D:\OneDrive\Study\Operating Systems\实验\project7\codes/./lib/utilsC.c:616
			{
				enqueue(&ReadyQue, tmp);
    45a5:	66 a1 28 bf          	mov    eax,ds:0xbf28
    45a9:	67 66 89 44 24 04    	mov    DWORD PTR [esp+0x4],eax
    45af:	67 66 c7 04 24 c0 be 	mov    DWORD PTR [esp],0xbec0
    45b6:	00 00 
    45b8:	66 e8 af 1c 00 00    	call   626d <_enqueue>
D:\OneDrive\Study\Operating Systems\实验\project7\codes/./lib/utilsC.c:611
		for (int i = 0; i < quesize; ++i)
    45be:	67 66 ff 45 f0       	inc    DWORD PTR [ebp-0x10]
    45c3:	66 a1 20 bf          	mov    eax,ds:0xbf20
    45c7:	67 66 39 45 f0       	cmp    DWORD PTR [ebp-0x10],eax
    45cc:	7c b3                	jl     4581 <_Tosuspend+0x219>
    45ce:	e9 8e 00             	jmp    465f <_Tosuspend+0x2f7>
D:\OneDrive\Study\Operating Systems\实验\project7\codes/./lib/utilsC.c:621
			}
		}
	}
	///////////////////////////
	else if (processTable[processID].status == blocked)
    45d1:	67 66 8b 55 08       	mov    edx,DWORD PTR [ebp+0x8]
    45d6:	66 89 d0             	mov    eax,edx
    45d9:	66 c1 e0 03          	shl    eax,0x3
    45dd:	66 01 d0             	add    eax,edx
    45e0:	66 c1 e0 04          	shl    eax,0x4
    45e4:	66 05 ec b3 00 00    	add    eax,0xb3ec
    45ea:	67 66 8b 00          	mov    eax,DWORD PTR [eax]
    45ee:	66 83 f8 03          	cmp    eax,0x3
    45f2:	75 6b                	jne    465f <_Tosuspend+0x2f7>
D:\OneDrive\Study\Operating Systems\实验\project7\codes/./lib/utilsC.c:624
		////////////////////////////
	{
		quesize = size(&BlockedQue);
    45f4:	67 66 c7 04 24 a0 96 	mov    DWORD PTR [esp],0x96a0
    45fb:	00 00 
    45fd:	66 e8 24 1c 00 00    	call   6227 <_size>
    4603:	66 a3 20 bf          	mov    ds:0xbf20,eax
D:\OneDrive\Study\Operating Systems\实验\project7\codes/./lib/utilsC.c:625
		for (int i = 0; i < quesize; ++i)
    4607:	67 66 c7 45 ec 00 00 	mov    DWORD PTR [ebp-0x14],0x0
    460e:	00 00 
    4610:	eb 42                	jmp    4654 <_Tosuspend+0x2ec>
D:\OneDrive\Study\Operating Systems\实验\project7\codes/./lib/utilsC.c:627
		{
			dequeue(&BlockedQue, &tmp);
    4612:	67 66 c7 44 24 04 28 	mov    DWORD PTR [esp+0x4],0xbf28
    4619:	bf 00 00 
    461c:	67 66 c7 04 24 a0 96 	mov    DWORD PTR [esp],0x96a0
    4623:	00 00 
    4625:	66 e8 af 1c 00 00    	call   62da <_dequeue>
D:\OneDrive\Study\Operating Systems\实验\project7\codes/./lib/utilsC.c:628
			if (tmp != processID)
    462b:	66 a1 28 bf          	mov    eax,ds:0xbf28
    462f:	67 66 3b 45 08       	cmp    eax,DWORD PTR [ebp+0x8]
    4634:	74 19                	je     464f <_Tosuspend+0x2e7>
D:\OneDrive\Study\Operating Systems\实验\project7\codes/./lib/utilsC.c:630
			{
				enqueue(&BlockedQue, tmp);
    4636:	66 a1 28 bf          	mov    eax,ds:0xbf28
    463a:	67 66 89 44 24 04    	mov    DWORD PTR [esp+0x4],eax
    4640:	67 66 c7 04 24 a0 96 	mov    DWORD PTR [esp],0x96a0
    4647:	00 00 
    4649:	66 e8 1e 1c 00 00    	call   626d <_enqueue>
D:\OneDrive\Study\Operating Systems\实验\project7\codes/./lib/utilsC.c:625
		for (int i = 0; i < quesize; ++i)
    464f:	67 66 ff 45 ec       	inc    DWORD PTR [ebp-0x14]
    4654:	66 a1 20 bf          	mov    eax,ds:0xbf20
    4658:	67 66 39 45 ec       	cmp    DWORD PTR [ebp-0x14],eax
    465d:	7c b3                	jl     4612 <_Tosuspend+0x2aa>
D:\OneDrive\Study\Operating Systems\实验\project7\codes/./lib/utilsC.c:635
			}
		}
	}
	// ipsp涓虹稿逛绉伙涓瑰
	processTable[processID].status = suspend;
    465f:	67 66 8b 55 08       	mov    edx,DWORD PTR [ebp+0x8]
    4664:	66 89 d0             	mov    eax,edx
    4667:	66 c1 e0 03          	shl    eax,0x3
    466b:	66 01 d0             	add    eax,edx
    466e:	66 c1 e0 04          	shl    eax,0x4
    4672:	66 05 ec b3 00 00    	add    eax,0xb3ec
    4678:	67 66 c7 00 04 00 00 	mov    DWORD PTR [eax],0x4
    467f:	00 
D:\OneDrive\Study\Operating Systems\实验\project7\codes/./lib/utilsC.c:636
	release(memoryTable[processTable[processID].blockNum].beginAddr, memoryTable[processTable[processID].blockNum].endAddr);
    4680:	67 66 8b 55 08       	mov    edx,DWORD PTR [ebp+0x8]
    4685:	66 89 d0             	mov    eax,edx
    4688:	66 c1 e0 03          	shl    eax,0x3
    468c:	66 01 d0             	add    eax,edx
    468f:	66 c1 e0 04          	shl    eax,0x4
    4693:	66 05 88 b3 00 00    	add    eax,0xb388
    4699:	67 66 8b 10          	mov    edx,DWORD PTR [eax]
    469d:	66 89 d0             	mov    eax,edx
    46a0:	66 01 c0             	add    eax,eax
    46a3:	66 01 d0             	add    eax,edx
    46a6:	66 c1 e0 03          	shl    eax,0x3
    46aa:	66 05 e4 92 00 00    	add    eax,0x92e4
    46b0:	67 66 8b 10          	mov    edx,DWORD PTR [eax]
    46b4:	67 66 8b 4d 08       	mov    ecx,DWORD PTR [ebp+0x8]
    46b9:	66 89 c8             	mov    eax,ecx
    46bc:	66 c1 e0 03          	shl    eax,0x3
    46c0:	66 01 c8             	add    eax,ecx
    46c3:	66 c1 e0 04          	shl    eax,0x4
    46c7:	66 05 88 b3 00 00    	add    eax,0xb388
    46cd:	67 66 8b 08          	mov    ecx,DWORD PTR [eax]
    46d1:	66 89 c8             	mov    eax,ecx
    46d4:	66 01 c0             	add    eax,eax
    46d7:	66 01 c8             	add    eax,ecx
    46da:	66 c1 e0 03          	shl    eax,0x3
    46de:	66 05 e0 92 00 00    	add    eax,0x92e0
    46e4:	67 66 8b 00          	mov    eax,DWORD PTR [eax]
    46e8:	67 66 89 54 24 04    	mov    DWORD PTR [esp+0x4],edx
    46ee:	67 66 89 04 24       	mov    DWORD PTR [esp],eax
    46f3:	66 e8 20 13 00 00    	call   5a19 <_release>
D:\OneDrive\Study\Operating Systems\实验\project7\codes/./lib/utilsC.c:637
}
    46f9:	90                   	nop
    46fa:	66 c9                	leave  
    46fc:	66 c3                	ret    

000046fe <_activate>:
activate():
D:\OneDrive\Study\Operating Systems\实验\project7\codes/./lib/utilsC.c:639
void activate(int processID)
{
    46fe:	66 55                	push   ebp
    4700:	66 89 e5             	mov    ebp,esp
    4703:	66 56                	push   esi
    4705:	66 53                	push   ebx
    4707:	66 83 ec 14          	sub    esp,0x14
D:\OneDrive\Study\Operating Systems\实验\project7\codes/./lib/utilsC.c:640
	loadFile(processTable[processID].lmaddress, processTable[processID].size, (memoryTable[processTable[processID].blockNum].beginAddr & 0x0000ffff), (memoryTable[processTable[processID].blockNum].beginAddr & 0xf0000) >> 4);
    470b:	67 66 8b 55 08       	mov    edx,DWORD PTR [ebp+0x8]
    4710:	66 89 d0             	mov    eax,edx
    4713:	66 c1 e0 03          	shl    eax,0x3
    4717:	66 01 d0             	add    eax,edx
    471a:	66 c1 e0 04          	shl    eax,0x4
    471e:	66 05 88 b3 00 00    	add    eax,0xb388
    4724:	67 66 8b 10          	mov    edx,DWORD PTR [eax]
    4728:	66 89 d0             	mov    eax,edx
    472b:	66 01 c0             	add    eax,eax
    472e:	66 01 d0             	add    eax,edx
    4731:	66 c1 e0 03          	shl    eax,0x3
    4735:	66 05 e0 92 00 00    	add    eax,0x92e0
    473b:	67 66 8b 00          	mov    eax,DWORD PTR [eax]
    473f:	66 c1 f8 04          	sar    eax,0x4
    4743:	66 25 00 f0 00 00    	and    eax,0xf000
    4749:	66 89 c6             	mov    esi,eax
    474c:	67 66 8b 55 08       	mov    edx,DWORD PTR [ebp+0x8]
    4751:	66 89 d0             	mov    eax,edx
    4754:	66 c1 e0 03          	shl    eax,0x3
    4758:	66 01 d0             	add    eax,edx
    475b:	66 c1 e0 04          	shl    eax,0x4
    475f:	66 05 88 b3 00 00    	add    eax,0xb388
    4765:	67 66 8b 10          	mov    edx,DWORD PTR [eax]
    4769:	66 89 d0             	mov    eax,edx
    476c:	66 01 c0             	add    eax,eax
    476f:	66 01 d0             	add    eax,edx
    4772:	66 c1 e0 03          	shl    eax,0x3
    4776:	66 05 e0 92 00 00    	add    eax,0x92e0
    477c:	67 66 8b 00          	mov    eax,DWORD PTR [eax]
    4780:	66 0f b7 c8          	movzx  ecx,ax
    4784:	67 66 8b 55 08       	mov    edx,DWORD PTR [ebp+0x8]
    4789:	66 89 d0             	mov    eax,edx
    478c:	66 c1 e0 03          	shl    eax,0x3
    4790:	66 01 d0             	add    eax,edx
    4793:	66 c1 e0 04          	shl    eax,0x4
    4797:	66 05 90 b3 00 00    	add    eax,0xb390
    479d:	67 66 8b 10          	mov    edx,DWORD PTR [eax]
    47a1:	67 66 8b 5d 08       	mov    ebx,DWORD PTR [ebp+0x8]
    47a6:	66 89 d8             	mov    eax,ebx
    47a9:	66 c1 e0 03          	shl    eax,0x3
    47ad:	66 01 d8             	add    eax,ebx
    47b0:	66 c1 e0 04          	shl    eax,0x4
    47b4:	66 05 8c b3 00 00    	add    eax,0xb38c
    47ba:	67 66 8b 00          	mov    eax,DWORD PTR [eax]
    47be:	67 66 89 74 24 0c    	mov    DWORD PTR [esp+0xc],esi
    47c4:	67 66 89 4c 24 08    	mov    DWORD PTR [esp+0x8],ecx
    47ca:	67 66 89 54 24 04    	mov    DWORD PTR [esp+0x4],edx
    47d0:	67 66 89 04 24       	mov    DWORD PTR [esp],eax
    47d5:	66 e8 a2 15 00 00    	call   5d7d <_loadFile>
D:\OneDrive\Study\Operating Systems\实验\project7\codes/./lib/utilsC.c:641
	quesize = size(&SuspendQue);
    47db:	67 66 c7 04 24 00 b3 	mov    DWORD PTR [esp],0xb300
    47e2:	00 00 
    47e4:	66 e8 3d 1a 00 00    	call   6227 <_size>
    47ea:	66 a3 20 bf          	mov    ds:0xbf20,eax
D:\OneDrive\Study\Operating Systems\实验\project7\codes/./lib/utilsC.c:642
	for (int i = 0; i < quesize; ++i)
    47ee:	67 66 c7 45 f4 00 00 	mov    DWORD PTR [ebp-0xc],0x0
    47f5:	00 00 
    47f7:	eb 42                	jmp    483b <_activate+0x13d>
D:\OneDrive\Study\Operating Systems\实验\project7\codes/./lib/utilsC.c:644
	{
		dequeue(&SuspendQue, &tmp);
    47f9:	67 66 c7 44 24 04 28 	mov    DWORD PTR [esp+0x4],0xbf28
    4800:	bf 00 00 
    4803:	67 66 c7 04 24 00 b3 	mov    DWORD PTR [esp],0xb300
    480a:	00 00 
    480c:	66 e8 c8 1a 00 00    	call   62da <_dequeue>
D:\OneDrive\Study\Operating Systems\实验\project7\codes/./lib/utilsC.c:645
		if (tmp != processID)
    4812:	66 a1 28 bf          	mov    eax,ds:0xbf28
    4816:	67 66 3b 45 08       	cmp    eax,DWORD PTR [ebp+0x8]
    481b:	74 19                	je     4836 <_activate+0x138>
D:\OneDrive\Study\Operating Systems\实验\project7\codes/./lib/utilsC.c:647
		{
			enqueue(&SuspendQue, tmp);
    481d:	66 a1 28 bf          	mov    eax,ds:0xbf28
    4821:	67 66 89 44 24 04    	mov    DWORD PTR [esp+0x4],eax
    4827:	67 66 c7 04 24 00 b3 	mov    DWORD PTR [esp],0xb300
    482e:	00 00 
    4830:	66 e8 37 1a 00 00    	call   626d <_enqueue>
D:\OneDrive\Study\Operating Systems\实验\project7\codes/./lib/utilsC.c:642
	for (int i = 0; i < quesize; ++i)
    4836:	67 66 ff 45 f4       	inc    DWORD PTR [ebp-0xc]
    483b:	66 a1 20 bf          	mov    eax,ds:0xbf20
    483f:	67 66 39 45 f4       	cmp    DWORD PTR [ebp-0xc],eax
    4844:	7c b3                	jl     47f9 <_activate+0xfb>
D:\OneDrive\Study\Operating Systems\实验\project7\codes/./lib/utilsC.c:650
		}
	}
	processTable[processID].status = ready;
    4846:	67 66 8b 55 08       	mov    edx,DWORD PTR [ebp+0x8]
    484b:	66 89 d0             	mov    eax,edx
    484e:	66 c1 e0 03          	shl    eax,0x3
    4852:	66 01 d0             	add    eax,edx
    4855:	66 c1 e0 04          	shl    eax,0x4
    4859:	66 05 ec b3 00 00    	add    eax,0xb3ec
    485f:	67 66 c7 00 01 00 00 	mov    DWORD PTR [eax],0x1
    4866:	00 
D:\OneDrive\Study\Operating Systems\实验\project7\codes/./lib/utilsC.c:651
	enqueue(&ReadyQue, processID);
    4867:	67 66 8b 45 08       	mov    eax,DWORD PTR [ebp+0x8]
    486c:	67 66 89 44 24 04    	mov    DWORD PTR [esp+0x4],eax
    4872:	67 66 c7 04 24 c0 be 	mov    DWORD PTR [esp],0xbec0
    4879:	00 00 
    487b:	66 e8 ec 19 00 00    	call   626d <_enqueue>
D:\OneDrive\Study\Operating Systems\实验\project7\codes/./lib/utilsC.c:652
}
    4881:	90                   	nop
    4882:	66 83 c4 14          	add    esp,0x14
    4886:	66 5b                	pop    ebx
    4888:	66 5e                	pop    esi
    488a:	66 5d                	pop    ebp
    488c:	66 c3                	ret    

0000488e <_do_delay>:
do_delay():
D:\OneDrive\Study\Operating Systems\实验\project7\codes/./lib/utilsC.c:655

void do_delay(int clocks)
{
    488e:	66 55                	push   ebp
    4890:	66 89 e5             	mov    ebp,esp
    4893:	66 83 ec 08          	sub    esp,0x8
D:\OneDrive\Study\Operating Systems\实验\project7\codes/./lib/utilsC.c:656
	delEle(&ReadyQue, curProcessId);
    4897:	66 a1 a0 be          	mov    eax,ds:0xbea0
    489b:	67 66 89 44 24 04    	mov    DWORD PTR [esp+0x4],eax
    48a1:	67 66 c7 04 24 c0 be 	mov    DWORD PTR [esp],0xbec0
    48a8:	00 00 
    48aa:	66 e8 e7 1a 00 00    	call   6397 <_delEle>
D:\OneDrive\Study\Operating Systems\实验\project7\codes/./lib/utilsC.c:657
	processTable[curProcessId].status = blocked;
    48b0:	66 8b 16 a0 be       	mov    edx,DWORD PTR ds:0xbea0
    48b5:	66 89 d0             	mov    eax,edx
    48b8:	66 c1 e0 03          	shl    eax,0x3
    48bc:	66 01 d0             	add    eax,edx
    48bf:	66 c1 e0 04          	shl    eax,0x4
    48c3:	66 05 ec b3 00 00    	add    eax,0xb3ec
    48c9:	67 66 c7 00 03 00 00 	mov    DWORD PTR [eax],0x3
    48d0:	00 
D:\OneDrive\Study\Operating Systems\实验\project7\codes/./lib/utilsC.c:658
	enqueue(&BlockedQue, curProcessId);
    48d1:	66 a1 a0 be          	mov    eax,ds:0xbea0
    48d5:	67 66 89 44 24 04    	mov    DWORD PTR [esp+0x4],eax
    48db:	67 66 c7 04 24 a0 96 	mov    DWORD PTR [esp],0x96a0
    48e2:	00 00 
    48e4:	66 e8 83 19 00 00    	call   626d <_enqueue>
D:\OneDrive\Study\Operating Systems\实验\project7\codes/./lib/utilsC.c:659
	enqueue(&(delayQue.IDque), curProcessId);
    48ea:	66 a1 a0 be          	mov    eax,ds:0xbea0
    48ee:	67 66 89 44 24 04    	mov    DWORD PTR [esp+0x4],eax
    48f4:	67 66 c7 04 24 20 92 	mov    DWORD PTR [esp],0x9220
    48fb:	00 00 
    48fd:	66 e8 6a 19 00 00    	call   626d <_enqueue>
D:\OneDrive\Study\Operating Systems\实验\project7\codes/./lib/utilsC.c:660
	enqueue(&(delayQue.clocksQue), clocks);
    4903:	67 66 8b 45 08       	mov    eax,DWORD PTR [ebp+0x8]
    4908:	67 66 89 44 24 04    	mov    DWORD PTR [esp+0x4],eax
    490e:	67 66 c7 04 24 7c 92 	mov    DWORD PTR [esp],0x927c
    4915:	00 00 
    4917:	66 e8 50 19 00 00    	call   626d <_enqueue>
D:\OneDrive\Study\Operating Systems\实验\project7\codes/./lib/utilsC.c:661
	processSwitch();
    491d:	66 e8 12 01 00 00    	call   4a35 <_processSwitch>
D:\OneDrive\Study\Operating Systems\实验\project7\codes/./lib/utilsC.c:662
}
    4923:	90                   	nop
    4924:	66 c9                	leave  
    4926:	66 c3                	ret    

00004928 <_passOneClock>:
passOneClock():
D:\OneDrive\Study\Operating Systems\实验\project7\codes/./lib/utilsC.c:667

int tmpID;
int tmpClocks;
void passOneClock()
{
    4928:	66 55                	push   ebp
    492a:	66 89 e5             	mov    ebp,esp
    492d:	66 83 ec 10          	sub    esp,0x10
D:\OneDrive\Study\Operating Systems\实验\project7\codes/./lib/utilsC.c:668
	int queSize = size(&(delayQue.IDque));
    4931:	67 66 c7 04 24 20 92 	mov    DWORD PTR [esp],0x9220
    4938:	00 00 
    493a:	66 e8 e7 18 00 00    	call   6227 <_size>
    4940:	67 66 89 45 f8       	mov    DWORD PTR [ebp-0x8],eax
D:\OneDrive\Study\Operating Systems\实验\project7\codes/./lib/utilsC.c:669
	for (int i = 0; i < queSize; ++i)
    4945:	67 66 c7 45 fc 00 00 	mov    DWORD PTR [ebp-0x4],0x0
    494c:	00 00 
    494e:	e9 d1 00             	jmp    4a22 <_passOneClock+0xfa>
D:\OneDrive\Study\Operating Systems\实验\project7\codes/./lib/utilsC.c:671
	{
		dequeue(&(delayQue.IDque), &tmpID);
    4951:	67 66 c7 44 24 04 2c 	mov    DWORD PTR [esp+0x4],0xbf2c
    4958:	bf 00 00 
    495b:	67 66 c7 04 24 20 92 	mov    DWORD PTR [esp],0x9220
    4962:	00 00 
    4964:	66 e8 70 19 00 00    	call   62da <_dequeue>
D:\OneDrive\Study\Operating Systems\实验\project7\codes/./lib/utilsC.c:672
		dequeue(&(delayQue.clocksQue), &tmpClocks);
    496a:	67 66 c7 44 24 04 24 	mov    DWORD PTR [esp+0x4],0xbf24
    4971:	bf 00 00 
    4974:	67 66 c7 04 24 7c 92 	mov    DWORD PTR [esp],0x927c
    497b:	00 00 
    497d:	66 e8 57 19 00 00    	call   62da <_dequeue>
D:\OneDrive\Study\Operating Systems\实验\project7\codes/./lib/utilsC.c:673
		tmpClocks -= 1;
    4983:	66 a1 24 bf          	mov    eax,ds:0xbf24
    4987:	66 48                	dec    eax
    4989:	66 a3 24 bf          	mov    ds:0xbf24,eax
D:\OneDrive\Study\Operating Systems\实验\project7\codes/./lib/utilsC.c:674
		if (tmpClocks <= 0) {
    498d:	66 a1 24 bf          	mov    eax,ds:0xbf24
    4991:	66 85 c0             	test   eax,eax
    4994:	7f 55                	jg     49eb <_passOneClock+0xc3>
D:\OneDrive\Study\Operating Systems\实验\project7\codes/./lib/utilsC.c:675
			delEle(&BlockedQue, tmpID);
    4996:	66 a1 2c bf          	mov    eax,ds:0xbf2c
    499a:	67 66 89 44 24 04    	mov    DWORD PTR [esp+0x4],eax
    49a0:	67 66 c7 04 24 a0 96 	mov    DWORD PTR [esp],0x96a0
    49a7:	00 00 
    49a9:	66 e8 e8 19 00 00    	call   6397 <_delEle>
D:\OneDrive\Study\Operating Systems\实验\project7\codes/./lib/utilsC.c:676
			processTable[tmpID].status = ready;
    49af:	66 8b 16 2c bf       	mov    edx,DWORD PTR ds:0xbf2c
    49b4:	66 89 d0             	mov    eax,edx
    49b7:	66 c1 e0 03          	shl    eax,0x3
    49bb:	66 01 d0             	add    eax,edx
    49be:	66 c1 e0 04          	shl    eax,0x4
    49c2:	66 05 ec b3 00 00    	add    eax,0xb3ec
    49c8:	67 66 c7 00 01 00 00 	mov    DWORD PTR [eax],0x1
    49cf:	00 
D:\OneDrive\Study\Operating Systems\实验\project7\codes/./lib/utilsC.c:677
			enqueue(&ReadyQue, tmpID);
    49d0:	66 a1 2c bf          	mov    eax,ds:0xbf2c
    49d4:	67 66 89 44 24 04    	mov    DWORD PTR [esp+0x4],eax
    49da:	67 66 c7 04 24 c0 be 	mov    DWORD PTR [esp],0xbec0
    49e1:	00 00 
    49e3:	66 e8 84 18 00 00    	call   626d <_enqueue>
    49e9:	eb 32                	jmp    4a1d <_passOneClock+0xf5>
D:\OneDrive\Study\Operating Systems\实验\project7\codes/./lib/utilsC.c:679
		} else {
			enqueue(&(delayQue.IDque), tmpID);
    49eb:	66 a1 2c bf          	mov    eax,ds:0xbf2c
    49ef:	67 66 89 44 24 04    	mov    DWORD PTR [esp+0x4],eax
    49f5:	67 66 c7 04 24 20 92 	mov    DWORD PTR [esp],0x9220
    49fc:	00 00 
    49fe:	66 e8 69 18 00 00    	call   626d <_enqueue>
D:\OneDrive\Study\Operating Systems\实验\project7\codes/./lib/utilsC.c:680
			enqueue(&(delayQue.clocksQue), tmpClocks);
    4a04:	66 a1 24 bf          	mov    eax,ds:0xbf24
    4a08:	67 66 89 44 24 04    	mov    DWORD PTR [esp+0x4],eax
    4a0e:	67 66 c7 04 24 7c 92 	mov    DWORD PTR [esp],0x927c
    4a15:	00 00 
    4a17:	66 e8 50 18 00 00    	call   626d <_enqueue>
D:\OneDrive\Study\Operating Systems\实验\project7\codes/./lib/utilsC.c:669
	for (int i = 0; i < queSize; ++i)
    4a1d:	67 66 ff 45 fc       	inc    DWORD PTR [ebp-0x4]
    4a22:	67 66 8b 45 fc       	mov    eax,DWORD PTR [ebp-0x4]
    4a27:	67 66 3b 45 f8       	cmp    eax,DWORD PTR [ebp-0x8]
    4a2c:	0f 8c 21 ff          	jl     4951 <_passOneClock+0x29>
D:\OneDrive\Study\Operating Systems\实验\project7\codes/./lib/utilsC.c:683
		}
	}
}
    4a30:	90                   	nop
    4a31:	66 c9                	leave  
    4a33:	66 c3                	ret    

00004a35 <_processSwitch>:
processSwitch():
D:\OneDrive\Study\Operating Systems\实验\project7\codes/./lib/utilsC.c:686

void processSwitch()
{
    4a35:	66 55                	push   ebp
    4a37:	66 89 e5             	mov    ebp,esp
D:\OneDrive\Study\Operating Systems\实验\project7\codes/./lib/utilsC.c:687
	__asm__("sti\n");
    4a3a:	fb                   	sti    
D:\OneDrive\Study\Operating Systems\实验\project7\codes/./lib/utilsC.c:688
	__asm__("int $0x8\n");
    4a3b:	cd 08                	int    0x8
D:\OneDrive\Study\Operating Systems\实验\project7\codes/./lib/utilsC.c:689
	__asm__("cli\n");
    4a3d:	fa                   	cli    
D:\OneDrive\Study\Operating Systems\实验\project7\codes/./lib/utilsC.c:690
}
    4a3e:	90                   	nop
    4a3f:	66 5d                	pop    ebp
    4a41:	66 c3                	ret    

00004a43 <_malloc>:
malloc():
D:\OneDrive\Study\Operating Systems\实验\project7\codes/./lib/utilsC.c:696
///////////// process ends //////////


//////////// memory /////////////
void * malloc(int size)
{
    4a43:	66 55                	push   ebp
    4a45:	66 89 e5             	mov    ebp,esp
    4a48:	66 83 ec 30          	sub    esp,0x30
D:\OneDrive\Study\Operating Systems\实验\project7\codes/./lib/utilsC.c:698
	int ds;
	__asm__("mov %gs, %eax\n");
    4a4c:	66 8c e8             	mov    eax,gs
D:\OneDrive\Study\Operating Systems\实验\project7\codes/./lib/utilsC.c:699
	__asm__("pushl %eax");
    4a4f:	66 50                	push   eax
D:\OneDrive\Study\Operating Systems\实验\project7\codes/./lib/utilsC.c:700
	__asm__("popl %0":"=m"(ds));
    4a51:	67 66 8f 45 e8       	pop    DWORD PTR [ebp-0x18]
D:\OneDrive\Study\Operating Systems\实验\project7\codes/./lib/utilsC.c:705
	//ds板ㄦgs(ds)瀵瀛ㄧ笺
	char tmpstr[10];
	// int2str(ds, tmpstr);
	// printSentence(tmpstr, 12, 0, 5, white);
	size = size + (16 - size % 16);
    4a56:	67 66 8b 45 08       	mov    eax,DWORD PTR [ebp+0x8]
    4a5b:	66 25 0f 00 00 80    	and    eax,0x8000000f
    4a61:	66 85 c0             	test   eax,eax
    4a64:	79 08                	jns    4a6e <_malloc+0x2b>
    4a66:	66 48                	dec    eax
    4a68:	66 83 c8 f0          	or     eax,0xfffffff0
    4a6c:	66 40                	inc    eax
    4a6e:	66 ba 10 00 00 00    	mov    edx,0x10
    4a74:	66 29 c2             	sub    edx,eax
    4a77:	66 89 d0             	mov    eax,edx
    4a7a:	67 66 01 45 08       	add    DWORD PTR [ebp+0x8],eax
D:\OneDrive\Study\Operating Systems\实验\project7\codes/./lib/utilsC.c:706
	int begin = 0;
    4a7f:	67 66 c7 45 fc 00 00 	mov    DWORD PTR [ebp-0x4],0x0
    4a86:	00 00 
D:\OneDrive\Study\Operating Systems\实验\project7\codes/./lib/utilsC.c:707
	for (int j = 0; j < MemLen; ++j) {
    4a88:	67 66 c7 45 f8 00 00 	mov    DWORD PTR [ebp-0x8],0x0
    4a8f:	00 00 
    4a91:	e9 42 01             	jmp    4bd6 <_malloc+0x193>
D:\OneDrive\Study\Operating Systems\实验\project7\codes/./lib/utilsC.c:708
		int blockNum = findLaterBlock(ds << 4, size, begin);
    4a94:	67 66 8b 45 e8       	mov    eax,DWORD PTR [ebp-0x18]
    4a99:	66 c1 e0 04          	shl    eax,0x4
    4a9d:	66 89 c2             	mov    edx,eax
    4aa0:	67 66 8b 45 fc       	mov    eax,DWORD PTR [ebp-0x4]
    4aa5:	67 66 89 44 24 08    	mov    DWORD PTR [esp+0x8],eax
    4aab:	67 66 8b 45 08       	mov    eax,DWORD PTR [ebp+0x8]
    4ab0:	67 66 89 44 24 04    	mov    DWORD PTR [esp+0x4],eax
    4ab6:	67 66 89 14 24       	mov    DWORD PTR [esp],edx
    4abb:	66 e8 8a 0c 00 00    	call   574b <_findLaterBlock>
    4ac1:	67 66 89 45 f0       	mov    DWORD PTR [ebp-0x10],eax
D:\OneDrive\Study\Operating Systems\实验\project7\codes/./lib/utilsC.c:709
		int endDs = ((memoryTable[blockNum].beginAddr + size) & 0xf0000) >> 4;
    4ac6:	67 66 8b 55 f0       	mov    edx,DWORD PTR [ebp-0x10]
    4acb:	66 89 d0             	mov    eax,edx
    4ace:	66 01 c0             	add    eax,eax
    4ad1:	66 01 d0             	add    eax,edx
    4ad4:	66 c1 e0 03          	shl    eax,0x3
    4ad8:	66 05 e0 92 00 00    	add    eax,0x92e0
    4ade:	67 66 8b 10          	mov    edx,DWORD PTR [eax]
    4ae2:	67 66 8b 45 08       	mov    eax,DWORD PTR [ebp+0x8]
    4ae7:	66 01 d0             	add    eax,edx
    4aea:	66 c1 f8 04          	sar    eax,0x4
    4aee:	66 25 00 f0 00 00    	and    eax,0xf000
    4af4:	67 66 89 45 ec       	mov    DWORD PTR [ebp-0x14],eax
D:\OneDrive\Study\Operating Systems\实验\project7\codes/./lib/utilsC.c:710
		if (endDs <= ds) {
    4af9:	67 66 8b 45 e8       	mov    eax,DWORD PTR [ebp-0x18]
    4afe:	67 66 39 45 ec       	cmp    DWORD PTR [ebp-0x14],eax
    4b03:	0f 8f c0 00          	jg     4bc7 <_malloc+0x184>
D:\OneDrive\Study\Operating Systems\实验\project7\codes/./lib/utilsC.c:711
			blockNum = require(size, blockNum);
    4b07:	67 66 8b 45 f0       	mov    eax,DWORD PTR [ebp-0x10]
    4b0c:	67 66 89 44 24 04    	mov    DWORD PTR [esp+0x4],eax
    4b12:	67 66 8b 45 08       	mov    eax,DWORD PTR [ebp+0x8]
    4b17:	67 66 89 04 24       	mov    DWORD PTR [esp],eax
    4b1c:	66 e8 f3 0f 00 00    	call   5b15 <_require>
    4b22:	67 66 89 45 f0       	mov    DWORD PTR [ebp-0x10],eax
D:\OneDrive\Study\Operating Systems\实验\project7\codes/./lib/utilsC.c:712
			int i = 0;
    4b27:	67 66 c7 45 f4 00 00 	mov    DWORD PTR [ebp-0xc],0x0
    4b2e:	00 00 
D:\OneDrive\Study\Operating Systems\实验\project7\codes/./lib/utilsC.c:713
			for (; i < HeapLimit; ++i)
    4b30:	eb 63                	jmp    4b95 <_malloc+0x152>
D:\OneDrive\Study\Operating Systems\实验\project7\codes/./lib/utilsC.c:715
			{
				if (processTable[curProcessId].heapArray[i] == -1) {
    4b32:	66 8b 16 a0 be       	mov    edx,DWORD PTR ds:0xbea0
    4b37:	66 89 d0             	mov    eax,edx
    4b3a:	66 c1 e0 03          	shl    eax,0x3
    4b3e:	66 01 d0             	add    eax,edx
    4b41:	66 c1 e0 02          	shl    eax,0x2
    4b45:	67 66 8b 55 f4       	mov    edx,DWORD PTR [ebp-0xc]
    4b4a:	66 01 d0             	add    eax,edx
    4b4d:	66 83 c0 18          	add    eax,0x18
    4b51:	67 66 8b 04 85 64 b3 	mov    eax,DWORD PTR [eax*4+0xb364]
    4b58:	00 00 
    4b5a:	66 83 f8 ff          	cmp    eax,0xffffffff
    4b5e:	75 30                	jne    4b90 <_malloc+0x14d>
D:\OneDrive\Study\Operating Systems\实验\project7\codes/./lib/utilsC.c:716
					processTable[curProcessId].heapArray[i] = blockNum;
    4b60:	66 8b 16 a0 be       	mov    edx,DWORD PTR ds:0xbea0
    4b65:	66 89 d0             	mov    eax,edx
    4b68:	66 c1 e0 03          	shl    eax,0x3
    4b6c:	66 01 d0             	add    eax,edx
    4b6f:	66 c1 e0 02          	shl    eax,0x2
    4b73:	67 66 8b 55 f4       	mov    edx,DWORD PTR [ebp-0xc]
    4b78:	66 01 d0             	add    eax,edx
    4b7b:	67 66 8d 50 18       	lea    edx,[eax+0x18]
    4b80:	67 66 8b 45 f0       	mov    eax,DWORD PTR [ebp-0x10]
    4b85:	67 66 89 04 95 64 b3 	mov    DWORD PTR [edx*4+0xb364],eax
    4b8c:	00 00 
D:\OneDrive\Study\Operating Systems\实验\project7\codes/./lib/utilsC.c:717
					break;
    4b8e:	eb 0d                	jmp    4b9d <_malloc+0x15a>
D:\OneDrive\Study\Operating Systems\实验\project7\codes/./lib/utilsC.c:713
			for (; i < HeapLimit; ++i)
    4b90:	67 66 ff 45 f4       	inc    DWORD PTR [ebp-0xc]
    4b95:	67 66 83 7d f4 04    	cmp    DWORD PTR [ebp-0xc],0x4
    4b9b:	7e 95                	jle    4b32 <_malloc+0xef>
D:\OneDrive\Study\Operating Systems\实验\project7\codes/./lib/utilsC.c:720
				}
			}
			return (void*)((memoryTable[blockNum].beginAddr) - (ds << 4));
    4b9d:	67 66 8b 55 f0       	mov    edx,DWORD PTR [ebp-0x10]
    4ba2:	66 89 d0             	mov    eax,edx
    4ba5:	66 01 c0             	add    eax,eax
    4ba8:	66 01 d0             	add    eax,edx
    4bab:	66 c1 e0 03          	shl    eax,0x3
    4baf:	66 05 e0 92 00 00    	add    eax,0x92e0
    4bb5:	67 66 8b 00          	mov    eax,DWORD PTR [eax]
    4bb9:	67 66 8b 55 e8       	mov    edx,DWORD PTR [ebp-0x18]
    4bbe:	66 c1 e2 04          	shl    edx,0x4
    4bc2:	66 29 d0             	sub    eax,edx
    4bc5:	eb 1f                	jmp    4be6 <_malloc+0x1a3>
D:\OneDrive\Study\Operating Systems\实验\project7\codes/./lib/utilsC.c:722
		} else {
			begin = blockNum;
    4bc7:	67 66 8b 45 f0       	mov    eax,DWORD PTR [ebp-0x10]
    4bcc:	67 66 89 45 fc       	mov    DWORD PTR [ebp-0x4],eax
D:\OneDrive\Study\Operating Systems\实验\project7\codes/./lib/utilsC.c:707
	for (int j = 0; j < MemLen; ++j) {
    4bd1:	67 66 ff 45 f8       	inc    DWORD PTR [ebp-0x8]
    4bd6:	67 66 83 7d f8 27    	cmp    DWORD PTR [ebp-0x8],0x27
    4bdc:	0f 8e b4 fe          	jle    4a94 <_malloc+0x51>
D:\OneDrive\Study\Operating Systems\实验\project7\codes/./lib/utilsC.c:725
		}
	}
	return NULL;
    4be0:	66 b8 00 00 00 00    	mov    eax,0x0
D:\OneDrive\Study\Operating Systems\实验\project7\codes/./lib/utilsC.c:726
}
    4be6:	66 c9                	leave  
    4be8:	66 c3                	ret    

00004bea <_free>:
free():
D:\OneDrive\Study\Operating Systems\实验\project7\codes/./lib/utilsC.c:729

void free(void * ptr, int ds)
{
    4bea:	66 55                	push   ebp
    4bec:	66 89 e5             	mov    ebp,esp
    4bef:	66 83 ec 0c          	sub    esp,0xc
D:\OneDrive\Study\Operating Systems\实验\project7\codes/./lib/utilsC.c:730
	int item = findItem((int)ptr + (ds << 4));
    4bf3:	67 66 8b 45 0c       	mov    eax,DWORD PTR [ebp+0xc]
    4bf8:	66 c1 e0 04          	shl    eax,0x4
    4bfc:	66 89 c2             	mov    edx,eax
    4bff:	67 66 8b 45 08       	mov    eax,DWORD PTR [ebp+0x8]
    4c04:	66 01 d0             	add    eax,edx
    4c07:	67 66 89 04 24       	mov    DWORD PTR [esp],eax
    4c0c:	66 e8 c8 0a 00 00    	call   56da <_findItem>
    4c12:	67 66 89 45 fc       	mov    DWORD PTR [ebp-0x4],eax
D:\OneDrive\Study\Operating Systems\实验\project7\codes/./lib/utilsC.c:731
	if (item != -1) {
    4c17:	67 66 83 7d fc ff    	cmp    DWORD PTR [ebp-0x4],0xffffffff
    4c1d:	74 49                	je     4c68 <_free+0x7e>
D:\OneDrive\Study\Operating Systems\实验\project7\codes/./lib/utilsC.c:732
		release(memoryTable[item].beginAddr, memoryTable[item].endAddr);
    4c1f:	67 66 8b 55 fc       	mov    edx,DWORD PTR [ebp-0x4]
    4c24:	66 89 d0             	mov    eax,edx
    4c27:	66 01 c0             	add    eax,eax
    4c2a:	66 01 d0             	add    eax,edx
    4c2d:	66 c1 e0 03          	shl    eax,0x3
    4c31:	66 05 e4 92 00 00    	add    eax,0x92e4
    4c37:	67 66 8b 10          	mov    edx,DWORD PTR [eax]
    4c3b:	67 66 8b 4d fc       	mov    ecx,DWORD PTR [ebp-0x4]
    4c40:	66 89 c8             	mov    eax,ecx
    4c43:	66 01 c0             	add    eax,eax
    4c46:	66 01 c8             	add    eax,ecx
    4c49:	66 c1 e0 03          	shl    eax,0x3
    4c4d:	66 05 e0 92 00 00    	add    eax,0x92e0
    4c53:	67 66 8b 00          	mov    eax,DWORD PTR [eax]
    4c57:	67 66 89 54 24 04    	mov    DWORD PTR [esp+0x4],edx
    4c5d:	67 66 89 04 24       	mov    DWORD PTR [esp],eax
    4c62:	66 e8 b1 0d 00 00    	call   5a19 <_release>
D:\OneDrive\Study\Operating Systems\实验\project7\codes/./lib/utilsC.c:734
	}
}
    4c68:	90                   	nop
    4c69:	66 c9                	leave  
    4c6b:	66 c3                	ret    

00004c6d <_nextUnusedItem>:
nextUnusedItem():
D:\OneDrive\Study\Operating Systems\实验\project7\codes/./lib/utilsC.c:737

int nextUnusedItem()
{
    4c6d:	66 55                	push   ebp
    4c6f:	66 89 e5             	mov    ebp,esp
    4c72:	66 83 ec 04          	sub    esp,0x4
D:\OneDrive\Study\Operating Systems\实验\project7\codes/./lib/utilsC.c:738
	for (int i = 0; i < MemLen; ++i)
    4c76:	67 66 c7 45 fc 00 00 	mov    DWORD PTR [ebp-0x4],0x0
    4c7d:	00 00 
    4c7f:	eb 2d                	jmp    4cae <_nextUnusedItem+0x41>
D:\OneDrive\Study\Operating Systems\实验\project7\codes/./lib/utilsC.c:740
	{
		if (memoryTable[i].used == 0)
    4c81:	67 66 8b 55 fc       	mov    edx,DWORD PTR [ebp-0x4]
    4c86:	66 89 d0             	mov    eax,edx
    4c89:	66 01 c0             	add    eax,eax
    4c8c:	66 01 d0             	add    eax,edx
    4c8f:	66 c1 e0 03          	shl    eax,0x3
    4c93:	66 05 f0 92 00 00    	add    eax,0x92f0
    4c99:	67 66 8b 00          	mov    eax,DWORD PTR [eax]
    4c9d:	66 85 c0             	test   eax,eax
    4ca0:	75 07                	jne    4ca9 <_nextUnusedItem+0x3c>
D:\OneDrive\Study\Operating Systems\实验\project7\codes/./lib/utilsC.c:741
			return i;
    4ca2:	67 66 8b 45 fc       	mov    eax,DWORD PTR [ebp-0x4]
    4ca7:	eb 13                	jmp    4cbc <_nextUnusedItem+0x4f>
D:\OneDrive\Study\Operating Systems\实验\project7\codes/./lib/utilsC.c:738
	for (int i = 0; i < MemLen; ++i)
    4ca9:	67 66 ff 45 fc       	inc    DWORD PTR [ebp-0x4]
    4cae:	67 66 83 7d fc 27    	cmp    DWORD PTR [ebp-0x4],0x27
    4cb4:	7e cb                	jle    4c81 <_nextUnusedItem+0x14>
D:\OneDrive\Study\Operating Systems\实验\project7\codes/./lib/utilsC.c:743
	}
	return -1;
    4cb6:	66 b8 ff ff ff ff    	mov    eax,0xffffffff
D:\OneDrive\Study\Operating Systems\实验\project7\codes/./lib/utilsC.c:744
}
    4cbc:	66 c9                	leave  
    4cbe:	66 c3                	ret    

00004cc0 <_initialMemoryTable>:
initialMemoryTable():
D:\OneDrive\Study\Operating Systems\实验\project7\codes/./lib/utilsC.c:747

void initialMemoryTable()
{
    4cc0:	66 55                	push   ebp
    4cc2:	66 89 e5             	mov    ebp,esp
    4cc5:	66 83 ec 08          	sub    esp,0x8
D:\OneDrive\Study\Operating Systems\实验\project7\codes/./lib/utilsC.c:749
	int next;
	for (int i = 0; i < MemLen; ++i)
    4cc9:	67 66 c7 45 fc 00 00 	mov    DWORD PTR [ebp-0x4],0x0
    4cd0:	00 00 
    4cd2:	e9 85 00             	jmp    4d5a <_initialMemoryTable+0x9a>
D:\OneDrive\Study\Operating Systems\实验\project7\codes/./lib/utilsC.c:751
	{
		memoryTable[i].used = 0;
    4cd5:	67 66 8b 55 fc       	mov    edx,DWORD PTR [ebp-0x4]
    4cda:	66 89 d0             	mov    eax,edx
    4cdd:	66 01 c0             	add    eax,eax
    4ce0:	66 01 d0             	add    eax,edx
    4ce3:	66 c1 e0 03          	shl    eax,0x3
    4ce7:	66 05 f0 92 00 00    	add    eax,0x92f0
    4ced:	67 66 c7 00 00 00 00 	mov    DWORD PTR [eax],0x0
    4cf4:	00 
D:\OneDrive\Study\Operating Systems\实验\project7\codes/./lib/utilsC.c:752
		memoryTable[i].next = -1;
    4cf5:	67 66 8b 55 fc       	mov    edx,DWORD PTR [ebp-0x4]
    4cfa:	66 89 d0             	mov    eax,edx
    4cfd:	66 01 c0             	add    eax,eax
    4d00:	66 01 d0             	add    eax,edx
    4d03:	66 c1 e0 03          	shl    eax,0x3
    4d07:	66 05 ec 92 00 00    	add    eax,0x92ec
    4d0d:	67 66 c7 00 ff ff ff 	mov    DWORD PTR [eax],0xffffffff
    4d14:	ff 
D:\OneDrive\Study\Operating Systems\实验\project7\codes/./lib/utilsC.c:753
		memoryTable[i].pre = -1;
    4d15:	67 66 8b 55 fc       	mov    edx,DWORD PTR [ebp-0x4]
    4d1a:	66 89 d0             	mov    eax,edx
    4d1d:	66 01 c0             	add    eax,eax
    4d20:	66 01 d0             	add    eax,edx
    4d23:	66 c1 e0 03          	shl    eax,0x3
    4d27:	66 05 e8 92 00 00    	add    eax,0x92e8
    4d2d:	67 66 c7 00 ff ff ff 	mov    DWORD PTR [eax],0xffffffff
    4d34:	ff 
D:\OneDrive\Study\Operating Systems\实验\project7\codes/./lib/utilsC.c:754
		memoryTable[i].status = unused;
    4d35:	67 66 8b 55 fc       	mov    edx,DWORD PTR [ebp-0x4]
    4d3a:	66 89 d0             	mov    eax,edx
    4d3d:	66 01 c0             	add    eax,eax
    4d40:	66 01 d0             	add    eax,edx
    4d43:	66 c1 e0 03          	shl    eax,0x3
    4d47:	66 05 f4 92 00 00    	add    eax,0x92f4
    4d4d:	67 66 c7 00 00 00 00 	mov    DWORD PTR [eax],0x0
    4d54:	00 
D:\OneDrive\Study\Operating Systems\实验\project7\codes/./lib/utilsC.c:749
	for (int i = 0; i < MemLen; ++i)
    4d55:	67 66 ff 45 fc       	inc    DWORD PTR [ebp-0x4]
    4d5a:	67 66 83 7d fc 27    	cmp    DWORD PTR [ebp-0x4],0x27
    4d60:	0f 8e 71 ff          	jle    4cd5 <_initialMemoryTable+0x15>
D:\OneDrive\Study\Operating Systems\实验\project7\codes/./lib/utilsC.c:756
	}
	firstUnusedMemoryItem = 0;
    4d64:	66 c7 06 04 92 00 00 	mov    DWORD PTR ds:0x9204,0x0
    4d6b:	00 00 
D:\OneDrive\Study\Operating Systems\实验\project7\codes/./lib/utilsC.c:757
	memoryTable[firstUnusedMemoryItem].pre = -1;
    4d6d:	66 8b 16 04 92       	mov    edx,DWORD PTR ds:0x9204
    4d72:	66 89 d0             	mov    eax,edx
    4d75:	66 01 c0             	add    eax,eax
    4d78:	66 01 d0             	add    eax,edx
    4d7b:	66 c1 e0 03          	shl    eax,0x3
    4d7f:	66 05 e8 92 00 00    	add    eax,0x92e8
    4d85:	67 66 c7 00 ff ff ff 	mov    DWORD PTR [eax],0xffffffff
    4d8c:	ff 
D:\OneDrive\Study\Operating Systems\实验\project7\codes/./lib/utilsC.c:758
	memoryTable[firstUnusedMemoryItem].used = 1;
    4d8d:	66 8b 16 04 92       	mov    edx,DWORD PTR ds:0x9204
    4d92:	66 89 d0             	mov    eax,edx
    4d95:	66 01 c0             	add    eax,eax
    4d98:	66 01 d0             	add    eax,edx
    4d9b:	66 c1 e0 03          	shl    eax,0x3
    4d9f:	66 05 f0 92 00 00    	add    eax,0x92f0
    4da5:	67 66 c7 00 01 00 00 	mov    DWORD PTR [eax],0x1
    4dac:	00 
D:\OneDrive\Study\Operating Systems\实验\project7\codes/./lib/utilsC.c:759
	memoryTable[firstUnusedMemoryItem].beginAddr = 0;
    4dad:	66 8b 16 04 92       	mov    edx,DWORD PTR ds:0x9204
    4db2:	66 89 d0             	mov    eax,edx
    4db5:	66 01 c0             	add    eax,eax
    4db8:	66 01 d0             	add    eax,edx
    4dbb:	66 c1 e0 03          	shl    eax,0x3
    4dbf:	66 05 e0 92 00 00    	add    eax,0x92e0
    4dc5:	67 66 c7 00 00 00 00 	mov    DWORD PTR [eax],0x0
    4dcc:	00 
D:\OneDrive\Study\Operating Systems\实验\project7\codes/./lib/utilsC.c:760
	memoryTable[firstUnusedMemoryItem].endAddr = 0x4ff;
    4dcd:	66 8b 16 04 92       	mov    edx,DWORD PTR ds:0x9204
    4dd2:	66 89 d0             	mov    eax,edx
    4dd5:	66 01 c0             	add    eax,eax
    4dd8:	66 01 d0             	add    eax,edx
    4ddb:	66 c1 e0 03          	shl    eax,0x3
    4ddf:	66 05 e4 92 00 00    	add    eax,0x92e4
    4de5:	67 66 c7 00 ff 04 00 	mov    DWORD PTR [eax],0x4ff
    4dec:	00 
D:\OneDrive\Study\Operating Systems\实验\project7\codes/./lib/utilsC.c:761
	memoryTable[firstUnusedMemoryItem].status = used;
    4ded:	66 8b 16 04 92       	mov    edx,DWORD PTR ds:0x9204
    4df2:	66 89 d0             	mov    eax,edx
    4df5:	66 01 c0             	add    eax,eax
    4df8:	66 01 d0             	add    eax,edx
    4dfb:	66 c1 e0 03          	shl    eax,0x3
    4dff:	66 05 f4 92 00 00    	add    eax,0x92f4
    4e05:	67 66 c7 00 01 00 00 	mov    DWORD PTR [eax],0x1
    4e0c:	00 
D:\OneDrive\Study\Operating Systems\实验\project7\codes/./lib/utilsC.c:762
	next = nextUnusedItem();
    4e0d:	66 e8 5a fe ff ff    	call   4c6d <_nextUnusedItem>
    4e13:	67 66 89 45 f8       	mov    DWORD PTR [ebp-0x8],eax
D:\OneDrive\Study\Operating Systems\实验\project7\codes/./lib/utilsC.c:763
	memoryTable[next].pre = firstUnusedMemoryItem;
    4e18:	66 8b 16 04 92       	mov    edx,DWORD PTR ds:0x9204
    4e1d:	67 66 8b 4d f8       	mov    ecx,DWORD PTR [ebp-0x8]
    4e22:	66 89 c8             	mov    eax,ecx
    4e25:	66 01 c0             	add    eax,eax
    4e28:	66 01 c8             	add    eax,ecx
    4e2b:	66 c1 e0 03          	shl    eax,0x3
    4e2f:	66 05 e8 92 00 00    	add    eax,0x92e8
    4e35:	67 66 89 10          	mov    DWORD PTR [eax],edx
D:\OneDrive\Study\Operating Systems\实验\project7\codes/./lib/utilsC.c:764
	memoryTable[firstUnusedMemoryItem].next = next;
    4e39:	66 8b 16 04 92       	mov    edx,DWORD PTR ds:0x9204
    4e3e:	66 89 d0             	mov    eax,edx
    4e41:	66 01 c0             	add    eax,eax
    4e44:	66 01 d0             	add    eax,edx
    4e47:	66 c1 e0 03          	shl    eax,0x3
    4e4b:	67 66 8d 90 ec 92 00 	lea    edx,[eax+0x92ec]
    4e52:	00 
    4e53:	67 66 8b 45 f8       	mov    eax,DWORD PTR [ebp-0x8]
    4e58:	67 66 89 02          	mov    DWORD PTR [edx],eax
D:\OneDrive\Study\Operating Systems\实验\project7\codes/./lib/utilsC.c:765
	firstUnusedMemoryItem = next;
    4e5c:	67 66 8b 45 f8       	mov    eax,DWORD PTR [ebp-0x8]
    4e61:	66 a3 04 92          	mov    ds:0x9204,eax
D:\OneDrive\Study\Operating Systems\实验\project7\codes/./lib/utilsC.c:767

	memoryTable[firstUnusedMemoryItem].used = 1;
    4e65:	66 8b 16 04 92       	mov    edx,DWORD PTR ds:0x9204
    4e6a:	66 89 d0             	mov    eax,edx
    4e6d:	66 01 c0             	add    eax,eax
    4e70:	66 01 d0             	add    eax,edx
    4e73:	66 c1 e0 03          	shl    eax,0x3
    4e77:	66 05 f0 92 00 00    	add    eax,0x92f0
    4e7d:	67 66 c7 00 01 00 00 	mov    DWORD PTR [eax],0x1
    4e84:	00 
D:\OneDrive\Study\Operating Systems\实验\project7\codes/./lib/utilsC.c:768
	memoryTable[firstUnusedMemoryItem].beginAddr = 0x500;
    4e85:	66 8b 16 04 92       	mov    edx,DWORD PTR ds:0x9204
    4e8a:	66 89 d0             	mov    eax,edx
    4e8d:	66 01 c0             	add    eax,eax
    4e90:	66 01 d0             	add    eax,edx
    4e93:	66 c1 e0 03          	shl    eax,0x3
    4e97:	66 05 e0 92 00 00    	add    eax,0x92e0
    4e9d:	67 66 c7 00 00 05 00 	mov    DWORD PTR [eax],0x500
    4ea4:	00 
D:\OneDrive\Study\Operating Systems\实验\project7\codes/./lib/utilsC.c:769
	memoryTable[firstUnusedMemoryItem].endAddr = 0x7cff;
    4ea5:	66 8b 16 04 92       	mov    edx,DWORD PTR ds:0x9204
    4eaa:	66 89 d0             	mov    eax,edx
    4ead:	66 01 c0             	add    eax,eax
    4eb0:	66 01 d0             	add    eax,edx
    4eb3:	66 c1 e0 03          	shl    eax,0x3
    4eb7:	66 05 e4 92 00 00    	add    eax,0x92e4
    4ebd:	67 66 c7 00 ff 7c 00 	mov    DWORD PTR [eax],0x7cff
    4ec4:	00 
D:\OneDrive\Study\Operating Systems\实验\project7\codes/./lib/utilsC.c:770
	memoryTable[firstUnusedMemoryItem].status = unused;
    4ec5:	66 8b 16 04 92       	mov    edx,DWORD PTR ds:0x9204
    4eca:	66 89 d0             	mov    eax,edx
    4ecd:	66 01 c0             	add    eax,eax
    4ed0:	66 01 d0             	add    eax,edx
    4ed3:	66 c1 e0 03          	shl    eax,0x3
    4ed7:	66 05 f4 92 00 00    	add    eax,0x92f4
    4edd:	67 66 c7 00 00 00 00 	mov    DWORD PTR [eax],0x0
    4ee4:	00 
D:\OneDrive\Study\Operating Systems\实验\project7\codes/./lib/utilsC.c:771
	next = nextUnusedItem();
    4ee5:	66 e8 82 fd ff ff    	call   4c6d <_nextUnusedItem>
    4eeb:	67 66 89 45 f8       	mov    DWORD PTR [ebp-0x8],eax
D:\OneDrive\Study\Operating Systems\实验\project7\codes/./lib/utilsC.c:772
	memoryTable[next].pre = firstUnusedMemoryItem;
    4ef0:	66 8b 16 04 92       	mov    edx,DWORD PTR ds:0x9204
    4ef5:	67 66 8b 4d f8       	mov    ecx,DWORD PTR [ebp-0x8]
    4efa:	66 89 c8             	mov    eax,ecx
    4efd:	66 01 c0             	add    eax,eax
    4f00:	66 01 c8             	add    eax,ecx
    4f03:	66 c1 e0 03          	shl    eax,0x3
    4f07:	66 05 e8 92 00 00    	add    eax,0x92e8
    4f0d:	67 66 89 10          	mov    DWORD PTR [eax],edx
D:\OneDrive\Study\Operating Systems\实验\project7\codes/./lib/utilsC.c:773
	memoryTable[firstUnusedMemoryItem].next = next;
    4f11:	66 8b 16 04 92       	mov    edx,DWORD PTR ds:0x9204
    4f16:	66 89 d0             	mov    eax,edx
    4f19:	66 01 c0             	add    eax,eax
    4f1c:	66 01 d0             	add    eax,edx
    4f1f:	66 c1 e0 03          	shl    eax,0x3
    4f23:	67 66 8d 90 ec 92 00 	lea    edx,[eax+0x92ec]
    4f2a:	00 
    4f2b:	67 66 8b 45 f8       	mov    eax,DWORD PTR [ebp-0x8]
    4f30:	67 66 89 02          	mov    DWORD PTR [edx],eax
D:\OneDrive\Study\Operating Systems\实验\project7\codes/./lib/utilsC.c:774
	firstUnusedMemoryItem = next;
    4f34:	67 66 8b 45 f8       	mov    eax,DWORD PTR [ebp-0x8]
    4f39:	66 a3 04 92          	mov    ds:0x9204,eax
D:\OneDrive\Study\Operating Systems\实验\project7\codes/./lib/utilsC.c:777


	memoryTable[firstUnusedMemoryItem].used = 1;
    4f3d:	66 8b 16 04 92       	mov    edx,DWORD PTR ds:0x9204
    4f42:	66 89 d0             	mov    eax,edx
    4f45:	66 01 c0             	add    eax,eax
    4f48:	66 01 d0             	add    eax,edx
    4f4b:	66 c1 e0 03          	shl    eax,0x3
    4f4f:	66 05 f0 92 00 00    	add    eax,0x92f0
    4f55:	67 66 c7 00 01 00 00 	mov    DWORD PTR [eax],0x1
    4f5c:	00 
D:\OneDrive\Study\Operating Systems\实验\project7\codes/./lib/utilsC.c:778
	memoryTable[firstUnusedMemoryItem].beginAddr = 0x7e00;
    4f5d:	66 8b 16 04 92       	mov    edx,DWORD PTR ds:0x9204
    4f62:	66 89 d0             	mov    eax,edx
    4f65:	66 01 c0             	add    eax,eax
    4f68:	66 01 d0             	add    eax,edx
    4f6b:	66 c1 e0 03          	shl    eax,0x3
    4f6f:	66 05 e0 92 00 00    	add    eax,0x92e0
    4f75:	67 66 c7 00 00 7e 00 	mov    DWORD PTR [eax],0x7e00
    4f7c:	00 
D:\OneDrive\Study\Operating Systems\实验\project7\codes/./lib/utilsC.c:779
	memoryTable[firstUnusedMemoryItem].endAddr = 0x7dff;
    4f7d:	66 8b 16 04 92       	mov    edx,DWORD PTR ds:0x9204
    4f82:	66 89 d0             	mov    eax,edx
    4f85:	66 01 c0             	add    eax,eax
    4f88:	66 01 d0             	add    eax,edx
    4f8b:	66 c1 e0 03          	shl    eax,0x3
    4f8f:	66 05 e4 92 00 00    	add    eax,0x92e4
    4f95:	67 66 c7 00 ff 7d 00 	mov    DWORD PTR [eax],0x7dff
    4f9c:	00 
D:\OneDrive\Study\Operating Systems\实验\project7\codes/./lib/utilsC.c:780
	memoryTable[firstUnusedMemoryItem].status = used;
    4f9d:	66 8b 16 04 92       	mov    edx,DWORD PTR ds:0x9204
    4fa2:	66 89 d0             	mov    eax,edx
    4fa5:	66 01 c0             	add    eax,eax
    4fa8:	66 01 d0             	add    eax,edx
    4fab:	66 c1 e0 03          	shl    eax,0x3
    4faf:	66 05 f4 92 00 00    	add    eax,0x92f4
    4fb5:	67 66 c7 00 01 00 00 	mov    DWORD PTR [eax],0x1
    4fbc:	00 
D:\OneDrive\Study\Operating Systems\实验\project7\codes/./lib/utilsC.c:781
	next = nextUnusedItem();
    4fbd:	66 e8 aa fc ff ff    	call   4c6d <_nextUnusedItem>
    4fc3:	67 66 89 45 f8       	mov    DWORD PTR [ebp-0x8],eax
D:\OneDrive\Study\Operating Systems\实验\project7\codes/./lib/utilsC.c:782
	memoryTable[next].pre = firstUnusedMemoryItem;
    4fc8:	66 8b 16 04 92       	mov    edx,DWORD PTR ds:0x9204
    4fcd:	67 66 8b 4d f8       	mov    ecx,DWORD PTR [ebp-0x8]
    4fd2:	66 89 c8             	mov    eax,ecx
    4fd5:	66 01 c0             	add    eax,eax
    4fd8:	66 01 c8             	add    eax,ecx
    4fdb:	66 c1 e0 03          	shl    eax,0x3
    4fdf:	66 05 e8 92 00 00    	add    eax,0x92e8
    4fe5:	67 66 89 10          	mov    DWORD PTR [eax],edx
D:\OneDrive\Study\Operating Systems\实验\project7\codes/./lib/utilsC.c:783
	memoryTable[firstUnusedMemoryItem].next = next;
    4fe9:	66 8b 16 04 92       	mov    edx,DWORD PTR ds:0x9204
    4fee:	66 89 d0             	mov    eax,edx
    4ff1:	66 01 c0             	add    eax,eax
    4ff4:	66 01 d0             	add    eax,edx
    4ff7:	66 c1 e0 03          	shl    eax,0x3
    4ffb:	67 66 8d 90 ec 92 00 	lea    edx,[eax+0x92ec]
    5002:	00 
    5003:	67 66 8b 45 f8       	mov    eax,DWORD PTR [ebp-0x8]
    5008:	67 66 89 02          	mov    DWORD PTR [edx],eax
D:\OneDrive\Study\Operating Systems\实验\project7\codes/./lib/utilsC.c:784
	firstUnusedMemoryItem = next;
    500c:	67 66 8b 45 f8       	mov    eax,DWORD PTR [ebp-0x8]
    5011:	66 a3 04 92          	mov    ds:0x9204,eax
D:\OneDrive\Study\Operating Systems\实验\project7\codes/./lib/utilsC.c:786

	memoryTable[firstUnusedMemoryItem].used = 1;
    5015:	66 8b 16 04 92       	mov    edx,DWORD PTR ds:0x9204
    501a:	66 89 d0             	mov    eax,edx
    501d:	66 01 c0             	add    eax,eax
    5020:	66 01 d0             	add    eax,edx
    5023:	66 c1 e0 03          	shl    eax,0x3
    5027:	66 05 f0 92 00 00    	add    eax,0x92f0
    502d:	67 66 c7 00 01 00 00 	mov    DWORD PTR [eax],0x1
    5034:	00 
D:\OneDrive\Study\Operating Systems\实验\project7\codes/./lib/utilsC.c:787
	memoryTable[firstUnusedMemoryItem].beginAddr = 0x7e00;
    5035:	66 8b 16 04 92       	mov    edx,DWORD PTR ds:0x9204
    503a:	66 89 d0             	mov    eax,edx
    503d:	66 01 c0             	add    eax,eax
    5040:	66 01 d0             	add    eax,edx
    5043:	66 c1 e0 03          	shl    eax,0x3
    5047:	66 05 e0 92 00 00    	add    eax,0x92e0
    504d:	67 66 c7 00 00 7e 00 	mov    DWORD PTR [eax],0x7e00
    5054:	00 
D:\OneDrive\Study\Operating Systems\实验\project7\codes/./lib/utilsC.c:788
	memoryTable[firstUnusedMemoryItem].endAddr = 0xc1ff;
    5055:	66 8b 16 04 92       	mov    edx,DWORD PTR ds:0x9204
    505a:	66 89 d0             	mov    eax,edx
    505d:	66 01 c0             	add    eax,eax
    5060:	66 01 d0             	add    eax,edx
    5063:	66 c1 e0 03          	shl    eax,0x3
    5067:	66 05 e4 92 00 00    	add    eax,0x92e4
    506d:	67 66 c7 00 ff c1 00 	mov    DWORD PTR [eax],0xc1ff
    5074:	00 
D:\OneDrive\Study\Operating Systems\实验\project7\codes/./lib/utilsC.c:789
	memoryTable[firstUnusedMemoryItem].status = unused;
    5075:	66 8b 16 04 92       	mov    edx,DWORD PTR ds:0x9204
    507a:	66 89 d0             	mov    eax,edx
    507d:	66 01 c0             	add    eax,eax
    5080:	66 01 d0             	add    eax,edx
    5083:	66 c1 e0 03          	shl    eax,0x3
    5087:	66 05 f4 92 00 00    	add    eax,0x92f4
    508d:	67 66 c7 00 00 00 00 	mov    DWORD PTR [eax],0x0
    5094:	00 
D:\OneDrive\Study\Operating Systems\实验\project7\codes/./lib/utilsC.c:790
	next = nextUnusedItem();
    5095:	66 e8 d2 fb ff ff    	call   4c6d <_nextUnusedItem>
    509b:	67 66 89 45 f8       	mov    DWORD PTR [ebp-0x8],eax
D:\OneDrive\Study\Operating Systems\实验\project7\codes/./lib/utilsC.c:791
	memoryTable[next].pre = firstUnusedMemoryItem;
    50a0:	66 8b 16 04 92       	mov    edx,DWORD PTR ds:0x9204
    50a5:	67 66 8b 4d f8       	mov    ecx,DWORD PTR [ebp-0x8]
    50aa:	66 89 c8             	mov    eax,ecx
    50ad:	66 01 c0             	add    eax,eax
    50b0:	66 01 c8             	add    eax,ecx
    50b3:	66 c1 e0 03          	shl    eax,0x3
    50b7:	66 05 e8 92 00 00    	add    eax,0x92e8
    50bd:	67 66 89 10          	mov    DWORD PTR [eax],edx
D:\OneDrive\Study\Operating Systems\实验\project7\codes/./lib/utilsC.c:792
	memoryTable[firstUnusedMemoryItem].next = next;
    50c1:	66 8b 16 04 92       	mov    edx,DWORD PTR ds:0x9204
    50c6:	66 89 d0             	mov    eax,edx
    50c9:	66 01 c0             	add    eax,eax
    50cc:	66 01 d0             	add    eax,edx
    50cf:	66 c1 e0 03          	shl    eax,0x3
    50d3:	67 66 8d 90 ec 92 00 	lea    edx,[eax+0x92ec]
    50da:	00 
    50db:	67 66 8b 45 f8       	mov    eax,DWORD PTR [ebp-0x8]
    50e0:	67 66 89 02          	mov    DWORD PTR [edx],eax
D:\OneDrive\Study\Operating Systems\实验\project7\codes/./lib/utilsC.c:793
	firstUnusedMemoryItem = next;
    50e4:	67 66 8b 45 f8       	mov    eax,DWORD PTR [ebp-0x8]
    50e9:	66 a3 04 92          	mov    ds:0x9204,eax
D:\OneDrive\Study\Operating Systems\实验\project7\codes/./lib/utilsC.c:795

	memoryTable[firstUnusedMemoryItem].used = 1;
    50ed:	66 8b 16 04 92       	mov    edx,DWORD PTR ds:0x9204
    50f2:	66 89 d0             	mov    eax,edx
    50f5:	66 01 c0             	add    eax,eax
    50f8:	66 01 d0             	add    eax,edx
    50fb:	66 c1 e0 03          	shl    eax,0x3
    50ff:	66 05 f0 92 00 00    	add    eax,0x92f0
    5105:	67 66 c7 00 01 00 00 	mov    DWORD PTR [eax],0x1
    510c:	00 
D:\OneDrive\Study\Operating Systems\实验\project7\codes/./lib/utilsC.c:796
	memoryTable[firstUnusedMemoryItem].beginAddr = 0xc200;
    510d:	66 8b 16 04 92       	mov    edx,DWORD PTR ds:0x9204
    5112:	66 89 d0             	mov    eax,edx
    5115:	66 01 c0             	add    eax,eax
    5118:	66 01 d0             	add    eax,edx
    511b:	66 c1 e0 03          	shl    eax,0x3
    511f:	66 05 e0 92 00 00    	add    eax,0x92e0
    5125:	67 66 c7 00 00 c2 00 	mov    DWORD PTR [eax],0xc200
    512c:	00 
D:\OneDrive\Study\Operating Systems\实验\project7\codes/./lib/utilsC.c:797
	memoryTable[firstUnusedMemoryItem].endAddr = 0xc9ff;
    512d:	66 8b 16 04 92       	mov    edx,DWORD PTR ds:0x9204
    5132:	66 89 d0             	mov    eax,edx
    5135:	66 01 c0             	add    eax,eax
    5138:	66 01 d0             	add    eax,edx
    513b:	66 c1 e0 03          	shl    eax,0x3
    513f:	66 05 e4 92 00 00    	add    eax,0x92e4
    5145:	67 66 c7 00 ff c9 00 	mov    DWORD PTR [eax],0xc9ff
    514c:	00 
D:\OneDrive\Study\Operating Systems\实验\project7\codes/./lib/utilsC.c:798
	memoryTable[firstUnusedMemoryItem].status = used;
    514d:	66 8b 16 04 92       	mov    edx,DWORD PTR ds:0x9204
    5152:	66 89 d0             	mov    eax,edx
    5155:	66 01 c0             	add    eax,eax
    5158:	66 01 d0             	add    eax,edx
    515b:	66 c1 e0 03          	shl    eax,0x3
    515f:	66 05 f4 92 00 00    	add    eax,0x92f4
    5165:	67 66 c7 00 01 00 00 	mov    DWORD PTR [eax],0x1
    516c:	00 
D:\OneDrive\Study\Operating Systems\实验\project7\codes/./lib/utilsC.c:799
	next = nextUnusedItem();
    516d:	66 e8 fa fa ff ff    	call   4c6d <_nextUnusedItem>
    5173:	67 66 89 45 f8       	mov    DWORD PTR [ebp-0x8],eax
D:\OneDrive\Study\Operating Systems\实验\project7\codes/./lib/utilsC.c:800
	memoryTable[next].pre = firstUnusedMemoryItem;
    5178:	66 8b 16 04 92       	mov    edx,DWORD PTR ds:0x9204
    517d:	67 66 8b 4d f8       	mov    ecx,DWORD PTR [ebp-0x8]
    5182:	66 89 c8             	mov    eax,ecx
    5185:	66 01 c0             	add    eax,eax
    5188:	66 01 c8             	add    eax,ecx
    518b:	66 c1 e0 03          	shl    eax,0x3
    518f:	66 05 e8 92 00 00    	add    eax,0x92e8
    5195:	67 66 89 10          	mov    DWORD PTR [eax],edx
D:\OneDrive\Study\Operating Systems\实验\project7\codes/./lib/utilsC.c:801
	memoryTable[firstUnusedMemoryItem].next = next;
    5199:	66 8b 16 04 92       	mov    edx,DWORD PTR ds:0x9204
    519e:	66 89 d0             	mov    eax,edx
    51a1:	66 01 c0             	add    eax,eax
    51a4:	66 01 d0             	add    eax,edx
    51a7:	66 c1 e0 03          	shl    eax,0x3
    51ab:	67 66 8d 90 ec 92 00 	lea    edx,[eax+0x92ec]
    51b2:	00 
    51b3:	67 66 8b 45 f8       	mov    eax,DWORD PTR [ebp-0x8]
    51b8:	67 66 89 02          	mov    DWORD PTR [edx],eax
D:\OneDrive\Study\Operating Systems\实验\project7\codes/./lib/utilsC.c:802
	firstUnusedMemoryItem = next;
    51bc:	67 66 8b 45 f8       	mov    eax,DWORD PTR [ebp-0x8]
    51c1:	66 a3 04 92          	mov    ds:0x9204,eax
D:\OneDrive\Study\Operating Systems\实验\project7\codes/./lib/utilsC.c:804

	memoryTable[firstUnusedMemoryItem].used = 1;
    51c5:	66 8b 16 04 92       	mov    edx,DWORD PTR ds:0x9204
    51ca:	66 89 d0             	mov    eax,edx
    51cd:	66 01 c0             	add    eax,eax
    51d0:	66 01 d0             	add    eax,edx
    51d3:	66 c1 e0 03          	shl    eax,0x3
    51d7:	66 05 f0 92 00 00    	add    eax,0x92f0
    51dd:	67 66 c7 00 01 00 00 	mov    DWORD PTR [eax],0x1
    51e4:	00 
D:\OneDrive\Study\Operating Systems\实验\project7\codes/./lib/utilsC.c:805
	memoryTable[firstUnusedMemoryItem].beginAddr = 0xca00;
    51e5:	66 8b 16 04 92       	mov    edx,DWORD PTR ds:0x9204
    51ea:	66 89 d0             	mov    eax,edx
    51ed:	66 01 c0             	add    eax,eax
    51f0:	66 01 d0             	add    eax,edx
    51f3:	66 c1 e0 03          	shl    eax,0x3
    51f7:	66 05 e0 92 00 00    	add    eax,0x92e0
    51fd:	67 66 c7 00 00 ca 00 	mov    DWORD PTR [eax],0xca00
    5204:	00 
D:\OneDrive\Study\Operating Systems\实验\project7\codes/./lib/utilsC.c:806
	memoryTable[firstUnusedMemoryItem].endAddr = 0x1ffff;
    5205:	66 8b 16 04 92       	mov    edx,DWORD PTR ds:0x9204
    520a:	66 89 d0             	mov    eax,edx
    520d:	66 01 c0             	add    eax,eax
    5210:	66 01 d0             	add    eax,edx
    5213:	66 c1 e0 03          	shl    eax,0x3
    5217:	66 05 e4 92 00 00    	add    eax,0x92e4
    521d:	67 66 c7 00 ff ff 01 	mov    DWORD PTR [eax],0x1ffff
    5224:	00 
D:\OneDrive\Study\Operating Systems\实验\project7\codes/./lib/utilsC.c:807
	memoryTable[firstUnusedMemoryItem].status = unused;
    5225:	66 8b 16 04 92       	mov    edx,DWORD PTR ds:0x9204
    522a:	66 89 d0             	mov    eax,edx
    522d:	66 01 c0             	add    eax,eax
    5230:	66 01 d0             	add    eax,edx
    5233:	66 c1 e0 03          	shl    eax,0x3
    5237:	66 05 f4 92 00 00    	add    eax,0x92f4
    523d:	67 66 c7 00 00 00 00 	mov    DWORD PTR [eax],0x0
    5244:	00 
D:\OneDrive\Study\Operating Systems\实验\project7\codes/./lib/utilsC.c:808
	next = nextUnusedItem();
    5245:	66 e8 22 fa ff ff    	call   4c6d <_nextUnusedItem>
    524b:	67 66 89 45 f8       	mov    DWORD PTR [ebp-0x8],eax
D:\OneDrive\Study\Operating Systems\实验\project7\codes/./lib/utilsC.c:809
	memoryTable[next].pre = firstUnusedMemoryItem;
    5250:	66 8b 16 04 92       	mov    edx,DWORD PTR ds:0x9204
    5255:	67 66 8b 4d f8       	mov    ecx,DWORD PTR [ebp-0x8]
    525a:	66 89 c8             	mov    eax,ecx
    525d:	66 01 c0             	add    eax,eax
    5260:	66 01 c8             	add    eax,ecx
    5263:	66 c1 e0 03          	shl    eax,0x3
    5267:	66 05 e8 92 00 00    	add    eax,0x92e8
    526d:	67 66 89 10          	mov    DWORD PTR [eax],edx
D:\OneDrive\Study\Operating Systems\实验\project7\codes/./lib/utilsC.c:810
	memoryTable[firstUnusedMemoryItem].next = next;
    5271:	66 8b 16 04 92       	mov    edx,DWORD PTR ds:0x9204
    5276:	66 89 d0             	mov    eax,edx
    5279:	66 01 c0             	add    eax,eax
    527c:	66 01 d0             	add    eax,edx
    527f:	66 c1 e0 03          	shl    eax,0x3
    5283:	67 66 8d 90 ec 92 00 	lea    edx,[eax+0x92ec]
    528a:	00 
    528b:	67 66 8b 45 f8       	mov    eax,DWORD PTR [ebp-0x8]
    5290:	67 66 89 02          	mov    DWORD PTR [edx],eax
D:\OneDrive\Study\Operating Systems\实验\project7\codes/./lib/utilsC.c:811
	firstUnusedMemoryItem = next;
    5294:	67 66 8b 45 f8       	mov    eax,DWORD PTR [ebp-0x8]
    5299:	66 a3 04 92          	mov    ds:0x9204,eax
D:\OneDrive\Study\Operating Systems\实验\project7\codes/./lib/utilsC.c:813

	memoryTable[firstUnusedMemoryItem].used = 1;
    529d:	66 8b 16 04 92       	mov    edx,DWORD PTR ds:0x9204
    52a2:	66 89 d0             	mov    eax,edx
    52a5:	66 01 c0             	add    eax,eax
    52a8:	66 01 d0             	add    eax,edx
    52ab:	66 c1 e0 03          	shl    eax,0x3
    52af:	66 05 f0 92 00 00    	add    eax,0x92f0
    52b5:	67 66 c7 00 01 00 00 	mov    DWORD PTR [eax],0x1
    52bc:	00 
D:\OneDrive\Study\Operating Systems\实验\project7\codes/./lib/utilsC.c:814
	memoryTable[firstUnusedMemoryItem].beginAddr = 0x20000;
    52bd:	66 8b 16 04 92       	mov    edx,DWORD PTR ds:0x9204
    52c2:	66 89 d0             	mov    eax,edx
    52c5:	66 01 c0             	add    eax,eax
    52c8:	66 01 d0             	add    eax,edx
    52cb:	66 c1 e0 03          	shl    eax,0x3
    52cf:	66 05 e0 92 00 00    	add    eax,0x92e0
    52d5:	67 66 c7 00 00 00 02 	mov    DWORD PTR [eax],0x20000
    52dc:	00 
D:\OneDrive\Study\Operating Systems\实验\project7\codes/./lib/utilsC.c:815
	memoryTable[firstUnusedMemoryItem].endAddr = 0x2cfff;
    52dd:	66 8b 16 04 92       	mov    edx,DWORD PTR ds:0x9204
    52e2:	66 89 d0             	mov    eax,edx
    52e5:	66 01 c0             	add    eax,eax
    52e8:	66 01 d0             	add    eax,edx
    52eb:	66 c1 e0 03          	shl    eax,0x3
    52ef:	66 05 e4 92 00 00    	add    eax,0x92e4
    52f5:	67 66 c7 00 ff cf 02 	mov    DWORD PTR [eax],0x2cfff
    52fc:	00 
D:\OneDrive\Study\Operating Systems\实验\project7\codes/./lib/utilsC.c:816
	memoryTable[firstUnusedMemoryItem].status = used;
    52fd:	66 8b 16 04 92       	mov    edx,DWORD PTR ds:0x9204
    5302:	66 89 d0             	mov    eax,edx
    5305:	66 01 c0             	add    eax,eax
    5308:	66 01 d0             	add    eax,edx
    530b:	66 c1 e0 03          	shl    eax,0x3
    530f:	66 05 f4 92 00 00    	add    eax,0x92f4
    5315:	67 66 c7 00 01 00 00 	mov    DWORD PTR [eax],0x1
    531c:	00 
D:\OneDrive\Study\Operating Systems\实验\project7\codes/./lib/utilsC.c:817
	next = nextUnusedItem();
    531d:	66 e8 4a f9 ff ff    	call   4c6d <_nextUnusedItem>
    5323:	67 66 89 45 f8       	mov    DWORD PTR [ebp-0x8],eax
D:\OneDrive\Study\Operating Systems\实验\project7\codes/./lib/utilsC.c:818
	memoryTable[next].pre = firstUnusedMemoryItem;
    5328:	66 8b 16 04 92       	mov    edx,DWORD PTR ds:0x9204
    532d:	67 66 8b 4d f8       	mov    ecx,DWORD PTR [ebp-0x8]
    5332:	66 89 c8             	mov    eax,ecx
    5335:	66 01 c0             	add    eax,eax
    5338:	66 01 c8             	add    eax,ecx
    533b:	66 c1 e0 03          	shl    eax,0x3
    533f:	66 05 e8 92 00 00    	add    eax,0x92e8
    5345:	67 66 89 10          	mov    DWORD PTR [eax],edx
D:\OneDrive\Study\Operating Systems\实验\project7\codes/./lib/utilsC.c:819
	memoryTable[firstUnusedMemoryItem].next = next;
    5349:	66 8b 16 04 92       	mov    edx,DWORD PTR ds:0x9204
    534e:	66 89 d0             	mov    eax,edx
    5351:	66 01 c0             	add    eax,eax
    5354:	66 01 d0             	add    eax,edx
    5357:	66 c1 e0 03          	shl    eax,0x3
    535b:	67 66 8d 90 ec 92 00 	lea    edx,[eax+0x92ec]
    5362:	00 
    5363:	67 66 8b 45 f8       	mov    eax,DWORD PTR [ebp-0x8]
    5368:	67 66 89 02          	mov    DWORD PTR [edx],eax
D:\OneDrive\Study\Operating Systems\实验\project7\codes/./lib/utilsC.c:820
	firstUnusedMemoryItem = next;
    536c:	67 66 8b 45 f8       	mov    eax,DWORD PTR [ebp-0x8]
    5371:	66 a3 04 92          	mov    ds:0x9204,eax
D:\OneDrive\Study\Operating Systems\实验\project7\codes/./lib/utilsC.c:822
	// blockNum = 7;
	memoryTable[firstUnusedMemoryItem].used = 1;
    5375:	66 8b 16 04 92       	mov    edx,DWORD PTR ds:0x9204
    537a:	66 89 d0             	mov    eax,edx
    537d:	66 01 c0             	add    eax,eax
    5380:	66 01 d0             	add    eax,edx
    5383:	66 c1 e0 03          	shl    eax,0x3
    5387:	66 05 f0 92 00 00    	add    eax,0x92f0
    538d:	67 66 c7 00 01 00 00 	mov    DWORD PTR [eax],0x1
    5394:	00 
D:\OneDrive\Study\Operating Systems\实验\project7\codes/./lib/utilsC.c:823
	memoryTable[firstUnusedMemoryItem].beginAddr = 0x2d000;
    5395:	66 8b 16 04 92       	mov    edx,DWORD PTR ds:0x9204
    539a:	66 89 d0             	mov    eax,edx
    539d:	66 01 c0             	add    eax,eax
    53a0:	66 01 d0             	add    eax,edx
    53a3:	66 c1 e0 03          	shl    eax,0x3
    53a7:	66 05 e0 92 00 00    	add    eax,0x92e0
    53ad:	67 66 c7 00 00 d0 02 	mov    DWORD PTR [eax],0x2d000
    53b4:	00 
D:\OneDrive\Study\Operating Systems\实验\project7\codes/./lib/utilsC.c:824
	memoryTable[firstUnusedMemoryItem].endAddr = 0x2ffff;
    53b5:	66 8b 16 04 92       	mov    edx,DWORD PTR ds:0x9204
    53ba:	66 89 d0             	mov    eax,edx
    53bd:	66 01 c0             	add    eax,eax
    53c0:	66 01 d0             	add    eax,edx
    53c3:	66 c1 e0 03          	shl    eax,0x3
    53c7:	66 05 e4 92 00 00    	add    eax,0x92e4
    53cd:	67 66 c7 00 ff ff 02 	mov    DWORD PTR [eax],0x2ffff
    53d4:	00 
D:\OneDrive\Study\Operating Systems\实验\project7\codes/./lib/utilsC.c:825
	memoryTable[firstUnusedMemoryItem].status = used;
    53d5:	66 8b 16 04 92       	mov    edx,DWORD PTR ds:0x9204
    53da:	66 89 d0             	mov    eax,edx
    53dd:	66 01 c0             	add    eax,eax
    53e0:	66 01 d0             	add    eax,edx
    53e3:	66 c1 e0 03          	shl    eax,0x3
    53e7:	66 05 f4 92 00 00    	add    eax,0x92f4
    53ed:	67 66 c7 00 01 00 00 	mov    DWORD PTR [eax],0x1
    53f4:	00 
D:\OneDrive\Study\Operating Systems\实验\project7\codes/./lib/utilsC.c:826
	next = nextUnusedItem();
    53f5:	66 e8 72 f8 ff ff    	call   4c6d <_nextUnusedItem>
    53fb:	67 66 89 45 f8       	mov    DWORD PTR [ebp-0x8],eax
D:\OneDrive\Study\Operating Systems\实验\project7\codes/./lib/utilsC.c:827
	memoryTable[next].pre = firstUnusedMemoryItem;
    5400:	66 8b 16 04 92       	mov    edx,DWORD PTR ds:0x9204
    5405:	67 66 8b 4d f8       	mov    ecx,DWORD PTR [ebp-0x8]
    540a:	66 89 c8             	mov    eax,ecx
    540d:	66 01 c0             	add    eax,eax
    5410:	66 01 c8             	add    eax,ecx
    5413:	66 c1 e0 03          	shl    eax,0x3
    5417:	66 05 e8 92 00 00    	add    eax,0x92e8
    541d:	67 66 89 10          	mov    DWORD PTR [eax],edx
D:\OneDrive\Study\Operating Systems\实验\project7\codes/./lib/utilsC.c:828
	memoryTable[firstUnusedMemoryItem].next = next;
    5421:	66 8b 16 04 92       	mov    edx,DWORD PTR ds:0x9204
    5426:	66 89 d0             	mov    eax,edx
    5429:	66 01 c0             	add    eax,eax
    542c:	66 01 d0             	add    eax,edx
    542f:	66 c1 e0 03          	shl    eax,0x3
    5433:	67 66 8d 90 ec 92 00 	lea    edx,[eax+0x92ec]
    543a:	00 
    543b:	67 66 8b 45 f8       	mov    eax,DWORD PTR [ebp-0x8]
    5440:	67 66 89 02          	mov    DWORD PTR [edx],eax
D:\OneDrive\Study\Operating Systems\实验\project7\codes/./lib/utilsC.c:829
	firstUnusedMemoryItem = next;
    5444:	67 66 8b 45 f8       	mov    eax,DWORD PTR [ebp-0x8]
    5449:	66 a3 04 92          	mov    ds:0x9204,eax
D:\OneDrive\Study\Operating Systems\实验\project7\codes/./lib/utilsC.c:832

	// blockNum = 8;
	memoryTable[firstUnusedMemoryItem].used = 1;
    544d:	66 8b 16 04 92       	mov    edx,DWORD PTR ds:0x9204
    5452:	66 89 d0             	mov    eax,edx
    5455:	66 01 c0             	add    eax,eax
    5458:	66 01 d0             	add    eax,edx
    545b:	66 c1 e0 03          	shl    eax,0x3
    545f:	66 05 f0 92 00 00    	add    eax,0x92f0
    5465:	67 66 c7 00 01 00 00 	mov    DWORD PTR [eax],0x1
    546c:	00 
D:\OneDrive\Study\Operating Systems\实验\project7\codes/./lib/utilsC.c:833
	memoryTable[firstUnusedMemoryItem].beginAddr = 0x30000;
    546d:	66 8b 16 04 92       	mov    edx,DWORD PTR ds:0x9204
    5472:	66 89 d0             	mov    eax,edx
    5475:	66 01 c0             	add    eax,eax
    5478:	66 01 d0             	add    eax,edx
    547b:	66 c1 e0 03          	shl    eax,0x3
    547f:	66 05 e0 92 00 00    	add    eax,0x92e0
    5485:	67 66 c7 00 00 00 03 	mov    DWORD PTR [eax],0x30000
    548c:	00 
D:\OneDrive\Study\Operating Systems\实验\project7\codes/./lib/utilsC.c:834
	memoryTable[firstUnusedMemoryItem].endAddr = 0x7ffff;
    548d:	66 8b 16 04 92       	mov    edx,DWORD PTR ds:0x9204
    5492:	66 89 d0             	mov    eax,edx
    5495:	66 01 c0             	add    eax,eax
    5498:	66 01 d0             	add    eax,edx
    549b:	66 c1 e0 03          	shl    eax,0x3
    549f:	66 05 e4 92 00 00    	add    eax,0x92e4
    54a5:	67 66 c7 00 ff ff 07 	mov    DWORD PTR [eax],0x7ffff
    54ac:	00 
D:\OneDrive\Study\Operating Systems\实验\project7\codes/./lib/utilsC.c:835
	memoryTable[firstUnusedMemoryItem].status = unused;
    54ad:	66 8b 16 04 92       	mov    edx,DWORD PTR ds:0x9204
    54b2:	66 89 d0             	mov    eax,edx
    54b5:	66 01 c0             	add    eax,eax
    54b8:	66 01 d0             	add    eax,edx
    54bb:	66 c1 e0 03          	shl    eax,0x3
    54bf:	66 05 f4 92 00 00    	add    eax,0x92f4
    54c5:	67 66 c7 00 00 00 00 	mov    DWORD PTR [eax],0x0
    54cc:	00 
D:\OneDrive\Study\Operating Systems\实验\project7\codes/./lib/utilsC.c:836
	next = nextUnusedItem();
    54cd:	66 e8 9a f7 ff ff    	call   4c6d <_nextUnusedItem>
    54d3:	67 66 89 45 f8       	mov    DWORD PTR [ebp-0x8],eax
D:\OneDrive\Study\Operating Systems\实验\project7\codes/./lib/utilsC.c:837
	memoryTable[next].pre = firstUnusedMemoryItem;
    54d8:	66 8b 16 04 92       	mov    edx,DWORD PTR ds:0x9204
    54dd:	67 66 8b 4d f8       	mov    ecx,DWORD PTR [ebp-0x8]
    54e2:	66 89 c8             	mov    eax,ecx
    54e5:	66 01 c0             	add    eax,eax
    54e8:	66 01 c8             	add    eax,ecx
    54eb:	66 c1 e0 03          	shl    eax,0x3
    54ef:	66 05 e8 92 00 00    	add    eax,0x92e8
    54f5:	67 66 89 10          	mov    DWORD PTR [eax],edx
D:\OneDrive\Study\Operating Systems\实验\project7\codes/./lib/utilsC.c:838
	memoryTable[firstUnusedMemoryItem].next = next;
    54f9:	66 8b 16 04 92       	mov    edx,DWORD PTR ds:0x9204
    54fe:	66 89 d0             	mov    eax,edx
    5501:	66 01 c0             	add    eax,eax
    5504:	66 01 d0             	add    eax,edx
    5507:	66 c1 e0 03          	shl    eax,0x3
    550b:	67 66 8d 90 ec 92 00 	lea    edx,[eax+0x92ec]
    5512:	00 
    5513:	67 66 8b 45 f8       	mov    eax,DWORD PTR [ebp-0x8]
    5518:	67 66 89 02          	mov    DWORD PTR [edx],eax
D:\OneDrive\Study\Operating Systems\实验\project7\codes/./lib/utilsC.c:839
	firstUnusedMemoryItem = next;
    551c:	67 66 8b 45 f8       	mov    eax,DWORD PTR [ebp-0x8]
    5521:	66 a3 04 92          	mov    ds:0x9204,eax
D:\OneDrive\Study\Operating Systems\实验\project7\codes/./lib/utilsC.c:842

	// blockNum = 9;
	memoryTable[firstUnusedMemoryItem].used = 1;
    5525:	66 8b 16 04 92       	mov    edx,DWORD PTR ds:0x9204
    552a:	66 89 d0             	mov    eax,edx
    552d:	66 01 c0             	add    eax,eax
    5530:	66 01 d0             	add    eax,edx
    5533:	66 c1 e0 03          	shl    eax,0x3
    5537:	66 05 f0 92 00 00    	add    eax,0x92f0
    553d:	67 66 c7 00 01 00 00 	mov    DWORD PTR [eax],0x1
    5544:	00 
D:\OneDrive\Study\Operating Systems\实验\project7\codes/./lib/utilsC.c:843
	memoryTable[firstUnusedMemoryItem].beginAddr = 0x80000;
    5545:	66 8b 16 04 92       	mov    edx,DWORD PTR ds:0x9204
    554a:	66 89 d0             	mov    eax,edx
    554d:	66 01 c0             	add    eax,eax
    5550:	66 01 d0             	add    eax,edx
    5553:	66 c1 e0 03          	shl    eax,0x3
    5557:	66 05 e0 92 00 00    	add    eax,0x92e0
    555d:	67 66 c7 00 00 00 08 	mov    DWORD PTR [eax],0x80000
    5564:	00 
D:\OneDrive\Study\Operating Systems\实验\project7\codes/./lib/utilsC.c:844
	memoryTable[firstUnusedMemoryItem].endAddr = 0x86fff;
    5565:	66 8b 16 04 92       	mov    edx,DWORD PTR ds:0x9204
    556a:	66 89 d0             	mov    eax,edx
    556d:	66 01 c0             	add    eax,eax
    5570:	66 01 d0             	add    eax,edx
    5573:	66 c1 e0 03          	shl    eax,0x3
    5577:	66 05 e4 92 00 00    	add    eax,0x92e4
    557d:	67 66 c7 00 ff 6f 08 	mov    DWORD PTR [eax],0x86fff
    5584:	00 
D:\OneDrive\Study\Operating Systems\实验\project7\codes/./lib/utilsC.c:845
	memoryTable[firstUnusedMemoryItem].status = used;
    5585:	66 8b 16 04 92       	mov    edx,DWORD PTR ds:0x9204
    558a:	66 89 d0             	mov    eax,edx
    558d:	66 01 c0             	add    eax,eax
    5590:	66 01 d0             	add    eax,edx
    5593:	66 c1 e0 03          	shl    eax,0x3
    5597:	66 05 f4 92 00 00    	add    eax,0x92f4
    559d:	67 66 c7 00 01 00 00 	mov    DWORD PTR [eax],0x1
    55a4:	00 
D:\OneDrive\Study\Operating Systems\实验\project7\codes/./lib/utilsC.c:846
	next = nextUnusedItem();
    55a5:	66 e8 c2 f6 ff ff    	call   4c6d <_nextUnusedItem>
    55ab:	67 66 89 45 f8       	mov    DWORD PTR [ebp-0x8],eax
D:\OneDrive\Study\Operating Systems\实验\project7\codes/./lib/utilsC.c:847
	memoryTable[next].pre = firstUnusedMemoryItem;
    55b0:	66 8b 16 04 92       	mov    edx,DWORD PTR ds:0x9204
    55b5:	67 66 8b 4d f8       	mov    ecx,DWORD PTR [ebp-0x8]
    55ba:	66 89 c8             	mov    eax,ecx
    55bd:	66 01 c0             	add    eax,eax
    55c0:	66 01 c8             	add    eax,ecx
    55c3:	66 c1 e0 03          	shl    eax,0x3
    55c7:	66 05 e8 92 00 00    	add    eax,0x92e8
    55cd:	67 66 89 10          	mov    DWORD PTR [eax],edx
D:\OneDrive\Study\Operating Systems\实验\project7\codes/./lib/utilsC.c:848
	memoryTable[firstUnusedMemoryItem].next = next;
    55d1:	66 8b 16 04 92       	mov    edx,DWORD PTR ds:0x9204
    55d6:	66 89 d0             	mov    eax,edx
    55d9:	66 01 c0             	add    eax,eax
    55dc:	66 01 d0             	add    eax,edx
    55df:	66 c1 e0 03          	shl    eax,0x3
    55e3:	67 66 8d 90 ec 92 00 	lea    edx,[eax+0x92ec]
    55ea:	00 
    55eb:	67 66 8b 45 f8       	mov    eax,DWORD PTR [ebp-0x8]
    55f0:	67 66 89 02          	mov    DWORD PTR [edx],eax
D:\OneDrive\Study\Operating Systems\实验\project7\codes/./lib/utilsC.c:849
	firstUnusedMemoryItem = next;
    55f4:	67 66 8b 45 f8       	mov    eax,DWORD PTR [ebp-0x8]
    55f9:	66 a3 04 92          	mov    ds:0x9204,eax
D:\OneDrive\Study\Operating Systems\实验\project7\codes/./lib/utilsC.c:852

	// blockNum = 10;
	memoryTable[firstUnusedMemoryItem].used = 1;
    55fd:	66 8b 16 04 92       	mov    edx,DWORD PTR ds:0x9204
    5602:	66 89 d0             	mov    eax,edx
    5605:	66 01 c0             	add    eax,eax
    5608:	66 01 d0             	add    eax,edx
    560b:	66 c1 e0 03          	shl    eax,0x3
    560f:	66 05 f0 92 00 00    	add    eax,0x92f0
    5615:	67 66 c7 00 01 00 00 	mov    DWORD PTR [eax],0x1
    561c:	00 
D:\OneDrive\Study\Operating Systems\实验\project7\codes/./lib/utilsC.c:853
	memoryTable[firstUnusedMemoryItem].beginAddr = 0x87000;
    561d:	66 8b 16 04 92       	mov    edx,DWORD PTR ds:0x9204
    5622:	66 89 d0             	mov    eax,edx
    5625:	66 01 c0             	add    eax,eax
    5628:	66 01 d0             	add    eax,edx
    562b:	66 c1 e0 03          	shl    eax,0x3
    562f:	66 05 e0 92 00 00    	add    eax,0x92e0
    5635:	67 66 c7 00 00 70 08 	mov    DWORD PTR [eax],0x87000
    563c:	00 
D:\OneDrive\Study\Operating Systems\实验\project7\codes/./lib/utilsC.c:854
	memoryTable[firstUnusedMemoryItem].endAddr = 0x9ffff;
    563d:	66 8b 16 04 92       	mov    edx,DWORD PTR ds:0x9204
    5642:	66 89 d0             	mov    eax,edx
    5645:	66 01 c0             	add    eax,eax
    5648:	66 01 d0             	add    eax,edx
    564b:	66 c1 e0 03          	shl    eax,0x3
    564f:	66 05 e4 92 00 00    	add    eax,0x92e4
    5655:	67 66 c7 00 ff ff 09 	mov    DWORD PTR [eax],0x9ffff
    565c:	00 
D:\OneDrive\Study\Operating Systems\实验\project7\codes/./lib/utilsC.c:855
	memoryTable[firstUnusedMemoryItem].status = unused;
    565d:	66 8b 16 04 92       	mov    edx,DWORD PTR ds:0x9204
    5662:	66 89 d0             	mov    eax,edx
    5665:	66 01 c0             	add    eax,eax
    5668:	66 01 d0             	add    eax,edx
    566b:	66 c1 e0 03          	shl    eax,0x3
    566f:	66 05 f4 92 00 00    	add    eax,0x92f4
    5675:	67 66 c7 00 00 00 00 	mov    DWORD PTR [eax],0x0
    567c:	00 
D:\OneDrive\Study\Operating Systems\实验\project7\codes/./lib/utilsC.c:856
	next = nextUnusedItem();
    567d:	66 e8 ea f5 ff ff    	call   4c6d <_nextUnusedItem>
    5683:	67 66 89 45 f8       	mov    DWORD PTR [ebp-0x8],eax
D:\OneDrive\Study\Operating Systems\实验\project7\codes/./lib/utilsC.c:857
	memoryTable[next].pre = firstUnusedMemoryItem;
    5688:	66 8b 16 04 92       	mov    edx,DWORD PTR ds:0x9204
    568d:	67 66 8b 4d f8       	mov    ecx,DWORD PTR [ebp-0x8]
    5692:	66 89 c8             	mov    eax,ecx
    5695:	66 01 c0             	add    eax,eax
    5698:	66 01 c8             	add    eax,ecx
    569b:	66 c1 e0 03          	shl    eax,0x3
    569f:	66 05 e8 92 00 00    	add    eax,0x92e8
    56a5:	67 66 89 10          	mov    DWORD PTR [eax],edx
D:\OneDrive\Study\Operating Systems\实验\project7\codes/./lib/utilsC.c:858
	memoryTable[firstUnusedMemoryItem].next = next;
    56a9:	66 8b 16 04 92       	mov    edx,DWORD PTR ds:0x9204
    56ae:	66 89 d0             	mov    eax,edx
    56b1:	66 01 c0             	add    eax,eax
    56b4:	66 01 d0             	add    eax,edx
    56b7:	66 c1 e0 03          	shl    eax,0x3
    56bb:	67 66 8d 90 ec 92 00 	lea    edx,[eax+0x92ec]
    56c2:	00 
    56c3:	67 66 8b 45 f8       	mov    eax,DWORD PTR [ebp-0x8]
    56c8:	67 66 89 02          	mov    DWORD PTR [edx],eax
D:\OneDrive\Study\Operating Systems\实验\project7\codes/./lib/utilsC.c:859
	firstUnusedMemoryItem = next;
    56cc:	67 66 8b 45 f8       	mov    eax,DWORD PTR [ebp-0x8]
    56d1:	66 a3 04 92          	mov    ds:0x9204,eax
D:\OneDrive\Study\Operating Systems\实验\project7\codes/./lib/utilsC.c:860
}
    56d5:	90                   	nop
    56d6:	66 c9                	leave  
    56d8:	66 c3                	ret    

000056da <_findItem>:
findItem():
D:\OneDrive\Study\Operating Systems\实验\project7\codes/./lib/utilsC.c:864


int findItem(int addr)
{
    56da:	66 55                	push   ebp
    56dc:	66 89 e5             	mov    ebp,esp
    56df:	66 83 ec 04          	sub    esp,0x4
D:\OneDrive\Study\Operating Systems\实验\project7\codes/./lib/utilsC.c:865
	int itemId = 0;
    56e3:	67 66 c7 45 fc 00 00 	mov    DWORD PTR [ebp-0x4],0x0
    56ea:	00 00 
D:\OneDrive\Study\Operating Systems\实验\project7\codes/./lib/utilsC.c:866
	for (; itemId < MemLen; itemId = memoryTable[itemId].next)
    56ec:	eb 4b                	jmp    5739 <_findItem+0x5f>
D:\OneDrive\Study\Operating Systems\实验\project7\codes/./lib/utilsC.c:868
	{
		if (memoryTable[itemId].beginAddr == addr)
    56ee:	67 66 8b 55 fc       	mov    edx,DWORD PTR [ebp-0x4]
    56f3:	66 89 d0             	mov    eax,edx
    56f6:	66 01 c0             	add    eax,eax
    56f9:	66 01 d0             	add    eax,edx
    56fc:	66 c1 e0 03          	shl    eax,0x3
    5700:	66 05 e0 92 00 00    	add    eax,0x92e0
    5706:	67 66 8b 00          	mov    eax,DWORD PTR [eax]
    570a:	67 66 3b 45 08       	cmp    eax,DWORD PTR [ebp+0x8]
    570f:	75 07                	jne    5718 <_findItem+0x3e>
D:\OneDrive\Study\Operating Systems\实验\project7\codes/./lib/utilsC.c:869
			return itemId;
    5711:	67 66 8b 45 fc       	mov    eax,DWORD PTR [ebp-0x4]
    5716:	eb 2f                	jmp    5747 <_findItem+0x6d>
D:\OneDrive\Study\Operating Systems\实验\project7\codes/./lib/utilsC.c:866
	for (; itemId < MemLen; itemId = memoryTable[itemId].next)
    5718:	67 66 8b 55 fc       	mov    edx,DWORD PTR [ebp-0x4]
    571d:	66 89 d0             	mov    eax,edx
    5720:	66 01 c0             	add    eax,eax
    5723:	66 01 d0             	add    eax,edx
    5726:	66 c1 e0 03          	shl    eax,0x3
    572a:	66 05 ec 92 00 00    	add    eax,0x92ec
    5730:	67 66 8b 00          	mov    eax,DWORD PTR [eax]
    5734:	67 66 89 45 fc       	mov    DWORD PTR [ebp-0x4],eax
    5739:	67 66 83 7d fc 27    	cmp    DWORD PTR [ebp-0x4],0x27
    573f:	7e ad                	jle    56ee <_findItem+0x14>
D:\OneDrive\Study\Operating Systems\实验\project7\codes/./lib/utilsC.c:871
	}
	return -1;
    5741:	66 b8 ff ff ff ff    	mov    eax,0xffffffff
D:\OneDrive\Study\Operating Systems\实验\project7\codes/./lib/utilsC.c:872
}
    5747:	66 c9                	leave  
    5749:	66 c3                	ret    

0000574b <_findLaterBlock>:
findLaterBlock():
D:\OneDrive\Study\Operating Systems\实验\project7\codes/./lib/utilsC.c:875

int findLaterBlock(int addr, int size, int begin)
{
    574b:	66 55                	push   ebp
    574d:	66 89 e5             	mov    ebp,esp
    5750:	66 83 ec 04          	sub    esp,0x4
D:\OneDrive\Study\Operating Systems\实验\project7\codes/./lib/utilsC.c:876
	int itemId = begin;
    5754:	67 66 8b 45 10       	mov    eax,DWORD PTR [ebp+0x10]
    5759:	67 66 89 45 fc       	mov    DWORD PTR [ebp-0x4],eax
D:\OneDrive\Study\Operating Systems\实验\project7\codes/./lib/utilsC.c:877
	for (; itemId < MemLen; itemId = memoryTable[itemId].next)
    575e:	e9 b3 00             	jmp    5814 <_findLaterBlock+0xc9>
D:\OneDrive\Study\Operating Systems\实验\project7\codes/./lib/utilsC.c:879
	{
		if (memoryTable[itemId].beginAddr >= addr && memoryTable[itemId].endAddr - memoryTable[itemId].beginAddr + 1 >= size && memoryTable[itemId].status == unused)
    5761:	67 66 8b 55 fc       	mov    edx,DWORD PTR [ebp-0x4]
    5766:	66 89 d0             	mov    eax,edx
    5769:	66 01 c0             	add    eax,eax
    576c:	66 01 d0             	add    eax,edx
    576f:	66 c1 e0 03          	shl    eax,0x3
    5773:	66 05 e0 92 00 00    	add    eax,0x92e0
    5779:	67 66 8b 00          	mov    eax,DWORD PTR [eax]
    577d:	67 66 3b 45 08       	cmp    eax,DWORD PTR [ebp+0x8]
    5782:	7c 6f                	jl     57f3 <_findLaterBlock+0xa8>
    5784:	67 66 8b 55 fc       	mov    edx,DWORD PTR [ebp-0x4]
    5789:	66 89 d0             	mov    eax,edx
    578c:	66 01 c0             	add    eax,eax
    578f:	66 01 d0             	add    eax,edx
    5792:	66 c1 e0 03          	shl    eax,0x3
    5796:	66 05 e4 92 00 00    	add    eax,0x92e4
    579c:	67 66 8b 08          	mov    ecx,DWORD PTR [eax]
    57a0:	67 66 8b 55 fc       	mov    edx,DWORD PTR [ebp-0x4]
    57a5:	66 89 d0             	mov    eax,edx
    57a8:	66 01 c0             	add    eax,eax
    57ab:	66 01 d0             	add    eax,edx
    57ae:	66 c1 e0 03          	shl    eax,0x3
    57b2:	66 05 e0 92 00 00    	add    eax,0x92e0
    57b8:	67 66 8b 00          	mov    eax,DWORD PTR [eax]
    57bc:	66 29 c1             	sub    ecx,eax
    57bf:	66 89 c8             	mov    eax,ecx
    57c2:	66 40                	inc    eax
    57c4:	67 66 3b 45 0c       	cmp    eax,DWORD PTR [ebp+0xc]
    57c9:	7c 28                	jl     57f3 <_findLaterBlock+0xa8>
    57cb:	67 66 8b 55 fc       	mov    edx,DWORD PTR [ebp-0x4]
    57d0:	66 89 d0             	mov    eax,edx
    57d3:	66 01 c0             	add    eax,eax
    57d6:	66 01 d0             	add    eax,edx
    57d9:	66 c1 e0 03          	shl    eax,0x3
    57dd:	66 05 f4 92 00 00    	add    eax,0x92f4
    57e3:	67 66 8b 00          	mov    eax,DWORD PTR [eax]
    57e7:	66 85 c0             	test   eax,eax
    57ea:	75 07                	jne    57f3 <_findLaterBlock+0xa8>
D:\OneDrive\Study\Operating Systems\实验\project7\codes/./lib/utilsC.c:880
			return itemId;
    57ec:	67 66 8b 45 fc       	mov    eax,DWORD PTR [ebp-0x4]
    57f1:	eb 31                	jmp    5824 <_findLaterBlock+0xd9>
D:\OneDrive\Study\Operating Systems\实验\project7\codes/./lib/utilsC.c:877
	for (; itemId < MemLen; itemId = memoryTable[itemId].next)
    57f3:	67 66 8b 55 fc       	mov    edx,DWORD PTR [ebp-0x4]
    57f8:	66 89 d0             	mov    eax,edx
    57fb:	66 01 c0             	add    eax,eax
    57fe:	66 01 d0             	add    eax,edx
    5801:	66 c1 e0 03          	shl    eax,0x3
    5805:	66 05 ec 92 00 00    	add    eax,0x92ec
    580b:	67 66 8b 00          	mov    eax,DWORD PTR [eax]
    580f:	67 66 89 45 fc       	mov    DWORD PTR [ebp-0x4],eax
    5814:	67 66 83 7d fc 27    	cmp    DWORD PTR [ebp-0x4],0x27
    581a:	0f 8e 43 ff          	jle    5761 <_findLaterBlock+0x16>
D:\OneDrive\Study\Operating Systems\实验\project7\codes/./lib/utilsC.c:882
	}
	return -1;
    581e:	66 b8 ff ff ff ff    	mov    eax,0xffffffff
D:\OneDrive\Study\Operating Systems\实验\project7\codes/./lib/utilsC.c:883
}
    5824:	66 c9                	leave  
    5826:	66 c3                	ret    

00005828 <_merge>:
merge():
D:\OneDrive\Study\Operating Systems\实验\project7\codes/./lib/utilsC.c:886

void merge(int item)
{
    5828:	66 55                	push   ebp
    582a:	66 89 e5             	mov    ebp,esp
    582d:	66 83 ec 08          	sub    esp,0x8
D:\OneDrive\Study\Operating Systems\实验\project7\codes/./lib/utilsC.c:888
	int first;
	if (memoryTable[item].pre != -1 && memoryTable[memoryTable[item].pre].status == unused) {
    5831:	67 66 8b 55 08       	mov    edx,DWORD PTR [ebp+0x8]
    5836:	66 89 d0             	mov    eax,edx
    5839:	66 01 c0             	add    eax,eax
    583c:	66 01 d0             	add    eax,edx
    583f:	66 c1 e0 03          	shl    eax,0x3
    5843:	66 05 e8 92 00 00    	add    eax,0x92e8
    5849:	67 66 8b 00          	mov    eax,DWORD PTR [eax]
    584d:	66 83 f8 ff          	cmp    eax,0xffffffff
    5851:	74 5b                	je     58ae <_merge+0x86>
    5853:	67 66 8b 55 08       	mov    edx,DWORD PTR [ebp+0x8]
    5858:	66 89 d0             	mov    eax,edx
    585b:	66 01 c0             	add    eax,eax
    585e:	66 01 d0             	add    eax,edx
    5861:	66 c1 e0 03          	shl    eax,0x3
    5865:	66 05 e8 92 00 00    	add    eax,0x92e8
    586b:	67 66 8b 10          	mov    edx,DWORD PTR [eax]
    586f:	66 89 d0             	mov    eax,edx
    5872:	66 01 c0             	add    eax,eax
    5875:	66 01 d0             	add    eax,edx
    5878:	66 c1 e0 03          	shl    eax,0x3
    587c:	66 05 f4 92 00 00    	add    eax,0x92f4
    5882:	67 66 8b 00          	mov    eax,DWORD PTR [eax]
    5886:	66 85 c0             	test   eax,eax
    5889:	75 23                	jne    58ae <_merge+0x86>
D:\OneDrive\Study\Operating Systems\实验\project7\codes/./lib/utilsC.c:889
		first = memoryTable[item].pre;
    588b:	67 66 8b 55 08       	mov    edx,DWORD PTR [ebp+0x8]
    5890:	66 89 d0             	mov    eax,edx
    5893:	66 01 c0             	add    eax,eax
    5896:	66 01 d0             	add    eax,edx
    5899:	66 c1 e0 03          	shl    eax,0x3
    589d:	66 05 e8 92 00 00    	add    eax,0x92e8
    58a3:	67 66 8b 00          	mov    eax,DWORD PTR [eax]
    58a7:	67 66 89 45 fc       	mov    DWORD PTR [ebp-0x4],eax
    58ac:	eb 0a                	jmp    58b8 <_merge+0x90>
D:\OneDrive\Study\Operating Systems\实验\project7\codes/./lib/utilsC.c:891
	} else {
		first = item;
    58ae:	67 66 8b 45 08       	mov    eax,DWORD PTR [ebp+0x8]
    58b3:	67 66 89 45 fc       	mov    DWORD PTR [ebp-0x4],eax
D:\OneDrive\Study\Operating Systems\实验\project7\codes/./lib/utilsC.c:893
	}
	int next = memoryTable[first].next;
    58b8:	67 66 8b 55 fc       	mov    edx,DWORD PTR [ebp-0x4]
    58bd:	66 89 d0             	mov    eax,edx
    58c0:	66 01 c0             	add    eax,eax
    58c3:	66 01 d0             	add    eax,edx
    58c6:	66 c1 e0 03          	shl    eax,0x3
    58ca:	66 05 ec 92 00 00    	add    eax,0x92ec
    58d0:	67 66 8b 00          	mov    eax,DWORD PTR [eax]
    58d4:	67 66 89 45 f8       	mov    DWORD PTR [ebp-0x8],eax
D:\OneDrive\Study\Operating Systems\实验\project7\codes/./lib/utilsC.c:894
	while (next != -1 && memoryTable[next].status == unused)
    58d9:	e9 0d 01             	jmp    59e9 <_merge+0x1c1>
D:\OneDrive\Study\Operating Systems\实验\project7\codes/./lib/utilsC.c:896
	{
		memoryTable[first].endAddr = memoryTable[next].endAddr;
    58dc:	67 66 8b 55 f8       	mov    edx,DWORD PTR [ebp-0x8]
    58e1:	66 89 d0             	mov    eax,edx
    58e4:	66 01 c0             	add    eax,eax
    58e7:	66 01 d0             	add    eax,edx
    58ea:	66 c1 e0 03          	shl    eax,0x3
    58ee:	66 05 e4 92 00 00    	add    eax,0x92e4
    58f4:	67 66 8b 10          	mov    edx,DWORD PTR [eax]
    58f8:	67 66 8b 4d fc       	mov    ecx,DWORD PTR [ebp-0x4]
    58fd:	66 89 c8             	mov    eax,ecx
    5900:	66 01 c0             	add    eax,eax
    5903:	66 01 c8             	add    eax,ecx
    5906:	66 c1 e0 03          	shl    eax,0x3
    590a:	66 05 e4 92 00 00    	add    eax,0x92e4
    5910:	67 66 89 10          	mov    DWORD PTR [eax],edx
D:\OneDrive\Study\Operating Systems\实验\project7\codes/./lib/utilsC.c:897
		memoryTable[first].next = memoryTable[next].next;
    5914:	67 66 8b 55 f8       	mov    edx,DWORD PTR [ebp-0x8]
    5919:	66 89 d0             	mov    eax,edx
    591c:	66 01 c0             	add    eax,eax
    591f:	66 01 d0             	add    eax,edx
    5922:	66 c1 e0 03          	shl    eax,0x3
    5926:	66 05 ec 92 00 00    	add    eax,0x92ec
    592c:	67 66 8b 10          	mov    edx,DWORD PTR [eax]
    5930:	67 66 8b 4d fc       	mov    ecx,DWORD PTR [ebp-0x4]
    5935:	66 89 c8             	mov    eax,ecx
    5938:	66 01 c0             	add    eax,eax
    593b:	66 01 c8             	add    eax,ecx
    593e:	66 c1 e0 03          	shl    eax,0x3
    5942:	66 05 ec 92 00 00    	add    eax,0x92ec
    5948:	67 66 89 10          	mov    DWORD PTR [eax],edx
D:\OneDrive\Study\Operating Systems\实验\project7\codes/./lib/utilsC.c:898
		if (memoryTable[next].next != -1) {
    594c:	67 66 8b 55 f8       	mov    edx,DWORD PTR [ebp-0x8]
    5951:	66 89 d0             	mov    eax,edx
    5954:	66 01 c0             	add    eax,eax
    5957:	66 01 d0             	add    eax,edx
    595a:	66 c1 e0 03          	shl    eax,0x3
    595e:	66 05 ec 92 00 00    	add    eax,0x92ec
    5964:	67 66 8b 00          	mov    eax,DWORD PTR [eax]
    5968:	66 83 f8 ff          	cmp    eax,0xffffffff
    596c:	74 3a                	je     59a8 <_merge+0x180>
D:\OneDrive\Study\Operating Systems\实验\project7\codes/./lib/utilsC.c:899
			memoryTable[memoryTable[next].next].pre = first;
    596e:	67 66 8b 55 f8       	mov    edx,DWORD PTR [ebp-0x8]
    5973:	66 89 d0             	mov    eax,edx
    5976:	66 01 c0             	add    eax,eax
    5979:	66 01 d0             	add    eax,edx
    597c:	66 c1 e0 03          	shl    eax,0x3
    5980:	66 05 ec 92 00 00    	add    eax,0x92ec
    5986:	67 66 8b 10          	mov    edx,DWORD PTR [eax]
    598a:	66 89 d0             	mov    eax,edx
    598d:	66 01 c0             	add    eax,eax
    5990:	66 01 d0             	add    eax,edx
    5993:	66 c1 e0 03          	shl    eax,0x3
    5997:	67 66 8d 90 e8 92 00 	lea    edx,[eax+0x92e8]
    599e:	00 
    599f:	67 66 8b 45 fc       	mov    eax,DWORD PTR [ebp-0x4]
    59a4:	67 66 89 02          	mov    DWORD PTR [edx],eax
D:\OneDrive\Study\Operating Systems\实验\project7\codes/./lib/utilsC.c:901
		}
		memoryTable[next].used = 0;
    59a8:	67 66 8b 55 f8       	mov    edx,DWORD PTR [ebp-0x8]
    59ad:	66 89 d0             	mov    eax,edx
    59b0:	66 01 c0             	add    eax,eax
    59b3:	66 01 d0             	add    eax,edx
    59b6:	66 c1 e0 03          	shl    eax,0x3
    59ba:	66 05 f0 92 00 00    	add    eax,0x92f0
    59c0:	67 66 c7 00 00 00 00 	mov    DWORD PTR [eax],0x0
    59c7:	00 
D:\OneDrive\Study\Operating Systems\实验\project7\codes/./lib/utilsC.c:902
		next = memoryTable[first].next;
    59c8:	67 66 8b 55 fc       	mov    edx,DWORD PTR [ebp-0x4]
    59cd:	66 89 d0             	mov    eax,edx
    59d0:	66 01 c0             	add    eax,eax
    59d3:	66 01 d0             	add    eax,edx
    59d6:	66 c1 e0 03          	shl    eax,0x3
    59da:	66 05 ec 92 00 00    	add    eax,0x92ec
    59e0:	67 66 8b 00          	mov    eax,DWORD PTR [eax]
    59e4:	67 66 89 45 f8       	mov    DWORD PTR [ebp-0x8],eax
D:\OneDrive\Study\Operating Systems\实验\project7\codes/./lib/utilsC.c:894
	while (next != -1 && memoryTable[next].status == unused)
    59e9:	67 66 83 7d f8 ff    	cmp    DWORD PTR [ebp-0x8],0xffffffff
    59ef:	74 23                	je     5a14 <_merge+0x1ec>
    59f1:	67 66 8b 55 f8       	mov    edx,DWORD PTR [ebp-0x8]
    59f6:	66 89 d0             	mov    eax,edx
    59f9:	66 01 c0             	add    eax,eax
    59fc:	66 01 d0             	add    eax,edx
    59ff:	66 c1 e0 03          	shl    eax,0x3
    5a03:	66 05 f4 92 00 00    	add    eax,0x92f4
    5a09:	67 66 8b 00          	mov    eax,DWORD PTR [eax]
    5a0d:	66 85 c0             	test   eax,eax
    5a10:	0f 84 c8 fe          	je     58dc <_merge+0xb4>
D:\OneDrive\Study\Operating Systems\实验\project7\codes/./lib/utilsC.c:905
	}

}
    5a14:	90                   	nop
    5a15:	66 c9                	leave  
    5a17:	66 c3                	ret    

00005a19 <_release>:
release():
D:\OneDrive\Study\Operating Systems\实验\project7\codes/./lib/utilsC.c:908

void release(int begin, int end)
{
    5a19:	66 55                	push   ebp
    5a1b:	66 89 e5             	mov    ebp,esp
    5a1e:	66 83 ec 08          	sub    esp,0x8
D:\OneDrive\Study\Operating Systems\实验\project7\codes/./lib/utilsC.c:909
	int item = findItem(begin);
    5a22:	67 66 8b 45 08       	mov    eax,DWORD PTR [ebp+0x8]
    5a27:	67 66 89 04 24       	mov    DWORD PTR [esp],eax
    5a2c:	66 e8 a8 fc ff ff    	call   56da <_findItem>
    5a32:	67 66 89 45 fc       	mov    DWORD PTR [ebp-0x4],eax
D:\OneDrive\Study\Operating Systems\实验\project7\codes/./lib/utilsC.c:910
	memoryTable[item].status = unused;
    5a37:	67 66 8b 55 fc       	mov    edx,DWORD PTR [ebp-0x4]
    5a3c:	66 89 d0             	mov    eax,edx
    5a3f:	66 01 c0             	add    eax,eax
    5a42:	66 01 d0             	add    eax,edx
    5a45:	66 c1 e0 03          	shl    eax,0x3
    5a49:	66 05 f4 92 00 00    	add    eax,0x92f4
    5a4f:	67 66 c7 00 00 00 00 	mov    DWORD PTR [eax],0x0
    5a56:	00 
D:\OneDrive\Study\Operating Systems\实验\project7\codes/./lib/utilsC.c:911
	merge(item);
    5a57:	67 66 8b 45 fc       	mov    eax,DWORD PTR [ebp-0x4]
    5a5c:	67 66 89 04 24       	mov    DWORD PTR [esp],eax
    5a61:	66 e8 c1 fd ff ff    	call   5828 <_merge>
D:\OneDrive\Study\Operating Systems\实验\project7\codes/./lib/utilsC.c:912
}
    5a67:	90                   	nop
    5a68:	66 c9                	leave  
    5a6a:	66 c3                	ret    

00005a6c <_findEnoughBlock>:
findEnoughBlock():
D:\OneDrive\Study\Operating Systems\实验\project7\codes/./lib/utilsC.c:915

int findEnoughBlock(int size)
{
    5a6c:	66 55                	push   ebp
    5a6e:	66 89 e5             	mov    ebp,esp
    5a71:	66 83 ec 04          	sub    esp,0x4
D:\OneDrive\Study\Operating Systems\实验\project7\codes/./lib/utilsC.c:916
	int itemId = 0;
    5a75:	67 66 c7 45 fc 00 00 	mov    DWORD PTR [ebp-0x4],0x0
    5a7c:	00 00 
D:\OneDrive\Study\Operating Systems\实验\project7\codes/./lib/utilsC.c:918
	// 涓
	while (memoryTable[itemId].status == used || memoryTable[itemId].endAddr - memoryTable[itemId].beginAddr + 1 < size)
    5a7e:	eb 21                	jmp    5aa1 <_findEnoughBlock+0x35>
D:\OneDrive\Study\Operating Systems\实验\project7\codes/./lib/utilsC.c:920
	{
		itemId = memoryTable[itemId].next;
    5a80:	67 66 8b 55 fc       	mov    edx,DWORD PTR [ebp-0x4]
    5a85:	66 89 d0             	mov    eax,edx
    5a88:	66 01 c0             	add    eax,eax
    5a8b:	66 01 d0             	add    eax,edx
    5a8e:	66 c1 e0 03          	shl    eax,0x3
    5a92:	66 05 ec 92 00 00    	add    eax,0x92ec
    5a98:	67 66 8b 00          	mov    eax,DWORD PTR [eax]
    5a9c:	67 66 89 45 fc       	mov    DWORD PTR [ebp-0x4],eax
D:\OneDrive\Study\Operating Systems\实验\project7\codes/./lib/utilsC.c:918
	while (memoryTable[itemId].status == used || memoryTable[itemId].endAddr - memoryTable[itemId].beginAddr + 1 < size)
    5aa1:	67 66 8b 55 fc       	mov    edx,DWORD PTR [ebp-0x4]
    5aa6:	66 89 d0             	mov    eax,edx
    5aa9:	66 01 c0             	add    eax,eax
    5aac:	66 01 d0             	add    eax,edx
    5aaf:	66 c1 e0 03          	shl    eax,0x3
    5ab3:	66 05 f4 92 00 00    	add    eax,0x92f4
    5ab9:	67 66 8b 00          	mov    eax,DWORD PTR [eax]
    5abd:	66 83 f8 01          	cmp    eax,0x1
    5ac1:	74 bd                	je     5a80 <_findEnoughBlock+0x14>
    5ac3:	67 66 8b 55 fc       	mov    edx,DWORD PTR [ebp-0x4]
    5ac8:	66 89 d0             	mov    eax,edx
    5acb:	66 01 c0             	add    eax,eax
    5ace:	66 01 d0             	add    eax,edx
    5ad1:	66 c1 e0 03          	shl    eax,0x3
    5ad5:	66 05 e4 92 00 00    	add    eax,0x92e4
    5adb:	67 66 8b 08          	mov    ecx,DWORD PTR [eax]
    5adf:	67 66 8b 55 fc       	mov    edx,DWORD PTR [ebp-0x4]
    5ae4:	66 89 d0             	mov    eax,edx
    5ae7:	66 01 c0             	add    eax,eax
    5aea:	66 01 d0             	add    eax,edx
    5aed:	66 c1 e0 03          	shl    eax,0x3
    5af1:	66 05 e0 92 00 00    	add    eax,0x92e0
    5af7:	67 66 8b 00          	mov    eax,DWORD PTR [eax]
    5afb:	66 29 c1             	sub    ecx,eax
    5afe:	66 89 c8             	mov    eax,ecx
    5b01:	66 40                	inc    eax
    5b03:	67 66 3b 45 08       	cmp    eax,DWORD PTR [ebp+0x8]
    5b08:	0f 8c 74 ff          	jl     5a80 <_findEnoughBlock+0x14>
D:\OneDrive\Study\Operating Systems\实验\project7\codes/./lib/utilsC.c:922
	}
	return itemId;
    5b0c:	67 66 8b 45 fc       	mov    eax,DWORD PTR [ebp-0x4]
D:\OneDrive\Study\Operating Systems\实验\project7\codes/./lib/utilsC.c:923
}
    5b11:	66 c9                	leave  
    5b13:	66 c3                	ret    

00005b15 <_require>:
require():
D:\OneDrive\Study\Operating Systems\实验\project7\codes/./lib/utilsC.c:927


int require(int size, int curId)
{
    5b15:	66 55                	push   ebp
    5b17:	66 89 e5             	mov    ebp,esp
    5b1a:	66 83 ec 04          	sub    esp,0x4
D:\OneDrive\Study\Operating Systems\实验\project7\codes/./lib/utilsC.c:928
	memoryTable[firstUnusedMemoryItem].beginAddr = memoryTable[curId].beginAddr;
    5b1e:	66 8b 0e 04 92       	mov    ecx,DWORD PTR ds:0x9204
    5b23:	67 66 8b 55 0c       	mov    edx,DWORD PTR [ebp+0xc]
    5b28:	66 89 d0             	mov    eax,edx
    5b2b:	66 01 c0             	add    eax,eax
    5b2e:	66 01 d0             	add    eax,edx
    5b31:	66 c1 e0 03          	shl    eax,0x3
    5b35:	66 05 e0 92 00 00    	add    eax,0x92e0
    5b3b:	67 66 8b 10          	mov    edx,DWORD PTR [eax]
    5b3f:	66 89 c8             	mov    eax,ecx
    5b42:	66 01 c0             	add    eax,eax
    5b45:	66 01 c8             	add    eax,ecx
    5b48:	66 c1 e0 03          	shl    eax,0x3
    5b4c:	66 05 e0 92 00 00    	add    eax,0x92e0
    5b52:	67 66 89 10          	mov    DWORD PTR [eax],edx
D:\OneDrive\Study\Operating Systems\实验\project7\codes/./lib/utilsC.c:929
	memoryTable[firstUnusedMemoryItem].endAddr = memoryTable[firstUnusedMemoryItem].beginAddr + size - 1;
    5b56:	66 8b 16 04 92       	mov    edx,DWORD PTR ds:0x9204
    5b5b:	66 8b 0e 04 92       	mov    ecx,DWORD PTR ds:0x9204
    5b60:	66 89 c8             	mov    eax,ecx
    5b63:	66 01 c0             	add    eax,eax
    5b66:	66 01 c8             	add    eax,ecx
    5b69:	66 c1 e0 03          	shl    eax,0x3
    5b6d:	66 05 e0 92 00 00    	add    eax,0x92e0
    5b73:	67 66 8b 08          	mov    ecx,DWORD PTR [eax]
    5b77:	67 66 8b 45 08       	mov    eax,DWORD PTR [ebp+0x8]
    5b7c:	66 01 c8             	add    eax,ecx
    5b7f:	67 66 8d 48 ff       	lea    ecx,[eax-0x1]
    5b84:	66 89 d0             	mov    eax,edx
    5b87:	66 01 c0             	add    eax,eax
    5b8a:	66 01 d0             	add    eax,edx
    5b8d:	66 c1 e0 03          	shl    eax,0x3
    5b91:	66 05 e4 92 00 00    	add    eax,0x92e4
    5b97:	67 66 89 08          	mov    DWORD PTR [eax],ecx
D:\OneDrive\Study\Operating Systems\实验\project7\codes/./lib/utilsC.c:930
	memoryTable[firstUnusedMemoryItem].used = 1;
    5b9b:	66 8b 16 04 92       	mov    edx,DWORD PTR ds:0x9204
    5ba0:	66 89 d0             	mov    eax,edx
    5ba3:	66 01 c0             	add    eax,eax
    5ba6:	66 01 d0             	add    eax,edx
    5ba9:	66 c1 e0 03          	shl    eax,0x3
    5bad:	66 05 f0 92 00 00    	add    eax,0x92f0
    5bb3:	67 66 c7 00 01 00 00 	mov    DWORD PTR [eax],0x1
    5bba:	00 
D:\OneDrive\Study\Operating Systems\实验\project7\codes/./lib/utilsC.c:931
	memoryTable[firstUnusedMemoryItem].status = used;
    5bbb:	66 8b 16 04 92       	mov    edx,DWORD PTR ds:0x9204
    5bc0:	66 89 d0             	mov    eax,edx
    5bc3:	66 01 c0             	add    eax,eax
    5bc6:	66 01 d0             	add    eax,edx
    5bc9:	66 c1 e0 03          	shl    eax,0x3
    5bcd:	66 05 f4 92 00 00    	add    eax,0x92f4
    5bd3:	67 66 c7 00 01 00 00 	mov    DWORD PTR [eax],0x1
    5bda:	00 
D:\OneDrive\Study\Operating Systems\实验\project7\codes/./lib/utilsC.c:932
	memoryTable[firstUnusedMemoryItem].pre = memoryTable[curId].pre;
    5bdb:	66 8b 0e 04 92       	mov    ecx,DWORD PTR ds:0x9204
    5be0:	67 66 8b 55 0c       	mov    edx,DWORD PTR [ebp+0xc]
    5be5:	66 89 d0             	mov    eax,edx
    5be8:	66 01 c0             	add    eax,eax
    5beb:	66 01 d0             	add    eax,edx
    5bee:	66 c1 e0 03          	shl    eax,0x3
    5bf2:	66 05 e8 92 00 00    	add    eax,0x92e8
    5bf8:	67 66 8b 10          	mov    edx,DWORD PTR [eax]
    5bfc:	66 89 c8             	mov    eax,ecx
    5bff:	66 01 c0             	add    eax,eax
    5c02:	66 01 c8             	add    eax,ecx
    5c05:	66 c1 e0 03          	shl    eax,0x3
    5c09:	66 05 e8 92 00 00    	add    eax,0x92e8
    5c0f:	67 66 89 10          	mov    DWORD PTR [eax],edx
D:\OneDrive\Study\Operating Systems\实验\project7\codes/./lib/utilsC.c:933
	memoryTable[firstUnusedMemoryItem].next = curId;
    5c13:	66 8b 16 04 92       	mov    edx,DWORD PTR ds:0x9204
    5c18:	66 89 d0             	mov    eax,edx
    5c1b:	66 01 c0             	add    eax,eax
    5c1e:	66 01 d0             	add    eax,edx
    5c21:	66 c1 e0 03          	shl    eax,0x3
    5c25:	67 66 8d 90 ec 92 00 	lea    edx,[eax+0x92ec]
    5c2c:	00 
    5c2d:	67 66 8b 45 0c       	mov    eax,DWORD PTR [ebp+0xc]
    5c32:	67 66 89 02          	mov    DWORD PTR [edx],eax
D:\OneDrive\Study\Operating Systems\实验\project7\codes/./lib/utilsC.c:934
	memoryTable[memoryTable[curId].pre].next = firstUnusedMemoryItem;
    5c36:	67 66 8b 55 0c       	mov    edx,DWORD PTR [ebp+0xc]
    5c3b:	66 89 d0             	mov    eax,edx
    5c3e:	66 01 c0             	add    eax,eax
    5c41:	66 01 d0             	add    eax,edx
    5c44:	66 c1 e0 03          	shl    eax,0x3
    5c48:	66 05 e8 92 00 00    	add    eax,0x92e8
    5c4e:	67 66 8b 08          	mov    ecx,DWORD PTR [eax]
    5c52:	66 8b 16 04 92       	mov    edx,DWORD PTR ds:0x9204
    5c57:	66 89 c8             	mov    eax,ecx
    5c5a:	66 01 c0             	add    eax,eax
    5c5d:	66 01 c8             	add    eax,ecx
    5c60:	66 c1 e0 03          	shl    eax,0x3
    5c64:	66 05 ec 92 00 00    	add    eax,0x92ec
    5c6a:	67 66 89 10          	mov    DWORD PTR [eax],edx
D:\OneDrive\Study\Operating Systems\实验\project7\codes/./lib/utilsC.c:935
	memoryTable[curId].pre = firstUnusedMemoryItem;
    5c6e:	66 8b 16 04 92       	mov    edx,DWORD PTR ds:0x9204
    5c73:	67 66 8b 4d 0c       	mov    ecx,DWORD PTR [ebp+0xc]
    5c78:	66 89 c8             	mov    eax,ecx
    5c7b:	66 01 c0             	add    eax,eax
    5c7e:	66 01 c8             	add    eax,ecx
    5c81:	66 c1 e0 03          	shl    eax,0x3
    5c85:	66 05 e8 92 00 00    	add    eax,0x92e8
    5c8b:	67 66 89 10          	mov    DWORD PTR [eax],edx
D:\OneDrive\Study\Operating Systems\实验\project7\codes/./lib/utilsC.c:936
	memoryTable[curId].beginAddr = memoryTable[firstUnusedMemoryItem].endAddr + 1;
    5c8f:	66 8b 16 04 92       	mov    edx,DWORD PTR ds:0x9204
    5c94:	66 89 d0             	mov    eax,edx
    5c97:	66 01 c0             	add    eax,eax
    5c9a:	66 01 d0             	add    eax,edx
    5c9d:	66 c1 e0 03          	shl    eax,0x3
    5ca1:	66 05 e4 92 00 00    	add    eax,0x92e4
    5ca7:	67 66 8b 00          	mov    eax,DWORD PTR [eax]
    5cab:	67 66 8d 48 01       	lea    ecx,[eax+0x1]
    5cb0:	67 66 8b 55 0c       	mov    edx,DWORD PTR [ebp+0xc]
    5cb5:	66 89 d0             	mov    eax,edx
    5cb8:	66 01 c0             	add    eax,eax
    5cbb:	66 01 d0             	add    eax,edx
    5cbe:	66 c1 e0 03          	shl    eax,0x3
    5cc2:	66 05 e0 92 00 00    	add    eax,0x92e0
    5cc8:	67 66 89 08          	mov    DWORD PTR [eax],ecx
D:\OneDrive\Study\Operating Systems\实验\project7\codes/./lib/utilsC.c:937
	if (memoryTable[curId].beginAddr >= memoryTable[curId].endAddr)
    5ccc:	67 66 8b 55 0c       	mov    edx,DWORD PTR [ebp+0xc]
    5cd1:	66 89 d0             	mov    eax,edx
    5cd4:	66 01 c0             	add    eax,eax
    5cd7:	66 01 d0             	add    eax,edx
    5cda:	66 c1 e0 03          	shl    eax,0x3
    5cde:	66 05 e0 92 00 00    	add    eax,0x92e0
    5ce4:	67 66 8b 08          	mov    ecx,DWORD PTR [eax]
    5ce8:	67 66 8b 55 0c       	mov    edx,DWORD PTR [ebp+0xc]
    5ced:	66 89 d0             	mov    eax,edx
    5cf0:	66 01 c0             	add    eax,eax
    5cf3:	66 01 d0             	add    eax,edx
    5cf6:	66 c1 e0 03          	shl    eax,0x3
    5cfa:	66 05 e4 92 00 00    	add    eax,0x92e4
    5d00:	67 66 8b 00          	mov    eax,DWORD PTR [eax]
    5d04:	66 39 c1             	cmp    ecx,eax
    5d07:	7c 58                	jl     5d61 <_require+0x24c>
D:\OneDrive\Study\Operating Systems\实验\project7\codes/./lib/utilsC.c:939
	{
		memoryTable[firstUnusedMemoryItem].next = memoryTable[curId].next;
    5d09:	66 8b 0e 04 92       	mov    ecx,DWORD PTR ds:0x9204
    5d0e:	67 66 8b 55 0c       	mov    edx,DWORD PTR [ebp+0xc]
    5d13:	66 89 d0             	mov    eax,edx
    5d16:	66 01 c0             	add    eax,eax
    5d19:	66 01 d0             	add    eax,edx
    5d1c:	66 c1 e0 03          	shl    eax,0x3
    5d20:	66 05 ec 92 00 00    	add    eax,0x92ec
    5d26:	67 66 8b 10          	mov    edx,DWORD PTR [eax]
    5d2a:	66 89 c8             	mov    eax,ecx
    5d2d:	66 01 c0             	add    eax,eax
    5d30:	66 01 c8             	add    eax,ecx
    5d33:	66 c1 e0 03          	shl    eax,0x3
    5d37:	66 05 ec 92 00 00    	add    eax,0x92ec
    5d3d:	67 66 89 10          	mov    DWORD PTR [eax],edx
D:\OneDrive\Study\Operating Systems\实验\project7\codes/./lib/utilsC.c:940
		memoryTable[curId].used = 0;
    5d41:	67 66 8b 55 0c       	mov    edx,DWORD PTR [ebp+0xc]
    5d46:	66 89 d0             	mov    eax,edx
    5d49:	66 01 c0             	add    eax,eax
    5d4c:	66 01 d0             	add    eax,edx
    5d4f:	66 c1 e0 03          	shl    eax,0x3
    5d53:	66 05 f0 92 00 00    	add    eax,0x92f0
    5d59:	67 66 c7 00 00 00 00 	mov    DWORD PTR [eax],0x0
    5d60:	00 
D:\OneDrive\Study\Operating Systems\实验\project7\codes/./lib/utilsC.c:942
	}
	int ret = firstUnusedMemoryItem;
    5d61:	66 a1 04 92          	mov    eax,ds:0x9204
    5d65:	67 66 89 45 fc       	mov    DWORD PTR [ebp-0x4],eax
D:\OneDrive\Study\Operating Systems\实验\project7\codes/./lib/utilsC.c:943
	firstUnusedMemoryItem = nextUnusedItem();
    5d6a:	66 e8 fd ee ff ff    	call   4c6d <_nextUnusedItem>
    5d70:	66 a3 04 92          	mov    ds:0x9204,eax
D:\OneDrive\Study\Operating Systems\实验\project7\codes/./lib/utilsC.c:944
	return ret;
    5d74:	67 66 8b 45 fc       	mov    eax,DWORD PTR [ebp-0x4]
D:\OneDrive\Study\Operating Systems\实验\project7\codes/./lib/utilsC.c:945
}
    5d79:	66 c9                	leave  
    5d7b:	66 c3                	ret    

00005d7d <_loadFile>:
loadFile():
D:\OneDrive\Study\Operating Systems\实验\project7\codes/./lib/utilsC.c:948

void loadFile(int lma, int size, int vma, int seg)
{
    5d7d:	66 55                	push   ebp
    5d7f:	66 89 e5             	mov    ebp,esp
    5d82:	66 53                	push   ebx
    5d84:	66 83 ec 18          	sub    esp,0x18
D:\OneDrive\Study\Operating Systems\实验\project7\codes/./lib/utilsC.c:949
	int tmpSize = size;
    5d88:	67 66 8b 45 0c       	mov    eax,DWORD PTR [ebp+0xc]
    5d8d:	67 66 89 45 f8       	mov    DWORD PTR [ebp-0x8],eax
D:\OneDrive\Study\Operating Systems\实验\project7\codes/./lib/utilsC.c:950
	int loadtimes = 0;
    5d92:	67 66 c7 45 f4 00 00 	mov    DWORD PTR [ebp-0xc],0x0
    5d99:	00 00 
D:\OneDrive\Study\Operating Systems\实验\project7\codes/./lib/utilsC.c:952
	do {
		loadReal(lma + loadtimes * 18 * 512, min(tmpSize, 18 * 512), vma + loadtimes * 18 * 512, seg);
    5d9b:	67 66 8b 55 f4       	mov    edx,DWORD PTR [ebp-0xc]
    5da0:	66 89 d0             	mov    eax,edx
    5da3:	66 c1 e0 03          	shl    eax,0x3
    5da7:	66 01 d0             	add    eax,edx
    5daa:	66 c1 e0 0a          	shl    eax,0xa
    5dae:	66 89 c2             	mov    edx,eax
    5db1:	67 66 8b 45 10       	mov    eax,DWORD PTR [ebp+0x10]
    5db6:	67 66 8d 1c 02       	lea    ebx,[edx+eax*1]
    5dbb:	67 66 8b 55 f8       	mov    edx,DWORD PTR [ebp-0x8]
    5dc0:	66 81 fa 00 24 00 00 	cmp    edx,0x2400
    5dc7:	7e 06                	jle    5dcf <_loadFile+0x52>
    5dc9:	66 ba 00 24 00 00    	mov    edx,0x2400
    5dcf:	67 66 8b 4d f4       	mov    ecx,DWORD PTR [ebp-0xc]
    5dd4:	66 89 c8             	mov    eax,ecx
    5dd7:	66 c1 e0 03          	shl    eax,0x3
    5ddb:	66 01 c8             	add    eax,ecx
    5dde:	66 c1 e0 0a          	shl    eax,0xa
    5de2:	66 89 c1             	mov    ecx,eax
    5de5:	67 66 8b 45 08       	mov    eax,DWORD PTR [ebp+0x8]
    5dea:	66 01 c1             	add    ecx,eax
    5ded:	67 66 8b 45 14       	mov    eax,DWORD PTR [ebp+0x14]
    5df2:	67 66 89 44 24 0c    	mov    DWORD PTR [esp+0xc],eax
    5df8:	67 66 89 5c 24 08    	mov    DWORD PTR [esp+0x8],ebx
    5dfe:	67 66 89 54 24 04    	mov    DWORD PTR [esp+0x4],edx
    5e04:	67 66 89 0c 24       	mov    DWORD PTR [esp],ecx
    5e09:	66 e8 43 b9 ff ff    	call   1752 <_loadReal>
D:\OneDrive\Study\Operating Systems\实验\project7\codes/./lib/utilsC.c:953
		loadtimes += 1;
    5e0f:	67 66 ff 45 f4       	inc    DWORD PTR [ebp-0xc]
D:\OneDrive\Study\Operating Systems\实验\project7\codes/./lib/utilsC.c:954
		tmpSize -= 18 * 512;
    5e14:	67 66 81 6d f8 00 24 	sub    DWORD PTR [ebp-0x8],0x2400
    5e1b:	00 00 
D:\OneDrive\Study\Operating Systems\实验\project7\codes/./lib/utilsC.c:955
	} while (tmpSize >= 18 * 512);
    5e1d:	67 66 81 7d f8 ff 23 	cmp    DWORD PTR [ebp-0x8],0x23ff
    5e24:	00 00 
    5e26:	0f 8f 71 ff          	jg     5d9b <_loadFile+0x1e>
D:\OneDrive\Study\Operating Systems\实验\project7\codes/./lib/utilsC.c:956
}
    5e2a:	90                   	nop
    5e2b:	66 83 c4 18          	add    esp,0x18
    5e2f:	66 5b                	pop    ebx
    5e31:	66 5d                	pop    ebp
    5e33:	66 c3                	ret    

00005e35 <_initSemaphore>:
initSemaphore():
D:\OneDrive\Study\Operating Systems\实验\project7\codes/./lib/utilsC.c:962

/////////// memory ends /////////////

////////// semaphore ////////////////
void initSemaphore()
{
    5e35:	66 55                	push   ebp
    5e37:	66 89 e5             	mov    ebp,esp
    5e3a:	66 83 ec 08          	sub    esp,0x8
D:\OneDrive\Study\Operating Systems\实验\project7\codes/./lib/utilsC.c:963
	for (int i = 0; i < SemaNum; ++i)
    5e3e:	67 66 c7 45 fc 00 00 	mov    DWORD PTR [ebp-0x4],0x0
    5e45:	00 00 
    5e47:	eb 66                	jmp    5eaf <_initSemaphore+0x7a>
D:\OneDrive\Study\Operating Systems\实验\project7\codes/./lib/utilsC.c:965
	{
		semaphoreArray[i].used = fal;
    5e49:	67 66 8b 55 fc       	mov    edx,DWORD PTR [ebp-0x4]
    5e4e:	66 89 d0             	mov    eax,edx
    5e51:	66 c1 e0 02          	shl    eax,0x2
    5e55:	66 01 d0             	add    eax,edx
    5e58:	67 66 8d 14 85 00 00 	lea    edx,[eax*4+0x0]
    5e5f:	00 00 
    5e61:	66 01 d0             	add    eax,edx
    5e64:	66 c1 e0 02          	shl    eax,0x2
    5e68:	66 05 64 97 00 00    	add    eax,0x9764
    5e6e:	67 66 c7 00 00 00 00 	mov    DWORD PTR [eax],0x0
    5e75:	00 
D:\OneDrive\Study\Operating Systems\实验\project7\codes/./lib/utilsC.c:966
		init(&semaphoreArray[i].semaQue);
    5e76:	67 66 8b 55 fc       	mov    edx,DWORD PTR [ebp-0x4]
    5e7b:	66 89 d0             	mov    eax,edx
    5e7e:	66 c1 e0 02          	shl    eax,0x2
    5e82:	66 01 d0             	add    eax,edx
    5e85:	67 66 8d 14 85 00 00 	lea    edx,[eax*4+0x0]
    5e8c:	00 00 
    5e8e:	66 01 d0             	add    eax,edx
    5e91:	66 c1 e0 02          	shl    eax,0x2
    5e95:	66 05 60 97 00 00    	add    eax,0x9760
    5e9b:	66 83 c0 08          	add    eax,0x8
    5e9f:	67 66 89 04 24       	mov    DWORD PTR [esp],eax
    5ea4:	66 e8 90 03 00 00    	call   623a <_init>
D:\OneDrive\Study\Operating Systems\实验\project7\codes/./lib/utilsC.c:963
	for (int i = 0; i < SemaNum; ++i)
    5eaa:	67 66 ff 45 fc       	inc    DWORD PTR [ebp-0x4]
    5eaf:	67 66 83 7d fc 3b    	cmp    DWORD PTR [ebp-0x4],0x3b
    5eb5:	7e 92                	jle    5e49 <_initSemaphore+0x14>
D:\OneDrive\Study\Operating Systems\实验\project7\codes/./lib/utilsC.c:968
	}
}
    5eb7:	90                   	nop
    5eb8:	66 c9                	leave  
    5eba:	66 c3                	ret    

00005ebc <_do_getsem>:
do_getsem():
D:\OneDrive\Study\Operating Systems\实验\project7\codes/./lib/utilsC.c:971

int do_getsem(int resourceSize)
{
    5ebc:	66 55                	push   ebp
    5ebe:	66 89 e5             	mov    ebp,esp
    5ec1:	66 83 ec 04          	sub    esp,0x4
D:\OneDrive\Study\Operating Systems\实验\project7\codes/./lib/utilsC.c:972
	int i = 0;
    5ec5:	67 66 c7 45 fc 00 00 	mov    DWORD PTR [ebp-0x4],0x0
    5ecc:	00 00 
D:\OneDrive\Study\Operating Systems\实验\project7\codes/./lib/utilsC.c:973
	while (semaphoreArray[i].used == tru) { ++i; }
    5ece:	eb 05                	jmp    5ed5 <_do_getsem+0x19>
    5ed0:	67 66 ff 45 fc       	inc    DWORD PTR [ebp-0x4]
    5ed5:	67 66 8b 55 fc       	mov    edx,DWORD PTR [ebp-0x4]
    5eda:	66 89 d0             	mov    eax,edx
    5edd:	66 c1 e0 02          	shl    eax,0x2
    5ee1:	66 01 d0             	add    eax,edx
    5ee4:	67 66 8d 14 85 00 00 	lea    edx,[eax*4+0x0]
    5eeb:	00 00 
    5eed:	66 01 d0             	add    eax,edx
    5ef0:	66 c1 e0 02          	shl    eax,0x2
    5ef4:	66 05 64 97 00 00    	add    eax,0x9764
    5efa:	67 66 8b 00          	mov    eax,DWORD PTR [eax]
    5efe:	66 83 f8 01          	cmp    eax,0x1
    5f02:	74 cc                	je     5ed0 <_do_getsem+0x14>
D:\OneDrive\Study\Operating Systems\实验\project7\codes/./lib/utilsC.c:974
	if (i >= SemaNum)
    5f04:	67 66 83 7d fc 3b    	cmp    DWORD PTR [ebp-0x4],0x3b
    5f0a:	7e 08                	jle    5f14 <_do_getsem+0x58>
D:\OneDrive\Study\Operating Systems\实验\project7\codes/./lib/utilsC.c:975
		return -1;
    5f0c:	66 b8 ff ff ff ff    	mov    eax,0xffffffff
    5f12:	eb 62                	jmp    5f76 <_do_getsem+0xba>
D:\OneDrive\Study\Operating Systems\实验\project7\codes/./lib/utilsC.c:976
	semaphoreArray[i].used = tru;
    5f14:	67 66 8b 55 fc       	mov    edx,DWORD PTR [ebp-0x4]
    5f19:	66 89 d0             	mov    eax,edx
    5f1c:	66 c1 e0 02          	shl    eax,0x2
    5f20:	66 01 d0             	add    eax,edx
    5f23:	67 66 8d 14 85 00 00 	lea    edx,[eax*4+0x0]
    5f2a:	00 00 
    5f2c:	66 01 d0             	add    eax,edx
    5f2f:	66 c1 e0 02          	shl    eax,0x2
    5f33:	66 05 64 97 00 00    	add    eax,0x9764
    5f39:	67 66 c7 00 01 00 00 	mov    DWORD PTR [eax],0x1
    5f40:	00 
D:\OneDrive\Study\Operating Systems\实验\project7\codes/./lib/utilsC.c:977
	semaphoreArray[i].resources = resourceSize;
    5f41:	67 66 8b 55 fc       	mov    edx,DWORD PTR [ebp-0x4]
    5f46:	66 89 d0             	mov    eax,edx
    5f49:	66 c1 e0 02          	shl    eax,0x2
    5f4d:	66 01 d0             	add    eax,edx
    5f50:	67 66 8d 14 85 00 00 	lea    edx,[eax*4+0x0]
    5f57:	00 00 
    5f59:	66 01 d0             	add    eax,edx
    5f5c:	66 c1 e0 02          	shl    eax,0x2
    5f60:	67 66 8d 90 60 97 00 	lea    edx,[eax+0x9760]
    5f67:	00 
    5f68:	67 66 8b 45 08       	mov    eax,DWORD PTR [ebp+0x8]
    5f6d:	67 66 89 02          	mov    DWORD PTR [edx],eax
D:\OneDrive\Study\Operating Systems\实验\project7\codes/./lib/utilsC.c:978
	return i;
    5f71:	67 66 8b 45 fc       	mov    eax,DWORD PTR [ebp-0x4]
D:\OneDrive\Study\Operating Systems\实验\project7\codes/./lib/utilsC.c:979
}
    5f76:	66 c9                	leave  
    5f78:	66 c3                	ret    

00005f7a <_do_freesem>:
do_freesem():
D:\OneDrive\Study\Operating Systems\实验\project7\codes/./lib/utilsC.c:982

void do_freesem(int sem_id)
{
    5f7a:	66 55                	push   ebp
    5f7c:	66 89 e5             	mov    ebp,esp
    5f7f:	66 83 ec 04          	sub    esp,0x4
D:\OneDrive\Study\Operating Systems\实验\project7\codes/./lib/utilsC.c:983
	semaphoreArray[sem_id].used = fal;
    5f83:	67 66 8b 55 08       	mov    edx,DWORD PTR [ebp+0x8]
    5f88:	66 89 d0             	mov    eax,edx
    5f8b:	66 c1 e0 02          	shl    eax,0x2
    5f8f:	66 01 d0             	add    eax,edx
    5f92:	67 66 8d 14 85 00 00 	lea    edx,[eax*4+0x0]
    5f99:	00 00 
    5f9b:	66 01 d0             	add    eax,edx
    5f9e:	66 c1 e0 02          	shl    eax,0x2
    5fa2:	66 05 64 97 00 00    	add    eax,0x9764
    5fa8:	67 66 c7 00 00 00 00 	mov    DWORD PTR [eax],0x0
    5faf:	00 
D:\OneDrive\Study\Operating Systems\实验\project7\codes/./lib/utilsC.c:984
	clearQue(&semaphoreArray[sem_id].semaQue);
    5fb0:	67 66 8b 55 08       	mov    edx,DWORD PTR [ebp+0x8]
    5fb5:	66 89 d0             	mov    eax,edx
    5fb8:	66 c1 e0 02          	shl    eax,0x2
    5fbc:	66 01 d0             	add    eax,edx
    5fbf:	67 66 8d 14 85 00 00 	lea    edx,[eax*4+0x0]
    5fc6:	00 00 
    5fc8:	66 01 d0             	add    eax,edx
    5fcb:	66 c1 e0 02          	shl    eax,0x2
    5fcf:	66 05 60 97 00 00    	add    eax,0x9760
    5fd5:	66 83 c0 08          	add    eax,0x8
    5fd9:	67 66 89 04 24       	mov    DWORD PTR [esp],eax
    5fde:	66 e8 69 03 00 00    	call   634d <_clearQue>
D:\OneDrive\Study\Operating Systems\实验\project7\codes/./lib/utilsC.c:985
}
    5fe4:	90                   	nop
    5fe5:	66 c9                	leave  
    5fe7:	66 c3                	ret    

00005fe9 <_do_p>:
do_p():
D:\OneDrive\Study\Operating Systems\实验\project7\codes/./lib/utilsC.c:988

void do_p(int sem_id)
{
    5fe9:	66 55                	push   ebp
    5feb:	66 89 e5             	mov    ebp,esp
    5fee:	66 83 ec 08          	sub    esp,0x8
D:\OneDrive\Study\Operating Systems\实验\project7\codes/./lib/utilsC.c:989
	__asm__("cli\n");
    5ff2:	fa                   	cli    
D:\OneDrive\Study\Operating Systems\实验\project7\codes/./lib/utilsC.c:990
	semaphoreArray[sem_id].resources -= 1;
    5ff3:	67 66 8b 55 08       	mov    edx,DWORD PTR [ebp+0x8]
    5ff8:	66 89 d0             	mov    eax,edx
    5ffb:	66 c1 e0 02          	shl    eax,0x2
    5fff:	66 01 d0             	add    eax,edx
    6002:	67 66 8d 14 85 00 00 	lea    edx,[eax*4+0x0]
    6009:	00 00 
    600b:	66 01 d0             	add    eax,edx
    600e:	66 c1 e0 02          	shl    eax,0x2
    6012:	66 05 60 97 00 00    	add    eax,0x9760
    6018:	67 66 8b 00          	mov    eax,DWORD PTR [eax]
    601c:	67 66 8d 48 ff       	lea    ecx,[eax-0x1]
    6021:	67 66 8b 55 08       	mov    edx,DWORD PTR [ebp+0x8]
    6026:	66 89 d0             	mov    eax,edx
    6029:	66 c1 e0 02          	shl    eax,0x2
    602d:	66 01 d0             	add    eax,edx
    6030:	67 66 8d 14 85 00 00 	lea    edx,[eax*4+0x0]
    6037:	00 00 
    6039:	66 01 d0             	add    eax,edx
    603c:	66 c1 e0 02          	shl    eax,0x2
    6040:	66 05 60 97 00 00    	add    eax,0x9760
    6046:	67 66 89 08          	mov    DWORD PTR [eax],ecx
D:\OneDrive\Study\Operating Systems\实验\project7\codes/./lib/utilsC.c:991
	if (semaphoreArray[sem_id].resources < 0)
    604a:	67 66 8b 55 08       	mov    edx,DWORD PTR [ebp+0x8]
    604f:	66 89 d0             	mov    eax,edx
    6052:	66 c1 e0 02          	shl    eax,0x2
    6056:	66 01 d0             	add    eax,edx
    6059:	67 66 8d 14 85 00 00 	lea    edx,[eax*4+0x0]
    6060:	00 00 
    6062:	66 01 d0             	add    eax,edx
    6065:	66 c1 e0 02          	shl    eax,0x2
    6069:	66 05 60 97 00 00    	add    eax,0x9760
    606f:	67 66 8b 00          	mov    eax,DWORD PTR [eax]
    6073:	66 85 c0             	test   eax,eax
    6076:	79 7f                	jns    60f7 <_do_p+0x10e>
D:\OneDrive\Study\Operating Systems\实验\project7\codes/./lib/utilsC.c:993
	{
		delEle(&ReadyQue, curProcessId);
    6078:	66 a1 a0 be          	mov    eax,ds:0xbea0
    607c:	67 66 89 44 24 04    	mov    DWORD PTR [esp+0x4],eax
    6082:	67 66 c7 04 24 c0 be 	mov    DWORD PTR [esp],0xbec0
    6089:	00 00 
    608b:	66 e8 06 03 00 00    	call   6397 <_delEle>
D:\OneDrive\Study\Operating Systems\实验\project7\codes/./lib/utilsC.c:994
		processTable[curProcessId].status = blocked;
    6091:	66 8b 16 a0 be       	mov    edx,DWORD PTR ds:0xbea0
    6096:	66 89 d0             	mov    eax,edx
    6099:	66 c1 e0 03          	shl    eax,0x3
    609d:	66 01 d0             	add    eax,edx
    60a0:	66 c1 e0 04          	shl    eax,0x4
    60a4:	66 05 ec b3 00 00    	add    eax,0xb3ec
    60aa:	67 66 c7 00 03 00 00 	mov    DWORD PTR [eax],0x3
    60b1:	00 
D:\OneDrive\Study\Operating Systems\实验\project7\codes/./lib/utilsC.c:995
		enqueue(&semaphoreArray[sem_id].semaQue, curProcessId);
    60b2:	66 8b 16 a0 be       	mov    edx,DWORD PTR ds:0xbea0
    60b7:	67 66 8b 4d 08       	mov    ecx,DWORD PTR [ebp+0x8]
    60bc:	66 89 c8             	mov    eax,ecx
    60bf:	66 c1 e0 02          	shl    eax,0x2
    60c3:	66 01 c8             	add    eax,ecx
    60c6:	67 66 8d 0c 85 00 00 	lea    ecx,[eax*4+0x0]
    60cd:	00 00 
    60cf:	66 01 c8             	add    eax,ecx
    60d2:	66 c1 e0 02          	shl    eax,0x2
    60d6:	66 05 60 97 00 00    	add    eax,0x9760
    60dc:	66 83 c0 08          	add    eax,0x8
    60e0:	67 66 89 54 24 04    	mov    DWORD PTR [esp+0x4],edx
    60e6:	67 66 89 04 24       	mov    DWORD PTR [esp],eax
    60eb:	66 e8 7c 01 00 00    	call   626d <_enqueue>
D:\OneDrive\Study\Operating Systems\实验\project7\codes/./lib/utilsC.c:996
		processSwitch();
    60f1:	66 e8 3e e9 ff ff    	call   4a35 <_processSwitch>
D:\OneDrive\Study\Operating Systems\实验\project7\codes/./lib/utilsC.c:998
	}
	__asm__("sti\n");
    60f7:	fb                   	sti    
D:\OneDrive\Study\Operating Systems\实验\project7\codes/./lib/utilsC.c:999
}
    60f8:	90                   	nop
    60f9:	66 c9                	leave  
    60fb:	66 c3                	ret    

000060fd <_do_v>:
do_v():
D:\OneDrive\Study\Operating Systems\实验\project7\codes/./lib/utilsC.c:1003


void do_v(int sem_id)
{
    60fd:	66 55                	push   ebp
    60ff:	66 89 e5             	mov    ebp,esp
    6102:	66 83 ec 08          	sub    esp,0x8
D:\OneDrive\Study\Operating Systems\实验\project7\codes/./lib/utilsC.c:1004
	__asm__("cli\n");
    6106:	fa                   	cli    
D:\OneDrive\Study\Operating Systems\实验\project7\codes/./lib/utilsC.c:1005
	++semaphoreArray[sem_id].resources;
    6107:	67 66 8b 55 08       	mov    edx,DWORD PTR [ebp+0x8]
    610c:	66 89 d0             	mov    eax,edx
    610f:	66 c1 e0 02          	shl    eax,0x2
    6113:	66 01 d0             	add    eax,edx
    6116:	67 66 8d 14 85 00 00 	lea    edx,[eax*4+0x0]
    611d:	00 00 
    611f:	66 01 d0             	add    eax,edx
    6122:	66 c1 e0 02          	shl    eax,0x2
    6126:	66 05 60 97 00 00    	add    eax,0x9760
    612c:	67 66 8b 00          	mov    eax,DWORD PTR [eax]
    6130:	67 66 8d 48 01       	lea    ecx,[eax+0x1]
    6135:	67 66 8b 55 08       	mov    edx,DWORD PTR [ebp+0x8]
    613a:	66 89 d0             	mov    eax,edx
    613d:	66 c1 e0 02          	shl    eax,0x2
    6141:	66 01 d0             	add    eax,edx
    6144:	67 66 8d 14 85 00 00 	lea    edx,[eax*4+0x0]
    614b:	00 00 
    614d:	66 01 d0             	add    eax,edx
    6150:	66 c1 e0 02          	shl    eax,0x2
    6154:	66 05 60 97 00 00    	add    eax,0x9760
    615a:	67 66 89 08          	mov    DWORD PTR [eax],ecx
D:\OneDrive\Study\Operating Systems\实验\project7\codes/./lib/utilsC.c:1006
	if (semaphoreArray[sem_id].resources <= 0)
    615e:	67 66 8b 55 08       	mov    edx,DWORD PTR [ebp+0x8]
    6163:	66 89 d0             	mov    eax,edx
    6166:	66 c1 e0 02          	shl    eax,0x2
    616a:	66 01 d0             	add    eax,edx
    616d:	67 66 8d 14 85 00 00 	lea    edx,[eax*4+0x0]
    6174:	00 00 
    6176:	66 01 d0             	add    eax,edx
    6179:	66 c1 e0 02          	shl    eax,0x2
    617d:	66 05 60 97 00 00    	add    eax,0x9760
    6183:	67 66 8b 00          	mov    eax,DWORD PTR [eax]
    6187:	66 85 c0             	test   eax,eax
    618a:	7f 78                	jg     6204 <_do_v+0x107>
D:\OneDrive\Study\Operating Systems\实验\project7\codes/./lib/utilsC.c:1008
	{
		dequeue(&semaphoreArray[sem_id].semaQue, &tmpID);
    618c:	67 66 8b 55 08       	mov    edx,DWORD PTR [ebp+0x8]
    6191:	66 89 d0             	mov    eax,edx
    6194:	66 c1 e0 02          	shl    eax,0x2
    6198:	66 01 d0             	add    eax,edx
    619b:	67 66 8d 14 85 00 00 	lea    edx,[eax*4+0x0]
    61a2:	00 00 
    61a4:	66 01 d0             	add    eax,edx
    61a7:	66 c1 e0 02          	shl    eax,0x2
    61ab:	66 05 60 97 00 00    	add    eax,0x9760
    61b1:	66 83 c0 08          	add    eax,0x8
    61b5:	67 66 c7 44 24 04 2c 	mov    DWORD PTR [esp+0x4],0xbf2c
    61bc:	bf 00 00 
    61bf:	67 66 89 04 24       	mov    DWORD PTR [esp],eax
    61c4:	66 e8 10 01 00 00    	call   62da <_dequeue>
D:\OneDrive\Study\Operating Systems\实验\project7\codes/./lib/utilsC.c:1009
		processTable[tmpID].status = ready;
    61ca:	66 8b 16 2c bf       	mov    edx,DWORD PTR ds:0xbf2c
    61cf:	66 89 d0             	mov    eax,edx
    61d2:	66 c1 e0 03          	shl    eax,0x3
    61d6:	66 01 d0             	add    eax,edx
    61d9:	66 c1 e0 04          	shl    eax,0x4
    61dd:	66 05 ec b3 00 00    	add    eax,0xb3ec
    61e3:	67 66 c7 00 01 00 00 	mov    DWORD PTR [eax],0x1
    61ea:	00 
D:\OneDrive\Study\Operating Systems\实验\project7\codes/./lib/utilsC.c:1010
		enqueue(&ReadyQue, tmpID);
    61eb:	66 a1 2c bf          	mov    eax,ds:0xbf2c
    61ef:	67 66 89 44 24 04    	mov    DWORD PTR [esp+0x4],eax
    61f5:	67 66 c7 04 24 c0 be 	mov    DWORD PTR [esp],0xbec0
    61fc:	00 00 
    61fe:	66 e8 69 00 00 00    	call   626d <_enqueue>
D:\OneDrive\Study\Operating Systems\实验\project7\codes/./lib/utilsC.c:1012
	}
	__asm__("sti\n");
    6204:	fb                   	sti    
D:\OneDrive\Study\Operating Systems\实验\project7\codes/./lib/utilsC.c:1013
}
    6205:	90                   	nop
    6206:	66 c9                	leave  
    6208:	66 c3                	ret    

0000620a <_empty>:
empty():
D:\OneDrive\Study\Operating Systems\实验\project7\codes/./lib/utilsC.c:1019
/////////////////////////////////////


////////////// utils /////////////////
int empty(struct Queue * que)
{
    620a:	66 55                	push   ebp
    620c:	66 89 e5             	mov    ebp,esp
D:\OneDrive\Study\Operating Systems\实验\project7\codes/./lib/utilsC.c:1020
	return que->size == 0;
    620f:	67 66 8b 45 08       	mov    eax,DWORD PTR [ebp+0x8]
    6214:	67 66 8b 40 08       	mov    eax,DWORD PTR [eax+0x8]
    6219:	66 85 c0             	test   eax,eax
    621c:	0f 94 c0             	sete   al
    621f:	66 0f b6 c0          	movzx  eax,al
D:\OneDrive\Study\Operating Systems\实验\project7\codes/./lib/utilsC.c:1021
}
    6223:	66 5d                	pop    ebp
    6225:	66 c3                	ret    

00006227 <_size>:
size():
D:\OneDrive\Study\Operating Systems\实验\project7\codes/./lib/utilsC.c:1024

int size(struct Queue * que)
{
    6227:	66 55                	push   ebp
    6229:	66 89 e5             	mov    ebp,esp
D:\OneDrive\Study\Operating Systems\实验\project7\codes/./lib/utilsC.c:1025
	return que->size;
    622c:	67 66 8b 45 08       	mov    eax,DWORD PTR [ebp+0x8]
    6231:	67 66 8b 40 08       	mov    eax,DWORD PTR [eax+0x8]
D:\OneDrive\Study\Operating Systems\实验\project7\codes/./lib/utilsC.c:1026
}
    6236:	66 5d                	pop    ebp
    6238:	66 c3                	ret    

0000623a <_init>:
init():
D:\OneDrive\Study\Operating Systems\实验\project7\codes/./lib/utilsC.c:1029

void init(struct Queue * que)
{
    623a:	66 55                	push   ebp
    623c:	66 89 e5             	mov    ebp,esp
D:\OneDrive\Study\Operating Systems\实验\project7\codes/./lib/utilsC.c:1030
	que->tail = Len - 1;
    623f:	67 66 8b 45 08       	mov    eax,DWORD PTR [ebp+0x8]
    6244:	67 66 c7 00 13 00 00 	mov    DWORD PTR [eax],0x13
    624b:	00 
D:\OneDrive\Study\Operating Systems\实验\project7\codes/./lib/utilsC.c:1031
	que->head = 0;
    624c:	67 66 8b 45 08       	mov    eax,DWORD PTR [ebp+0x8]
    6251:	67 66 c7 40 04 00 00 	mov    DWORD PTR [eax+0x4],0x0
    6258:	00 00 
D:\OneDrive\Study\Operating Systems\实验\project7\codes/./lib/utilsC.c:1032
	que->size = 0;
    625a:	67 66 8b 45 08       	mov    eax,DWORD PTR [ebp+0x8]
    625f:	67 66 c7 40 08 00 00 	mov    DWORD PTR [eax+0x8],0x0
    6266:	00 00 
D:\OneDrive\Study\Operating Systems\实验\project7\codes/./lib/utilsC.c:1033
}
    6268:	90                   	nop
    6269:	66 5d                	pop    ebp
    626b:	66 c3                	ret    

0000626d <_enqueue>:
enqueue():
D:\OneDrive\Study\Operating Systems\实验\project7\codes/./lib/utilsC.c:1036

void enqueue(struct Queue * que, int ele)
{
    626d:	66 55                	push   ebp
    626f:	66 89 e5             	mov    ebp,esp
D:\OneDrive\Study\Operating Systems\实验\project7\codes/./lib/utilsC.c:1037
	if (que->size >= Len)
    6272:	67 66 8b 45 08       	mov    eax,DWORD PTR [ebp+0x8]
    6277:	67 66 8b 40 08       	mov    eax,DWORD PTR [eax+0x8]
    627c:	66 83 f8 13          	cmp    eax,0x13
    6280:	7f 53                	jg     62d5 <_enqueue+0x68>
D:\OneDrive\Study\Operating Systems\实验\project7\codes/./lib/utilsC.c:1039
		return ;
	que->size++;
    6282:	67 66 8b 45 08       	mov    eax,DWORD PTR [ebp+0x8]
    6287:	67 66 8b 40 08       	mov    eax,DWORD PTR [eax+0x8]
    628c:	67 66 8d 50 01       	lea    edx,[eax+0x1]
    6291:	67 66 8b 45 08       	mov    eax,DWORD PTR [ebp+0x8]
    6296:	67 66 89 50 08       	mov    DWORD PTR [eax+0x8],edx
D:\OneDrive\Study\Operating Systems\实验\project7\codes/./lib/utilsC.c:1040
	que->tail = (que->tail + 1) % Len;
    629b:	67 66 8b 45 08       	mov    eax,DWORD PTR [ebp+0x8]
    62a0:	67 66 8b 00          	mov    eax,DWORD PTR [eax]
    62a4:	66 40                	inc    eax
    62a6:	66 b9 14 00 00 00    	mov    ecx,0x14
    62ac:	66 99                	cdq    
    62ae:	66 f7 f9             	idiv   ecx
    62b1:	67 66 8b 45 08       	mov    eax,DWORD PTR [ebp+0x8]
    62b6:	67 66 89 10          	mov    DWORD PTR [eax],edx
D:\OneDrive\Study\Operating Systems\实验\project7\codes/./lib/utilsC.c:1041
	que->array[que->tail] = ele;
    62ba:	67 66 8b 45 08       	mov    eax,DWORD PTR [ebp+0x8]
    62bf:	67 66 8b 10          	mov    edx,DWORD PTR [eax]
    62c3:	67 66 8b 45 08       	mov    eax,DWORD PTR [ebp+0x8]
    62c8:	67 66 8b 4d 0c       	mov    ecx,DWORD PTR [ebp+0xc]
    62cd:	67 66 89 4c 90 0c    	mov    DWORD PTR [eax+edx*4+0xc],ecx
    62d3:	eb 01                	jmp    62d6 <_enqueue+0x69>
D:\OneDrive\Study\Operating Systems\实验\project7\codes/./lib/utilsC.c:1038
		return ;
    62d5:	90                   	nop
D:\OneDrive\Study\Operating Systems\实验\project7\codes/./lib/utilsC.c:1042
}
    62d6:	66 5d                	pop    ebp
    62d8:	66 c3                	ret    

000062da <_dequeue>:
dequeue():
D:\OneDrive\Study\Operating Systems\实验\project7\codes/./lib/utilsC.c:1045

void dequeue(struct Queue * que, int * ele)
{
    62da:	66 55                	push   ebp
    62dc:	66 89 e5             	mov    ebp,esp
D:\OneDrive\Study\Operating Systems\实验\project7\codes/./lib/utilsC.c:1046
	if (que->size <= 0)
    62df:	67 66 8b 45 08       	mov    eax,DWORD PTR [ebp+0x8]
    62e4:	67 66 8b 40 08       	mov    eax,DWORD PTR [eax+0x8]
    62e9:	66 85 c0             	test   eax,eax
    62ec:	7e 5a                	jle    6348 <_dequeue+0x6e>
D:\OneDrive\Study\Operating Systems\实验\project7\codes/./lib/utilsC.c:1048
		return ;
	que->size--;
    62ee:	67 66 8b 45 08       	mov    eax,DWORD PTR [ebp+0x8]
    62f3:	67 66 8b 40 08       	mov    eax,DWORD PTR [eax+0x8]
    62f8:	67 66 8d 50 ff       	lea    edx,[eax-0x1]
    62fd:	67 66 8b 45 08       	mov    eax,DWORD PTR [ebp+0x8]
    6302:	67 66 89 50 08       	mov    DWORD PTR [eax+0x8],edx
D:\OneDrive\Study\Operating Systems\实验\project7\codes/./lib/utilsC.c:1049
	*ele = que->array[que->head];
    6307:	67 66 8b 45 08       	mov    eax,DWORD PTR [ebp+0x8]
    630c:	67 66 8b 50 04       	mov    edx,DWORD PTR [eax+0x4]
    6311:	67 66 8b 45 08       	mov    eax,DWORD PTR [ebp+0x8]
    6316:	67 66 8b 54 90 0c    	mov    edx,DWORD PTR [eax+edx*4+0xc]
    631c:	67 66 8b 45 0c       	mov    eax,DWORD PTR [ebp+0xc]
    6321:	67 66 89 10          	mov    DWORD PTR [eax],edx
D:\OneDrive\Study\Operating Systems\实验\project7\codes/./lib/utilsC.c:1050
	que->head = (que->head + 1) % Len;
    6325:	67 66 8b 45 08       	mov    eax,DWORD PTR [ebp+0x8]
    632a:	67 66 8b 40 04       	mov    eax,DWORD PTR [eax+0x4]
    632f:	66 40                	inc    eax
    6331:	66 b9 14 00 00 00    	mov    ecx,0x14
    6337:	66 99                	cdq    
    6339:	66 f7 f9             	idiv   ecx
    633c:	67 66 8b 45 08       	mov    eax,DWORD PTR [ebp+0x8]
    6341:	67 66 89 50 04       	mov    DWORD PTR [eax+0x4],edx
    6346:	eb 01                	jmp    6349 <_dequeue+0x6f>
D:\OneDrive\Study\Operating Systems\实验\project7\codes/./lib/utilsC.c:1047
		return ;
    6348:	90                   	nop
D:\OneDrive\Study\Operating Systems\实验\project7\codes/./lib/utilsC.c:1051
}
    6349:	66 5d                	pop    ebp
    634b:	66 c3                	ret    

0000634d <_clearQue>:
clearQue():
D:\OneDrive\Study\Operating Systems\实验\project7\codes/./lib/utilsC.c:1054

void clearQue(struct Queue * que)
{
    634d:	66 55                	push   ebp
    634f:	66 89 e5             	mov    ebp,esp
    6352:	66 83 ec 08          	sub    esp,0x8
D:\OneDrive\Study\Operating Systems\实验\project7\codes/./lib/utilsC.c:1055
	for (int i = 0; i < Len; ++i)
    6356:	67 66 c7 45 fc 00 00 	mov    DWORD PTR [ebp-0x4],0x0
    635d:	00 00 
    635f:	eb 19                	jmp    637a <_clearQue+0x2d>
D:\OneDrive\Study\Operating Systems\实验\project7\codes/./lib/utilsC.c:1057
	{
		que->array[i] = 0;
    6361:	67 66 8b 45 08       	mov    eax,DWORD PTR [ebp+0x8]
    6366:	67 66 8b 55 fc       	mov    edx,DWORD PTR [ebp-0x4]
    636b:	67 66 c7 44 90 0c 00 	mov    DWORD PTR [eax+edx*4+0xc],0x0
    6372:	00 00 00 
D:\OneDrive\Study\Operating Systems\实验\project7\codes/./lib/utilsC.c:1055
	for (int i = 0; i < Len; ++i)
    6375:	67 66 ff 45 fc       	inc    DWORD PTR [ebp-0x4]
    637a:	67 66 83 7d fc 13    	cmp    DWORD PTR [ebp-0x4],0x13
    6380:	7e df                	jle    6361 <_clearQue+0x14>
D:\OneDrive\Study\Operating Systems\实验\project7\codes/./lib/utilsC.c:1059
	}
	init(que);
    6382:	67 66 8b 45 08       	mov    eax,DWORD PTR [ebp+0x8]
    6387:	67 66 89 04 24       	mov    DWORD PTR [esp],eax
    638c:	66 e8 a8 fe ff ff    	call   623a <_init>
D:\OneDrive\Study\Operating Systems\实验\project7\codes/./lib/utilsC.c:1060
}
    6392:	90                   	nop
    6393:	66 c9                	leave  
    6395:	66 c3                	ret    

00006397 <_delEle>:
delEle():
D:\OneDrive\Study\Operating Systems\实验\project7\codes/./lib/utilsC.c:1063

void delEle(struct Queue * que, int ele)
{
    6397:	66 55                	push   ebp
    6399:	66 89 e5             	mov    ebp,esp
    639c:	66 83 ec 10          	sub    esp,0x10
D:\OneDrive\Study\Operating Systems\实验\project7\codes/./lib/utilsC.c:1064
	int queSize = size(que);
    63a0:	67 66 8b 45 08       	mov    eax,DWORD PTR [ebp+0x8]
    63a5:	67 66 89 04 24       	mov    DWORD PTR [esp],eax
    63aa:	66 e8 77 fe ff ff    	call   6227 <_size>
    63b0:	67 66 89 45 f8       	mov    DWORD PTR [ebp-0x8],eax
D:\OneDrive\Study\Operating Systems\实验\project7\codes/./lib/utilsC.c:1065
	for (int i = 0; i < queSize; ++i)
    63b5:	67 66 c7 45 fc 00 00 	mov    DWORD PTR [ebp-0x4],0x0
    63bc:	00 00 
    63be:	eb 44                	jmp    6404 <_delEle+0x6d>
D:\OneDrive\Study\Operating Systems\实验\project7\codes/./lib/utilsC.c:1067
	{
		dequeue(que, &tmp);
    63c0:	67 66 c7 44 24 04 28 	mov    DWORD PTR [esp+0x4],0xbf28
    63c7:	bf 00 00 
    63ca:	67 66 8b 45 08       	mov    eax,DWORD PTR [ebp+0x8]
    63cf:	67 66 89 04 24       	mov    DWORD PTR [esp],eax
    63d4:	66 e8 00 ff ff ff    	call   62da <_dequeue>
D:\OneDrive\Study\Operating Systems\实验\project7\codes/./lib/utilsC.c:1068
		if (tmp != ele)
    63da:	66 a1 28 bf          	mov    eax,ds:0xbf28
    63de:	67 66 3b 45 0c       	cmp    eax,DWORD PTR [ebp+0xc]
    63e3:	74 1a                	je     63ff <_delEle+0x68>
D:\OneDrive\Study\Operating Systems\实验\project7\codes/./lib/utilsC.c:1070
		{
			enqueue(que, tmp);
    63e5:	66 a1 28 bf          	mov    eax,ds:0xbf28
    63e9:	67 66 89 44 24 04    	mov    DWORD PTR [esp+0x4],eax
    63ef:	67 66 8b 45 08       	mov    eax,DWORD PTR [ebp+0x8]
    63f4:	67 66 89 04 24       	mov    DWORD PTR [esp],eax
    63f9:	66 e8 6e fe ff ff    	call   626d <_enqueue>
D:\OneDrive\Study\Operating Systems\实验\project7\codes/./lib/utilsC.c:1065
	for (int i = 0; i < queSize; ++i)
    63ff:	67 66 ff 45 fc       	inc    DWORD PTR [ebp-0x4]
    6404:	67 66 8b 45 fc       	mov    eax,DWORD PTR [ebp-0x4]
    6409:	67 66 3b 45 f8       	cmp    eax,DWORD PTR [ebp-0x8]
    640e:	7c b0                	jl     63c0 <_delEle+0x29>
D:\OneDrive\Study\Operating Systems\实验\project7\codes/./lib/utilsC.c:1073
		}
	}
}
    6410:	90                   	nop
    6411:	66 c9                	leave  
    6413:	66 c3                	ret    

00006415 <_int34h>:
int34h():
D:\OneDrive\Study\Operating Systems\实验\project7\codes/./lib/utilsC.c:1079
/////////////////////////////////////


////////// interruptions //////////
void int34h()
{
    6415:	66 55                	push   ebp
    6417:	66 89 e5             	mov    ebp,esp
    641a:	66 83 ec 18          	sub    esp,0x18
D:\OneDrive\Study\Operating Systems\实验\project7\codes/./lib/utilsC.c:1080
	char * s = "Int 34h Xihuai Wang";
    641e:	67 66 c7 45 fc cf 70 	mov    DWORD PTR [ebp-0x4],0x70cf
    6425:	00 00 
D:\OneDrive\Study\Operating Systems\实验\project7\codes/./lib/utilsC.c:1081
	printSentence(s, 6, 5, strlen(s), purple);
    6427:	67 66 8b 45 fc       	mov    eax,DWORD PTR [ebp-0x4]
    642c:	67 66 89 04 24       	mov    DWORD PTR [esp],eax
    6431:	66 e8 e2 c7 ff ff    	call   2c19 <_strlen>
    6437:	67 66 c7 44 24 10 0d 	mov    DWORD PTR [esp+0x10],0xd
    643e:	00 00 00 
    6441:	67 66 89 44 24 0c    	mov    DWORD PTR [esp+0xc],eax
    6447:	67 66 c7 44 24 08 05 	mov    DWORD PTR [esp+0x8],0x5
    644e:	00 00 00 
    6451:	67 66 c7 44 24 04 06 	mov    DWORD PTR [esp+0x4],0x6
    6458:	00 00 00 
    645b:	67 66 8b 45 fc       	mov    eax,DWORD PTR [ebp-0x4]
    6460:	67 66 89 04 24       	mov    DWORD PTR [esp],eax
    6465:	66 e8 3a b1 ff ff    	call   15a5 <_printSentence>
D:\OneDrive\Study\Operating Systems\实验\project7\codes/./lib/utilsC.c:1082
}
    646b:	90                   	nop
    646c:	66 c9                	leave  
    646e:	66 c3                	ret    

00006470 <_int35h>:
int35h():
D:\OneDrive\Study\Operating Systems\实验\project7\codes/./lib/utilsC.c:1084
void int35h()
{
    6470:	66 55                	push   ebp
    6472:	66 89 e5             	mov    ebp,esp
    6475:	66 83 ec 18          	sub    esp,0x18
D:\OneDrive\Study\Operating Systems\实验\project7\codes/./lib/utilsC.c:1085
	char * s = "Int 35h 16337236";
    6479:	67 66 c7 45 fc e3 70 	mov    DWORD PTR [ebp-0x4],0x70e3
    6480:	00 00 
D:\OneDrive\Study\Operating Systems\实验\project7\codes/./lib/utilsC.c:1086
	printSentence(s, 6, 46, strlen(s), purple);
    6482:	67 66 8b 45 fc       	mov    eax,DWORD PTR [ebp-0x4]
    6487:	67 66 89 04 24       	mov    DWORD PTR [esp],eax
    648c:	66 e8 87 c7 ff ff    	call   2c19 <_strlen>
    6492:	67 66 c7 44 24 10 0d 	mov    DWORD PTR [esp+0x10],0xd
    6499:	00 00 00 
    649c:	67 66 89 44 24 0c    	mov    DWORD PTR [esp+0xc],eax
    64a2:	67 66 c7 44 24 08 2e 	mov    DWORD PTR [esp+0x8],0x2e
    64a9:	00 00 00 
    64ac:	67 66 c7 44 24 04 06 	mov    DWORD PTR [esp+0x4],0x6
    64b3:	00 00 00 
    64b6:	67 66 8b 45 fc       	mov    eax,DWORD PTR [ebp-0x4]
    64bb:	67 66 89 04 24       	mov    DWORD PTR [esp],eax
    64c0:	66 e8 df b0 ff ff    	call   15a5 <_printSentence>
D:\OneDrive\Study\Operating Systems\实验\project7\codes/./lib/utilsC.c:1087
}
    64c6:	90                   	nop
    64c7:	66 c9                	leave  
    64c9:	66 c3                	ret    

000064cb <_int36h>:
int36h():
D:\OneDrive\Study\Operating Systems\实验\project7\codes/./lib/utilsC.c:1089
void int36h()
{
    64cb:	66 55                	push   ebp
    64cd:	66 89 e5             	mov    ebp,esp
    64d0:	66 83 ec 18          	sub    esp,0x18
D:\OneDrive\Study\Operating Systems\实验\project7\codes/./lib/utilsC.c:1090
	char * s = "Int 34h Class two";
    64d4:	67 66 c7 45 fc f4 70 	mov    DWORD PTR [ebp-0x4],0x70f4
    64db:	00 00 
D:\OneDrive\Study\Operating Systems\实验\project7\codes/./lib/utilsC.c:1091
	printSentence(s, 18, 5, strlen(s), purple);
    64dd:	67 66 8b 45 fc       	mov    eax,DWORD PTR [ebp-0x4]
    64e2:	67 66 89 04 24       	mov    DWORD PTR [esp],eax
    64e7:	66 e8 2c c7 ff ff    	call   2c19 <_strlen>
    64ed:	67 66 c7 44 24 10 0d 	mov    DWORD PTR [esp+0x10],0xd
    64f4:	00 00 00 
    64f7:	67 66 89 44 24 0c    	mov    DWORD PTR [esp+0xc],eax
    64fd:	67 66 c7 44 24 08 05 	mov    DWORD PTR [esp+0x8],0x5
    6504:	00 00 00 
    6507:	67 66 c7 44 24 04 12 	mov    DWORD PTR [esp+0x4],0x12
    650e:	00 00 00 
    6511:	67 66 8b 45 fc       	mov    eax,DWORD PTR [ebp-0x4]
    6516:	67 66 89 04 24       	mov    DWORD PTR [esp],eax
    651b:	66 e8 84 b0 ff ff    	call   15a5 <_printSentence>
D:\OneDrive\Study\Operating Systems\实验\project7\codes/./lib/utilsC.c:1092
}
    6521:	90                   	nop
    6522:	66 c9                	leave  
    6524:	66 c3                	ret    

00006526 <_int37h>:
int37h():
D:\OneDrive\Study\Operating Systems\实验\project7\codes/./lib/utilsC.c:1094
void int37h()
{
    6526:	66 55                	push   ebp
    6528:	66 89 e5             	mov    ebp,esp
    652b:	66 83 ec 18          	sub    esp,0x18
D:\OneDrive\Study\Operating Systems\实验\project7\codes/./lib/utilsC.c:1095
	char * s = "Int 34h Grade 2016";
    652f:	67 66 c7 45 fc 06 71 	mov    DWORD PTR [ebp-0x4],0x7106
    6536:	00 00 
D:\OneDrive\Study\Operating Systems\实验\project7\codes/./lib/utilsC.c:1096
	printSentence(s, 18, 46, strlen(s), purple);
    6538:	67 66 8b 45 fc       	mov    eax,DWORD PTR [ebp-0x4]
    653d:	67 66 89 04 24       	mov    DWORD PTR [esp],eax
    6542:	66 e8 d1 c6 ff ff    	call   2c19 <_strlen>
    6548:	67 66 c7 44 24 10 0d 	mov    DWORD PTR [esp+0x10],0xd
    654f:	00 00 00 
    6552:	67 66 89 44 24 0c    	mov    DWORD PTR [esp+0xc],eax
    6558:	67 66 c7 44 24 08 2e 	mov    DWORD PTR [esp+0x8],0x2e
    655f:	00 00 00 
    6562:	67 66 c7 44 24 04 12 	mov    DWORD PTR [esp+0x4],0x12
    6569:	00 00 00 
    656c:	67 66 8b 45 fc       	mov    eax,DWORD PTR [ebp-0x4]
    6571:	67 66 89 04 24       	mov    DWORD PTR [esp],eax
    6576:	66 e8 29 b0 ff ff    	call   15a5 <_printSentence>
D:\OneDrive\Study\Operating Systems\实验\project7\codes/./lib/utilsC.c:1097
}
    657c:	90                   	nop
    657d:	66 c9                	leave  
    657f:	66 c3                	ret    
    6581:	8d 74 00             	lea    si,[si+0x0]

00006584 <_WelcomeSentence>:
    6584:	2c 70                	sub    al,0x70
	...

00006588 <_prompt>:
    6588:	6b 70 00 00          	imul   si,WORD PTR [bx+si+0x0],0x0
    658c:	eb 12                	jmp    65a0 <_prompt+0x18>
    658e:	90                   	nop
    658f:	90                   	nop
    6590:	90                   	nop
    6591:	90                   	nop
    6592:	90                   	nop
    6593:	90                   	nop
    6594:	90                   	nop
    6595:	90                   	nop
    6596:	90                   	nop
    6597:	90                   	nop
    6598:	90                   	nop
    6599:	90                   	nop
    659a:	90                   	nop
    659b:	90                   	nop
    659c:	90                   	nop
    659d:	90                   	nop
    659e:	90                   	nop
    659f:	90                   	nop
    65a0:	4f                   	dec    di
    65a1:	72 69                	jb     660c <_prompt+0x84>
    65a3:	67 69 6e 00 00 00    	imul   bp,WORD PTR [esi+0x0],0x0
    65a9:	00 72 65             	add    BYTE PTR [bp+si+0x65],dh
    65ac:	61                   	popa   
    65ad:	64 79 00             	fs jns 65b0 <_prompt+0x28>
    65b0:	00 00                	add    BYTE PTR [bx+si],al
    65b2:	00 00                	add    BYTE PTR [bx+si],al
    65b4:	72 75                	jb     662b <_prompt+0xa3>
    65b6:	6e                   	outs   dx,BYTE PTR ds:[si]
    65b7:	6e                   	outs   dx,BYTE PTR ds:[si]
    65b8:	69 6e 67 00 00       	imul   bp,WORD PTR [bp+0x67],0x0
    65bd:	00 62 6c             	add    BYTE PTR [bp+si+0x6c],ah
    65c0:	6f                   	outs   dx,WORD PTR ds:[si]
    65c1:	63 6b 65             	arpl   WORD PTR [bp+di+0x65],bp
    65c4:	64 00 00             	add    BYTE PTR fs:[bx+si],al
    65c7:	00 73 75             	add    BYTE PTR [bp+di+0x75],dh
    65ca:	73 70                	jae    663c <_prompt+0xb4>
    65cc:	65 6e                	outs   dx,BYTE PTR gs:[si]
    65ce:	64 00 00             	add    BYTE PTR fs:[bx+si],al
    65d1:	00 65 78             	add    BYTE PTR [di+0x78],ah
    65d4:	69 74 00 00 00       	imul   si,WORD PTR [si+0x0],0x0
    65d9:	00 00                	add    BYTE PTR [bx+si],al
    65db:	00 00                	add    BYTE PTR [bx+si],al
    65dd:	00 00                	add    BYTE PTR [bx+si],al
	...
