
..\imgs\boot.tmp:     file format pei-i386


Disassembly of section .text:

00000000 <.text>:
       0:	66 8c c8             	mov    eax,cs
       3:	8e d8                	mov    ds,ax
       5:	8e c0                	mov    es,ax
       7:	8e d0                	mov    ss,ax
       9:	66 e8 fd 03 00 00    	call   40c <_inisys>
       f:	eb 00                	jmp    11 <__main>

00000011 <__main>:
_main():
D:\OneDrive\Study\Operating Systems\สตั้\project4\codes/./kernel/os.c:21
short *FAT;
struct Process processTable[Len];
int curId;
//id ไธบ-1ๆไธบ็ฉบ,processTable[0]ไธบๅๆธ.

int _main() {
      11:	66 56                	push   esi
      13:	66 53                	push   ebx
      15:	66 83 ec 18          	sub    esp,0x18
D:\OneDrive\Study\Operating Systems\สตั้\project4\codes/./kernel/os.c:22
	curId = 0;
      19:	66 c7 06 c0 50 00 00 	mov    DWORD PTR ds:0x50c0,0x0
      20:	00 00 
D:\OneDrive\Study\Operating Systems\สตั้\project4\codes/./kernel/os.c:23
	initialScreen(1);
      22:	67 66 c7 04 24 01 00 	mov    DWORD PTR [esp],0x1
      29:	00 00 
      2b:	66 e8 ea 12 00 00    	call   131b <_initialScreen>
D:\OneDrive\Study\Operating Systems\สตั้\project4\codes/./kernel/os.c:24
	initialFile();
      31:	66 e8 f8 1d 00 00    	call   1e2f <_initialFile>
D:\OneDrive\Study\Operating Systems\สตั้\project4\codes/./kernel/os.c:25
	initialProcessTable();
      37:	66 e8 b0 22 00 00    	call   22ed <_initialProcessTable>
      3d:	e9 e0 02             	jmp    320 <__file_alignment__+0x120>
D:\OneDrive\Study\Operating Systems\สตั้\project4\codes/./kernel/os.c:37
	// createProcess(segOfUser, offsetOfUserPrg, segOfUser, 0xffff, ++curId, "testSysCall");
	// dispatch(&(processTable[0].pcb), &(processTable[curId].pcb));

	do {
		in = getInput();
		if(in[0] == '.' && in[1] == '/')
      40:	67 80 7b 01 2f       	cmp    BYTE PTR [ebx+0x1],0x2f
      45:	0f 85 0d 02          	jne    256 <__file_alignment__+0x56>
D:\OneDrive\Study\Operating Systems\สตั้\project4\codes/./kernel/os.c:39
		{
			tmp = find(in+2);
      49:	66 83 c3 02          	add    ebx,0x2
      4d:	67 66 89 1c 24       	mov    DWORD PTR [esp],ebx
      52:	66 e8 ea 18 00 00    	call   1942 <_find>
      58:	66 89 c3             	mov    ebx,eax
D:\OneDrive\Study\Operating Systems\สตั้\project4\codes/./kernel/os.c:40
			if(tmp != -1 && information[tmp].deleted != 1){
      5b:	66 83 f8 ff          	cmp    eax,0xffffffff
      5f:	0f 84 b7 02          	je     31a <__file_alignment__+0x11a>
      63:	67 66 8d 04 00       	lea    eax,[eax+eax*1]
      68:	66 01 d8             	add    eax,ebx
      6b:	67 66 8d 04 83       	lea    eax,[ebx+eax*4]
      70:	67 66 83 3c 85 4c 51 	cmp    DWORD PTR [eax*4+0x514c],0x1
      77:	00 00 01 
      7a:	0f 84 9c 02          	je     31a <__file_alignment__+0x11a>
D:\OneDrive\Study\Operating Systems\สตั้\project4\codes/./kernel/os.c:41
				load(information[tmp].lmaddress, information[tmp].size, offsetOfUserPrg, segOfUser);
      7e:	67 66 c7 44 24 0c 00 	mov    DWORD PTR [esp+0xc],0x0
      85:	00 00 00 
      88:	67 66 c7 44 24 08 00 	mov    DWORD PTR [esp+0x8],0xe000
      8f:	e0 00 00 
      92:	67 66 8d 34 1b       	lea    esi,[ebx+ebx*1]
      97:	66 01 de             	add    esi,ebx
      9a:	66 c1 e6 02          	shl    esi,0x2
      9e:	67 66 8d 04 85 20 51 	lea    eax,[eax*4+0x5120]
      a5:	00 00 
      a7:	67 66 8b 50 28       	mov    edx,DWORD PTR [eax+0x28]
      ac:	67 66 89 54 24 04    	mov    DWORD PTR [esp+0x4],edx
      b2:	67 66 8b 40 24       	mov    eax,DWORD PTR [eax+0x24]
      b7:	67 66 89 04 24       	mov    DWORD PTR [esp],eax
      bc:	66 e8 75 08 00 00    	call   937 <_load>
D:\OneDrive\Study\Operating Systems\สตั้\project4\codes/./kernel/os.c:42
				createProcess(segOfUser, offsetOfUserPrg, segOfUser, 0xffff, ++curId, information[tmp].name);
      c2:	66 a1 c0 50          	mov    eax,ds:0x50c0
      c6:	66 40                	inc    eax
      c8:	66 a3 c0 50          	mov    ds:0x50c0,eax
      cc:	66 01 f3             	add    ebx,esi
      cf:	67 66 8d 14 9d 20 51 	lea    edx,[ebx*4+0x5120]
      d6:	00 00 
      d8:	67 66 89 54 24 14    	mov    DWORD PTR [esp+0x14],edx
      de:	67 66 89 44 24 10    	mov    DWORD PTR [esp+0x10],eax
      e4:	67 66 c7 44 24 0c ff 	mov    DWORD PTR [esp+0xc],0xffffffff
      eb:	ff ff ff 
      ee:	67 66 c7 44 24 08 00 	mov    DWORD PTR [esp+0x8],0x0
      f5:	00 00 00 
      f8:	67 66 c7 44 24 04 00 	mov    DWORD PTR [esp+0x4],0xffffe000
      ff:	e0 ff ff 
     102:	67 66 c7 04 24 00 00 	mov    DWORD PTR [esp],0x0
     109:	00 00 
     10b:	66 e8 57 20 00 00    	call   2168 <_createProcess>
D:\OneDrive\Study\Operating Systems\สตั้\project4\codes/./kernel/os.c:43
				dispatch(&(processTable[0].pcb), &(processTable[curId].pcb));
     111:	66 8b 16 c0 50       	mov    edx,DWORD PTR ds:0x50c0
     116:	67 66 8d 04 d2       	lea    eax,[edx+edx*8]
     11b:	66 01 c0             	add    eax,eax
     11e:	66 01 d0             	add    eax,edx
     121:	67 66 8d 04 85 40 53 	lea    eax,[eax*4+0x5340]
     128:	00 00 
     12a:	67 66 89 44 24 04    	mov    DWORD PTR [esp+0x4],eax
     130:	67 66 c7 04 24 40 53 	mov    DWORD PTR [esp],0x5340
     137:	00 00 
     139:	66 e8 50 08 00 00    	call   98f <_dispatch>
D:\OneDrive\Study\Operating Systems\สตั้\project4\codes/./kernel/os.c:44
				clear();
     13f:	66 e8 b8 12 00 00    	call   13fd <_clear>
     145:	e9 d2 01             	jmp    31a <__file_alignment__+0x11a>
D:\OneDrive\Study\Operating Systems\สตั้\project4\codes/./kernel/os.c:47
			}
		}
		else if(in[0] == 't' && in[1] == 'y' &&
     148:	67 80 7b 01 79       	cmp    BYTE PTR [ebx+0x1],0x79
     14d:	0f 85 05 01          	jne    256 <__file_alignment__+0x56>
     151:	67 80 7b 02 70       	cmp    BYTE PTR [ebx+0x2],0x70
     156:	0f 85 fc 00          	jne    256 <__file_alignment__+0x56>
D:\OneDrive\Study\Operating Systems\สตั้\project4\codes/./kernel/os.c:48
			in[2] == 'p' &&in[3] == 'e'){
     15a:	67 80 7b 03 65       	cmp    BYTE PTR [ebx+0x3],0x65
     15f:	0f 85 f3 00          	jne    256 <__file_alignment__+0x56>
D:\OneDrive\Study\Operating Systems\สตั้\project4\codes/./kernel/os.c:49
			tmp = find(in+5);
     163:	66 83 c3 05          	add    ebx,0x5
     167:	67 66 89 1c 24       	mov    DWORD PTR [esp],ebx
     16c:	66 e8 d0 17 00 00    	call   1942 <_find>
D:\OneDrive\Study\Operating Systems\สตั้\project4\codes/./kernel/os.c:50
			if(tmp != -1 && information[tmp].deleted != 1){
     172:	66 83 f8 ff          	cmp    eax,0xffffffff
     176:	0f 84 a0 01          	je     31a <__file_alignment__+0x11a>
     17a:	67 66 8d 14 00       	lea    edx,[eax+eax*1]
     17f:	66 01 c2             	add    edx,eax
     182:	67 66 8d 14 90       	lea    edx,[eax+edx*4]
     187:	67 66 83 3c 95 4c 51 	cmp    DWORD PTR [edx*4+0x514c],0x1
     18e:	00 00 01 
     191:	0f 84 85 01          	je     31a <__file_alignment__+0x11a>
D:\OneDrive\Study\Operating Systems\สตั้\project4\codes/./kernel/os.c:51
				load(information[tmp].lmaddress, information[tmp].size, offsetOfUserPrg, segOfOs);
     195:	67 66 c7 44 24 0c 00 	mov    DWORD PTR [esp+0xc],0x2000
     19c:	20 00 00 
     19f:	67 66 c7 44 24 08 00 	mov    DWORD PTR [esp+0x8],0xe000
     1a6:	e0 00 00 
     1a9:	67 66 8d 14 00       	lea    edx,[eax+eax*1]
     1ae:	66 01 c2             	add    edx,eax
     1b1:	66 c1 e2 02          	shl    edx,0x2
     1b5:	67 66 8d 0c 02       	lea    ecx,[edx+eax*1]
     1ba:	67 66 8b 0c 8d 48 51 	mov    ecx,DWORD PTR [ecx*4+0x5148]
     1c1:	00 00 
     1c3:	67 66 89 4c 24 04    	mov    DWORD PTR [esp+0x4],ecx
     1c9:	66 01 d0             	add    eax,edx
     1cc:	67 66 8b 04 85 44 51 	mov    eax,DWORD PTR [eax*4+0x5144]
     1d3:	00 00 
     1d5:	67 66 89 04 24       	mov    DWORD PTR [esp],eax
     1da:	66 e8 57 07 00 00    	call   937 <_load>
D:\OneDrive\Study\Operating Systems\สตั้\project4\codes/./kernel/os.c:52
				str = getRecords(segOfUser, offsetOfUserPrg);
     1e0:	67 66 c7 44 24 04 00 	mov    DWORD PTR [esp+0x4],0xe000
     1e7:	e0 00 00 
     1ea:	67 66 c7 04 24 00 00 	mov    DWORD PTR [esp],0x0
     1f1:	00 00 
     1f3:	66 e8 6c 10 00 00    	call   1265 <_getRecords>
     1f9:	66 89 c3             	mov    ebx,eax
D:\OneDrive\Study\Operating Systems\สตั้\project4\codes/./kernel/os.c:53
				printSentence(str, line, 0, strlen(str), purple);
     1fc:	67 66 89 04 24       	mov    DWORD PTR [esp],eax
     201:	66 e8 81 10 00 00    	call   1288 <_strlen>
     207:	67 66 c7 44 24 10 0d 	mov    DWORD PTR [esp+0x10],0xd
     20e:	00 00 00 
     211:	67 66 89 44 24 0c    	mov    DWORD PTR [esp+0xc],eax
     217:	67 66 c7 44 24 08 00 	mov    DWORD PTR [esp+0x8],0x0
     21e:	00 00 00 
     221:	66 a1 a0 50          	mov    eax,ds:0x50a0
     225:	67 66 89 44 24 04    	mov    DWORD PTR [esp+0x4],eax
     22b:	67 66 89 1c 24       	mov    DWORD PTR [esp],ebx
     230:	66 e8 5b 05 00 00    	call   791 <_printSentence>
D:\OneDrive\Study\Operating Systems\สตั้\project4\codes/./kernel/os.c:54
				line += countLines(str);
     236:	67 66 89 1c 24       	mov    DWORD PTR [esp],ebx
     23b:	66 e8 7d 10 00 00    	call   12be <_countLines>
     241:	66 01 06 a0 50       	add    DWORD PTR ds:0x50a0,eax
     246:	e9 d1 00             	jmp    31a <__file_alignment__+0x11a>
D:\OneDrive\Study\Operating Systems\สตั้\project4\codes/./kernel/os.c:63
			tmp = find(in+3);
			if(tmp != -1 && information[tmp].deleted != 1){
				information[tmp].deleted = 1;
			}
		}
		else if(in[0] == 'k' && in[1] == 'i' &&
     249:	3c 6b                	cmp    al,0x6b
     24b:	75 09                	jne    256 <__file_alignment__+0x56>
     24d:	67 80 7b 01 69       	cmp    BYTE PTR [ebx+0x1],0x69
     252:	0f 84 3b 01          	je     391 <__file_alignment__+0x191>
D:\OneDrive\Study\Operating Systems\สตั้\project4\codes/./kernel/os.c:68
			in[2] == 'l' && in[3] == 'l'){
			kill(in[5]-'0');
		}
		else {
			if(strcmp(in, "reboot") == 0)
     256:	67 66 c7 44 24 04 00 	mov    DWORD PTR [esp+0x4],0x3000
     25d:	30 00 00 
     260:	67 66 89 1c 24       	mov    DWORD PTR [esp],ebx
     265:	66 e8 ab 11 00 00    	call   1416 <_strcmp>
     26b:	66 85 c0             	test   eax,eax
     26e:	0f 84 49 01          	je     3bb <__file_alignment__+0x1bb>
D:\OneDrive\Study\Operating Systems\สตั้\project4\codes/./kernel/os.c:70
				reboot();
			if(strcmp(in, "clear") == 0)
     272:	67 66 c7 44 24 04 07 	mov    DWORD PTR [esp+0x4],0x3007
     279:	30 00 00 
     27c:	67 66 89 1c 24       	mov    DWORD PTR [esp],ebx
     281:	66 e8 8f 11 00 00    	call   1416 <_strcmp>
     287:	66 85 c0             	test   eax,eax
     28a:	0f 84 36 01          	je     3c4 <__file_alignment__+0x1c4>
D:\OneDrive\Study\Operating Systems\สตั้\project4\codes/./kernel/os.c:72
				clear();
			if(strcmp(in, "date") == 0)
     28e:	67 66 c7 44 24 04 0d 	mov    DWORD PTR [esp+0x4],0x300d
     295:	30 00 00 
     298:	67 66 89 1c 24       	mov    DWORD PTR [esp],ebx
     29d:	66 e8 73 11 00 00    	call   1416 <_strcmp>
     2a3:	66 85 c0             	test   eax,eax
     2a6:	0f 84 23 01          	je     3cd <__file_alignment__+0x1cd>
D:\OneDrive\Study\Operating Systems\สตั้\project4\codes/./kernel/os.c:74
				date();
			if(strcmp(in, "man") == 0)
     2aa:	67 66 c7 44 24 04 12 	mov    DWORD PTR [esp+0x4],0x3012
     2b1:	30 00 00 
     2b4:	67 66 89 1c 24       	mov    DWORD PTR [esp],ebx
     2b9:	66 e8 57 11 00 00    	call   1416 <_strcmp>
     2bf:	66 85 c0             	test   eax,eax
     2c2:	0f 84 10 01          	je     3d6 <__file_alignment__+0x1d6>
D:\OneDrive\Study\Operating Systems\สตั้\project4\codes/./kernel/os.c:76
				man();
			if(strcmp(in, "ls") == 0)
     2c6:	67 66 c7 44 24 04 16 	mov    DWORD PTR [esp+0x4],0x3016
     2cd:	30 00 00 
     2d0:	67 66 89 1c 24       	mov    DWORD PTR [esp],ebx
     2d5:	66 e8 3b 11 00 00    	call   1416 <_strcmp>
     2db:	66 85 c0             	test   eax,eax
     2de:	0f 84 fd 00          	je     3df <__file_alignment__+0x1df>
D:\OneDrive\Study\Operating Systems\สตั้\project4\codes/./kernel/os.c:78
				ls();
			if(strcmp(in, "exit") == 0)
     2e2:	67 66 c7 44 24 04 19 	mov    DWORD PTR [esp+0x4],0x3019
     2e9:	30 00 00 
     2ec:	67 66 89 1c 24       	mov    DWORD PTR [esp],ebx
     2f1:	66 e8 1f 11 00 00    	call   1416 <_strcmp>
     2f7:	66 85 c0             	test   eax,eax
     2fa:	0f 84 ea 00          	je     3e8 <__file_alignment__+0x1e8>
D:\OneDrive\Study\Operating Systems\สตั้\project4\codes/./kernel/os.c:80
				shutdown();
			if(strcmp(in, "ps") == 0)
     2fe:	67 66 c7 44 24 04 1e 	mov    DWORD PTR [esp+0x4],0x301e
     305:	30 00 00 
     308:	67 66 89 1c 24       	mov    DWORD PTR [esp],ebx
     30d:	66 e8 03 11 00 00    	call   1416 <_strcmp>
     313:	66 85 c0             	test   eax,eax
     316:	0f 84 d7 00          	je     3f1 <__file_alignment__+0x1f1>
D:\OneDrive\Study\Operating Systems\สตั้\project4\codes/./kernel/os.c:83
				ps();
		}
		newline();
     31a:	66 e8 2f 13 00 00    	call   164f <_newline>
D:\OneDrive\Study\Operating Systems\สตั้\project4\codes/./kernel/os.c:36
		in = getInput();
     320:	66 e8 b0 04 00 00    	call   7d6 <_getInput>
     326:	66 89 c3             	mov    ebx,eax
D:\OneDrive\Study\Operating Systems\สตั้\project4\codes/./kernel/os.c:37
		if(in[0] == '.' && in[1] == '/')
     329:	67 8a 00             	mov    al,BYTE PTR [eax]
     32c:	3c 2e                	cmp    al,0x2e
     32e:	0f 84 0e fd          	je     40 <delay+0x18>
D:\OneDrive\Study\Operating Systems\สตั้\project4\codes/./kernel/os.c:47
		else if(in[0] == 't' && in[1] == 'y' &&
     332:	3c 74                	cmp    al,0x74
     334:	0f 84 10 fe          	je     148 <.debug_abbrev+0x56>
D:\OneDrive\Study\Operating Systems\สตั้\project4\codes/./kernel/os.c:57
		else if(in[0] == 'r' && in[1] == 'm'){
     338:	3c 72                	cmp    al,0x72
     33a:	0f 85 0b ff          	jne    249 <__file_alignment__+0x49>
     33e:	67 80 7b 01 6d       	cmp    BYTE PTR [ebx+0x1],0x6d
     343:	0f 85 0f ff          	jne    256 <__file_alignment__+0x56>
D:\OneDrive\Study\Operating Systems\สตั้\project4\codes/./kernel/os.c:58
			tmp = find(in+3);
     347:	66 83 c3 03          	add    ebx,0x3
     34b:	67 66 89 1c 24       	mov    DWORD PTR [esp],ebx
     350:	66 e8 ec 15 00 00    	call   1942 <_find>
D:\OneDrive\Study\Operating Systems\สตั้\project4\codes/./kernel/os.c:59
			if(tmp != -1 && information[tmp].deleted != 1){
     356:	66 83 f8 ff          	cmp    eax,0xffffffff
     35a:	74 be                	je     31a <__file_alignment__+0x11a>
     35c:	67 66 8d 14 00       	lea    edx,[eax+eax*1]
     361:	66 01 c2             	add    edx,eax
     364:	67 66 8d 14 90       	lea    edx,[eax+edx*4]
     369:	67 66 83 3c 95 4c 51 	cmp    DWORD PTR [edx*4+0x514c],0x1
     370:	00 00 01 
     373:	74 a5                	je     31a <__file_alignment__+0x11a>
D:\OneDrive\Study\Operating Systems\สตั้\project4\codes/./kernel/os.c:60
				information[tmp].deleted = 1;
     375:	67 66 8d 14 00       	lea    edx,[eax+eax*1]
     37a:	66 01 c2             	add    edx,eax
     37d:	67 66 8d 04 90       	lea    eax,[eax+edx*4]
     382:	67 66 c7 04 85 4c 51 	mov    DWORD PTR [eax*4+0x514c],0x1
     389:	00 00 01 00 00 00 
     38f:	eb 89                	jmp    31a <__file_alignment__+0x11a>
D:\OneDrive\Study\Operating Systems\สตั้\project4\codes/./kernel/os.c:63
		else if(in[0] == 'k' && in[1] == 'i' &&
     391:	67 80 7b 02 6c       	cmp    BYTE PTR [ebx+0x2],0x6c
     396:	0f 85 bc fe          	jne    256 <__file_alignment__+0x56>
D:\OneDrive\Study\Operating Systems\สตั้\project4\codes/./kernel/os.c:64
			in[2] == 'l' && in[3] == 'l'){
     39a:	67 80 7b 03 6c       	cmp    BYTE PTR [ebx+0x3],0x6c
     39f:	0f 85 b3 fe          	jne    256 <__file_alignment__+0x56>
D:\OneDrive\Study\Operating Systems\สตั้\project4\codes/./kernel/os.c:65
			kill(in[5]-'0');
     3a3:	67 66 0f be 43 05    	movsx  eax,BYTE PTR [ebx+0x5]
     3a9:	66 83 e8 30          	sub    eax,0x30
     3ad:	67 66 89 04 24       	mov    DWORD PTR [esp],eax
     3b2:	66 e8 be 21 00 00    	call   2576 <_kill>
     3b8:	e9 5f ff             	jmp    31a <__file_alignment__+0x11a>
D:\OneDrive\Study\Operating Systems\สตั้\project4\codes/./kernel/os.c:69
				reboot();
     3bb:	66 e8 a2 06 00 00    	call   a63 <_reboot>
     3c1:	e9 ae fe             	jmp    272 <__file_alignment__+0x72>
D:\OneDrive\Study\Operating Systems\สตั้\project4\codes/./kernel/os.c:71
				clear();
     3c4:	66 e8 33 10 00 00    	call   13fd <_clear>
     3ca:	e9 c1 fe             	jmp    28e <__file_alignment__+0x8e>
D:\OneDrive\Study\Operating Systems\สตั้\project4\codes/./kernel/os.c:73
				date();
     3cd:	66 e8 58 11 00 00    	call   152b <_date>
     3d3:	e9 d4 fe             	jmp    2aa <__file_alignment__+0xaa>
D:\OneDrive\Study\Operating Systems\สตั้\project4\codes/./kernel/os.c:75
				man();
     3d6:	66 e8 d3 11 00 00    	call   15af <_man>
     3dc:	e9 e7 fe             	jmp    2c6 <__file_alignment__+0xc6>
D:\OneDrive\Study\Operating Systems\สตั้\project4\codes/./kernel/os.c:77
				ls();
     3df:	66 e8 38 16 00 00    	call   1a1d <_ls>
     3e5:	e9 fa fe             	jmp    2e2 <__file_alignment__+0xe2>
D:\OneDrive\Study\Operating Systems\สตั้\project4\codes/./kernel/os.c:79
				shutdown();
     3e8:	66 e8 2a 05 00 00    	call   918 <_shutdown>
     3ee:	e9 0d ff             	jmp    2fe <__file_alignment__+0xfe>
D:\OneDrive\Study\Operating Systems\สตั้\project4\codes/./kernel/os.c:81
				ps();
     3f1:	66 e8 b4 1f 00 00    	call   23ab <_ps>
     3f7:	e9 20 ff             	jmp    31a <__file_alignment__+0x11a>
     3fa:	00 00                	add    BYTE PTR [bx+si],al
     3fc:	66 90                	xchg   eax,eax
     3fe:	66 90                	xchg   eax,eax

00000400 <_test>:
     400:	cd 34                	int    0x34
     402:	cd 35                	int    0x35
     404:	cd 36                	int    0x36
     406:	cd 37                	int    0x37
     408:	66 59                	pop    ecx
     40a:	ff e1                	jmp    cx

0000040c <_inisys>:
     40c:	60                   	pusha  
     40d:	e8 33 02             	call   643 <installInt8h>
     410:	e8 cd 01             	call   5e0 <installInt9h>
     413:	e8 72 01             	call   588 <installInt2Bh>
     416:	e8 05 00             	call   41e <installInt21h>
     419:	e8 fb 02             	call   717 <installInt34_37h>
     41c:	61                   	popa   
     41d:	c3                   	ret    

0000041e <installInt21h>:
     41e:	50                   	push   ax
     41f:	06                   	push   es
     420:	b8 00 00             	mov    ax,0x0
     423:	8e c0                	mov    es,ax
     425:	26 c7 06 84 00 34 04 	mov    WORD PTR es:0x84,0x434
     42c:	26 8c 0e 86 00       	mov    WORD PTR es:0x86,cs
     431:	07                   	pop    es
     432:	58                   	pop    ax
     433:	c3                   	ret    

00000434 <int21h>:
     434:	60                   	pusha  
     435:	1e                   	push   ds
     436:	0e                   	push   cs
     437:	1f                   	pop    ds
     438:	bb 00 00             	mov    bx,0x0
     43b:	50                   	push   ax
     43c:	88 e0                	mov    al,ah
     43e:	b3 02                	mov    bl,0x2
     440:	f6 e3                	mul    bl
     442:	88 c3                	mov    bl,al
     444:	58                   	pop    ax
     445:	ff 97 4c 04          	call   WORD PTR [bx+0x44c]

00000449 <int21hre>:
     449:	1f                   	pop    ds
     44a:	61                   	popa   
     44b:	cf                   	iret   

0000044c <int21hTable>:
     44c:	e6 04                	out    0x4,al
     44e:	f4                   	hlt    
     44f:	04 3d                	add    al,0x3d
     451:	05 12 05             	add    ax,0x512
     454:	1d 05 71             	sbb    ax,0x7105
     457:	05 00 00             	add    ax,0x0
	...
     4e2:	00 00                	add    BYTE PTR [bx+si],al
     4e4:	2f                   	das    
     4e5:	05                   	.byte 0x5

000004e6 <int21hps>:
     4e6:	66 50                	push   eax
     4e8:	66 31 c0             	xor    eax,eax
     4eb:	b8 ab 23             	mov    ax,0x23ab
     4ee:	66 ff d0             	call   eax
     4f1:	66 58                	pop    eax
     4f3:	c3                   	ret    

000004f4 <int21hkill>:
     4f4:	66 50                	push   eax
     4f6:	66 53                	push   ebx
     4f8:	66 bb 00 00 00 00    	mov    ebx,0x0
     4fe:	88 c3                	mov    bl,al
     500:	66 53                	push   ebx
     502:	66 31 c0             	xor    eax,eax
     505:	b8 76 25             	mov    ax,0x2576
     508:	66 ff d0             	call   eax
     50b:	66 5b                	pop    ebx
     50d:	66 5b                	pop    ebx
     50f:	66 58                	pop    eax
     511:	c3                   	ret    

00000512 <int21hshowDate>:
     512:	fb                   	sti    
     513:	66 31 c0             	xor    eax,eax
     516:	b8 2b 15             	mov    ax,0x152b
     519:	66 ff d0             	call   eax
     51c:	c3                   	ret    

0000051d <int21hClear>:
     51d:	66 50                	push   eax
     51f:	66 31 c0             	xor    eax,eax
     522:	66 50                	push   eax
     524:	b8 1b 13             	mov    ax,0x131b
     527:	66 ff d0             	call   eax
     52a:	66 58                	pop    eax
     52c:	66 58                	pop    eax
     52e:	c3                   	ret    

0000052f <int21hexit>:
     52f:	66 50                	push   eax
     531:	66 31 c0             	xor    eax,eax
     534:	b8 18 09             	mov    ax,0x918
     537:	66 ff d0             	call   eax
     53a:	66 58                	pop    eax
     53c:	c3                   	ret    

0000053d <int21hPrintString>:
     53d:	60                   	pusha  
     53e:	1e                   	push   ds
     53f:	66 50                	push   eax
     541:	8c e8                	mov    ax,gs
     543:	8e d8                	mov    ds,ax
     545:	66 53                	push   ebx
     547:	66 51                	push   ecx
     549:	66 b8 00 00 00 00    	mov    eax,0x0
     54f:	88 d0                	mov    al,dl
     551:	66 50                	push   eax
     553:	88 f0                	mov    al,dh
     555:	66 50                	push   eax
     557:	66 57                	push   edi
     559:	66 31 c0             	xor    eax,eax
     55c:	b8 91 07             	mov    ax,0x791
     55f:	66 ff d0             	call   eax
     562:	66 5f                	pop    edi
     564:	66 58                	pop    eax
     566:	66 58                	pop    eax
     568:	66 59                	pop    ecx
     56a:	66 5b                	pop    ebx
     56c:	66 58                	pop    eax
     56e:	1f                   	pop    ds
     56f:	61                   	popa   
     570:	c3                   	ret    

00000571 <int21hint2str>:
     571:	60                   	pusha  
     572:	1e                   	push   ds
     573:	8c e8                	mov    ax,gs
     575:	8e d8                	mov    ds,ax
     577:	66 57                	push   edi
     579:	66 53                	push   ebx
     57b:	b8 20 1d             	mov    ax,0x1d20
     57e:	66 ff d0             	call   eax
     581:	66 5b                	pop    ebx
     583:	66 5f                	pop    edi
     585:	1f                   	pop    ds
     586:	61                   	popa   
     587:	c3                   	ret    

00000588 <installInt2Bh>:
     588:	60                   	pusha  
     589:	06                   	push   es
     58a:	b8 00 00             	mov    ax,0x0
     58d:	8e c0                	mov    es,ax
     58f:	26 c7 06 ac 00 9e 05 	mov    WORD PTR es:0xac,0x59e
     596:	26 8c 0e ae 00       	mov    WORD PTR es:0xae,cs
     59b:	07                   	pop    es
     59c:	61                   	popa   
     59d:	c3                   	ret    

0000059e <int2Bh>:
     59e:	8f 06 dc 05          	pop    WORD PTR ds:0x5dc
     5a2:	8f 06 de 05          	pop    WORD PTR ds:0x5de
     5a6:	9d                   	popf   
     5a7:	8f 06 dc 05          	pop    WORD PTR ds:0x5dc
     5ab:	ff 36 de 05          	push   WORD PTR ds:0x5de
     5af:	ff 36 dc 05          	push   WORD PTR ds:0x5dc
     5b3:	53                   	push   bx
     5b4:	50                   	push   ax
     5b5:	1e                   	push   ds
     5b6:	8c c8                	mov    ax,cs
     5b8:	8e d8                	mov    ds,ax
     5ba:	8b 1e c0 50          	mov    bx,WORD PTR ds:0x50c0
     5be:	b8 4c 00             	mov    ax,0x4c
     5c1:	f6 e3                	mul    bl
     5c3:	89 c3                	mov    bx,ax
     5c5:	81 c3 40 53          	add    bx,0x5340
     5c9:	c7 06 4d 0a 40 53    	mov    WORD PTR ds:0xa4d,0x5340
     5cf:	89 1e 4f 0a          	mov    WORD PTR ds:0xa4f,bx
     5d3:	1f                   	pop    ds
     5d4:	58                   	pop    ax
     5d5:	5b                   	pop    bx
     5d6:	e8 cf 03             	call   9a8 <save>
     5d9:	e8 21 04             	call   9fd <restart>

000005dc <in2b_store_ip>:
	...

000005de <in2b_store_cs>:
	...

000005e0 <installInt9h>:
     5e0:	60                   	pusha  
     5e1:	06                   	push   es
     5e2:	1e                   	push   ds
     5e3:	31 c0                	xor    ax,ax
     5e5:	8e c0                	mov    es,ax
     5e7:	8c c8                	mov    ax,cs
     5e9:	8e d8                	mov    ds,ax
     5eb:	26 a1 26 00          	mov    ax,es:0x26
     5ef:	a3 0d 06             	mov    ds:0x60d,ax
     5f2:	26 a1 24 00          	mov    ax,es:0x24
     5f6:	a3 0b 06             	mov    ds:0x60b,ax
     5f9:	fa                   	cli    
     5fa:	26 8c 0e 26 00       	mov    WORD PTR es:0x26,cs
     5ff:	26 c7 06 24 00 0f 06 	mov    WORD PTR es:0x24,0x60f
     606:	fb                   	sti    
     607:	1f                   	pop    ds
     608:	07                   	pop    es
     609:	61                   	popa   
     60a:	c3                   	ret    

0000060b <tmp9>:
     60b:	00 00                	add    BYTE PTR [bx+si],al
	...

0000060f <int9h>:
     60f:	60                   	pusha  
     610:	06                   	push   es
     611:	1e                   	push   ds
     612:	8c c8                	mov    ax,cs
     614:	8e d8                	mov    ds,ax
     616:	8e c0                	mov    es,ax
     618:	9c                   	pushf  
     619:	ff 1e 0b 06          	call   DWORD PTR ds:0x60b

0000061d <showInsert>:
     61d:	b9 09 00             	mov    cx,0x9
     620:	bd 3a 06             	mov    bp,0x63a
     623:	ba 45 18             	mov    dx,0x1845
     626:	b3 0f                	mov    bl,0xf
     628:	b7 00                	mov    bh,0x0
     62a:	b4 13                	mov    ah,0x13
     62c:	b0 00                	mov    al,0x0
     62e:	cd 10                	int    0x10
     630:	b0 20                	mov    al,0x20
     632:	e6 20                	out    0x20,al
     634:	e6 a0                	out    0xa0,al
     636:	1f                   	pop    ds
     637:	07                   	pop    es
     638:	61                   	popa   
     639:	cf                   	iret   

0000063a <inserting>:
     63a:	69 6e 73 65 72       	imul   bp,WORD PTR [bp+0x73],0x7265
     63f:	74 69                	je     6aa <int8h+0x38>
     641:	6e                   	outs   dx,BYTE PTR ds:[si]
     642:	67                   	addr32

00000643 <installInt8h>:
     643:	06                   	push   es
     644:	50                   	push   ax
     645:	31 c0                	xor    ax,ax
     647:	8e c0                	mov    es,ax
     649:	26 a1 22 00          	mov    ax,es:0x22
     64d:	a3 70 06             	mov    ds:0x670,ax
     650:	26 a1 20 00          	mov    ax,es:0x20
     654:	a3 6e 06             	mov    ds:0x66e,ax
     657:	fa                   	cli    
     658:	26 8c 0e 22 00       	mov    WORD PTR es:0x22,cs
     65d:	26 c7 06 20 00 72 06 	mov    WORD PTR es:0x20,0x672
     664:	c7 06 06 07 28 00    	mov    WORD PTR ds:0x706,0x28
     66a:	fb                   	sti    
     66b:	58                   	pop    ax
     66c:	07                   	pop    es
     66d:	c3                   	ret    

0000066e <tmp8>:
     66e:	00 00                	add    BYTE PTR [bx+si],al
	...

00000672 <int8h>:
     672:	60                   	pusha  
     673:	1e                   	push   ds
     674:	06                   	push   es
     675:	8c c8                	mov    ax,cs
     677:	8e d8                	mov    ds,ax
     679:	9c                   	pushf  
     67a:	ff 1e 6e 06          	call   DWORD PTR ds:0x66e
     67e:	ff 0e 06 07          	dec    WORD PTR ds:0x706
     682:	83 3e 06 07 00       	cmp    WORD PTR ds:0x706,0x0
     687:	75 73                	jne    6fc <int8hret>
     689:	c7 06 06 07 28 00    	mov    WORD PTR ds:0x706,0x28
     68f:	b8 00 b8             	mov    ax,0xb800
     692:	8e c0                	mov    es,ax
     694:	b4 04                	mov    ah,0x4
     696:	b7 00                	mov    bh,0x0
     698:	b4 03                	mov    ah,0x3
     69a:	cd 10                	int    0x10
     69c:	b8 00 00             	mov    ax,0x0
     69f:	88 f0                	mov    al,dh
     6a1:	b3 50                	mov    bl,0x50
     6a3:	f6 e3                	mul    bl
     6a5:	b6 00                	mov    dh,0x0
     6a7:	01 d0                	add    ax,dx
     6a9:	bb 02 00             	mov    bx,0x2
     6ac:	f7 e3                	mul    bx
     6ae:	89 c5                	mov    bp,ax
     6b0:	bb 0a 07             	mov    bx,0x70a
     6b3:	03 1e 08 07          	add    bx,WORD PTR ds:0x708
     6b7:	8a 07                	mov    al,BYTE PTR [bx]
     6b9:	b4 0f                	mov    ah,0xf
     6bb:	26 89 46 00          	mov    WORD PTR es:[bp+0x0],ax
     6bf:	b8 20 0f             	mov    ax,0xf20
     6c2:	26 89 46 02          	mov    WORD PTR es:[bp+0x2],ax
     6c6:	26 89 46 04          	mov    WORD PTR es:[bp+0x4],ax
     6ca:	26 89 46 06          	mov    WORD PTR es:[bp+0x6],ax
     6ce:	26 89 46 08          	mov    WORD PTR es:[bp+0x8],ax
     6d2:	ff 06 08 07          	inc    WORD PTR ds:0x708
     6d6:	83 3e 08 07 04       	cmp    WORD PTR ds:0x708,0x4
     6db:	7c 06                	jl     6e3 <insertShow>
     6dd:	c7 06 08 07 00 00    	mov    WORD PTR ds:0x708,0x0

000006e3 <insertShow>:
     6e3:	06                   	push   es
     6e4:	8c c8                	mov    ax,cs
     6e6:	8e c0                	mov    es,ax
     6e8:	b9 09 00             	mov    cx,0x9
     6eb:	bd 0e 07             	mov    bp,0x70e
     6ee:	ba 45 18             	mov    dx,0x1845
     6f1:	b3 0f                	mov    bl,0xf
     6f3:	b7 00                	mov    bh,0x0
     6f5:	b4 13                	mov    ah,0x13
     6f7:	b0 00                	mov    al,0x0
     6f9:	cd 10                	int    0x10
     6fb:	07                   	pop    es

000006fc <int8hret>:
     6fc:	b0 20                	mov    al,0x20
     6fe:	e6 20                	out    0x20,al
     700:	e6 a0                	out    0xa0,al
     702:	07                   	pop    es
     703:	1f                   	pop    ds
     704:	61                   	popa   
     705:	cf                   	iret   

00000706 <count>:
     706:	28 00                	sub    BYTE PTR [bx+si],al

00000708 <k>:
	...

0000070a <char>:
     70a:	7c 5c                	jl     768 <int35h+0x1>
     70c:	2d                   	.byte 0x2d
     70d:	2f                   	das    

0000070e <inserted>:
     70e:	69 6e 73 65 72       	imul   bp,WORD PTR [bp+0x73],0x7265
     713:	74 65                	je     77a <int36h+0x5>
     715:	64                   	fs
     716:	20                   	.byte 0x20

00000717 <installInt34_37h>:
     717:	06                   	push   es
     718:	50                   	push   ax
     719:	b8 00 00             	mov    ax,0x0
     71c:	8e c0                	mov    es,ax
     71e:	fa                   	cli    
     71f:	26 8c 0e d2 00       	mov    WORD PTR es:0xd2,cs
     724:	26 c7 06 d0 00 59 07 	mov    WORD PTR es:0xd0,0x759
     72b:	fb                   	sti    
     72c:	fa                   	cli    
     72d:	26 8c 0e d6 00       	mov    WORD PTR es:0xd6,cs
     732:	26 c7 06 d4 00 67 07 	mov    WORD PTR es:0xd4,0x767
     739:	fb                   	sti    
     73a:	fa                   	cli    
     73b:	26 8c 0e da 00       	mov    WORD PTR es:0xda,cs
     740:	26 c7 06 d8 00 75 07 	mov    WORD PTR es:0xd8,0x775
     747:	fb                   	sti    
     748:	fa                   	cli    
     749:	26 8c 0e de 00       	mov    WORD PTR es:0xde,cs
     74e:	26 c7 06 dc 00 83 07 	mov    WORD PTR es:0xdc,0x783
     755:	fb                   	sti    
     756:	58                   	pop    ax
     757:	07                   	pop    es
     758:	c3                   	ret    

00000759 <int34h>:
     759:	8c c8                	mov    ax,cs
     75b:	8e d8                	mov    ds,ax
     75d:	66 31 c0             	xor    eax,eax
     760:	b8 ce 25             	mov    ax,0x25ce
     763:	66 ff d0             	call   eax
     766:	cf                   	iret   

00000767 <int35h>:
     767:	8c c8                	mov    ax,cs
     769:	8e d8                	mov    ds,ax
     76b:	66 31 c0             	xor    eax,eax
     76e:	b8 29 26             	mov    ax,0x2629
     771:	66 ff d0             	call   eax
     774:	cf                   	iret   

00000775 <int36h>:
     775:	8c c8                	mov    ax,cs
     777:	8e d8                	mov    ds,ax
     779:	66 31 c0             	xor    eax,eax
     77c:	b8 84 26             	mov    ax,0x2684
     77f:	66 ff d0             	call   eax
     782:	cf                   	iret   

00000783 <int37h>:
     783:	8c c8                	mov    ax,cs
     785:	8e d8                	mov    ds,ax
     787:	66 31 c0             	xor    eax,eax
     78a:	b8 df 26             	mov    ax,0x26df
     78d:	66 ff d0             	call   eax
     790:	cf                   	iret   

00000791 <_printSentence>:
     791:	66 55                	push   ebp
     793:	8c c8                	mov    ax,cs
     795:	8e c0                	mov    es,ax
     797:	67 8a 5c 24 18       	mov    bl,BYTE PTR [esp+0x18]
     79c:	67 8b 4c 24 14       	mov    cx,WORD PTR [esp+0x14]
     7a1:	67 8a 54 24 10       	mov    dl,BYTE PTR [esp+0x10]
     7a6:	67 8a 74 24 0c       	mov    dh,BYTE PTR [esp+0xc]
     7ab:	67 8b 6c 24 08       	mov    bp,WORD PTR [esp+0x8]
     7b0:	b0 01                	mov    al,0x1
     7b2:	b7 00                	mov    bh,0x0
     7b4:	0e                   	push   cs
     7b5:	07                   	pop    es
     7b6:	b4 13                	mov    ah,0x13
     7b8:	cd 10                	int    0x10
     7ba:	66 5d                	pop    ebp
     7bc:	66 59                	pop    ecx
     7be:	ff e1                	jmp    cx

000007c0 <_ClearScreen>:
     7c0:	60                   	pusha  
     7c1:	b4 06                	mov    ah,0x6
     7c3:	b0 00                	mov    al,0x0
     7c5:	b7 0f                	mov    bh,0xf
     7c7:	b5 00                	mov    ch,0x0
     7c9:	b1 00                	mov    cl,0x0
     7cb:	b6 18                	mov    dh,0x18
     7cd:	b2 4f                	mov    dl,0x4f
     7cf:	cd 10                	int    0x10
     7d1:	61                   	popa   
     7d2:	66 59                	pop    ecx
     7d4:	ff e1                	jmp    cx

000007d6 <_getInput>:
     7d6:	c7 06 10 09 00 00    	mov    WORD PTR ds:0x910,0x0

000007dc <getStr>:
     7dc:	b4 00                	mov    ah,0x0
     7de:	cd 16                	int    0x16
     7e0:	3c 20                	cmp    al,0x20
     7e2:	7c 07                	jl     7eb <nochar>
     7e4:	b4 00                	mov    ah,0x0
     7e6:	e8 26 00             	call   80f <Charmini>
     7e9:	eb f1                	jmp    7dc <getStr>

000007eb <nochar>:
     7eb:	80 fc 0e             	cmp    ah,0xe
     7ee:	74 07                	je     7f7 <backspace>
     7f0:	80 fc 1c             	cmp    ah,0x1c
     7f3:	74 09                	je     7fe <enter>
     7f5:	eb e5                	jmp    7dc <getStr>

000007f7 <backspace>:
     7f7:	b4 01                	mov    ah,0x1
     7f9:	e8 13 00             	call   80f <Charmini>
     7fc:	eb de                	jmp    7dc <getStr>

000007fe <enter>:
     7fe:	b0 00                	mov    al,0x0
     800:	b4 00                	mov    ah,0x0
     802:	e8 0a 00             	call   80f <Charmini>
     805:	66 29 c0             	sub    eax,eax
     808:	b8 ab 08             	mov    ax,0x8ab
     80b:	66 59                	pop    ecx
     80d:	ff e1                	jmp    cx

0000080f <Charmini>:
     80f:	53                   	push   bx
     810:	52                   	push   dx
     811:	57                   	push   di
     812:	06                   	push   es
     813:	80 fc 01             	cmp    ah,0x1
     816:	0f 8f 8c 00          	jg     8a6 <Charminiret>
     81a:	88 e3                	mov    bl,ah
     81c:	b7 00                	mov    bh,0x0
     81e:	01 db                	add    bx,bx
     820:	ff a7 12 09          	jmp    WORD PTR [bx+0x912]

00000824 <charpush>:
     824:	80 3e 10 09 64       	cmp    BYTE PTR ds:0x910,0x64
     829:	7d 7b                	jge    8a6 <Charminiret>
     82b:	8b 1e 10 09          	mov    bx,WORD PTR ds:0x910
     82f:	fe 06 10 09          	inc    BYTE PTR ds:0x910
     833:	88 87 ab 08          	mov    BYTE PTR [bx+0x8ab],al
     837:	e8 1a 00             	call   854 <charshow>
     83a:	eb 6a                	jmp    8a6 <Charminiret>

0000083c <charpop>:
     83c:	80 3e 10 09 00       	cmp    BYTE PTR ds:0x910,0x0
     841:	7e 63                	jle    8a6 <Charminiret>
     843:	fe 0e 10 09          	dec    BYTE PTR ds:0x910
     847:	8b 1e 10 09          	mov    bx,WORD PTR ds:0x910
     84b:	8a 87 ab 08          	mov    al,BYTE PTR [bx+0x8ab]
     84f:	e8 24 00             	call   876 <coverLast>
     852:	eb 52                	jmp    8a6 <Charminiret>

00000854 <charshow>:
     854:	66 55                	push   ebp
     856:	b7 00                	mov    bh,0x0
     858:	b4 03                	mov    ah,0x3
     85a:	cd 10                	int    0x10
     85c:	b0 01                	mov    al,0x1
     85e:	b4 13                	mov    ah,0x13
     860:	b7 00                	mov    bh,0x0
     862:	b3 0e                	mov    bl,0xe
     864:	b9 01 00             	mov    cx,0x1
     867:	0e                   	push   cs
     868:	07                   	pop    es
     869:	bd ab 08             	mov    bp,0x8ab
     86c:	03 2e 10 09          	add    bp,WORD PTR ds:0x910
     870:	4d                   	dec    bp
     871:	cd 10                	int    0x10
     873:	66 5d                	pop    ebp
     875:	c3                   	ret    

00000876 <coverLast>:
     876:	b8 00 b8             	mov    ax,0xb800
     879:	8e c0                	mov    es,ax
     87b:	b4 03                	mov    ah,0x3
     87d:	cd 10                	int    0x10
     87f:	80 fa 00             	cmp    dl,0x0
     882:	7f 04                	jg     888 <noEndofLine>
     884:	b2 50                	mov    dl,0x50
     886:	fe ce                	dec    dh

00000888 <noEndofLine>:
     888:	fe ca                	dec    dl
     88a:	b4 02                	mov    ah,0x2
     88c:	b7 00                	mov    bh,0x0
     88e:	cd 10                	int    0x10
     890:	b8 50 00             	mov    ax,0x50
     893:	f6 e6                	mul    dh
     895:	b6 00                	mov    dh,0x0
     897:	01 d0                	add    ax,dx
     899:	ba 02 00             	mov    dx,0x2
     89c:	f7 e2                	mul    dx
     89e:	89 c3                	mov    bx,ax
     8a0:	26 c7 07 20 0f       	mov    WORD PTR es:[bx],0xf20
     8a5:	c3                   	ret    

000008a6 <Charminiret>:
     8a6:	07                   	pop    es
     8a7:	5f                   	pop    di
     8a8:	5a                   	pop    dx
     8a9:	5b                   	pop    bx
     8aa:	c3                   	ret    

000008ab <input>:
	...

00000910 <top>:
	...

00000912 <getInputTable>:
     912:	24 08                	and    al,0x8
     914:	3c 08                	cmp    al,0x8
     916:	54                   	push   sp
     917:	08                   	.byte 0x8

00000918 <_shutdown>:
     918:	60                   	pusha  
     919:	b8 01 53             	mov    ax,0x5301
     91c:	31 db                	xor    bx,bx
     91e:	cd 15                	int    0x15
     920:	b8 0e 53             	mov    ax,0x530e
     923:	b9 02 01             	mov    cx,0x102
     926:	cd 15                	int    0x15
     928:	b8 07 53             	mov    ax,0x5307
     92b:	b3 01                	mov    bl,0x1
     92d:	b9 03 00             	mov    cx,0x3
     930:	cd 15                	int    0x15
     932:	61                   	popa   
     933:	66 59                	pop    ecx
     935:	ff e1                	jmp    cx

00000937 <_load>:
     937:	66 55                	push   ebp
     939:	06                   	push   es
     93a:	1e                   	push   ds
     93b:	50                   	push   ax
     93c:	52                   	push   dx
     93d:	51                   	push   cx
     93e:	53                   	push   bx
     93f:	8c c8                	mov    ax,cs
     941:	8e d8                	mov    ds,ax
     943:	b8 00 00             	mov    ax,0x0
     946:	8e c0                	mov    es,ax
     948:	67 8b 44 24 14       	mov    ax,WORD PTR [esp+0x14]
     94d:	ba 00 00             	mov    dx,0x0
     950:	b9 00 02             	mov    cx,0x200
     953:	f7 f1                	div    cx
     955:	b9 12 00             	mov    cx,0x12
     958:	f7 f1                	div    cx
     95a:	88 d1                	mov    cl,dl
     95c:	fe c1                	inc    cl
     95e:	89 c2                	mov    dx,ax
     960:	d1 e8                	shr    ax,1
     962:	88 c5                	mov    ch,al
     964:	88 d6                	mov    dh,dl
     966:	80 e6 01             	and    dh,0x1
     969:	b2 00                	mov    dl,0x0
     96b:	51                   	push   cx
     96c:	67 8b 44 24 1a       	mov    ax,WORD PTR [esp+0x1a]
     971:	b9 00 02             	mov    cx,0x200
     974:	ba 00 00             	mov    dx,0x0
     977:	f7 f1                	div    cx
     979:	59                   	pop    cx
     97a:	67 8b 5c 24 1c       	mov    bx,WORD PTR [esp+0x1c]
     97f:	b4 02                	mov    ah,0x2
     981:	cd 13                	int    0x13
     983:	5b                   	pop    bx
     984:	59                   	pop    cx
     985:	5a                   	pop    dx
     986:	58                   	pop    ax
     987:	1f                   	pop    ds
     988:	07                   	pop    es
     989:	66 5d                	pop    ebp
     98b:	66 59                	pop    ecx
     98d:	ff e1                	jmp    cx

0000098f <_dispatch>:
     98f:	50                   	push   ax
     990:	67 8b 44 24 06       	mov    ax,WORD PTR [esp+0x6]
     995:	a3 4f 0a             	mov    ds:0xa4f,ax
     998:	67 8b 44 24 0a       	mov    ax,WORD PTR [esp+0xa]
     99d:	a3 4d 0a             	mov    ds:0xa4d,ax
     9a0:	58                   	pop    ax
     9a1:	0e                   	push   cs
     9a2:	e8 03 00             	call   9a8 <save>
     9a5:	e8 55 00             	call   9fd <restart>

000009a8 <save>:
     9a8:	2e 8f 06 61 0a       	pop    WORD PTR cs:0xa61
     9ad:	1e                   	push   ds
     9ae:	0e                   	push   cs
     9af:	1f                   	pop    ds
     9b0:	56                   	push   si
     9b1:	57                   	push   di
     9b2:	8b 36 4d 0a          	mov    si,WORD PTR ds:0xa4d
     9b6:	8b 3e 4f 0a          	mov    di,WORD PTR ds:0xa4f
     9ba:	8f 06 53 0a          	pop    WORD PTR ds:0xa53
     9be:	8f 06 55 0a          	pop    WORD PTR ds:0xa55
     9c2:	8f 06 57 0a          	pop    WORD PTR ds:0xa57
     9c6:	8f 06 5b 0a          	pop    WORD PTR ds:0xa5b
     9ca:	8f 06 59 0a          	pop    WORD PTR ds:0xa59
     9ce:	8c 55 20             	mov    WORD PTR [di+0x20],ss
     9d1:	89 65 1e             	mov    WORD PTR [di+0x1e],sp
     9d4:	0e                   	push   cs
     9d5:	17                   	pop    ss
     9d6:	83 c7 1e             	add    di,0x1e
     9d9:	89 fc                	mov    sp,di
     9db:	9c                   	pushf  
     9dc:	ff 36 5b 0a          	push   WORD PTR ds:0xa5b
     9e0:	ff 36 59 0a          	push   WORD PTR ds:0xa59
     9e4:	60                   	pusha  
     9e5:	5f                   	pop    di
     9e6:	5f                   	pop    di
     9e7:	ff 36 55 0a          	push   WORD PTR ds:0xa55
     9eb:	ff 36 53 0a          	push   WORD PTR ds:0xa53
     9ef:	ff 36 57 0a          	push   WORD PTR ds:0xa57
     9f3:	06                   	push   es
     9f4:	0f a0                	push   fs
     9f6:	0f a8                	push   gs
     9f8:	3e ff 26 61 0a       	jmp    WORD PTR ds:0xa61

000009fd <restart>:
     9fd:	2e 8f 06 61 0a       	pop    WORD PTR cs:0xa61
     a02:	50                   	push   ax
     a03:	8c c8                	mov    ax,cs
     a05:	8e d8                	mov    ds,ax
     a07:	8e d0                	mov    ss,ax
     a09:	58                   	pop    ax
     a0a:	8b 26 4d 0a          	mov    sp,WORD PTR ds:0xa4d
     a0e:	89 e0                	mov    ax,sp
     a10:	83 c0 18             	add    ax,0x18
     a13:	a3 5f 0a             	mov    ds:0xa5f,ax
     a16:	0f a9                	pop    gs
     a18:	0f a1                	pop    fs
     a1a:	07                   	pop    es
     a1b:	1f                   	pop    ds
     a1c:	61                   	popa   
     a1d:	2e 8b 26 5f 0a       	mov    sp,WORD PTR cs:0xa5f
     a22:	2e 8f 06 59 0a       	pop    WORD PTR cs:0xa59
     a27:	2e 8f 06 5b 0a       	pop    WORD PTR cs:0xa5b
     a2c:	9d                   	popf   
     a2d:	2e 8f 06 5f 0a       	pop    WORD PTR cs:0xa5f
     a32:	17                   	pop    ss
     a33:	2e a3 51 0a          	mov    cs:0xa51,ax
     a37:	2e a1 5f 0a          	mov    ax,cs:0xa5f
     a3b:	89 c4                	mov    sp,ax
     a3d:	2e a1 51 0a          	mov    ax,cs:0xa51
     a41:	9c                   	pushf  
     a42:	2e ff 36 5b 0a       	push   WORD PTR cs:0xa5b
     a47:	2e ff 36 59 0a       	push   WORD PTR cs:0xa59
     a4c:	cf                   	iret   

00000a4d <new_process>:
	...

00000a4f <old_process>:
	...

00000a51 <store_ax>:
	...

00000a53 <store_di>:
	...

00000a55 <store_si>:
	...

00000a57 <store_ds>:
	...

00000a59 <store_ip>:
	...

00000a5b <store_cs>:
	...

00000a5d <store_ss>:
	...

00000a5f <store_sp>:
	...

00000a61 <store_retaddr>:
	...

00000a63 <_reboot>:
     a63:	cd 19                	int    0x19

00000a65 <_getDate>:
     a65:	60                   	pusha  
     a66:	b4 04                	mov    ah,0x4
     a68:	cd 1a                	int    0x1a
     a6a:	88 cb                	mov    bl,cl
     a6c:	88 d8                	mov    al,bl
     a6e:	24 f0                	and    al,0xf0
     a70:	b1 04                	mov    cl,0x4
     a72:	d2 e8                	shr    al,cl
     a74:	80 e3 0f             	and    bl,0xf
     a77:	88 dc                	mov    ah,bl
     a79:	05 30 30             	add    ax,0x3030
     a7c:	c7 06 ca 0a 32 30    	mov    WORD PTR ds:0xaca,0x3032
     a82:	a3 cc 0a             	mov    ds:0xacc,ax
     a85:	88 f3                	mov    bl,dh
     a87:	88 d8                	mov    al,bl
     a89:	24 f0                	and    al,0xf0
     a8b:	b1 04                	mov    cl,0x4
     a8d:	d2 e8                	shr    al,cl
     a8f:	80 e3 0f             	and    bl,0xf
     a92:	88 dc                	mov    ah,bl
     a94:	05 30 30             	add    ax,0x3030
     a97:	a3 c7 0a             	mov    ds:0xac7,ax
     a9a:	c6 06 c9 0a 2f       	mov    BYTE PTR ds:0xac9,0x2f
     a9f:	88 d3                	mov    bl,dl
     aa1:	88 d8                	mov    al,bl
     aa3:	24 f0                	and    al,0xf0
     aa5:	b1 04                	mov    cl,0x4
     aa7:	d2 e8                	shr    al,cl
     aa9:	80 e3 0f             	and    bl,0xf
     aac:	88 dc                	mov    ah,bl
     aae:	05 30 30             	add    ax,0x3030
     ab1:	a3 c4 0a             	mov    ds:0xac4,ax
     ab4:	c6 06 c6 0a 2f       	mov    BYTE PTR ds:0xac6,0x2f
     ab9:	61                   	popa   
     aba:	66 31 c0             	xor    eax,eax
     abd:	b8 c4 0a             	mov    ax,0xac4
     ac0:	66 59                	pop    ecx
     ac2:	ff e1                	jmp    cx

00000ac4 <date>:
	...

00000acf <_roll>:
     acf:	66 55                	push   ebp
     ad1:	b4 06                	mov    ah,0x6
     ad3:	b0 01                	mov    al,0x1
     ad5:	b7 0f                	mov    bh,0xf
     ad7:	b9 00 00             	mov    cx,0x0
     ada:	ba 4f 18             	mov    dx,0x184f
     add:	cd 10                	int    0x10
     adf:	66 5d                	pop    ebp
     ae1:	66 59                	pop    ecx
     ae3:	ff e1                	jmp    cx

00000ae5 <lastline>:
	...

00001265 <_getRecords>:
    1265:	66 55                	push   ebp
    1267:	8c c8                	mov    ax,cs
    1269:	67 8b 44 24 08       	mov    ax,WORD PTR [esp+0x8]
    126e:	8e c0                	mov    es,ax
    1270:	66 31 db             	xor    ebx,ebx
    1273:	66 67 8b 5c 24 0c    	mov    ebx,DWORD PTR [esp+0xc]
    1279:	66 31 c0             	xor    eax,eax
    127c:	66 89 d8             	mov    eax,ebx
    127f:	66 5d                	pop    ebp
    1281:	66 59                	pop    ecx
    1283:	ff e1                	jmp    cx
    1285:	66 90                	xchg   eax,eax
    1287:	90                   	nop

00001288 <_strlen>:
strlen():
D:\OneDrive\Study\Operating Systems\สตั้\project4\codes/./lib/utilsC.c:20
char * WelcomeSentence = "oh my Wsh\n\rCopyright (C) Xihuai Wang\n\rtype \"man\" to get help\n\r";
char * prompt = ">>";

// รยขรรขรรยทรปยดยฎรยชรร'0'ยฝรกรยฒยกยฃ
int strlen(char * sen)
{
    1288:	66 55                	push   ebp
    128a:	66 89 e5             	mov    ebp,esp
    128d:	66 83 ec 04          	sub    esp,0x4
D:\OneDrive\Study\Operating Systems\สตั้\project4\codes/./lib/utilsC.c:21
	int i = 0;
    1291:	67 66 c7 45 fc 00 00 	mov    DWORD PTR [ebp-0x4],0x0
    1298:	00 00 
D:\OneDrive\Study\Operating Systems\สตั้\project4\codes/./lib/utilsC.c:22
	while(sen[i]) { ++i; }
    129a:	eb 05                	jmp    12a1 <_strlen+0x19>
    129c:	67 66 ff 45 fc       	inc    DWORD PTR [ebp-0x4]
    12a1:	67 66 8b 55 fc       	mov    edx,DWORD PTR [ebp-0x4]
    12a6:	67 66 8b 45 08       	mov    eax,DWORD PTR [ebp+0x8]
    12ab:	66 01 d0             	add    eax,edx
    12ae:	67 8a 00             	mov    al,BYTE PTR [eax]
    12b1:	84 c0                	test   al,al
    12b3:	75 e7                	jne    129c <_strlen+0x14>
D:\OneDrive\Study\Operating Systems\สตั้\project4\codes/./lib/utilsC.c:23
	return i;
    12b5:	67 66 8b 45 fc       	mov    eax,DWORD PTR [ebp-0x4]
D:\OneDrive\Study\Operating Systems\สตั้\project4\codes/./lib/utilsC.c:24
}
    12ba:	66 c9                	leave  
    12bc:	66 c3                	ret    

000012be <_countLines>:
countLines():
D:\OneDrive\Study\Operating Systems\สตั้\project4\codes/./lib/utilsC.c:27

int countLines(char * sen)
{
    12be:	66 55                	push   ebp
    12c0:	66 89 e5             	mov    ebp,esp
    12c3:	66 83 ec 08          	sub    esp,0x8
D:\OneDrive\Study\Operating Systems\สตั้\project4\codes/./lib/utilsC.c:28
	int lines = 0;
    12c7:	67 66 c7 45 fc 00 00 	mov    DWORD PTR [ebp-0x4],0x0
    12ce:	00 00 
D:\OneDrive\Study\Operating Systems\สตั้\project4\codes/./lib/utilsC.c:29
	for(int i = 0; sen[i]; ++i) {
    12d0:	67 66 c7 45 f8 00 00 	mov    DWORD PTR [ebp-0x8],0x0
    12d7:	00 00 
    12d9:	eb 1e                	jmp    12f9 <_countLines+0x3b>
D:\OneDrive\Study\Operating Systems\สตั้\project4\codes/./lib/utilsC.c:30
		if(sen[i] == '\n') {
    12db:	67 66 8b 55 f8       	mov    edx,DWORD PTR [ebp-0x8]
    12e0:	67 66 8b 45 08       	mov    eax,DWORD PTR [ebp+0x8]
    12e5:	66 01 d0             	add    eax,edx
    12e8:	67 8a 00             	mov    al,BYTE PTR [eax]
    12eb:	3c 0a                	cmp    al,0xa
    12ed:	75 05                	jne    12f4 <_countLines+0x36>
D:\OneDrive\Study\Operating Systems\สตั้\project4\codes/./lib/utilsC.c:31
			++lines;
    12ef:	67 66 ff 45 fc       	inc    DWORD PTR [ebp-0x4]
D:\OneDrive\Study\Operating Systems\สตั้\project4\codes/./lib/utilsC.c:29
	for(int i = 0; sen[i]; ++i) {
    12f4:	67 66 ff 45 f8       	inc    DWORD PTR [ebp-0x8]
    12f9:	67 66 8b 55 f8       	mov    edx,DWORD PTR [ebp-0x8]
    12fe:	67 66 8b 45 08       	mov    eax,DWORD PTR [ebp+0x8]
    1303:	66 01 d0             	add    eax,edx
    1306:	67 8a 00             	mov    al,BYTE PTR [eax]
    1309:	84 c0                	test   al,al
    130b:	75 ce                	jne    12db <_countLines+0x1d>
D:\OneDrive\Study\Operating Systems\สตั้\project4\codes/./lib/utilsC.c:34
		}
	}
	lines += 1;
    130d:	67 66 ff 45 fc       	inc    DWORD PTR [ebp-0x4]
D:\OneDrive\Study\Operating Systems\สตั้\project4\codes/./lib/utilsC.c:35
	return lines;
    1312:	67 66 8b 45 fc       	mov    eax,DWORD PTR [ebp-0x4]
D:\OneDrive\Study\Operating Systems\สตั้\project4\codes/./lib/utilsC.c:36
}
    1317:	66 c9                	leave  
    1319:	66 c3                	ret    

0000131b <_initialScreen>:
initialScreen():
D:\OneDrive\Study\Operating Systems\สตั้\project4\codes/./lib/utilsC.c:39

void initialScreen(int welcome)
{
    131b:	66 55                	push   ebp
    131d:	66 89 e5             	mov    ebp,esp
    1320:	66 83 ec 14          	sub    esp,0x14
D:\OneDrive\Study\Operating Systems\สตั้\project4\codes/./lib/utilsC.c:40
	clear();
    1324:	66 e8 d3 00 00 00    	call   13fd <_clear>
D:\OneDrive\Study\Operating Systems\สตั้\project4\codes/./lib/utilsC.c:41
	if(welcome) {
    132a:	67 66 83 7d 08 00    	cmp    DWORD PTR [ebp+0x8],0x0
    1330:	74 63                	je     1395 <_initialScreen+0x7a>
D:\OneDrive\Study\Operating Systems\สตั้\project4\codes/./lib/utilsC.c:42
		printSentence(WelcomeSentence, line, 0, strlen(WelcomeSentence), white);
    1332:	66 a1 3c 27          	mov    eax,ds:0x273c
    1336:	67 66 89 04 24       	mov    DWORD PTR [esp],eax
    133b:	66 e8 47 ff ff ff    	call   1288 <_strlen>
    1341:	66 89 c1             	mov    ecx,eax
    1344:	66 8b 16 a0 50       	mov    edx,DWORD PTR ds:0x50a0
    1349:	66 a1 3c 27          	mov    eax,ds:0x273c
    134d:	67 66 c7 44 24 10 0f 	mov    DWORD PTR [esp+0x10],0xf
    1354:	00 00 00 
    1357:	67 66 89 4c 24 0c    	mov    DWORD PTR [esp+0xc],ecx
    135d:	67 66 c7 44 24 08 00 	mov    DWORD PTR [esp+0x8],0x0
    1364:	00 00 00 
    1367:	67 66 89 54 24 04    	mov    DWORD PTR [esp+0x4],edx
    136d:	67 66 89 04 24       	mov    DWORD PTR [esp],eax
    1372:	66 e8 19 f4 ff ff    	call   791 <_printSentence>
D:\OneDrive\Study\Operating Systems\สตั้\project4\codes/./lib/utilsC.c:43
		line += countLines(WelcomeSentence);
    1378:	66 a1 3c 27          	mov    eax,ds:0x273c
    137c:	67 66 89 04 24       	mov    DWORD PTR [esp],eax
    1381:	66 e8 37 ff ff ff    	call   12be <_countLines>
    1387:	66 89 c2             	mov    edx,eax
    138a:	66 a1 a0 50          	mov    eax,ds:0x50a0
    138e:	66 01 d0             	add    eax,edx
    1391:	66 a3 a0 50          	mov    ds:0x50a0,eax
D:\OneDrive\Study\Operating Systems\สตั้\project4\codes/./lib/utilsC.c:45
	}
	printSentence(prompt, line, 0, strlen(prompt), white);
    1395:	66 a1 40 27          	mov    eax,ds:0x2740
    1399:	67 66 89 04 24       	mov    DWORD PTR [esp],eax
    139e:	66 e8 e4 fe ff ff    	call   1288 <_strlen>
    13a4:	66 89 c1             	mov    ecx,eax
    13a7:	66 8b 16 a0 50       	mov    edx,DWORD PTR ds:0x50a0
    13ac:	66 a1 40 27          	mov    eax,ds:0x2740
    13b0:	67 66 c7 44 24 10 0f 	mov    DWORD PTR [esp+0x10],0xf
    13b7:	00 00 00 
    13ba:	67 66 89 4c 24 0c    	mov    DWORD PTR [esp+0xc],ecx
    13c0:	67 66 c7 44 24 08 00 	mov    DWORD PTR [esp+0x8],0x0
    13c7:	00 00 00 
    13ca:	67 66 89 54 24 04    	mov    DWORD PTR [esp+0x4],edx
    13d0:	67 66 89 04 24       	mov    DWORD PTR [esp],eax
    13d5:	66 e8 b6 f3 ff ff    	call   791 <_printSentence>
D:\OneDrive\Study\Operating Systems\สตั้\project4\codes/./lib/utilsC.c:46
	line += countLines(prompt);
    13db:	66 a1 40 27          	mov    eax,ds:0x2740
    13df:	67 66 89 04 24       	mov    DWORD PTR [esp],eax
    13e4:	66 e8 d4 fe ff ff    	call   12be <_countLines>
    13ea:	66 89 c2             	mov    edx,eax
    13ed:	66 a1 a0 50          	mov    eax,ds:0x50a0
    13f1:	66 01 d0             	add    eax,edx
    13f4:	66 a3 a0 50          	mov    ds:0x50a0,eax
D:\OneDrive\Study\Operating Systems\สตั้\project4\codes/./lib/utilsC.c:47
}
    13f8:	90                   	nop
    13f9:	66 c9                	leave  
    13fb:	66 c3                	ret    

000013fd <_clear>:
clear():
D:\OneDrive\Study\Operating Systems\สตั้\project4\codes/./lib/utilsC.c:50

void clear()
{
    13fd:	66 55                	push   ebp
    13ff:	66 89 e5             	mov    ebp,esp
D:\OneDrive\Study\Operating Systems\สตั้\project4\codes/./lib/utilsC.c:51
	line = 0;
    1402:	66 c7 06 a0 50 00 00 	mov    DWORD PTR ds:0x50a0,0x0
    1409:	00 00 
D:\OneDrive\Study\Operating Systems\สตั้\project4\codes/./lib/utilsC.c:52
	ClearScreen();
    140b:	66 e8 af f3 ff ff    	call   7c0 <_ClearScreen>
D:\OneDrive\Study\Operating Systems\สตั้\project4\codes/./lib/utilsC.c:53
}
    1411:	90                   	nop
    1412:	66 5d                	pop    ebp
    1414:	66 c3                	ret    

00001416 <_strcmp>:
strcmp():
D:\OneDrive\Study\Operating Systems\สตั้\project4\codes/./lib/utilsC.c:56

int strcmp(char * l, char * r)
{
    1416:	66 55                	push   ebp
    1418:	66 89 e5             	mov    ebp,esp
    141b:	66 83 ec 08          	sub    esp,0x8
D:\OneDrive\Study\Operating Systems\สตั้\project4\codes/./lib/utilsC.c:57
	int i=0, j=0;
    141f:	67 66 c7 45 fc 00 00 	mov    DWORD PTR [ebp-0x4],0x0
    1426:	00 00 
    1428:	67 66 c7 45 f8 00 00 	mov    DWORD PTR [ebp-0x8],0x0
    142f:	00 00 
D:\OneDrive\Study\Operating Systems\สตั้\project4\codes/./lib/utilsC.c:58
	for(; l[i] && r[i]; ++i, ++j)
    1431:	eb 64                	jmp    1497 <_strcmp+0x81>
D:\OneDrive\Study\Operating Systems\สตั้\project4\codes/./lib/utilsC.c:60
	{
		if(l[i] < r[j]) {
    1433:	67 66 8b 55 fc       	mov    edx,DWORD PTR [ebp-0x4]
    1438:	67 66 8b 45 08       	mov    eax,DWORD PTR [ebp+0x8]
    143d:	66 01 d0             	add    eax,edx
    1440:	67 8a 10             	mov    dl,BYTE PTR [eax]
    1443:	67 66 8b 4d f8       	mov    ecx,DWORD PTR [ebp-0x8]
    1448:	67 66 8b 45 0c       	mov    eax,DWORD PTR [ebp+0xc]
    144d:	66 01 c8             	add    eax,ecx
    1450:	67 8a 00             	mov    al,BYTE PTR [eax]
    1453:	38 c2                	cmp    dl,al
    1455:	7d 09                	jge    1460 <_strcmp+0x4a>
D:\OneDrive\Study\Operating Systems\สตั้\project4\codes/./lib/utilsC.c:61
			return -1;
    1457:	66 b8 ff ff ff ff    	mov    eax,0xffffffff
    145d:	e9 c7 00             	jmp    1527 <_strcmp+0x111>
D:\OneDrive\Study\Operating Systems\สตั้\project4\codes/./lib/utilsC.c:62
		} else if(l[i] > r[j]) {
    1460:	67 66 8b 55 fc       	mov    edx,DWORD PTR [ebp-0x4]
    1465:	67 66 8b 45 08       	mov    eax,DWORD PTR [ebp+0x8]
    146a:	66 01 d0             	add    eax,edx
    146d:	67 8a 10             	mov    dl,BYTE PTR [eax]
    1470:	67 66 8b 4d f8       	mov    ecx,DWORD PTR [ebp-0x8]
    1475:	67 66 8b 45 0c       	mov    eax,DWORD PTR [ebp+0xc]
    147a:	66 01 c8             	add    eax,ecx
    147d:	67 8a 00             	mov    al,BYTE PTR [eax]
    1480:	38 c2                	cmp    dl,al
    1482:	7e 09                	jle    148d <_strcmp+0x77>
D:\OneDrive\Study\Operating Systems\สตั้\project4\codes/./lib/utilsC.c:63
			return 1;
    1484:	66 b8 01 00 00 00    	mov    eax,0x1
    148a:	e9 9a 00             	jmp    1527 <_strcmp+0x111>
D:\OneDrive\Study\Operating Systems\สตั้\project4\codes/./lib/utilsC.c:58
	for(; l[i] && r[i]; ++i, ++j)
    148d:	67 66 ff 45 fc       	inc    DWORD PTR [ebp-0x4]
    1492:	67 66 ff 45 f8       	inc    DWORD PTR [ebp-0x8]
    1497:	67 66 8b 55 fc       	mov    edx,DWORD PTR [ebp-0x4]
    149c:	67 66 8b 45 08       	mov    eax,DWORD PTR [ebp+0x8]
    14a1:	66 01 d0             	add    eax,edx
    14a4:	67 8a 00             	mov    al,BYTE PTR [eax]
    14a7:	84 c0                	test   al,al
    14a9:	74 16                	je     14c1 <_strcmp+0xab>
    14ab:	67 66 8b 55 fc       	mov    edx,DWORD PTR [ebp-0x4]
    14b0:	67 66 8b 45 0c       	mov    eax,DWORD PTR [ebp+0xc]
    14b5:	66 01 d0             	add    eax,edx
    14b8:	67 8a 00             	mov    al,BYTE PTR [eax]
    14bb:	84 c0                	test   al,al
    14bd:	0f 85 72 ff          	jne    1433 <_strcmp+0x1d>
D:\OneDrive\Study\Operating Systems\สตั้\project4\codes/./lib/utilsC.c:66
		} 
	}
	if(!l[i] && r[j]) {
    14c1:	67 66 8b 55 fc       	mov    edx,DWORD PTR [ebp-0x4]
    14c6:	67 66 8b 45 08       	mov    eax,DWORD PTR [ebp+0x8]
    14cb:	66 01 d0             	add    eax,edx
    14ce:	67 8a 00             	mov    al,BYTE PTR [eax]
    14d1:	84 c0                	test   al,al
    14d3:	75 1c                	jne    14f1 <_strcmp+0xdb>
    14d5:	67 66 8b 55 f8       	mov    edx,DWORD PTR [ebp-0x8]
    14da:	67 66 8b 45 0c       	mov    eax,DWORD PTR [ebp+0xc]
    14df:	66 01 d0             	add    eax,edx
    14e2:	67 8a 00             	mov    al,BYTE PTR [eax]
    14e5:	84 c0                	test   al,al
    14e7:	74 08                	je     14f1 <_strcmp+0xdb>
D:\OneDrive\Study\Operating Systems\สตั้\project4\codes/./lib/utilsC.c:67
		return -1;
    14e9:	66 b8 ff ff ff ff    	mov    eax,0xffffffff
    14ef:	eb 36                	jmp    1527 <_strcmp+0x111>
D:\OneDrive\Study\Operating Systems\สตั้\project4\codes/./lib/utilsC.c:68
	} else if(l[i] && !r[j]) {
    14f1:	67 66 8b 55 fc       	mov    edx,DWORD PTR [ebp-0x4]
    14f6:	67 66 8b 45 08       	mov    eax,DWORD PTR [ebp+0x8]
    14fb:	66 01 d0             	add    eax,edx
    14fe:	67 8a 00             	mov    al,BYTE PTR [eax]
    1501:	84 c0                	test   al,al
    1503:	74 1c                	je     1521 <_strcmp+0x10b>
    1505:	67 66 8b 55 f8       	mov    edx,DWORD PTR [ebp-0x8]
    150a:	67 66 8b 45 0c       	mov    eax,DWORD PTR [ebp+0xc]
    150f:	66 01 d0             	add    eax,edx
    1512:	67 8a 00             	mov    al,BYTE PTR [eax]
    1515:	84 c0                	test   al,al
    1517:	75 08                	jne    1521 <_strcmp+0x10b>
D:\OneDrive\Study\Operating Systems\สตั้\project4\codes/./lib/utilsC.c:69
		return 1;
    1519:	66 b8 01 00 00 00    	mov    eax,0x1
    151f:	eb 06                	jmp    1527 <_strcmp+0x111>
D:\OneDrive\Study\Operating Systems\สตั้\project4\codes/./lib/utilsC.c:71
	} else {
		return 0;
    1521:	66 b8 00 00 00 00    	mov    eax,0x0
D:\OneDrive\Study\Operating Systems\สตั้\project4\codes/./lib/utilsC.c:73
	}
}
    1527:	66 c9                	leave  
    1529:	66 c3                	ret    

0000152b <_date>:
date():
D:\OneDrive\Study\Operating Systems\สตั้\project4\codes/./lib/utilsC.c:76

void date()
{
    152b:	66 55                	push   ebp
    152d:	66 89 e5             	mov    ebp,esp
    1530:	66 83 ec 18          	sub    esp,0x18
D:\OneDrive\Study\Operating Systems\สตั้\project4\codes/./lib/utilsC.c:77
	char * dateSen = getDate();
    1534:	66 e8 2b f5 ff ff    	call   a65 <_getDate>
    153a:	67 66 89 45 fc       	mov    DWORD PTR [ebp-0x4],eax
D:\OneDrive\Study\Operating Systems\สตั้\project4\codes/./lib/utilsC.c:78
	printSentence(dateSen, line, 30, strlen(dateSen), purple);
    153f:	67 66 8b 45 fc       	mov    eax,DWORD PTR [ebp-0x4]
    1544:	67 66 89 04 24       	mov    DWORD PTR [esp],eax
    1549:	66 e8 39 fd ff ff    	call   1288 <_strlen>
    154f:	66 89 c2             	mov    edx,eax
    1552:	66 a1 a0 50          	mov    eax,ds:0x50a0
    1556:	67 66 c7 44 24 10 0d 	mov    DWORD PTR [esp+0x10],0xd
    155d:	00 00 00 
    1560:	67 66 89 54 24 0c    	mov    DWORD PTR [esp+0xc],edx
    1566:	67 66 c7 44 24 08 1e 	mov    DWORD PTR [esp+0x8],0x1e
    156d:	00 00 00 
    1570:	67 66 89 44 24 04    	mov    DWORD PTR [esp+0x4],eax
    1576:	67 66 8b 45 fc       	mov    eax,DWORD PTR [ebp-0x4]
    157b:	67 66 89 04 24       	mov    DWORD PTR [esp],eax
    1580:	66 e8 0b f2 ff ff    	call   791 <_printSentence>
D:\OneDrive\Study\Operating Systems\สตั้\project4\codes/./lib/utilsC.c:79
	newline();
    1586:	66 e8 c3 00 00 00    	call   164f <_newline>
D:\OneDrive\Study\Operating Systems\สตั้\project4\codes/./lib/utilsC.c:80
	line += countLines(dateSen);
    158c:	67 66 8b 45 fc       	mov    eax,DWORD PTR [ebp-0x4]
    1591:	67 66 89 04 24       	mov    DWORD PTR [esp],eax
    1596:	66 e8 22 fd ff ff    	call   12be <_countLines>
    159c:	66 89 c2             	mov    edx,eax
    159f:	66 a1 a0 50          	mov    eax,ds:0x50a0
    15a3:	66 01 d0             	add    eax,edx
    15a6:	66 a3 a0 50          	mov    ds:0x50a0,eax
D:\OneDrive\Study\Operating Systems\สตั้\project4\codes/./lib/utilsC.c:81
}
    15aa:	90                   	nop
    15ab:	66 c9                	leave  
    15ad:	66 c3                	ret    

000015af <_man>:
man():
D:\OneDrive\Study\Operating Systems\สตั้\project4\codes/./lib/utilsC.c:85


void man()
{
    15af:	66 55                	push   ebp
    15b1:	66 89 e5             	mov    ebp,esp
    15b4:	66 83 ec 18          	sub    esp,0x18
D:\OneDrive\Study\Operating Systems\สตั้\project4\codes/./lib/utilsC.c:86
	char * manual = getRecords(segOfOs, offsetOfManual);
    15b8:	67 66 c7 44 24 04 00 	mov    DWORD PTR [esp+0x4],0xd500
    15bf:	d5 00 00 
    15c2:	67 66 c7 04 24 00 20 	mov    DWORD PTR [esp],0x2000
    15c9:	00 00 
    15cb:	66 e8 94 fc ff ff    	call   1265 <_getRecords>
    15d1:	67 66 89 45 fc       	mov    DWORD PTR [ebp-0x4],eax
D:\OneDrive\Study\Operating Systems\สตั้\project4\codes/./lib/utilsC.c:87
	line = 0;
    15d6:	66 c7 06 a0 50 00 00 	mov    DWORD PTR ds:0x50a0,0x0
    15dd:	00 00 
D:\OneDrive\Study\Operating Systems\สตั้\project4\codes/./lib/utilsC.c:88
	ClearScreen();
    15df:	66 e8 db f1 ff ff    	call   7c0 <_ClearScreen>
D:\OneDrive\Study\Operating Systems\สตั้\project4\codes/./lib/utilsC.c:89
	printSentence(manual, line, 0, strlen(manual), purple);
    15e5:	67 66 8b 45 fc       	mov    eax,DWORD PTR [ebp-0x4]
    15ea:	67 66 89 04 24       	mov    DWORD PTR [esp],eax
    15ef:	66 e8 93 fc ff ff    	call   1288 <_strlen>
    15f5:	66 89 c2             	mov    edx,eax
    15f8:	66 a1 a0 50          	mov    eax,ds:0x50a0
    15fc:	67 66 c7 44 24 10 0d 	mov    DWORD PTR [esp+0x10],0xd
    1603:	00 00 00 
    1606:	67 66 89 54 24 0c    	mov    DWORD PTR [esp+0xc],edx
    160c:	67 66 c7 44 24 08 00 	mov    DWORD PTR [esp+0x8],0x0
    1613:	00 00 00 
    1616:	67 66 89 44 24 04    	mov    DWORD PTR [esp+0x4],eax
    161c:	67 66 8b 45 fc       	mov    eax,DWORD PTR [ebp-0x4]
    1621:	67 66 89 04 24       	mov    DWORD PTR [esp],eax
    1626:	66 e8 65 f1 ff ff    	call   791 <_printSentence>
D:\OneDrive\Study\Operating Systems\สตั้\project4\codes/./lib/utilsC.c:90
	line += countLines(manual);
    162c:	67 66 8b 45 fc       	mov    eax,DWORD PTR [ebp-0x4]
    1631:	67 66 89 04 24       	mov    DWORD PTR [esp],eax
    1636:	66 e8 82 fc ff ff    	call   12be <_countLines>
    163c:	66 89 c2             	mov    edx,eax
    163f:	66 a1 a0 50          	mov    eax,ds:0x50a0
    1643:	66 01 d0             	add    eax,edx
    1646:	66 a3 a0 50          	mov    ds:0x50a0,eax
D:\OneDrive\Study\Operating Systems\สตั้\project4\codes/./lib/utilsC.c:91
}
    164a:	90                   	nop
    164b:	66 c9                	leave  
    164d:	66 c3                	ret    

0000164f <_newline>:
newline():
D:\OneDrive\Study\Operating Systems\สตั้\project4\codes/./lib/utilsC.c:94

void newline()
{
    164f:	66 55                	push   ebp
    1651:	66 89 e5             	mov    ebp,esp
    1654:	66 83 ec 14          	sub    esp,0x14
D:\OneDrive\Study\Operating Systems\สตั้\project4\codes/./lib/utilsC.c:95
	if(line >= 25) {
    1658:	66 a1 a0 50          	mov    eax,ds:0x50a0
    165c:	66 83 f8 18          	cmp    eax,0x18
    1660:	7e 0f                	jle    1671 <_newline+0x22>
D:\OneDrive\Study\Operating Systems\สตั้\project4\codes/./lib/utilsC.c:96
		roll();
    1662:	66 e8 67 f4 ff ff    	call   acf <_roll>
D:\OneDrive\Study\Operating Systems\สตั้\project4\codes/./lib/utilsC.c:97
		line = 24;
    1668:	66 c7 06 a0 50 18 00 	mov    DWORD PTR ds:0x50a0,0x18
    166f:	00 00 
D:\OneDrive\Study\Operating Systems\สตั้\project4\codes/./lib/utilsC.c:99
	}
	printSentence(prompt, line, 0, strlen(prompt), white);
    1671:	66 a1 40 27          	mov    eax,ds:0x2740
    1675:	67 66 89 04 24       	mov    DWORD PTR [esp],eax
    167a:	66 e8 08 fc ff ff    	call   1288 <_strlen>
    1680:	66 89 c1             	mov    ecx,eax
    1683:	66 8b 16 a0 50       	mov    edx,DWORD PTR ds:0x50a0
    1688:	66 a1 40 27          	mov    eax,ds:0x2740
    168c:	67 66 c7 44 24 10 0f 	mov    DWORD PTR [esp+0x10],0xf
    1693:	00 00 00 
    1696:	67 66 89 4c 24 0c    	mov    DWORD PTR [esp+0xc],ecx
    169c:	67 66 c7 44 24 08 00 	mov    DWORD PTR [esp+0x8],0x0
    16a3:	00 00 00 
    16a6:	67 66 89 54 24 04    	mov    DWORD PTR [esp+0x4],edx
    16ac:	67 66 89 04 24       	mov    DWORD PTR [esp],eax
    16b1:	66 e8 da f0 ff ff    	call   791 <_printSentence>
D:\OneDrive\Study\Operating Systems\สตั้\project4\codes/./lib/utilsC.c:100
	line += countLines(prompt);
    16b7:	66 a1 40 27          	mov    eax,ds:0x2740
    16bb:	67 66 89 04 24       	mov    DWORD PTR [esp],eax
    16c0:	66 e8 f8 fb ff ff    	call   12be <_countLines>
    16c6:	66 89 c2             	mov    edx,eax
    16c9:	66 a1 a0 50          	mov    eax,ds:0x50a0
    16cd:	66 01 d0             	add    eax,edx
    16d0:	66 a3 a0 50          	mov    ds:0x50a0,eax
D:\OneDrive\Study\Operating Systems\สตั้\project4\codes/./lib/utilsC.c:101
}
    16d4:	90                   	nop
    16d5:	66 c9                	leave  
    16d7:	66 c3                	ret    

000016d9 <_strncpy>:
strncpy():
D:\OneDrive\Study\Operating Systems\สตั้\project4\codes/./lib/utilsC.c:106



void strncpy(char * sour, char * des, int len)
{
    16d9:	66 55                	push   ebp
    16db:	66 89 e5             	mov    ebp,esp
    16de:	66 83 ec 04          	sub    esp,0x4
D:\OneDrive\Study\Operating Systems\สตั้\project4\codes/./lib/utilsC.c:107
	int i = 0;
    16e2:	67 66 c7 45 fc 00 00 	mov    DWORD PTR [ebp-0x4],0x0
    16e9:	00 00 
D:\OneDrive\Study\Operating Systems\สตั้\project4\codes/./lib/utilsC.c:108
	while(sour[i] && i < len){
    16eb:	eb 25                	jmp    1712 <_strncpy+0x39>
D:\OneDrive\Study\Operating Systems\สตั้\project4\codes/./lib/utilsC.c:109
		des[i] = sour[i];
    16ed:	67 66 8b 55 fc       	mov    edx,DWORD PTR [ebp-0x4]
    16f2:	67 66 8b 45 0c       	mov    eax,DWORD PTR [ebp+0xc]
    16f7:	66 01 c2             	add    edx,eax
    16fa:	67 66 8b 4d fc       	mov    ecx,DWORD PTR [ebp-0x4]
    16ff:	67 66 8b 45 08       	mov    eax,DWORD PTR [ebp+0x8]
    1704:	66 01 c8             	add    eax,ecx
    1707:	67 8a 00             	mov    al,BYTE PTR [eax]
    170a:	67 88 02             	mov    BYTE PTR [edx],al
D:\OneDrive\Study\Operating Systems\สตั้\project4\codes/./lib/utilsC.c:110
		++i;
    170d:	67 66 ff 45 fc       	inc    DWORD PTR [ebp-0x4]
D:\OneDrive\Study\Operating Systems\สตั้\project4\codes/./lib/utilsC.c:108
	while(sour[i] && i < len){
    1712:	67 66 8b 55 fc       	mov    edx,DWORD PTR [ebp-0x4]
    1717:	67 66 8b 45 08       	mov    eax,DWORD PTR [ebp+0x8]
    171c:	66 01 d0             	add    eax,edx
    171f:	67 8a 00             	mov    al,BYTE PTR [eax]
    1722:	84 c0                	test   al,al
    1724:	74 0c                	je     1732 <_strncpy+0x59>
    1726:	67 66 8b 45 fc       	mov    eax,DWORD PTR [ebp-0x4]
    172b:	67 66 3b 45 10       	cmp    eax,DWORD PTR [ebp+0x10]
    1730:	7c bb                	jl     16ed <_strncpy+0x14>
D:\OneDrive\Study\Operating Systems\สตั้\project4\codes/./lib/utilsC.c:112
	}
	des[i] = '\0';
    1732:	67 66 8b 55 fc       	mov    edx,DWORD PTR [ebp-0x4]
    1737:	67 66 8b 45 0c       	mov    eax,DWORD PTR [ebp+0xc]
    173c:	66 01 d0             	add    eax,edx
    173f:	67 c6 00 00          	mov    BYTE PTR [eax],0x0
D:\OneDrive\Study\Operating Systems\สตั้\project4\codes/./lib/utilsC.c:113
}
    1743:	90                   	nop
    1744:	66 c9                	leave  
    1746:	66 c3                	ret    

00001748 <_hashfun>:
hashfun():
D:\OneDrive\Study\Operating Systems\สตั้\project4\codes/./lib/utilsC.c:115

int hashfun(char * key){
    1748:	66 55                	push   ebp
    174a:	66 89 e5             	mov    ebp,esp
    174d:	66 83 ec 0c          	sub    esp,0xc
D:\OneDrive\Study\Operating Systems\สตั้\project4\codes/./lib/utilsC.c:116
	int weight = 29;
    1751:	67 66 c7 45 f4 1d 00 	mov    DWORD PTR [ebp-0xc],0x1d
    1758:	00 00 
D:\OneDrive\Study\Operating Systems\สตั้\project4\codes/./lib/utilsC.c:117
	int i = 0;
    175a:	67 66 c7 45 fc 00 00 	mov    DWORD PTR [ebp-0x4],0x0
    1761:	00 00 
D:\OneDrive\Study\Operating Systems\สตั้\project4\codes/./lib/utilsC.c:118
	int ret = 0;
    1763:	67 66 c7 45 f8 00 00 	mov    DWORD PTR [ebp-0x8],0x0
    176a:	00 00 
D:\OneDrive\Study\Operating Systems\สตั้\project4\codes/./lib/utilsC.c:119
	while(key[i]){
    176c:	eb 3a                	jmp    17a8 <_hashfun+0x60>
D:\OneDrive\Study\Operating Systems\สตั้\project4\codes/./lib/utilsC.c:120
		ret = (ret + key[i]*weight) % Len;
    176e:	67 66 8b 55 fc       	mov    edx,DWORD PTR [ebp-0x4]
    1773:	67 66 8b 45 08       	mov    eax,DWORD PTR [ebp+0x8]
    1778:	66 01 d0             	add    eax,edx
    177b:	67 8a 00             	mov    al,BYTE PTR [eax]
    177e:	66 0f be c0          	movsx  eax,al
    1782:	67 66 0f af 45 f4    	imul   eax,DWORD PTR [ebp-0xc]
    1788:	66 89 c2             	mov    edx,eax
    178b:	67 66 8b 45 f8       	mov    eax,DWORD PTR [ebp-0x8]
    1790:	66 01 d0             	add    eax,edx
    1793:	66 b9 0a 00 00 00    	mov    ecx,0xa
    1799:	66 99                	cdq    
    179b:	66 f7 f9             	idiv   ecx
    179e:	67 66 89 55 f8       	mov    DWORD PTR [ebp-0x8],edx
D:\OneDrive\Study\Operating Systems\สตั้\project4\codes/./lib/utilsC.c:121
		++i;
    17a3:	67 66 ff 45 fc       	inc    DWORD PTR [ebp-0x4]
D:\OneDrive\Study\Operating Systems\สตั้\project4\codes/./lib/utilsC.c:119
	while(key[i]){
    17a8:	67 66 8b 55 fc       	mov    edx,DWORD PTR [ebp-0x4]
    17ad:	67 66 8b 45 08       	mov    eax,DWORD PTR [ebp+0x8]
    17b2:	66 01 d0             	add    eax,edx
    17b5:	67 8a 00             	mov    al,BYTE PTR [eax]
    17b8:	84 c0                	test   al,al
    17ba:	75 b2                	jne    176e <_hashfun+0x26>
D:\OneDrive\Study\Operating Systems\สตั้\project4\codes/./lib/utilsC.c:123
	}
	return ret;
    17bc:	67 66 8b 45 f8       	mov    eax,DWORD PTR [ebp-0x8]
D:\OneDrive\Study\Operating Systems\สตั้\project4\codes/./lib/utilsC.c:124
}
    17c1:	66 c9                	leave  
    17c3:	66 c3                	ret    

000017c5 <_hash>:
hash():
D:\OneDrive\Study\Operating Systems\สตั้\project4\codes/./lib/utilsC.c:127

int hash(char * key, struct info record)
{
    17c5:	66 55                	push   ebp
    17c7:	66 89 e5             	mov    ebp,esp
    17ca:	66 83 ec 18          	sub    esp,0x18
D:\OneDrive\Study\Operating Systems\สตั้\project4\codes/./lib/utilsC.c:128
	int inicode = hashfun(key);
    17ce:	67 66 8b 45 08       	mov    eax,DWORD PTR [ebp+0x8]
    17d3:	67 66 89 04 24       	mov    DWORD PTR [esp],eax
    17d8:	66 e8 6a ff ff ff    	call   1748 <_hashfun>
    17de:	67 66 89 45 f4       	mov    DWORD PTR [ebp-0xc],eax
D:\OneDrive\Study\Operating Systems\สตั้\project4\codes/./lib/utilsC.c:129
	int code = inicode, i = 1;
    17e3:	67 66 8b 45 f4       	mov    eax,DWORD PTR [ebp-0xc]
    17e8:	67 66 89 45 fc       	mov    DWORD PTR [ebp-0x4],eax
    17ed:	67 66 c7 45 f8 01 00 	mov    DWORD PTR [ebp-0x8],0x1
    17f4:	00 00 
D:\OneDrive\Study\Operating Systems\สตั้\project4\codes/./lib/utilsC.c:130
	while(information[code].type!=null){
    17f6:	eb 2b                	jmp    1823 <_hash+0x5e>
D:\OneDrive\Study\Operating Systems\สตั้\project4\codes/./lib/utilsC.c:131
		code = (inicode + i * i) % Len;
    17f8:	67 66 8b 45 f8       	mov    eax,DWORD PTR [ebp-0x8]
    17fd:	67 66 0f af 45 f8    	imul   eax,DWORD PTR [ebp-0x8]
    1803:	66 89 c2             	mov    edx,eax
    1806:	67 66 8b 45 f4       	mov    eax,DWORD PTR [ebp-0xc]
    180b:	66 01 d0             	add    eax,edx
    180e:	66 b9 0a 00 00 00    	mov    ecx,0xa
    1814:	66 99                	cdq    
    1816:	66 f7 f9             	idiv   ecx
    1819:	67 66 89 55 fc       	mov    DWORD PTR [ebp-0x4],edx
D:\OneDrive\Study\Operating Systems\สตั้\project4\codes/./lib/utilsC.c:132
		++i;
    181e:	67 66 ff 45 f8       	inc    DWORD PTR [ebp-0x8]
D:\OneDrive\Study\Operating Systems\สตั้\project4\codes/./lib/utilsC.c:130
	while(information[code].type!=null){
    1823:	67 66 8b 55 fc       	mov    edx,DWORD PTR [ebp-0x4]
    1828:	66 89 d0             	mov    eax,edx
    182b:	66 01 c0             	add    eax,eax
    182e:	66 01 d0             	add    eax,edx
    1831:	66 c1 e0 02          	shl    eax,0x2
    1835:	66 01 d0             	add    eax,edx
    1838:	66 c1 e0 02          	shl    eax,0x2
    183c:	66 05 40 51 00 00    	add    eax,0x5140
    1842:	67 66 8b 00          	mov    eax,DWORD PTR [eax]
    1846:	66 85 c0             	test   eax,eax
    1849:	75 ad                	jne    17f8 <_hash+0x33>
D:\OneDrive\Study\Operating Systems\สตั้\project4\codes/./lib/utilsC.c:136
	}


	information[code].type = record.type;
    184b:	67 66 8b 4d 2c       	mov    ecx,DWORD PTR [ebp+0x2c]
    1850:	67 66 8b 55 fc       	mov    edx,DWORD PTR [ebp-0x4]
    1855:	66 89 d0             	mov    eax,edx
    1858:	66 01 c0             	add    eax,eax
    185b:	66 01 d0             	add    eax,edx
    185e:	66 c1 e0 02          	shl    eax,0x2
    1862:	66 01 d0             	add    eax,edx
    1865:	66 c1 e0 02          	shl    eax,0x2
    1869:	66 05 40 51 00 00    	add    eax,0x5140
    186f:	67 66 89 08          	mov    DWORD PTR [eax],ecx
D:\OneDrive\Study\Operating Systems\สตั้\project4\codes/./lib/utilsC.c:137
	strncpy(record.name, information[code].name, strlen(record.name));
    1873:	67 66 8d 45 0c       	lea    eax,[ebp+0xc]
    1878:	67 66 89 04 24       	mov    DWORD PTR [esp],eax
    187d:	66 e8 05 fa ff ff    	call   1288 <_strlen>
    1883:	66 89 c1             	mov    ecx,eax
    1886:	67 66 8b 55 fc       	mov    edx,DWORD PTR [ebp-0x4]
    188b:	66 89 d0             	mov    eax,edx
    188e:	66 01 c0             	add    eax,eax
    1891:	66 01 d0             	add    eax,edx
    1894:	66 c1 e0 02          	shl    eax,0x2
    1898:	66 01 d0             	add    eax,edx
    189b:	66 c1 e0 02          	shl    eax,0x2
    189f:	66 05 20 51 00 00    	add    eax,0x5120
    18a5:	67 66 89 4c 24 08    	mov    DWORD PTR [esp+0x8],ecx
    18ab:	67 66 89 44 24 04    	mov    DWORD PTR [esp+0x4],eax
    18b1:	67 66 8d 45 0c       	lea    eax,[ebp+0xc]
    18b6:	67 66 89 04 24       	mov    DWORD PTR [esp],eax
    18bb:	66 e8 18 fe ff ff    	call   16d9 <_strncpy>
D:\OneDrive\Study\Operating Systems\สตั้\project4\codes/./lib/utilsC.c:138
	information[code].size = record.size;
    18c1:	67 66 8b 4d 34       	mov    ecx,DWORD PTR [ebp+0x34]
    18c6:	67 66 8b 55 fc       	mov    edx,DWORD PTR [ebp-0x4]
    18cb:	66 89 d0             	mov    eax,edx
    18ce:	66 01 c0             	add    eax,eax
    18d1:	66 01 d0             	add    eax,edx
    18d4:	66 c1 e0 02          	shl    eax,0x2
    18d8:	66 01 d0             	add    eax,edx
    18db:	66 c1 e0 02          	shl    eax,0x2
    18df:	66 05 48 51 00 00    	add    eax,0x5148
    18e5:	67 66 89 08          	mov    DWORD PTR [eax],ecx
D:\OneDrive\Study\Operating Systems\สตั้\project4\codes/./lib/utilsC.c:139
	information[code].lmaddress = record.lmaddress;
    18e9:	67 66 8b 4d 30       	mov    ecx,DWORD PTR [ebp+0x30]
    18ee:	67 66 8b 55 fc       	mov    edx,DWORD PTR [ebp-0x4]
    18f3:	66 89 d0             	mov    eax,edx
    18f6:	66 01 c0             	add    eax,eax
    18f9:	66 01 d0             	add    eax,edx
    18fc:	66 c1 e0 02          	shl    eax,0x2
    1900:	66 01 d0             	add    eax,edx
    1903:	66 c1 e0 02          	shl    eax,0x2
    1907:	66 05 44 51 00 00    	add    eax,0x5144
    190d:	67 66 89 08          	mov    DWORD PTR [eax],ecx
D:\OneDrive\Study\Operating Systems\สตั้\project4\codes/./lib/utilsC.c:140
	information[code].deleted = record.deleted;
    1911:	67 66 8b 4d 38       	mov    ecx,DWORD PTR [ebp+0x38]
    1916:	67 66 8b 55 fc       	mov    edx,DWORD PTR [ebp-0x4]
    191b:	66 89 d0             	mov    eax,edx
    191e:	66 01 c0             	add    eax,eax
    1921:	66 01 d0             	add    eax,edx
    1924:	66 c1 e0 02          	shl    eax,0x2
    1928:	66 01 d0             	add    eax,edx
    192b:	66 c1 e0 02          	shl    eax,0x2
    192f:	66 05 4c 51 00 00    	add    eax,0x514c
    1935:	67 66 89 08          	mov    DWORD PTR [eax],ecx
D:\OneDrive\Study\Operating Systems\สตั้\project4\codes/./lib/utilsC.c:141
	return code;
    1939:	67 66 8b 45 fc       	mov    eax,DWORD PTR [ebp-0x4]
D:\OneDrive\Study\Operating Systems\สตั้\project4\codes/./lib/utilsC.c:142
}
    193e:	66 c9                	leave  
    1940:	66 c3                	ret    

00001942 <_find>:
find():
D:\OneDrive\Study\Operating Systems\สตั้\project4\codes/./lib/utilsC.c:145

int find(char * key)
{
    1942:	66 55                	push   ebp
    1944:	66 89 e5             	mov    ebp,esp
    1947:	66 83 ec 14          	sub    esp,0x14
D:\OneDrive\Study\Operating Systems\สตั้\project4\codes/./lib/utilsC.c:146
	int inicode = hashfun(key);
    194b:	67 66 8b 45 08       	mov    eax,DWORD PTR [ebp+0x8]
    1950:	67 66 89 04 24       	mov    DWORD PTR [esp],eax
    1955:	66 e8 ed fd ff ff    	call   1748 <_hashfun>
    195b:	67 66 89 45 f4       	mov    DWORD PTR [ebp-0xc],eax
D:\OneDrive\Study\Operating Systems\สตั้\project4\codes/./lib/utilsC.c:147
	int code = inicode, i = 1;
    1960:	67 66 8b 45 f4       	mov    eax,DWORD PTR [ebp-0xc]
    1965:	67 66 89 45 fc       	mov    DWORD PTR [ebp-0x4],eax
    196a:	67 66 c7 45 f8 01 00 	mov    DWORD PTR [ebp-0x8],0x1
    1971:	00 00 
D:\OneDrive\Study\Operating Systems\สตั้\project4\codes/./lib/utilsC.c:148
	while(information[code].type == null || strcmp(key, information[code].name) != 0){
    1973:	eb 3b                	jmp    19b0 <_find+0x6e>
D:\OneDrive\Study\Operating Systems\สตั้\project4\codes/./lib/utilsC.c:149
		code = (inicode + i * i) % Len;
    1975:	67 66 8b 45 f8       	mov    eax,DWORD PTR [ebp-0x8]
    197a:	67 66 0f af 45 f8    	imul   eax,DWORD PTR [ebp-0x8]
    1980:	66 89 c2             	mov    edx,eax
    1983:	67 66 8b 45 f4       	mov    eax,DWORD PTR [ebp-0xc]
    1988:	66 01 d0             	add    eax,edx
    198b:	66 b9 0a 00 00 00    	mov    ecx,0xa
    1991:	66 99                	cdq    
    1993:	66 f7 f9             	idiv   ecx
    1996:	67 66 89 55 fc       	mov    DWORD PTR [ebp-0x4],edx
D:\OneDrive\Study\Operating Systems\สตั้\project4\codes/./lib/utilsC.c:150
		++i;
    199b:	67 66 ff 45 f8       	inc    DWORD PTR [ebp-0x8]
D:\OneDrive\Study\Operating Systems\สตั้\project4\codes/./lib/utilsC.c:151
		if(i > Len)
    19a0:	67 66 83 7d f8 0a    	cmp    DWORD PTR [ebp-0x8],0xa
    19a6:	7e 08                	jle    19b0 <_find+0x6e>
D:\OneDrive\Study\Operating Systems\สตั้\project4\codes/./lib/utilsC.c:152
			return -1;
    19a8:	66 b8 ff ff ff ff    	mov    eax,0xffffffff
    19ae:	eb 69                	jmp    1a19 <_find+0xd7>
D:\OneDrive\Study\Operating Systems\สตั้\project4\codes/./lib/utilsC.c:148
	while(information[code].type == null || strcmp(key, information[code].name) != 0){
    19b0:	67 66 8b 55 fc       	mov    edx,DWORD PTR [ebp-0x4]
    19b5:	66 89 d0             	mov    eax,edx
    19b8:	66 01 c0             	add    eax,eax
    19bb:	66 01 d0             	add    eax,edx
    19be:	66 c1 e0 02          	shl    eax,0x2
    19c2:	66 01 d0             	add    eax,edx
    19c5:	66 c1 e0 02          	shl    eax,0x2
    19c9:	66 05 40 51 00 00    	add    eax,0x5140
    19cf:	67 66 8b 00          	mov    eax,DWORD PTR [eax]
    19d3:	66 85 c0             	test   eax,eax
    19d6:	74 9d                	je     1975 <_find+0x33>
    19d8:	67 66 8b 55 fc       	mov    edx,DWORD PTR [ebp-0x4]
    19dd:	66 89 d0             	mov    eax,edx
    19e0:	66 01 c0             	add    eax,eax
    19e3:	66 01 d0             	add    eax,edx
    19e6:	66 c1 e0 02          	shl    eax,0x2
    19ea:	66 01 d0             	add    eax,edx
    19ed:	66 c1 e0 02          	shl    eax,0x2
    19f1:	66 05 20 51 00 00    	add    eax,0x5120
    19f7:	67 66 89 44 24 04    	mov    DWORD PTR [esp+0x4],eax
    19fd:	67 66 8b 45 08       	mov    eax,DWORD PTR [ebp+0x8]
    1a02:	67 66 89 04 24       	mov    DWORD PTR [esp],eax
    1a07:	66 e8 09 fa ff ff    	call   1416 <_strcmp>
    1a0d:	66 85 c0             	test   eax,eax
    1a10:	0f 85 61 ff          	jne    1975 <_find+0x33>
D:\OneDrive\Study\Operating Systems\สตั้\project4\codes/./lib/utilsC.c:154
	}
	return code;
    1a14:	67 66 8b 45 fc       	mov    eax,DWORD PTR [ebp-0x4]
D:\OneDrive\Study\Operating Systems\สตั้\project4\codes/./lib/utilsC.c:155
}
    1a19:	66 c9                	leave  
    1a1b:	66 c3                	ret    

00001a1d <_ls>:
ls():
D:\OneDrive\Study\Operating Systems\สตั้\project4\codes/./lib/utilsC.c:158

void ls()
{
    1a1d:	66 55                	push   ebp
    1a1f:	66 89 e5             	mov    ebp,esp
    1a22:	66 57                	push   edi
    1a24:	66 53                	push   ebx
    1a26:	66 83 ec 38          	sub    esp,0x38
D:\OneDrive\Study\Operating Systems\สตั้\project4\codes/./lib/utilsC.c:159
	char * head = "Name           Size           Lma            Type";
    1a2a:	67 66 c7 45 f0 68 30 	mov    DWORD PTR [ebp-0x10],0x3068
    1a31:	00 00 
D:\OneDrive\Study\Operating Systems\สตั้\project4\codes/./lib/utilsC.c:160
	printSentence(head, line, 10, strlen(head), green);
    1a33:	67 66 8b 45 f0       	mov    eax,DWORD PTR [ebp-0x10]
    1a38:	67 66 89 04 24       	mov    DWORD PTR [esp],eax
    1a3d:	66 e8 45 f8 ff ff    	call   1288 <_strlen>
    1a43:	66 89 c2             	mov    edx,eax
    1a46:	66 a1 a0 50          	mov    eax,ds:0x50a0
    1a4a:	67 66 c7 44 24 10 0a 	mov    DWORD PTR [esp+0x10],0xa
    1a51:	00 00 00 
    1a54:	67 66 89 54 24 0c    	mov    DWORD PTR [esp+0xc],edx
    1a5a:	67 66 c7 44 24 08 0a 	mov    DWORD PTR [esp+0x8],0xa
    1a61:	00 00 00 
    1a64:	67 66 89 44 24 04    	mov    DWORD PTR [esp+0x4],eax
    1a6a:	67 66 8b 45 f0       	mov    eax,DWORD PTR [ebp-0x10]
    1a6f:	67 66 89 04 24       	mov    DWORD PTR [esp],eax
    1a74:	66 e8 17 ed ff ff    	call   791 <_printSentence>
D:\OneDrive\Study\Operating Systems\สตั้\project4\codes/./lib/utilsC.c:161
	char typeTable[10][1] = {"N", "D", "E", "F"};
    1a7a:	67 66 8d 55 e6       	lea    edx,[ebp-0x1a]
    1a7f:	66 b9 0a 00 00 00    	mov    ecx,0xa
    1a85:	b0 00                	mov    al,0x0
    1a87:	66 89 d7             	mov    edi,edx
    1a8a:	f3 aa                	rep stos BYTE PTR es:[di],al
    1a8c:	67 c6 45 e6 4e       	mov    BYTE PTR [ebp-0x1a],0x4e
    1a91:	67 c6 45 e7 44       	mov    BYTE PTR [ebp-0x19],0x44
    1a96:	67 c6 45 e8 45       	mov    BYTE PTR [ebp-0x18],0x45
    1a9b:	67 c6 45 e9 46       	mov    BYTE PTR [ebp-0x17],0x46
D:\OneDrive\Study\Operating Systems\สตั้\project4\codes/./lib/utilsC.c:162
	line += countLines(head);
    1aa0:	67 66 8b 45 f0       	mov    eax,DWORD PTR [ebp-0x10]
    1aa5:	67 66 89 04 24       	mov    DWORD PTR [esp],eax
    1aaa:	66 e8 0e f8 ff ff    	call   12be <_countLines>
    1ab0:	66 89 c2             	mov    edx,eax
    1ab3:	66 a1 a0 50          	mov    eax,ds:0x50a0
    1ab7:	66 01 d0             	add    eax,edx
    1aba:	66 a3 a0 50          	mov    ds:0x50a0,eax
D:\OneDrive\Study\Operating Systems\สตั้\project4\codes/./lib/utilsC.c:164
	char tmp[15];
	for(int i = 0; i < Len; ++i) 
    1abe:	67 66 c7 45 f4 00 00 	mov    DWORD PTR [ebp-0xc],0x0
    1ac5:	00 00 
    1ac7:	e9 3f 02             	jmp    1d09 <_ls+0x2ec>
D:\OneDrive\Study\Operating Systems\สตั้\project4\codes/./lib/utilsC.c:166
	{
		if(information[i].type != null && information[i].deleted != 1) {
    1aca:	67 66 8b 55 f4       	mov    edx,DWORD PTR [ebp-0xc]
    1acf:	66 89 d0             	mov    eax,edx
    1ad2:	66 01 c0             	add    eax,eax
    1ad5:	66 01 d0             	add    eax,edx
    1ad8:	66 c1 e0 02          	shl    eax,0x2
    1adc:	66 01 d0             	add    eax,edx
    1adf:	66 c1 e0 02          	shl    eax,0x2
    1ae3:	66 05 40 51 00 00    	add    eax,0x5140
    1ae9:	67 66 8b 00          	mov    eax,DWORD PTR [eax]
    1aed:	66 85 c0             	test   eax,eax
    1af0:	0f 84 10 02          	je     1d04 <_ls+0x2e7>
    1af4:	67 66 8b 55 f4       	mov    edx,DWORD PTR [ebp-0xc]
    1af9:	66 89 d0             	mov    eax,edx
    1afc:	66 01 c0             	add    eax,eax
    1aff:	66 01 d0             	add    eax,edx
    1b02:	66 c1 e0 02          	shl    eax,0x2
    1b06:	66 01 d0             	add    eax,edx
    1b09:	66 c1 e0 02          	shl    eax,0x2
    1b0d:	66 05 4c 51 00 00    	add    eax,0x514c
    1b13:	67 66 8b 00          	mov    eax,DWORD PTR [eax]
    1b17:	66 83 f8 01          	cmp    eax,0x1
    1b1b:	0f 84 e5 01          	je     1d04 <_ls+0x2e7>
D:\OneDrive\Study\Operating Systems\สตั้\project4\codes/./lib/utilsC.c:167
			printSentence(information[i].name, line, 10, strlen(information[i].name), purple);
    1b1f:	67 66 8b 55 f4       	mov    edx,DWORD PTR [ebp-0xc]
    1b24:	66 89 d0             	mov    eax,edx
    1b27:	66 01 c0             	add    eax,eax
    1b2a:	66 01 d0             	add    eax,edx
    1b2d:	66 c1 e0 02          	shl    eax,0x2
    1b31:	66 01 d0             	add    eax,edx
    1b34:	66 c1 e0 02          	shl    eax,0x2
    1b38:	66 05 20 51 00 00    	add    eax,0x5120
    1b3e:	67 66 89 04 24       	mov    DWORD PTR [esp],eax
    1b43:	66 e8 3f f7 ff ff    	call   1288 <_strlen>
    1b49:	66 89 c3             	mov    ebx,eax
    1b4c:	66 8b 0e a0 50       	mov    ecx,DWORD PTR ds:0x50a0
    1b51:	67 66 8b 55 f4       	mov    edx,DWORD PTR [ebp-0xc]
    1b56:	66 89 d0             	mov    eax,edx
    1b59:	66 01 c0             	add    eax,eax
    1b5c:	66 01 d0             	add    eax,edx
    1b5f:	66 c1 e0 02          	shl    eax,0x2
    1b63:	66 01 d0             	add    eax,edx
    1b66:	66 c1 e0 02          	shl    eax,0x2
    1b6a:	66 05 20 51 00 00    	add    eax,0x5120
    1b70:	67 66 c7 44 24 10 0d 	mov    DWORD PTR [esp+0x10],0xd
    1b77:	00 00 00 
    1b7a:	67 66 89 5c 24 0c    	mov    DWORD PTR [esp+0xc],ebx
    1b80:	67 66 c7 44 24 08 0a 	mov    DWORD PTR [esp+0x8],0xa
    1b87:	00 00 00 
    1b8a:	67 66 89 4c 24 04    	mov    DWORD PTR [esp+0x4],ecx
    1b90:	67 66 89 04 24       	mov    DWORD PTR [esp],eax
    1b95:	66 e8 f6 eb ff ff    	call   791 <_printSentence>
D:\OneDrive\Study\Operating Systems\สตั้\project4\codes/./lib/utilsC.c:168
			int2str(information[i].size, tmp);
    1b9b:	67 66 8b 55 f4       	mov    edx,DWORD PTR [ebp-0xc]
    1ba0:	66 89 d0             	mov    eax,edx
    1ba3:	66 01 c0             	add    eax,eax
    1ba6:	66 01 d0             	add    eax,edx
    1ba9:	66 c1 e0 02          	shl    eax,0x2
    1bad:	66 01 d0             	add    eax,edx
    1bb0:	66 c1 e0 02          	shl    eax,0x2
    1bb4:	66 05 48 51 00 00    	add    eax,0x5148
    1bba:	67 66 8b 00          	mov    eax,DWORD PTR [eax]
    1bbe:	67 66 8d 55 d7       	lea    edx,[ebp-0x29]
    1bc3:	67 66 89 54 24 04    	mov    DWORD PTR [esp+0x4],edx
    1bc9:	67 66 89 04 24       	mov    DWORD PTR [esp],eax
    1bce:	66 e8 4c 01 00 00    	call   1d20 <_int2str>
D:\OneDrive\Study\Operating Systems\สตั้\project4\codes/./lib/utilsC.c:169
			printSentence(tmp, line, 25, strlen(tmp), purple);
    1bd4:	67 66 8d 45 d7       	lea    eax,[ebp-0x29]
    1bd9:	67 66 89 04 24       	mov    DWORD PTR [esp],eax
    1bde:	66 e8 a4 f6 ff ff    	call   1288 <_strlen>
    1be4:	66 89 c2             	mov    edx,eax
    1be7:	66 a1 a0 50          	mov    eax,ds:0x50a0
    1beb:	67 66 c7 44 24 10 0d 	mov    DWORD PTR [esp+0x10],0xd
    1bf2:	00 00 00 
    1bf5:	67 66 89 54 24 0c    	mov    DWORD PTR [esp+0xc],edx
    1bfb:	67 66 c7 44 24 08 19 	mov    DWORD PTR [esp+0x8],0x19
    1c02:	00 00 00 
    1c05:	67 66 89 44 24 04    	mov    DWORD PTR [esp+0x4],eax
    1c0b:	67 66 8d 45 d7       	lea    eax,[ebp-0x29]
    1c10:	67 66 89 04 24       	mov    DWORD PTR [esp],eax
    1c15:	66 e8 76 eb ff ff    	call   791 <_printSentence>
D:\OneDrive\Study\Operating Systems\สตั้\project4\codes/./lib/utilsC.c:170
			int2str(information[i].lmaddress, tmp);
    1c1b:	67 66 8b 55 f4       	mov    edx,DWORD PTR [ebp-0xc]
    1c20:	66 89 d0             	mov    eax,edx
    1c23:	66 01 c0             	add    eax,eax
    1c26:	66 01 d0             	add    eax,edx
    1c29:	66 c1 e0 02          	shl    eax,0x2
    1c2d:	66 01 d0             	add    eax,edx
    1c30:	66 c1 e0 02          	shl    eax,0x2
    1c34:	66 05 44 51 00 00    	add    eax,0x5144
    1c3a:	67 66 8b 00          	mov    eax,DWORD PTR [eax]
    1c3e:	67 66 8d 55 d7       	lea    edx,[ebp-0x29]
    1c43:	67 66 89 54 24 04    	mov    DWORD PTR [esp+0x4],edx
    1c49:	67 66 89 04 24       	mov    DWORD PTR [esp],eax
    1c4e:	66 e8 cc 00 00 00    	call   1d20 <_int2str>
D:\OneDrive\Study\Operating Systems\สตั้\project4\codes/./lib/utilsC.c:171
			printSentence(tmp, line, 40, strlen(tmp), purple);
    1c54:	67 66 8d 45 d7       	lea    eax,[ebp-0x29]
    1c59:	67 66 89 04 24       	mov    DWORD PTR [esp],eax
    1c5e:	66 e8 24 f6 ff ff    	call   1288 <_strlen>
    1c64:	66 89 c2             	mov    edx,eax
    1c67:	66 a1 a0 50          	mov    eax,ds:0x50a0
    1c6b:	67 66 c7 44 24 10 0d 	mov    DWORD PTR [esp+0x10],0xd
    1c72:	00 00 00 
    1c75:	67 66 89 54 24 0c    	mov    DWORD PTR [esp+0xc],edx
    1c7b:	67 66 c7 44 24 08 28 	mov    DWORD PTR [esp+0x8],0x28
    1c82:	00 00 00 
    1c85:	67 66 89 44 24 04    	mov    DWORD PTR [esp+0x4],eax
    1c8b:	67 66 8d 45 d7       	lea    eax,[ebp-0x29]
    1c90:	67 66 89 04 24       	mov    DWORD PTR [esp],eax
    1c95:	66 e8 f6 ea ff ff    	call   791 <_printSentence>
D:\OneDrive\Study\Operating Systems\สตั้\project4\codes/./lib/utilsC.c:172
			printSentence(typeTable[information[i].type], line, 55, 1, purple);
    1c9b:	66 8b 0e a0 50       	mov    ecx,DWORD PTR ds:0x50a0
    1ca0:	67 66 8b 55 f4       	mov    edx,DWORD PTR [ebp-0xc]
    1ca5:	66 89 d0             	mov    eax,edx
    1ca8:	66 01 c0             	add    eax,eax
    1cab:	66 01 d0             	add    eax,edx
    1cae:	66 c1 e0 02          	shl    eax,0x2
    1cb2:	66 01 d0             	add    eax,edx
    1cb5:	66 c1 e0 02          	shl    eax,0x2
    1cb9:	66 05 40 51 00 00    	add    eax,0x5140
    1cbf:	67 66 8b 00          	mov    eax,DWORD PTR [eax]
    1cc3:	67 66 8d 55 e6       	lea    edx,[ebp-0x1a]
    1cc8:	66 01 d0             	add    eax,edx
    1ccb:	67 66 c7 44 24 10 0d 	mov    DWORD PTR [esp+0x10],0xd
    1cd2:	00 00 00 
    1cd5:	67 66 c7 44 24 0c 01 	mov    DWORD PTR [esp+0xc],0x1
    1cdc:	00 00 00 
    1cdf:	67 66 c7 44 24 08 37 	mov    DWORD PTR [esp+0x8],0x37
    1ce6:	00 00 00 
    1ce9:	67 66 89 4c 24 04    	mov    DWORD PTR [esp+0x4],ecx
    1cef:	67 66 89 04 24       	mov    DWORD PTR [esp],eax
    1cf4:	66 e8 97 ea ff ff    	call   791 <_printSentence>
D:\OneDrive\Study\Operating Systems\สตั้\project4\codes/./lib/utilsC.c:173
			line += 1;
    1cfa:	66 a1 a0 50          	mov    eax,ds:0x50a0
    1cfe:	66 40                	inc    eax
    1d00:	66 a3 a0 50          	mov    ds:0x50a0,eax
D:\OneDrive\Study\Operating Systems\สตั้\project4\codes/./lib/utilsC.c:164
	for(int i = 0; i < Len; ++i) 
    1d04:	67 66 ff 45 f4       	inc    DWORD PTR [ebp-0xc]
    1d09:	67 66 83 7d f4 09    	cmp    DWORD PTR [ebp-0xc],0x9
    1d0f:	0f 8e b7 fd          	jle    1aca <_ls+0xad>
D:\OneDrive\Study\Operating Systems\สตั้\project4\codes/./lib/utilsC.c:176
		}
	}
}
    1d13:	90                   	nop
    1d14:	66 83 c4 38          	add    esp,0x38
    1d18:	66 5b                	pop    ebx
    1d1a:	66 5f                	pop    edi
    1d1c:	66 5d                	pop    ebp
    1d1e:	66 c3                	ret    

00001d20 <_int2str>:
int2str():
D:\OneDrive\Study\Operating Systems\สตั้\project4\codes/./lib/utilsC.c:179

void int2str(int org, char * str)
{
    1d20:	66 55                	push   ebp
    1d22:	66 89 e5             	mov    ebp,esp
    1d25:	66 53                	push   ebx
    1d27:	66 83 ec 0c          	sub    esp,0xc
D:\OneDrive\Study\Operating Systems\สตั้\project4\codes/./lib/utilsC.c:180
	int num = 0;
    1d2b:	67 66 c7 45 f8 00 00 	mov    DWORD PTR [ebp-0x8],0x0
    1d32:	00 00 
D:\OneDrive\Study\Operating Systems\สตั้\project4\codes/./lib/utilsC.c:181
	int cp = org;
    1d34:	67 66 8b 45 08       	mov    eax,DWORD PTR [ebp+0x8]
    1d39:	67 66 89 45 f4       	mov    DWORD PTR [ebp-0xc],eax
D:\OneDrive\Study\Operating Systems\สตั้\project4\codes/./lib/utilsC.c:182
	while(cp != 0)
    1d3e:	eb 29                	jmp    1d69 <_int2str+0x49>
D:\OneDrive\Study\Operating Systems\สตั้\project4\codes/./lib/utilsC.c:184
	{
		cp /= 10;
    1d40:	67 66 8b 4d f4       	mov    ecx,DWORD PTR [ebp-0xc]
    1d45:	66 b8 67 66 66 66    	mov    eax,0x66666667
    1d4b:	66 f7 e9             	imul   ecx
    1d4e:	66 c1 fa 02          	sar    edx,0x2
    1d52:	66 89 c8             	mov    eax,ecx
    1d55:	66 c1 f8 1f          	sar    eax,0x1f
    1d59:	66 29 c2             	sub    edx,eax
    1d5c:	66 89 d0             	mov    eax,edx
    1d5f:	67 66 89 45 f4       	mov    DWORD PTR [ebp-0xc],eax
D:\OneDrive\Study\Operating Systems\สตั้\project4\codes/./lib/utilsC.c:185
		++num;
    1d64:	67 66 ff 45 f8       	inc    DWORD PTR [ebp-0x8]
D:\OneDrive\Study\Operating Systems\สตั้\project4\codes/./lib/utilsC.c:182
	while(cp != 0)
    1d69:	67 66 83 7d f4 00    	cmp    DWORD PTR [ebp-0xc],0x0
    1d6f:	75 cf                	jne    1d40 <_int2str+0x20>
D:\OneDrive\Study\Operating Systems\สตั้\project4\codes/./lib/utilsC.c:187
	}
	if(org == 0)
    1d71:	67 66 83 7d 08 00    	cmp    DWORD PTR [ebp+0x8],0x0
    1d77:	75 09                	jne    1d82 <_int2str+0x62>
D:\OneDrive\Study\Operating Systems\สตั้\project4\codes/./lib/utilsC.c:188
		num = 1;
    1d79:	67 66 c7 45 f8 01 00 	mov    DWORD PTR [ebp-0x8],0x1
    1d80:	00 00 
D:\OneDrive\Study\Operating Systems\สตั้\project4\codes/./lib/utilsC.c:189
	str[num--] = '\0';
    1d82:	67 66 8b 45 f8       	mov    eax,DWORD PTR [ebp-0x8]
    1d87:	67 66 8d 50 ff       	lea    edx,[eax-0x1]
    1d8c:	67 66 89 55 f8       	mov    DWORD PTR [ebp-0x8],edx
    1d91:	66 89 c2             	mov    edx,eax
    1d94:	67 66 8b 45 0c       	mov    eax,DWORD PTR [ebp+0xc]
    1d99:	66 01 d0             	add    eax,edx
    1d9c:	67 c6 00 00          	mov    BYTE PTR [eax],0x0
D:\OneDrive\Study\Operating Systems\สตั้\project4\codes/./lib/utilsC.c:190
	for(int i = num; i >= 0; --i)
    1da0:	67 66 8b 45 f8       	mov    eax,DWORD PTR [ebp-0x8]
    1da5:	67 66 89 45 f0       	mov    DWORD PTR [ebp-0x10],eax
    1daa:	eb 70                	jmp    1e1c <_int2str+0xfc>
D:\OneDrive\Study\Operating Systems\สตั้\project4\codes/./lib/utilsC.c:192
	{
		str[i] = org % 10 + 48;
    1dac:	67 66 8b 55 f0       	mov    edx,DWORD PTR [ebp-0x10]
    1db1:	67 66 8b 45 0c       	mov    eax,DWORD PTR [ebp+0xc]
    1db6:	67 66 8d 1c 02       	lea    ebx,[edx+eax*1]
    1dbb:	67 66 8b 4d 08       	mov    ecx,DWORD PTR [ebp+0x8]
    1dc0:	66 b8 67 66 66 66    	mov    eax,0x66666667
    1dc6:	66 f7 e9             	imul   ecx
    1dc9:	66 c1 fa 02          	sar    edx,0x2
    1dcd:	66 89 c8             	mov    eax,ecx
    1dd0:	66 c1 f8 1f          	sar    eax,0x1f
    1dd4:	66 29 c2             	sub    edx,eax
    1dd7:	66 89 d0             	mov    eax,edx
    1dda:	66 c1 e0 02          	shl    eax,0x2
    1dde:	66 01 d0             	add    eax,edx
    1de1:	66 01 c0             	add    eax,eax
    1de4:	66 29 c1             	sub    ecx,eax
    1de7:	66 89 ca             	mov    edx,ecx
    1dea:	88 d0                	mov    al,dl
    1dec:	66 83 c0 30          	add    eax,0x30
    1df0:	67 88 03             	mov    BYTE PTR [ebx],al
D:\OneDrive\Study\Operating Systems\สตั้\project4\codes/./lib/utilsC.c:193
		org /= 10;
    1df3:	67 66 8b 4d 08       	mov    ecx,DWORD PTR [ebp+0x8]
    1df8:	66 b8 67 66 66 66    	mov    eax,0x66666667
    1dfe:	66 f7 e9             	imul   ecx
    1e01:	66 c1 fa 02          	sar    edx,0x2
    1e05:	66 89 c8             	mov    eax,ecx
    1e08:	66 c1 f8 1f          	sar    eax,0x1f
    1e0c:	66 29 c2             	sub    edx,eax
    1e0f:	66 89 d0             	mov    eax,edx
    1e12:	67 66 89 45 08       	mov    DWORD PTR [ebp+0x8],eax
D:\OneDrive\Study\Operating Systems\สตั้\project4\codes/./lib/utilsC.c:190
	for(int i = num; i >= 0; --i)
    1e17:	67 66 ff 4d f0       	dec    DWORD PTR [ebp-0x10]
    1e1c:	67 66 83 7d f0 00    	cmp    DWORD PTR [ebp-0x10],0x0
    1e22:	79 88                	jns    1dac <_int2str+0x8c>
D:\OneDrive\Study\Operating Systems\สตั้\project4\codes/./lib/utilsC.c:195
	}
}
    1e24:	90                   	nop
    1e25:	66 83 c4 0c          	add    esp,0xc
    1e29:	66 5b                	pop    ebx
    1e2b:	66 5d                	pop    ebp
    1e2d:	66 c3                	ret    

00001e2f <_initialFile>:
initialFile():
D:\OneDrive\Study\Operating Systems\สตั้\project4\codes/./lib/utilsC.c:198

void initialFile()
{
    1e2f:	66 55                	push   ebp
    1e31:	66 89 e5             	mov    ebp,esp
    1e34:	66 83 ec 10          	sub    esp,0x10
D:\OneDrive\Study\Operating Systems\สตั้\project4\codes/./lib/utilsC.c:199
	FAT = (short*)getRecords(segOfOs, offsetOfFat);
    1e38:	67 66 c7 44 24 04 00 	mov    DWORD PTR [esp+0x4],0xe000
    1e3f:	e0 00 00 
    1e42:	67 66 c7 04 24 00 20 	mov    DWORD PTR [esp],0x2000
    1e49:	00 00 
    1e4b:	66 e8 14 f4 ff ff    	call   1265 <_getRecords>
    1e51:	66 a3 c4 50          	mov    ds:0x50c4,eax
D:\OneDrive\Study\Operating Systems\สตั้\project4\codes/./lib/utilsC.c:200
	for(int i = 0; i < Len; ++i){
    1e55:	67 66 c7 45 fc 00 00 	mov    DWORD PTR [ebp-0x4],0x0
    1e5c:	00 00 
    1e5e:	eb 2c                	jmp    1e8c <_initialFile+0x5d>
D:\OneDrive\Study\Operating Systems\สตั้\project4\codes/./lib/utilsC.c:201
		information[i].type=null;
    1e60:	67 66 8b 55 fc       	mov    edx,DWORD PTR [ebp-0x4]
    1e65:	66 89 d0             	mov    eax,edx
    1e68:	66 01 c0             	add    eax,eax
    1e6b:	66 01 d0             	add    eax,edx
    1e6e:	66 c1 e0 02          	shl    eax,0x2
    1e72:	66 01 d0             	add    eax,edx
    1e75:	66 c1 e0 02          	shl    eax,0x2
    1e79:	66 05 40 51 00 00    	add    eax,0x5140
    1e7f:	67 66 c7 00 00 00 00 	mov    DWORD PTR [eax],0x0
    1e86:	00 
D:\OneDrive\Study\Operating Systems\สตั้\project4\codes/./lib/utilsC.c:200
	for(int i = 0; i < Len; ++i){
    1e87:	67 66 ff 45 fc       	inc    DWORD PTR [ebp-0x4]
    1e8c:	67 66 83 7d fc 09    	cmp    DWORD PTR [ebp-0x4],0x9
    1e92:	7e cc                	jle    1e60 <_initialFile+0x31>
D:\OneDrive\Study\Operating Systems\สตั้\project4\codes/./lib/utilsC.c:203
	}
	no.lmaddress = 0;
    1e94:	66 c7 06 04 51 00 00 	mov    DWORD PTR ds:0x5104,0x0
    1e9b:	00 00 
D:\OneDrive\Study\Operating Systems\สตั้\project4\codes/./lib/utilsC.c:204
	no.size = 0;
    1e9d:	66 c7 06 08 51 00 00 	mov    DWORD PTR ds:0x5108,0x0
    1ea4:	00 00 
D:\OneDrive\Study\Operating Systems\สตั้\project4\codes/./lib/utilsC.c:205
	no.type = null;
    1ea6:	66 c7 06 00 51 00 00 	mov    DWORD PTR ds:0x5100,0x0
    1ead:	00 00 
D:\OneDrive\Study\Operating Systems\สตั้\project4\codes/./lib/utilsC.c:206
	strncpy("", no.name, 0);
    1eaf:	67 66 c7 44 24 08 00 	mov    DWORD PTR [esp+0x8],0x0
    1eb6:	00 00 00 
    1eb9:	67 66 c7 44 24 04 e0 	mov    DWORD PTR [esp+0x4],0x50e0
    1ec0:	50 00 00 
    1ec3:	67 66 c7 04 24 9a 30 	mov    DWORD PTR [esp],0x309a
    1eca:	00 00 
    1ecc:	66 e8 07 f8 ff ff    	call   16d9 <_strncpy>
D:\OneDrive\Study\Operating Systems\สตั้\project4\codes/./lib/utilsC.c:207
	loadFiles();
    1ed2:	66 e8 05 00 00 00    	call   1edd <_loadFiles>
D:\OneDrive\Study\Operating Systems\สตั้\project4\codes/./lib/utilsC.c:209

}
    1ed8:	90                   	nop
    1ed9:	66 c9                	leave  
    1edb:	66 c3                	ret    

00001edd <_loadFiles>:
loadFiles():
D:\OneDrive\Study\Operating Systems\สตั้\project4\codes/./lib/utilsC.c:214

struct info used;

void loadFiles()
{
    1edd:	66 55                	push   ebp
    1edf:	66 89 e5             	mov    ebp,esp
    1ee2:	66 57                	push   edi
    1ee4:	66 56                	push   esi
    1ee6:	66 53                	push   ebx
    1ee8:	66 83 ec 74          	sub    esp,0x74
D:\OneDrive\Study\Operating Systems\สตั้\project4\codes/./lib/utilsC.c:215
	char * rawRecords = getRecords(segOfOs, offsetOfRecord);
    1eec:	67 66 c7 44 24 04 00 	mov    DWORD PTR [esp+0x4],0xd000
    1ef3:	d0 00 00 
    1ef6:	67 66 c7 04 24 00 20 	mov    DWORD PTR [esp],0x2000
    1efd:	00 00 
    1eff:	66 e8 60 f3 ff ff    	call   1265 <_getRecords>
    1f05:	67 66 89 45 e0       	mov    DWORD PTR [ebp-0x20],eax
D:\OneDrive\Study\Operating Systems\สตั้\project4\codes/./lib/utilsC.c:216
	int i = 0;
    1f0a:	67 66 c7 45 f0 00 00 	mov    DWORD PTR [ebp-0x10],0x0
    1f11:	00 00 
D:\OneDrive\Study\Operating Systems\สตั้\project4\codes/./lib/utilsC.c:217
	int l = 0;
    1f13:	67 66 c7 45 ec 00 00 	mov    DWORD PTR [ebp-0x14],0x0
    1f1a:	00 00 
D:\OneDrive\Study\Operating Systems\สตั้\project4\codes/./lib/utilsC.c:218
	int size = 0;
    1f1c:	67 66 c7 45 e8 00 00 	mov    DWORD PTR [ebp-0x18],0x0
    1f23:	00 00 
D:\OneDrive\Study\Operating Systems\สตั้\project4\codes/./lib/utilsC.c:219
	int place = 0;
    1f25:	67 66 c7 45 e4 00 00 	mov    DWORD PTR [ebp-0x1c],0x0
    1f2c:	00 00 
D:\OneDrive\Study\Operating Systems\สตั้\project4\codes/./lib/utilsC.c:221
	char name[30];
	enum fileType t = null;
    1f2e:	67 66 c7 45 dc 00 00 	mov    DWORD PTR [ebp-0x24],0x0
    1f35:	00 00 
D:\OneDrive\Study\Operating Systems\สตั้\project4\codes/./lib/utilsC.c:222
	struct info *tmp = &used;
    1f37:	67 66 c7 45 d8 40 56 	mov    DWORD PTR [ebp-0x28],0x5640
    1f3e:	00 00 
D:\OneDrive\Study\Operating Systems\สตั้\project4\codes/./lib/utilsC.c:223
	while(rawRecords[i] != '\n')
    1f40:	e9 00 02             	jmp    2143 <segOfOs+0x143>
D:\OneDrive\Study\Operating Systems\สตั้\project4\codes/./lib/utilsC.c:225
	{
		size = 0;
    1f43:	67 66 c7 45 e8 00 00 	mov    DWORD PTR [ebp-0x18],0x0
    1f4a:	00 00 
D:\OneDrive\Study\Operating Systems\สตั้\project4\codes/./lib/utilsC.c:226
		place = 0;
    1f4c:	67 66 c7 45 e4 00 00 	mov    DWORD PTR [ebp-0x1c],0x0
    1f53:	00 00 
D:\OneDrive\Study\Operating Systems\สตั้\project4\codes/./lib/utilsC.c:228
		// name
		++i;
    1f55:	67 66 ff 45 f0       	inc    DWORD PTR [ebp-0x10]
D:\OneDrive\Study\Operating Systems\สตั้\project4\codes/./lib/utilsC.c:229
		l = 0;
    1f5a:	67 66 c7 45 ec 00 00 	mov    DWORD PTR [ebp-0x14],0x0
    1f61:	00 00 
D:\OneDrive\Study\Operating Systems\สตั้\project4\codes/./lib/utilsC.c:230
		while(rawRecords[i]!='|'){
    1f63:	eb 0a                	jmp    1f6f <_loadFiles+0x92>
D:\OneDrive\Study\Operating Systems\สตั้\project4\codes/./lib/utilsC.c:231
			++i;
    1f65:	67 66 ff 45 f0       	inc    DWORD PTR [ebp-0x10]
D:\OneDrive\Study\Operating Systems\สตั้\project4\codes/./lib/utilsC.c:232
			++l;
    1f6a:	67 66 ff 45 ec       	inc    DWORD PTR [ebp-0x14]
D:\OneDrive\Study\Operating Systems\สตั้\project4\codes/./lib/utilsC.c:230
		while(rawRecords[i]!='|'){
    1f6f:	67 66 8b 55 f0       	mov    edx,DWORD PTR [ebp-0x10]
    1f74:	67 66 8b 45 e0       	mov    eax,DWORD PTR [ebp-0x20]
    1f79:	66 01 d0             	add    eax,edx
    1f7c:	67 8a 00             	mov    al,BYTE PTR [eax]
    1f7f:	3c 7c                	cmp    al,0x7c
    1f81:	75 e2                	jne    1f65 <_loadFiles+0x88>
D:\OneDrive\Study\Operating Systems\สตั้\project4\codes/./lib/utilsC.c:234
		}
		++i;
    1f83:	67 66 ff 45 f0       	inc    DWORD PTR [ebp-0x10]
D:\OneDrive\Study\Operating Systems\สตั้\project4\codes/./lib/utilsC.c:235
		strncpy(rawRecords+i-l-1, name, l);
    1f88:	67 66 8b 55 f0       	mov    edx,DWORD PTR [ebp-0x10]
    1f8d:	67 66 8b 45 ec       	mov    eax,DWORD PTR [ebp-0x14]
    1f92:	66 29 c2             	sub    edx,eax
    1f95:	66 89 d0             	mov    eax,edx
    1f98:	67 66 8d 50 ff       	lea    edx,[eax-0x1]
    1f9d:	67 66 8b 45 e0       	mov    eax,DWORD PTR [ebp-0x20]
    1fa2:	66 01 c2             	add    edx,eax
    1fa5:	67 66 8b 45 ec       	mov    eax,DWORD PTR [ebp-0x14]
    1faa:	67 66 89 44 24 08    	mov    DWORD PTR [esp+0x8],eax
    1fb0:	67 66 8d 45 ba       	lea    eax,[ebp-0x46]
    1fb5:	67 66 89 44 24 04    	mov    DWORD PTR [esp+0x4],eax
    1fbb:	67 66 89 14 24       	mov    DWORD PTR [esp],edx
    1fc0:	66 e8 13 f7 ff ff    	call   16d9 <_strncpy>
D:\OneDrive\Study\Operating Systems\สตั้\project4\codes/./lib/utilsC.c:236
		name[l] = '\0';
    1fc6:	67 66 8d 55 ba       	lea    edx,[ebp-0x46]
    1fcb:	67 66 8b 45 ec       	mov    eax,DWORD PTR [ebp-0x14]
    1fd0:	66 01 d0             	add    eax,edx
    1fd3:	67 c6 00 00          	mov    BYTE PTR [eax],0x0
D:\OneDrive\Study\Operating Systems\สตั้\project4\codes/./lib/utilsC.c:238
		// size
		while(rawRecords[i]!='|'){
    1fd7:	eb 3a                	jmp    2013 <segOfOs+0x13>
D:\OneDrive\Study\Operating Systems\สตั้\project4\codes/./lib/utilsC.c:239
			size = size * 10 + rawRecords[i]-'0';
    1fd9:	67 66 8b 55 e8       	mov    edx,DWORD PTR [ebp-0x18]
    1fde:	66 89 d0             	mov    eax,edx
    1fe1:	66 c1 e0 02          	shl    eax,0x2
    1fe5:	66 01 d0             	add    eax,edx
    1fe8:	66 01 c0             	add    eax,eax
    1feb:	66 89 c1             	mov    ecx,eax
    1fee:	67 66 8b 55 f0       	mov    edx,DWORD PTR [ebp-0x10]
    1ff3:	67 66 8b 45 e0       	mov    eax,DWORD PTR [ebp-0x20]
    1ff8:	66 01 d0             	add    eax,edx
    1ffb:	67 8a 00             	mov    al,BYTE PTR [eax]
    1ffe:	66 0f be c0          	movsx  eax,al
    2002:	66 01 c8             	add    eax,ecx
    2005:	66 83 e8 30          	sub    eax,0x30
    2009:	67 66 89 45 e8       	mov    DWORD PTR [ebp-0x18],eax
D:\OneDrive\Study\Operating Systems\สตั้\project4\codes/./lib/utilsC.c:240
			++i;
    200e:	67 66 ff 45 f0       	inc    DWORD PTR [ebp-0x10]
D:\OneDrive\Study\Operating Systems\สตั้\project4\codes/./lib/utilsC.c:238
		while(rawRecords[i]!='|'){
    2013:	67 66 8b 55 f0       	mov    edx,DWORD PTR [ebp-0x10]
    2018:	67 66 8b 45 e0       	mov    eax,DWORD PTR [ebp-0x20]
    201d:	66 01 d0             	add    eax,edx
    2020:	67 8a 00             	mov    al,BYTE PTR [eax]
    2023:	3c 7c                	cmp    al,0x7c
    2025:	75 b2                	jne    1fd9 <_loadFiles+0xfc>
D:\OneDrive\Study\Operating Systems\สตั้\project4\codes/./lib/utilsC.c:242
		}		
		++i;
    2027:	67 66 ff 45 f0       	inc    DWORD PTR [ebp-0x10]
D:\OneDrive\Study\Operating Systems\สตั้\project4\codes/./lib/utilsC.c:244
		// place
		while(rawRecords[i]!='|'){
    202c:	eb 3a                	jmp    2068 <segOfOs+0x68>
D:\OneDrive\Study\Operating Systems\สตั้\project4\codes/./lib/utilsC.c:245
			place = place * 10 + rawRecords[i]-'0';
    202e:	67 66 8b 55 e4       	mov    edx,DWORD PTR [ebp-0x1c]
    2033:	66 89 d0             	mov    eax,edx
    2036:	66 c1 e0 02          	shl    eax,0x2
    203a:	66 01 d0             	add    eax,edx
    203d:	66 01 c0             	add    eax,eax
    2040:	66 89 c1             	mov    ecx,eax
    2043:	67 66 8b 55 f0       	mov    edx,DWORD PTR [ebp-0x10]
    2048:	67 66 8b 45 e0       	mov    eax,DWORD PTR [ebp-0x20]
    204d:	66 01 d0             	add    eax,edx
    2050:	67 8a 00             	mov    al,BYTE PTR [eax]
    2053:	66 0f be c0          	movsx  eax,al
    2057:	66 01 c8             	add    eax,ecx
    205a:	66 83 e8 30          	sub    eax,0x30
    205e:	67 66 89 45 e4       	mov    DWORD PTR [ebp-0x1c],eax
D:\OneDrive\Study\Operating Systems\สตั้\project4\codes/./lib/utilsC.c:246
			++i;
    2063:	67 66 ff 45 f0       	inc    DWORD PTR [ebp-0x10]
D:\OneDrive\Study\Operating Systems\สตั้\project4\codes/./lib/utilsC.c:244
		while(rawRecords[i]!='|'){
    2068:	67 66 8b 55 f0       	mov    edx,DWORD PTR [ebp-0x10]
    206d:	67 66 8b 45 e0       	mov    eax,DWORD PTR [ebp-0x20]
    2072:	66 01 d0             	add    eax,edx
    2075:	67 8a 00             	mov    al,BYTE PTR [eax]
    2078:	3c 7c                	cmp    al,0x7c
    207a:	75 b2                	jne    202e <segOfOs+0x2e>
D:\OneDrive\Study\Operating Systems\สตั้\project4\codes/./lib/utilsC.c:248
		}		
		++i;
    207c:	67 66 ff 45 f0       	inc    DWORD PTR [ebp-0x10]
D:\OneDrive\Study\Operating Systems\สตั้\project4\codes/./lib/utilsC.c:250
		//type
		t = rawRecords[i]-'0';
    2081:	67 66 8b 55 f0       	mov    edx,DWORD PTR [ebp-0x10]
    2086:	67 66 8b 45 e0       	mov    eax,DWORD PTR [ebp-0x20]
    208b:	66 01 d0             	add    eax,edx
    208e:	67 8a 00             	mov    al,BYTE PTR [eax]
    2091:	66 0f be c0          	movsx  eax,al
    2095:	66 83 e8 30          	sub    eax,0x30
    2099:	67 66 89 45 dc       	mov    DWORD PTR [ebp-0x24],eax
D:\OneDrive\Study\Operating Systems\สตั้\project4\codes/./lib/utilsC.c:251
		i+=3;
    209e:	67 66 83 45 f0 03    	add    DWORD PTR [ebp-0x10],0x3
D:\OneDrive\Study\Operating Systems\สตั้\project4\codes/./lib/utilsC.c:252
		tmp->size = size;
    20a4:	67 66 8b 45 d8       	mov    eax,DWORD PTR [ebp-0x28]
    20a9:	67 66 8b 55 e8       	mov    edx,DWORD PTR [ebp-0x18]
    20ae:	67 66 89 50 28       	mov    DWORD PTR [eax+0x28],edx
D:\OneDrive\Study\Operating Systems\สตั้\project4\codes/./lib/utilsC.c:253
		tmp->type = t;
    20b3:	67 66 8b 45 d8       	mov    eax,DWORD PTR [ebp-0x28]
    20b8:	67 66 8b 55 dc       	mov    edx,DWORD PTR [ebp-0x24]
    20bd:	67 66 89 50 20       	mov    DWORD PTR [eax+0x20],edx
D:\OneDrive\Study\Operating Systems\สตั้\project4\codes/./lib/utilsC.c:254
		tmp->lmaddress = place;
    20c2:	67 66 8b 45 d8       	mov    eax,DWORD PTR [ebp-0x28]
    20c7:	67 66 8b 55 e4       	mov    edx,DWORD PTR [ebp-0x1c]
    20cc:	67 66 89 50 24       	mov    DWORD PTR [eax+0x24],edx
D:\OneDrive\Study\Operating Systems\สตั้\project4\codes/./lib/utilsC.c:255
		tmp->deleted = 0;
    20d1:	67 66 8b 45 d8       	mov    eax,DWORD PTR [ebp-0x28]
    20d6:	67 66 c7 40 2c 00 00 	mov    DWORD PTR [eax+0x2c],0x0
    20dd:	00 00 
D:\OneDrive\Study\Operating Systems\สตั้\project4\codes/./lib/utilsC.c:256
		strncpy(name, tmp->name, strlen(name));
    20df:	67 66 8d 45 ba       	lea    eax,[ebp-0x46]
    20e4:	67 66 89 04 24       	mov    DWORD PTR [esp],eax
    20e9:	66 e8 99 f1 ff ff    	call   1288 <_strlen>
    20ef:	66 89 c2             	mov    edx,eax
    20f2:	67 66 8b 45 d8       	mov    eax,DWORD PTR [ebp-0x28]
    20f7:	67 66 89 54 24 08    	mov    DWORD PTR [esp+0x8],edx
    20fd:	67 66 89 44 24 04    	mov    DWORD PTR [esp+0x4],eax
    2103:	67 66 8d 45 ba       	lea    eax,[ebp-0x46]
    2108:	67 66 89 04 24       	mov    DWORD PTR [esp],eax
    210d:	66 e8 c6 f5 ff ff    	call   16d9 <_strncpy>
D:\OneDrive\Study\Operating Systems\สตั้\project4\codes/./lib/utilsC.c:257
		hash(name, *tmp);
    2113:	67 66 8b 55 d8       	mov    edx,DWORD PTR [ebp-0x28]
    2118:	67 66 8d 44 24 04    	lea    eax,[esp+0x4]
    211e:	66 89 d3             	mov    ebx,edx
    2121:	66 ba 0d 00 00 00    	mov    edx,0xd
    2127:	66 89 c7             	mov    edi,eax
    212a:	66 89 de             	mov    esi,ebx
    212d:	66 89 d1             	mov    ecx,edx
    2130:	66 f3 a5             	rep movs DWORD PTR es:[di],DWORD PTR ds:[si]
    2133:	67 66 8d 45 ba       	lea    eax,[ebp-0x46]
    2138:	67 66 89 04 24       	mov    DWORD PTR [esp],eax
    213d:	66 e8 82 f6 ff ff    	call   17c5 <_hash>
D:\OneDrive\Study\Operating Systems\สตั้\project4\codes/./lib/utilsC.c:223
	while(rawRecords[i] != '\n')
    2143:	67 66 8b 55 f0       	mov    edx,DWORD PTR [ebp-0x10]
    2148:	67 66 8b 45 e0       	mov    eax,DWORD PTR [ebp-0x20]
    214d:	66 01 d0             	add    eax,edx
    2150:	67 8a 00             	mov    al,BYTE PTR [eax]
    2153:	3c 0a                	cmp    al,0xa
    2155:	0f 85 ea fd          	jne    1f43 <_loadFiles+0x66>
D:\OneDrive\Study\Operating Systems\สตั้\project4\codes/./lib/utilsC.c:259
	}
}
    2159:	90                   	nop
    215a:	66 83 c4 74          	add    esp,0x74
    215e:	66 5b                	pop    ebx
    2160:	66 5e                	pop    esi
    2162:	66 5f                	pop    edi
    2164:	66 5d                	pop    ebp
    2166:	66 c3                	ret    

00002168 <_createProcess>:
createProcess():
D:\OneDrive\Study\Operating Systems\สตั้\project4\codes/./lib/utilsC.c:262

void createProcess(short cs, short ip, short ss, short sp, int id, char * name)
{
    2168:	66 55                	push   ebp
    216a:	66 89 e5             	mov    ebp,esp
    216d:	66 53                	push   ebx
    216f:	66 83 ec 1c          	sub    esp,0x1c
    2173:	67 66 8b 5d 08       	mov    ebx,DWORD PTR [ebp+0x8]
    2178:	67 66 8b 4d 0c       	mov    ecx,DWORD PTR [ebp+0xc]
    217d:	67 66 8b 55 10       	mov    edx,DWORD PTR [ebp+0x10]
    2182:	67 66 8b 45 14       	mov    eax,DWORD PTR [ebp+0x14]
    2187:	67 89 5d f8          	mov    WORD PTR [ebp-0x8],bx
    218b:	67 89 4d f4          	mov    WORD PTR [ebp-0xc],cx
    218f:	67 89 55 f0          	mov    WORD PTR [ebp-0x10],dx
    2193:	67 89 45 ec          	mov    WORD PTR [ebp-0x14],ax
D:\OneDrive\Study\Operating Systems\สตั้\project4\codes/./lib/utilsC.c:263
	processTable[id].id = id;
    2197:	67 66 8b 55 18       	mov    edx,DWORD PTR [ebp+0x18]
    219c:	66 89 d0             	mov    eax,edx
    219f:	66 c1 e0 03          	shl    eax,0x3
    21a3:	66 01 d0             	add    eax,edx
    21a6:	66 01 c0             	add    eax,eax
    21a9:	66 01 d0             	add    eax,edx
    21ac:	66 c1 e0 02          	shl    eax,0x2
    21b0:	67 66 8d 90 64 53 00 	lea    edx,[eax+0x5364]
    21b7:	00 
    21b8:	67 66 8b 45 18       	mov    eax,DWORD PTR [ebp+0x18]
    21bd:	67 66 89 02          	mov    DWORD PTR [edx],eax
D:\OneDrive\Study\Operating Systems\สตั้\project4\codes/./lib/utilsC.c:264
	processTable[id].pcb.cs = cs;
    21c1:	67 66 8b 55 18       	mov    edx,DWORD PTR [ebp+0x18]
    21c6:	66 89 d0             	mov    eax,edx
    21c9:	66 c1 e0 03          	shl    eax,0x3
    21cd:	66 01 d0             	add    eax,edx
    21d0:	66 01 c0             	add    eax,eax
    21d3:	66 01 d0             	add    eax,edx
    21d6:	66 c1 e0 02          	shl    eax,0x2
    21da:	67 66 8d 90 5a 53 00 	lea    edx,[eax+0x535a]
    21e1:	00 
    21e2:	67 66 8b 45 f8       	mov    eax,DWORD PTR [ebp-0x8]
    21e7:	67 89 02             	mov    WORD PTR [edx],ax
D:\OneDrive\Study\Operating Systems\สตั้\project4\codes/./lib/utilsC.c:265
	processTable[id].pcb.ip = ip;
    21ea:	67 66 8b 55 18       	mov    edx,DWORD PTR [ebp+0x18]
    21ef:	66 89 d0             	mov    eax,edx
    21f2:	66 c1 e0 03          	shl    eax,0x3
    21f6:	66 01 d0             	add    eax,edx
    21f9:	66 01 c0             	add    eax,eax
    21fc:	66 01 d0             	add    eax,edx
    21ff:	66 c1 e0 02          	shl    eax,0x2
    2203:	67 66 8d 90 58 53 00 	lea    edx,[eax+0x5358]
    220a:	00 
    220b:	67 66 8b 45 f4       	mov    eax,DWORD PTR [ebp-0xc]
    2210:	67 89 02             	mov    WORD PTR [edx],ax
D:\OneDrive\Study\Operating Systems\สตั้\project4\codes/./lib/utilsC.c:266
	processTable[id].pcb.ss_now = ss;
    2213:	67 66 8b 55 18       	mov    edx,DWORD PTR [ebp+0x18]
    2218:	66 89 d0             	mov    eax,edx
    221b:	66 c1 e0 03          	shl    eax,0x3
    221f:	66 01 d0             	add    eax,edx
    2222:	66 01 c0             	add    eax,eax
    2225:	66 01 d0             	add    eax,edx
    2228:	66 c1 e0 02          	shl    eax,0x2
    222c:	67 66 8d 90 60 53 00 	lea    edx,[eax+0x5360]
    2233:	00 
    2234:	67 66 8b 45 f0       	mov    eax,DWORD PTR [ebp-0x10]
    2239:	67 89 02             	mov    WORD PTR [edx],ax
D:\OneDrive\Study\Operating Systems\สตั้\project4\codes/./lib/utilsC.c:267
	processTable[id].pcb.sp_now = sp;
    223c:	67 66 8b 55 18       	mov    edx,DWORD PTR [ebp+0x18]
    2241:	66 89 d0             	mov    eax,edx
    2244:	66 c1 e0 03          	shl    eax,0x3
    2248:	66 01 d0             	add    eax,edx
    224b:	66 01 c0             	add    eax,eax
    224e:	66 01 d0             	add    eax,edx
    2251:	66 c1 e0 02          	shl    eax,0x2
    2255:	67 66 8d 90 5e 53 00 	lea    edx,[eax+0x535e]
    225c:	00 
    225d:	67 66 8b 45 ec       	mov    eax,DWORD PTR [ebp-0x14]
    2262:	67 89 02             	mov    WORD PTR [edx],ax
D:\OneDrive\Study\Operating Systems\สตั้\project4\codes/./lib/utilsC.c:268
	processTable[id].status = ready;
    2265:	67 66 8b 55 18       	mov    edx,DWORD PTR [ebp+0x18]
    226a:	66 89 d0             	mov    eax,edx
    226d:	66 c1 e0 03          	shl    eax,0x3
    2271:	66 01 d0             	add    eax,edx
    2274:	66 01 c0             	add    eax,eax
    2277:	66 01 d0             	add    eax,edx
    227a:	66 c1 e0 02          	shl    eax,0x2
    227e:	66 05 88 53 00 00    	add    eax,0x5388
    2284:	67 66 c7 00 01 00 00 	mov    DWORD PTR [eax],0x1
    228b:	00 
D:\OneDrive\Study\Operating Systems\สตั้\project4\codes/./lib/utilsC.c:269
	strncpy(name, processTable[id].name, strlen(name));
    228c:	67 66 8b 45 1c       	mov    eax,DWORD PTR [ebp+0x1c]
    2291:	67 66 89 04 24       	mov    DWORD PTR [esp],eax
    2296:	66 e8 ec ef ff ff    	call   1288 <_strlen>
    229c:	66 89 c1             	mov    ecx,eax
    229f:	67 66 8b 55 18       	mov    edx,DWORD PTR [ebp+0x18]
    22a4:	66 89 d0             	mov    eax,edx
    22a7:	66 c1 e0 03          	shl    eax,0x3
    22ab:	66 01 d0             	add    eax,edx
    22ae:	66 01 c0             	add    eax,eax
    22b1:	66 01 d0             	add    eax,edx
    22b4:	66 c1 e0 02          	shl    eax,0x2
    22b8:	66 83 c0 20          	add    eax,0x20
    22bc:	66 05 40 53 00 00    	add    eax,0x5340
    22c2:	66 83 c0 08          	add    eax,0x8
    22c6:	67 66 89 4c 24 08    	mov    DWORD PTR [esp+0x8],ecx
    22cc:	67 66 89 44 24 04    	mov    DWORD PTR [esp+0x4],eax
    22d2:	67 66 8b 45 1c       	mov    eax,DWORD PTR [ebp+0x1c]
    22d7:	67 66 89 04 24       	mov    DWORD PTR [esp],eax
    22dc:	66 e8 f7 f3 ff ff    	call   16d9 <_strncpy>
D:\OneDrive\Study\Operating Systems\สตั้\project4\codes/./lib/utilsC.c:270
}
    22e2:	90                   	nop
    22e3:	66 83 c4 1c          	add    esp,0x1c
    22e7:	66 5b                	pop    ebx
    22e9:	66 5d                	pop    ebp
    22eb:	66 c3                	ret    

000022ed <_initialProcessTable>:
initialProcessTable():
D:\OneDrive\Study\Operating Systems\สตั้\project4\codes/./lib/utilsC.c:273

void initialProcessTable()
{
    22ed:	66 55                	push   ebp
    22ef:	66 89 e5             	mov    ebp,esp
    22f2:	66 83 ec 1c          	sub    esp,0x1c
D:\OneDrive\Study\Operating Systems\สตั้\project4\codes/./lib/utilsC.c:274
	for (int i = 0; i < Len; ++i)
    22f6:	67 66 c7 45 fc 00 00 	mov    DWORD PTR [ebp-0x4],0x0
    22fd:	00 00 
    22ff:	eb 53                	jmp    2354 <_initialProcessTable+0x67>
D:\OneDrive\Study\Operating Systems\สตั้\project4\codes/./lib/utilsC.c:276
	{
		processTable[i].id = -1;
    2301:	67 66 8b 55 fc       	mov    edx,DWORD PTR [ebp-0x4]
    2306:	66 89 d0             	mov    eax,edx
    2309:	66 c1 e0 03          	shl    eax,0x3
    230d:	66 01 d0             	add    eax,edx
    2310:	66 01 c0             	add    eax,eax
    2313:	66 01 d0             	add    eax,edx
    2316:	66 c1 e0 02          	shl    eax,0x2
    231a:	66 05 64 53 00 00    	add    eax,0x5364
    2320:	67 66 c7 00 ff ff ff 	mov    DWORD PTR [eax],0xffffffff
    2327:	ff 
D:\OneDrive\Study\Operating Systems\สตั้\project4\codes/./lib/utilsC.c:277
		processTable[i].status = Origin;
    2328:	67 66 8b 55 fc       	mov    edx,DWORD PTR [ebp-0x4]
    232d:	66 89 d0             	mov    eax,edx
    2330:	66 c1 e0 03          	shl    eax,0x3
    2334:	66 01 d0             	add    eax,edx
    2337:	66 01 c0             	add    eax,eax
    233a:	66 01 d0             	add    eax,edx
    233d:	66 c1 e0 02          	shl    eax,0x2
    2341:	66 05 88 53 00 00    	add    eax,0x5388
    2347:	67 66 c7 00 00 00 00 	mov    DWORD PTR [eax],0x0
    234e:	00 
D:\OneDrive\Study\Operating Systems\สตั้\project4\codes/./lib/utilsC.c:274
	for (int i = 0; i < Len; ++i)
    234f:	67 66 ff 45 fc       	inc    DWORD PTR [ebp-0x4]
    2354:	67 66 83 7d fc 09    	cmp    DWORD PTR [ebp-0x4],0x9
    235a:	7e a5                	jle    2301 <_initialProcessTable+0x14>
D:\OneDrive\Study\Operating Systems\สตั้\project4\codes/./lib/utilsC.c:279
	}
	createProcess(0x2000, 0, 0x2000, 0xffff, 0, "kernel");
    235c:	67 66 c7 44 24 14 9b 	mov    DWORD PTR [esp+0x14],0x309b
    2363:	30 00 00 
    2366:	67 66 c7 44 24 10 00 	mov    DWORD PTR [esp+0x10],0x0
    236d:	00 00 00 
    2370:	67 66 c7 44 24 0c ff 	mov    DWORD PTR [esp+0xc],0xffffffff
    2377:	ff ff ff 
    237a:	67 66 c7 44 24 08 00 	mov    DWORD PTR [esp+0x8],0x2000
    2381:	20 00 00 
    2384:	67 66 c7 44 24 04 00 	mov    DWORD PTR [esp+0x4],0x0
    238b:	00 00 00 
    238e:	67 66 c7 04 24 00 20 	mov    DWORD PTR [esp],0x2000
    2395:	00 00 
    2397:	66 e8 cb fd ff ff    	call   2168 <_createProcess>
D:\OneDrive\Study\Operating Systems\สตั้\project4\codes/./lib/utilsC.c:280
	processTable[0].status = running;
    239d:	66 c7 06 88 53 02 00 	mov    DWORD PTR ds:0x5388,0x2
    23a4:	00 00 
D:\OneDrive\Study\Operating Systems\สตั้\project4\codes/./lib/utilsC.c:281
}
    23a6:	90                   	nop
    23a7:	66 c9                	leave  
    23a9:	66 c3                	ret    

000023ab <_ps>:
ps():
D:\OneDrive\Study\Operating Systems\สตั้\project4\codes/./lib/utilsC.c:284

void ps()
{
    23ab:	66 55                	push   ebp
    23ad:	66 89 e5             	mov    ebp,esp
    23b0:	66 53                	push   ebx
    23b2:	66 83 ec 3c          	sub    esp,0x3c
D:\OneDrive\Study\Operating Systems\สตั้\project4\codes/./lib/utilsC.c:285
	char * head = "Id  ProcessName\n";
    23b6:	67 66 c7 45 f4 a2 30 	mov    DWORD PTR [ebp-0xc],0x30a2
    23bd:	00 00 
D:\OneDrive\Study\Operating Systems\สตั้\project4\codes/./lib/utilsC.c:286
	printSentence(head, line++, 29, strlen(head), purple);
    23bf:	67 66 8b 45 f4       	mov    eax,DWORD PTR [ebp-0xc]
    23c4:	67 66 89 04 24       	mov    DWORD PTR [esp],eax
    23c9:	66 e8 b9 ee ff ff    	call   1288 <_strlen>
    23cf:	66 89 c2             	mov    edx,eax
    23d2:	66 a1 a0 50          	mov    eax,ds:0x50a0
    23d6:	67 66 8d 48 01       	lea    ecx,[eax+0x1]
    23db:	66 89 0e a0 50       	mov    DWORD PTR ds:0x50a0,ecx
    23e0:	67 66 c7 44 24 10 0d 	mov    DWORD PTR [esp+0x10],0xd
    23e7:	00 00 00 
    23ea:	67 66 89 54 24 0c    	mov    DWORD PTR [esp+0xc],edx
    23f0:	67 66 c7 44 24 08 1d 	mov    DWORD PTR [esp+0x8],0x1d
    23f7:	00 00 00 
    23fa:	67 66 89 44 24 04    	mov    DWORD PTR [esp+0x4],eax
    2400:	67 66 8b 45 f4       	mov    eax,DWORD PTR [ebp-0xc]
    2405:	67 66 89 04 24       	mov    DWORD PTR [esp],eax
    240a:	66 e8 81 e3 ff ff    	call   791 <_printSentence>
D:\OneDrive\Study\Operating Systems\สตั้\project4\codes/./lib/utilsC.c:288
	char str[30];
	for (int i = 0; i < Len; ++i)
    2410:	67 66 c7 45 f8 00 00 	mov    DWORD PTR [ebp-0x8],0x0
    2417:	00 00 
    2419:	e9 45 01             	jmp    2561 <_ps+0x1b6>
D:\OneDrive\Study\Operating Systems\สตั้\project4\codes/./lib/utilsC.c:290
	{
		if(processTable[i].id != -1)
    241c:	67 66 8b 55 f8       	mov    edx,DWORD PTR [ebp-0x8]
    2421:	66 89 d0             	mov    eax,edx
    2424:	66 c1 e0 03          	shl    eax,0x3
    2428:	66 01 d0             	add    eax,edx
    242b:	66 01 c0             	add    eax,eax
    242e:	66 01 d0             	add    eax,edx
    2431:	66 c1 e0 02          	shl    eax,0x2
    2435:	66 05 64 53 00 00    	add    eax,0x5364
    243b:	67 66 8b 00          	mov    eax,DWORD PTR [eax]
    243f:	66 83 f8 ff          	cmp    eax,0xffffffff
    2443:	0f 84 15 01          	je     255c <_ps+0x1b1>
D:\OneDrive\Study\Operating Systems\สตั้\project4\codes/./lib/utilsC.c:292
		{
			int2str(processTable[i].id, str);
    2447:	67 66 8b 55 f8       	mov    edx,DWORD PTR [ebp-0x8]
    244c:	66 89 d0             	mov    eax,edx
    244f:	66 c1 e0 03          	shl    eax,0x3
    2453:	66 01 d0             	add    eax,edx
    2456:	66 01 c0             	add    eax,eax
    2459:	66 01 d0             	add    eax,edx
    245c:	66 c1 e0 02          	shl    eax,0x2
    2460:	66 05 64 53 00 00    	add    eax,0x5364
    2466:	67 66 8b 00          	mov    eax,DWORD PTR [eax]
    246a:	67 66 8d 55 d6       	lea    edx,[ebp-0x2a]
    246f:	67 66 89 54 24 04    	mov    DWORD PTR [esp+0x4],edx
    2475:	67 66 89 04 24       	mov    DWORD PTR [esp],eax
    247a:	66 e8 a0 f8 ff ff    	call   1d20 <_int2str>
D:\OneDrive\Study\Operating Systems\สตั้\project4\codes/./lib/utilsC.c:293
			printSentence(str, line, 30, strlen(str), purple);
    2480:	67 66 8d 45 d6       	lea    eax,[ebp-0x2a]
    2485:	67 66 89 04 24       	mov    DWORD PTR [esp],eax
    248a:	66 e8 f8 ed ff ff    	call   1288 <_strlen>
    2490:	66 89 c2             	mov    edx,eax
    2493:	66 a1 a0 50          	mov    eax,ds:0x50a0
    2497:	67 66 c7 44 24 10 0d 	mov    DWORD PTR [esp+0x10],0xd
    249e:	00 00 00 
    24a1:	67 66 89 54 24 0c    	mov    DWORD PTR [esp+0xc],edx
    24a7:	67 66 c7 44 24 08 1e 	mov    DWORD PTR [esp+0x8],0x1e
    24ae:	00 00 00 
    24b1:	67 66 89 44 24 04    	mov    DWORD PTR [esp+0x4],eax
    24b7:	67 66 8d 45 d6       	lea    eax,[ebp-0x2a]
    24bc:	67 66 89 04 24       	mov    DWORD PTR [esp],eax
    24c1:	66 e8 ca e2 ff ff    	call   791 <_printSentence>
D:\OneDrive\Study\Operating Systems\สตั้\project4\codes/./lib/utilsC.c:294
			printSentence(processTable[i].name, line++, 34, strlen(processTable[i].name), purple);
    24c7:	67 66 8b 55 f8       	mov    edx,DWORD PTR [ebp-0x8]
    24cc:	66 89 d0             	mov    eax,edx
    24cf:	66 c1 e0 03          	shl    eax,0x3
    24d3:	66 01 d0             	add    eax,edx
    24d6:	66 01 c0             	add    eax,eax
    24d9:	66 01 d0             	add    eax,edx
    24dc:	66 c1 e0 02          	shl    eax,0x2
    24e0:	66 83 c0 20          	add    eax,0x20
    24e4:	66 05 40 53 00 00    	add    eax,0x5340
    24ea:	66 83 c0 08          	add    eax,0x8
    24ee:	67 66 89 04 24       	mov    DWORD PTR [esp],eax
    24f3:	66 e8 8f ed ff ff    	call   1288 <_strlen>
    24f9:	66 89 c3             	mov    ebx,eax
    24fc:	66 8b 0e a0 50       	mov    ecx,DWORD PTR ds:0x50a0
    2501:	67 66 8d 41 01       	lea    eax,[ecx+0x1]
    2506:	66 a3 a0 50          	mov    ds:0x50a0,eax
    250a:	67 66 8b 55 f8       	mov    edx,DWORD PTR [ebp-0x8]
    250f:	66 89 d0             	mov    eax,edx
    2512:	66 c1 e0 03          	shl    eax,0x3
    2516:	66 01 d0             	add    eax,edx
    2519:	66 01 c0             	add    eax,eax
    251c:	66 01 d0             	add    eax,edx
    251f:	66 c1 e0 02          	shl    eax,0x2
    2523:	66 83 c0 20          	add    eax,0x20
    2527:	66 05 40 53 00 00    	add    eax,0x5340
    252d:	66 83 c0 08          	add    eax,0x8
    2531:	67 66 c7 44 24 10 0d 	mov    DWORD PTR [esp+0x10],0xd
    2538:	00 00 00 
    253b:	67 66 89 5c 24 0c    	mov    DWORD PTR [esp+0xc],ebx
    2541:	67 66 c7 44 24 08 22 	mov    DWORD PTR [esp+0x8],0x22
    2548:	00 00 00 
    254b:	67 66 89 4c 24 04    	mov    DWORD PTR [esp+0x4],ecx
    2551:	67 66 89 04 24       	mov    DWORD PTR [esp],eax
    2556:	66 e8 35 e2 ff ff    	call   791 <_printSentence>
D:\OneDrive\Study\Operating Systems\สตั้\project4\codes/./lib/utilsC.c:288
	for (int i = 0; i < Len; ++i)
    255c:	67 66 ff 45 f8       	inc    DWORD PTR [ebp-0x8]
    2561:	67 66 83 7d f8 09    	cmp    DWORD PTR [ebp-0x8],0x9
    2567:	0f 8e b1 fe          	jle    241c <_ps+0x71>
D:\OneDrive\Study\Operating Systems\สตั้\project4\codes/./lib/utilsC.c:297
		}
	}
}
    256b:	90                   	nop
    256c:	66 83 c4 3c          	add    esp,0x3c
    2570:	66 5b                	pop    ebx
    2572:	66 5d                	pop    ebp
    2574:	66 c3                	ret    

00002576 <_kill>:
kill():
D:\OneDrive\Study\Operating Systems\สตั้\project4\codes/./lib/utilsC.c:300

void kill(int id)
{
    2576:	66 55                	push   ebp
    2578:	66 89 e5             	mov    ebp,esp
D:\OneDrive\Study\Operating Systems\สตั้\project4\codes/./lib/utilsC.c:301
	processTable[id].status = exit;
    257b:	67 66 8b 55 08       	mov    edx,DWORD PTR [ebp+0x8]
    2580:	66 89 d0             	mov    eax,edx
    2583:	66 c1 e0 03          	shl    eax,0x3
    2587:	66 01 d0             	add    eax,edx
    258a:	66 01 c0             	add    eax,eax
    258d:	66 01 d0             	add    eax,edx
    2590:	66 c1 e0 02          	shl    eax,0x2
    2594:	66 05 88 53 00 00    	add    eax,0x5388
    259a:	67 66 c7 00 05 00 00 	mov    DWORD PTR [eax],0x5
    25a1:	00 
D:\OneDrive\Study\Operating Systems\สตั้\project4\codes/./lib/utilsC.c:302
	processTable[id].id = -1;
    25a2:	67 66 8b 55 08       	mov    edx,DWORD PTR [ebp+0x8]
    25a7:	66 89 d0             	mov    eax,edx
    25aa:	66 c1 e0 03          	shl    eax,0x3
    25ae:	66 01 d0             	add    eax,edx
    25b1:	66 01 c0             	add    eax,eax
    25b4:	66 01 d0             	add    eax,edx
    25b7:	66 c1 e0 02          	shl    eax,0x2
    25bb:	66 05 64 53 00 00    	add    eax,0x5364
    25c1:	67 66 c7 00 ff ff ff 	mov    DWORD PTR [eax],0xffffffff
    25c8:	ff 
D:\OneDrive\Study\Operating Systems\สตั้\project4\codes/./lib/utilsC.c:303
}
    25c9:	90                   	nop
    25ca:	66 5d                	pop    ebp
    25cc:	66 c3                	ret    

000025ce <_int34h>:
int34h():
D:\OneDrive\Study\Operating Systems\สตั้\project4\codes/./lib/utilsC.c:306

void int34h()
{
    25ce:	66 55                	push   ebp
    25d0:	66 89 e5             	mov    ebp,esp
    25d3:	66 83 ec 18          	sub    esp,0x18
D:\OneDrive\Study\Operating Systems\สตั้\project4\codes/./lib/utilsC.c:307
	char * s = "Int 34h Xihuai Wang";
    25d7:	67 66 c7 45 fc b3 30 	mov    DWORD PTR [ebp-0x4],0x30b3
    25de:	00 00 
D:\OneDrive\Study\Operating Systems\สตั้\project4\codes/./lib/utilsC.c:308
	printSentence(s, 6, 5, strlen(s), purple);
    25e0:	67 66 8b 45 fc       	mov    eax,DWORD PTR [ebp-0x4]
    25e5:	67 66 89 04 24       	mov    DWORD PTR [esp],eax
    25ea:	66 e8 98 ec ff ff    	call   1288 <_strlen>
    25f0:	67 66 c7 44 24 10 0d 	mov    DWORD PTR [esp+0x10],0xd
    25f7:	00 00 00 
    25fa:	67 66 89 44 24 0c    	mov    DWORD PTR [esp+0xc],eax
    2600:	67 66 c7 44 24 08 05 	mov    DWORD PTR [esp+0x8],0x5
    2607:	00 00 00 
    260a:	67 66 c7 44 24 04 06 	mov    DWORD PTR [esp+0x4],0x6
    2611:	00 00 00 
    2614:	67 66 8b 45 fc       	mov    eax,DWORD PTR [ebp-0x4]
    2619:	67 66 89 04 24       	mov    DWORD PTR [esp],eax
    261e:	66 e8 6d e1 ff ff    	call   791 <_printSentence>
D:\OneDrive\Study\Operating Systems\สตั้\project4\codes/./lib/utilsC.c:309
}
    2624:	90                   	nop
    2625:	66 c9                	leave  
    2627:	66 c3                	ret    

00002629 <_int35h>:
int35h():
D:\OneDrive\Study\Operating Systems\สตั้\project4\codes/./lib/utilsC.c:311
void int35h()
{
    2629:	66 55                	push   ebp
    262b:	66 89 e5             	mov    ebp,esp
    262e:	66 83 ec 18          	sub    esp,0x18
D:\OneDrive\Study\Operating Systems\สตั้\project4\codes/./lib/utilsC.c:312
	char * s = "Int 35h 16337236";
    2632:	67 66 c7 45 fc c7 30 	mov    DWORD PTR [ebp-0x4],0x30c7
    2639:	00 00 
D:\OneDrive\Study\Operating Systems\สตั้\project4\codes/./lib/utilsC.c:313
	printSentence(s, 6, 46, strlen(s), purple);
    263b:	67 66 8b 45 fc       	mov    eax,DWORD PTR [ebp-0x4]
    2640:	67 66 89 04 24       	mov    DWORD PTR [esp],eax
    2645:	66 e8 3d ec ff ff    	call   1288 <_strlen>
    264b:	67 66 c7 44 24 10 0d 	mov    DWORD PTR [esp+0x10],0xd
    2652:	00 00 00 
    2655:	67 66 89 44 24 0c    	mov    DWORD PTR [esp+0xc],eax
    265b:	67 66 c7 44 24 08 2e 	mov    DWORD PTR [esp+0x8],0x2e
    2662:	00 00 00 
    2665:	67 66 c7 44 24 04 06 	mov    DWORD PTR [esp+0x4],0x6
    266c:	00 00 00 
    266f:	67 66 8b 45 fc       	mov    eax,DWORD PTR [ebp-0x4]
    2674:	67 66 89 04 24       	mov    DWORD PTR [esp],eax
    2679:	66 e8 12 e1 ff ff    	call   791 <_printSentence>
D:\OneDrive\Study\Operating Systems\สตั้\project4\codes/./lib/utilsC.c:314
}
    267f:	90                   	nop
    2680:	66 c9                	leave  
    2682:	66 c3                	ret    

00002684 <_int36h>:
int36h():
D:\OneDrive\Study\Operating Systems\สตั้\project4\codes/./lib/utilsC.c:316
void int36h()
{
    2684:	66 55                	push   ebp
    2686:	66 89 e5             	mov    ebp,esp
    2689:	66 83 ec 18          	sub    esp,0x18
D:\OneDrive\Study\Operating Systems\สตั้\project4\codes/./lib/utilsC.c:317
	char * s = "Int 34h Class two";
    268d:	67 66 c7 45 fc d8 30 	mov    DWORD PTR [ebp-0x4],0x30d8
    2694:	00 00 
D:\OneDrive\Study\Operating Systems\สตั้\project4\codes/./lib/utilsC.c:318
	printSentence(s, 18, 5, strlen(s), purple);
    2696:	67 66 8b 45 fc       	mov    eax,DWORD PTR [ebp-0x4]
    269b:	67 66 89 04 24       	mov    DWORD PTR [esp],eax
    26a0:	66 e8 e2 eb ff ff    	call   1288 <_strlen>
    26a6:	67 66 c7 44 24 10 0d 	mov    DWORD PTR [esp+0x10],0xd
    26ad:	00 00 00 
    26b0:	67 66 89 44 24 0c    	mov    DWORD PTR [esp+0xc],eax
    26b6:	67 66 c7 44 24 08 05 	mov    DWORD PTR [esp+0x8],0x5
    26bd:	00 00 00 
    26c0:	67 66 c7 44 24 04 12 	mov    DWORD PTR [esp+0x4],0x12
    26c7:	00 00 00 
    26ca:	67 66 8b 45 fc       	mov    eax,DWORD PTR [ebp-0x4]
    26cf:	67 66 89 04 24       	mov    DWORD PTR [esp],eax
    26d4:	66 e8 b7 e0 ff ff    	call   791 <_printSentence>
D:\OneDrive\Study\Operating Systems\สตั้\project4\codes/./lib/utilsC.c:319
}
    26da:	90                   	nop
    26db:	66 c9                	leave  
    26dd:	66 c3                	ret    

000026df <_int37h>:
int37h():
D:\OneDrive\Study\Operating Systems\สตั้\project4\codes/./lib/utilsC.c:321
void int37h()
{
    26df:	66 55                	push   ebp
    26e1:	66 89 e5             	mov    ebp,esp
    26e4:	66 83 ec 18          	sub    esp,0x18
D:\OneDrive\Study\Operating Systems\สตั้\project4\codes/./lib/utilsC.c:322
	char * s = "Int 34h Grade 2016";
    26e8:	67 66 c7 45 fc ea 30 	mov    DWORD PTR [ebp-0x4],0x30ea
    26ef:	00 00 
D:\OneDrive\Study\Operating Systems\สตั้\project4\codes/./lib/utilsC.c:323
	printSentence(s, 18, 46, strlen(s), purple);
    26f1:	67 66 8b 45 fc       	mov    eax,DWORD PTR [ebp-0x4]
    26f6:	67 66 89 04 24       	mov    DWORD PTR [esp],eax
    26fb:	66 e8 87 eb ff ff    	call   1288 <_strlen>
    2701:	67 66 c7 44 24 10 0d 	mov    DWORD PTR [esp+0x10],0xd
    2708:	00 00 00 
    270b:	67 66 89 44 24 0c    	mov    DWORD PTR [esp+0xc],eax
    2711:	67 66 c7 44 24 08 2e 	mov    DWORD PTR [esp+0x8],0x2e
    2718:	00 00 00 
    271b:	67 66 c7 44 24 04 12 	mov    DWORD PTR [esp+0x4],0x12
    2722:	00 00 00 
    2725:	67 66 8b 45 fc       	mov    eax,DWORD PTR [ebp-0x4]
    272a:	67 66 89 04 24       	mov    DWORD PTR [esp],eax
    272f:	66 e8 5c e0 ff ff    	call   791 <_printSentence>
D:\OneDrive\Study\Operating Systems\สตั้\project4\codes/./lib/utilsC.c:324
}
    2735:	90                   	nop
    2736:	66 c9                	leave  
    2738:	66 c3                	ret    
    273a:	66 90                	xchg   eax,eax

0000273c <_WelcomeSentence>:
    273c:	24 30                	and    al,0x30
	...

00002740 <_prompt>:
    2740:	63 30                	arpl   WORD PTR [bx+si],si
	...
